
main:     file format elf64-littleriscv


Disassembly of section .text:

0000000050201000 <_start>:
    50201000:	10401073          	csrw	sie,zero
    50201004:	14401073          	csrw	sip,zero
    50201008:	6299                	lui	t0,0x6
    5020100a:	1002b073          	csrc	sstatus,t0
    5020100e:	00009197          	auipc	gp,0x9
    50201012:	d4218193          	addi	gp,gp,-702 # 50209d50 <__global_pointer$>
    50201016:	f14022f3          	csrr	t0,mhartid
    5020101a:	00029f63          	bnez	t0,50201038 <clear_bss_done>
    5020101e:	83018693          	addi	a3,gp,-2000 # 50209580 <_edata>
    50201022:	0000d717          	auipc	a4,0xd
    50201026:	ace70713          	addi	a4,a4,-1330 # 5020daf0 <__BSS_END__>
    5020102a:	00e6d763          	bge	a3,a4,50201038 <clear_bss_done>

000000005020102e <clear_bss>:
    5020102e:	0006b023          	sd	zero,0(a3)
    50201032:	06a1                	addi	a3,a3,8
    50201034:	fee6cde3          	blt	a3,a4,5020102e <clear_bss>

0000000050201038 <clear_bss_done>:
    50201038:	f14022f3          	csrr	t0,mhartid
    5020103c:	00029b63          	bnez	t0,50201052 <set_secondary_stack>
    50201040:	00008117          	auipc	sp,0x8
    50201044:	51013103          	ld	sp,1296(sp) # 50209550 <pid0_stack_0>
    50201048:	00008217          	auipc	tp,0x8
    5020104c:	14820213          	addi	tp,tp,328 # 50209190 <pid0_pcb_core0>
    50201050:	a809                	j	50201062 <set_stack_finish>

0000000050201052 <set_secondary_stack>:
    50201052:	00008217          	auipc	tp,0x8
    50201056:	1f620213          	addi	tp,tp,502 # 50209248 <pid0_pcb_core1>
    5020105a:	00008117          	auipc	sp,0x8
    5020105e:	4fe13103          	ld	sp,1278(sp) # 50209558 <pid0_stack_1>

0000000050201062 <set_stack_finish>:
    50201062:	14001073          	csrw	sscratch,zero
    50201066:	0000a517          	auipc	a0,0xa
    5020106a:	64250513          	addi	a0,a0,1602 # 5020b6a8 <riscv_dtb>
    5020106e:	e10c                	sd	a1,0(a0)
    50201070:	319000ef          	jal	ra,50201b88 <main>

0000000050201074 <loop>:
    50201074:	10500073          	wfi
    50201078:	bff5                	j	50201074 <loop>
	...

000000005020107c <get_current_cpu_id>:
    5020107c:	f1402573          	csrr	a0,mhartid
    50201080:	8082                	ret
	...

0000000050201084 <setup_exception>:
    50201084:	00000417          	auipc	s0,0x0
    50201088:	15040413          	addi	s0,s0,336 # 502011d4 <exception_handler_entry>
    5020108c:	10541073          	csrw	stvec,s0
    50201090:	f14022f3          	csrr	t0,mhartid
    50201094:	00029463          	bnez	t0,5020109c <cond>
    50201098:	14401073          	csrw	sip,zero

000000005020109c <cond>:
    5020109c:	22200413          	li	s0,546
    502010a0:	10441073          	csrw	sie,s0
    502010a4:	8082                	ret
	...

00000000502010a8 <enable_preempt>:
    502010a8:	f14022f3          	csrr	t0,mhartid
    502010ac:	00029763          	bnez	t0,502010ba <enable_core1>
    502010b0:	0000a317          	auipc	t1,0xa
    502010b4:	4e833303          	ld	t1,1256(t1) # 5020b598 <current_running_core0>
    502010b8:	a029                	j	502010c2 <enable_pre>

00000000502010ba <enable_core1>:
    502010ba:	0000a317          	auipc	t1,0xa
    502010be:	4d633303          	ld	t1,1238(t1) # 5020b590 <current_running_core1>

00000000502010c2 <enable_pre>:
    502010c2:	01033283          	ld	t0,16(t1)
    502010c6:	00028863          	beqz	t0,502010d6 <do_enable>
    502010ca:	12fd                	addi	t0,t0,-1
    502010cc:	00533823          	sd	t0,16(t1)
    502010d0:	00028363          	beqz	t0,502010d6 <do_enable>
    502010d4:	8082                	ret

00000000502010d6 <do_enable>:
    502010d6:	fff04293          	not	t0,zero
    502010da:	1042a073          	csrs	sie,t0
    502010de:	8082                	ret

00000000502010e0 <disable_preempt>:
    502010e0:	10401073          	csrw	sie,zero
    502010e4:	f14022f3          	csrr	t0,mhartid
    502010e8:	00029763          	bnez	t0,502010f6 <disable_core1>
    502010ec:	0000a317          	auipc	t1,0xa
    502010f0:	4ac33303          	ld	t1,1196(t1) # 5020b598 <current_running_core0>
    502010f4:	a029                	j	502010fe <disable_pre>

00000000502010f6 <disable_core1>:
    502010f6:	0000a317          	auipc	t1,0xa
    502010fa:	49a33303          	ld	t1,1178(t1) # 5020b590 <current_running_core1>

00000000502010fe <disable_pre>:
    502010fe:	01033283          	ld	t0,16(t1)
    50201102:	0285                	addi	t0,t0,1
    50201104:	00533823          	sd	t0,16(t1)
    50201108:	8082                	ret
    5020110a:	0001                	nop

000000005020110c <enable_interrupt>:
    5020110c:	4289                	li	t0,2
    5020110e:	1002a073          	csrs	sstatus,t0
    50201112:	8082                	ret

0000000050201114 <disable_interrupt>:
    50201114:	4289                	li	t0,2
    50201116:	1002b073          	csrc	sstatus,t0
    5020111a:	8082                	ret

000000005020111c <switch_to>:
    5020111c:	00053283          	ld	t0,0(a0)
    50201120:	0022b423          	sd	sp,8(t0) # 6008 <_start-0x501faff8>
    50201124:	00053103          	ld	sp,0(a0)
    50201128:	e006                	sd	ra,0(sp)
    5020112a:	e822                	sd	s0,16(sp)
    5020112c:	ec26                	sd	s1,24(sp)
    5020112e:	f04a                	sd	s2,32(sp)
    50201130:	f44e                	sd	s3,40(sp)
    50201132:	f852                	sd	s4,48(sp)
    50201134:	fc56                	sd	s5,56(sp)
    50201136:	e0da                	sd	s6,64(sp)
    50201138:	e4de                	sd	s7,72(sp)
    5020113a:	e8e2                	sd	s8,80(sp)
    5020113c:	ece6                	sd	s9,88(sp)
    5020113e:	f0ea                	sd	s10,96(sp)
    50201140:	f4ee                	sd	s11,104(sp)
    50201142:	0005b103          	ld	sp,0(a1)
    50201146:	6082                	ld	ra,0(sp)
    50201148:	6442                	ld	s0,16(sp)
    5020114a:	64e2                	ld	s1,24(sp)
    5020114c:	7902                	ld	s2,32(sp)
    5020114e:	79a2                	ld	s3,40(sp)
    50201150:	7a42                	ld	s4,48(sp)
    50201152:	7ae2                	ld	s5,56(sp)
    50201154:	6b06                	ld	s6,64(sp)
    50201156:	6ba6                	ld	s7,72(sp)
    50201158:	6c46                	ld	s8,80(sp)
    5020115a:	6ce6                	ld	s9,88(sp)
    5020115c:	7d06                	ld	s10,96(sp)
    5020115e:	7da6                	ld	s11,104(sp)
    50201160:	6122                	ld	sp,8(sp)
    50201162:	822e                	mv	tp,a1
    50201164:	8082                	ret
    50201166:	0001                	nop

0000000050201168 <ret_from_exception>:
    50201168:	0000a517          	auipc	a0,0xa
    5020116c:	53850513          	addi	a0,a0,1336 # 5020b6a0 <kernel_lock>
    50201170:	75a010ef          	jal	ra,502028ca <spin_lock_release>
    50201174:	00023103          	ld	sp,0(tp) # 0 <_start-0x50201000>
    50201178:	6165                	addi	sp,sp,112
    5020117a:	6412                	ld	s0,256(sp)
    5020117c:	64b2                	ld	s1,264(sp)
    5020117e:	6952                	ld	s2,272(sp)
    50201180:	69f2                	ld	s3,280(sp)
    50201182:	10041073          	csrw	sstatus,s0
    50201186:	14149073          	csrw	sepc,s1
    5020118a:	14391073          	csrw	stval,s2
    5020118e:	14299073          	csrw	scause,s3
    50201192:	60a2                	ld	ra,8(sp)
    50201194:	61e2                	ld	gp,24(sp)
    50201196:	7202                	ld	tp,32(sp)
    50201198:	72a2                	ld	t0,40(sp)
    5020119a:	7342                	ld	t1,48(sp)
    5020119c:	73e2                	ld	t2,56(sp)
    5020119e:	6406                	ld	s0,64(sp)
    502011a0:	64a6                	ld	s1,72(sp)
    502011a2:	6546                	ld	a0,80(sp)
    502011a4:	65e6                	ld	a1,88(sp)
    502011a6:	7606                	ld	a2,96(sp)
    502011a8:	76a6                	ld	a3,104(sp)
    502011aa:	7746                	ld	a4,112(sp)
    502011ac:	77e6                	ld	a5,120(sp)
    502011ae:	680a                	ld	a6,128(sp)
    502011b0:	68aa                	ld	a7,136(sp)
    502011b2:	694a                	ld	s2,144(sp)
    502011b4:	69ea                	ld	s3,152(sp)
    502011b6:	7a0a                	ld	s4,160(sp)
    502011b8:	7aaa                	ld	s5,168(sp)
    502011ba:	7b4a                	ld	s6,176(sp)
    502011bc:	7bea                	ld	s7,184(sp)
    502011be:	6c0e                	ld	s8,192(sp)
    502011c0:	6cae                	ld	s9,200(sp)
    502011c2:	6d4e                	ld	s10,208(sp)
    502011c4:	6dee                	ld	s11,216(sp)
    502011c6:	7e0e                	ld	t3,224(sp)
    502011c8:	7eae                	ld	t4,232(sp)
    502011ca:	7f4e                	ld	t5,240(sp)
    502011cc:	7fee                	ld	t6,248(sp)
    502011ce:	6142                	ld	sp,16(sp)
    502011d0:	10200073          	sret

00000000502011d4 <exception_handler_entry>:
    502011d4:	00223423          	sd	sp,8(tp) # 8 <_start-0x50200ff8>
    502011d8:	00023103          	ld	sp,0(tp) # 0 <_start-0x50201000>
    502011dc:	6165                	addi	sp,sp,112
    502011de:	e406                	sd	ra,8(sp)
    502011e0:	ec0e                	sd	gp,24(sp)
    502011e2:	f012                	sd	tp,32(sp)
    502011e4:	f416                	sd	t0,40(sp)
    502011e6:	f81a                	sd	t1,48(sp)
    502011e8:	fc1e                	sd	t2,56(sp)
    502011ea:	e0a2                	sd	s0,64(sp)
    502011ec:	e4a6                	sd	s1,72(sp)
    502011ee:	e8aa                	sd	a0,80(sp)
    502011f0:	ecae                	sd	a1,88(sp)
    502011f2:	f0b2                	sd	a2,96(sp)
    502011f4:	f4b6                	sd	a3,104(sp)
    502011f6:	f8ba                	sd	a4,112(sp)
    502011f8:	fcbe                	sd	a5,120(sp)
    502011fa:	e142                	sd	a6,128(sp)
    502011fc:	e546                	sd	a7,136(sp)
    502011fe:	e94a                	sd	s2,144(sp)
    50201200:	ed4e                	sd	s3,152(sp)
    50201202:	f152                	sd	s4,160(sp)
    50201204:	f556                	sd	s5,168(sp)
    50201206:	f95a                	sd	s6,176(sp)
    50201208:	fd5e                	sd	s7,184(sp)
    5020120a:	e1e2                	sd	s8,192(sp)
    5020120c:	e5e6                	sd	s9,200(sp)
    5020120e:	e9ea                	sd	s10,208(sp)
    50201210:	edee                	sd	s11,216(sp)
    50201212:	f1f2                	sd	t3,224(sp)
    50201214:	f5f6                	sd	t4,232(sp)
    50201216:	f9fa                	sd	t5,240(sp)
    50201218:	fdfe                	sd	t6,248(sp)
    5020121a:	00823403          	ld	s0,8(tp) # 8 <_start-0x50200ff8>
    5020121e:	e822                	sd	s0,16(sp)
    50201220:	000462b7          	lui	t0,0x46
    50201224:	1002b4f3          	csrrc	s1,sstatus,t0
    50201228:	e226                	sd	s1,256(sp)
    5020122a:	14302473          	csrr	s0,stval
    5020122e:	141024f3          	csrr	s1,sepc
    50201232:	14202973          	csrr	s2,scause
    50201236:	ea22                	sd	s0,272(sp)
    50201238:	e626                	sd	s1,264(sp)
    5020123a:	ee4a                	sd	s2,280(sp)
    5020123c:	7159                	addi	sp,sp,-112
    5020123e:	0000a517          	auipc	a0,0xa
    50201242:	46250513          	addi	a0,a0,1122 # 5020b6a0 <kernel_lock>
    50201246:	658010ef          	jal	ra,5020289e <spin_lock_acquire>
    5020124a:	14001073          	csrw	sscratch,zero
    5020124e:	00009197          	auipc	gp,0x9
    50201252:	b0218193          	addi	gp,gp,-1278 # 50209d50 <__global_pointer$>
    50201256:	00023503          	ld	a0,0(tp) # 0 <_start-0x50201000>
    5020125a:	07050513          	addi	a0,a0,112
    5020125e:	143025f3          	csrr	a1,stval
    50201262:	14202673          	csrr	a2,scause
    50201266:	2a5000ef          	jal	ra,50201d0a <interrupt_helper>
    5020126a:	00000097          	auipc	ra,0x0
    5020126e:	efe08093          	addi	ra,ra,-258 # 50201168 <ret_from_exception>
    50201272:	8082                	ret
	...

0000000050201276 <sbi_console_putstr>:
    50201276:	1101                	addi	sp,sp,-32
    50201278:	ec22                	sd	s0,24(sp)
    5020127a:	1000                	addi	s0,sp,32
    5020127c:	fea43423          	sd	a0,-24(s0)
    50201280:	fe843783          	ld	a5,-24(s0)
    50201284:	853e                	mv	a0,a5
    50201286:	4581                	li	a1,0
    50201288:	4601                	li	a2,0
    5020128a:	48a5                	li	a7,9
    5020128c:	00000073          	ecall
    50201290:	0001                	nop
    50201292:	6462                	ld	s0,24(sp)
    50201294:	6105                	addi	sp,sp,32
    50201296:	8082                	ret

0000000050201298 <sbi_console_putchar>:
    50201298:	1101                	addi	sp,sp,-32
    5020129a:	ec22                	sd	s0,24(sp)
    5020129c:	1000                	addi	s0,sp,32
    5020129e:	87aa                	mv	a5,a0
    502012a0:	fef42623          	sw	a5,-20(s0)
    502012a4:	fec42783          	lw	a5,-20(s0)
    502012a8:	853e                	mv	a0,a5
    502012aa:	4581                	li	a1,0
    502012ac:	4601                	li	a2,0
    502012ae:	4885                	li	a7,1
    502012b0:	00000073          	ecall
    502012b4:	0001                	nop
    502012b6:	6462                	ld	s0,24(sp)
    502012b8:	6105                	addi	sp,sp,32
    502012ba:	8082                	ret

00000000502012bc <port_write_ch>:
    502012bc:	1101                	addi	sp,sp,-32
    502012be:	ec06                	sd	ra,24(sp)
    502012c0:	e822                	sd	s0,16(sp)
    502012c2:	1000                	addi	s0,sp,32
    502012c4:	87aa                	mv	a5,a0
    502012c6:	fef407a3          	sb	a5,-17(s0)
    502012ca:	fef44783          	lbu	a5,-17(s0)
    502012ce:	2781                	sext.w	a5,a5
    502012d0:	853e                	mv	a0,a5
    502012d2:	fc7ff0ef          	jal	ra,50201298 <sbi_console_putchar>
    502012d6:	0001                	nop
    502012d8:	60e2                	ld	ra,24(sp)
    502012da:	6442                	ld	s0,16(sp)
    502012dc:	6105                	addi	sp,sp,32
    502012de:	8082                	ret

00000000502012e0 <port_write>:
    502012e0:	1101                	addi	sp,sp,-32
    502012e2:	ec06                	sd	ra,24(sp)
    502012e4:	e822                	sd	s0,16(sp)
    502012e6:	1000                	addi	s0,sp,32
    502012e8:	fea43423          	sd	a0,-24(s0)
    502012ec:	fe843503          	ld	a0,-24(s0)
    502012f0:	f87ff0ef          	jal	ra,50201276 <sbi_console_putstr>
    502012f4:	0001                	nop
    502012f6:	60e2                	ld	ra,24(sp)
    502012f8:	6442                	ld	s0,16(sp)
    502012fa:	6105                	addi	sp,sp,32
    502012fc:	8082                	ret

00000000502012fe <init_list_head>:
    502012fe:	1101                	addi	sp,sp,-32
    50201300:	ec22                	sd	s0,24(sp)
    50201302:	1000                	addi	s0,sp,32
    50201304:	fea43423          	sd	a0,-24(s0)
    50201308:	fe843783          	ld	a5,-24(s0)
    5020130c:	fe843703          	ld	a4,-24(s0)
    50201310:	e398                	sd	a4,0(a5)
    50201312:	fe843783          	ld	a5,-24(s0)
    50201316:	fe843703          	ld	a4,-24(s0)
    5020131a:	e798                	sd	a4,8(a5)
    5020131c:	0001                	nop
    5020131e:	6462                	ld	s0,24(sp)
    50201320:	6105                	addi	sp,sp,32
    50201322:	8082                	ret

0000000050201324 <sbi_set_timer>:
    50201324:	1101                	addi	sp,sp,-32
    50201326:	ec22                	sd	s0,24(sp)
    50201328:	1000                	addi	s0,sp,32
    5020132a:	fea43423          	sd	a0,-24(s0)
    5020132e:	fe843503          	ld	a0,-24(s0)
    50201332:	4581                	li	a1,0
    50201334:	4601                	li	a2,0
    50201336:	4881                	li	a7,0
    50201338:	00000073          	ecall
    5020133c:	0001                	nop
    5020133e:	6462                	ld	s0,24(sp)
    50201340:	6105                	addi	sp,sp,32
    50201342:	8082                	ret

0000000050201344 <sbi_send_ipi>:
    50201344:	1101                	addi	sp,sp,-32
    50201346:	ec22                	sd	s0,24(sp)
    50201348:	1000                	addi	s0,sp,32
    5020134a:	fea43423          	sd	a0,-24(s0)
    5020134e:	fe843783          	ld	a5,-24(s0)
    50201352:	853e                	mv	a0,a5
    50201354:	4581                	li	a1,0
    50201356:	4601                	li	a2,0
    50201358:	4891                	li	a7,4
    5020135a:	00000073          	ecall
    5020135e:	0001                	nop
    50201360:	6462                	ld	s0,24(sp)
    50201362:	6105                	addi	sp,sp,32
    50201364:	8082                	ret

0000000050201366 <sbi_read_fdt>:
    50201366:	1101                	addi	sp,sp,-32
    50201368:	ec22                	sd	s0,24(sp)
    5020136a:	1000                	addi	s0,sp,32
    5020136c:	87aa                	mv	a5,a0
    5020136e:	fef42623          	sw	a5,-20(s0)
    50201372:	fec42783          	lw	a5,-20(s0)
    50201376:	853e                	mv	a0,a5
    50201378:	4581                	li	a1,0
    5020137a:	4601                	li	a2,0
    5020137c:	48b1                	li	a7,12
    5020137e:	00000073          	ecall
    50201382:	87aa                	mv	a5,a0
    50201384:	2781                	sext.w	a5,a5
    50201386:	853e                	mv	a0,a5
    50201388:	6462                	ld	s0,24(sp)
    5020138a:	6105                	addi	sp,sp,32
    5020138c:	8082                	ret

000000005020138e <init_pcb_stack>:
    5020138e:	711d                	addi	sp,sp,-96
    50201390:	eca2                	sd	s0,88(sp)
    50201392:	1080                	addi	s0,sp,96
    50201394:	fca43423          	sd	a0,-56(s0)
    50201398:	fcb43023          	sd	a1,-64(s0)
    5020139c:	fac43c23          	sd	a2,-72(s0)
    502013a0:	fad43823          	sd	a3,-80(s0)
    502013a4:	fae43423          	sd	a4,-88(s0)
    502013a8:	fc843783          	ld	a5,-56(s0)
    502013ac:	ee078793          	addi	a5,a5,-288
    502013b0:	fef43023          	sd	a5,-32(s0)
    502013b4:	fe043423          	sd	zero,-24(s0)
    502013b8:	a831                	j	502013d4 <init_pcb_stack+0x46>
    502013ba:	fe043703          	ld	a4,-32(s0)
    502013be:	fe843783          	ld	a5,-24(s0)
    502013c2:	078e                	slli	a5,a5,0x3
    502013c4:	97ba                	add	a5,a5,a4
    502013c6:	0007b023          	sd	zero,0(a5)
    502013ca:	fe843783          	ld	a5,-24(s0)
    502013ce:	0785                	addi	a5,a5,1
    502013d0:	fef43423          	sd	a5,-24(s0)
    502013d4:	fe843703          	ld	a4,-24(s0)
    502013d8:	47fd                	li	a5,31
    502013da:	fee7f0e3          	bgeu	a5,a4,502013ba <init_pcb_stack+0x2c>
    502013de:	fb043783          	ld	a5,-80(s0)
    502013e2:	57dc                	lw	a5,44(a5)
    502013e4:	873e                	mv	a4,a5
    502013e6:	4789                	li	a5,2
    502013e8:	00f70963          	beq	a4,a5,502013fa <init_pcb_stack+0x6c>
    502013ec:	fb043783          	ld	a5,-80(s0)
    502013f0:	57dc                	lw	a5,44(a5)
    502013f2:	873e                	mv	a4,a5
    502013f4:	478d                	li	a5,3
    502013f6:	04f71363          	bne	a4,a5,5020143c <init_pcb_stack+0xae>
    502013fa:	fe043783          	ld	a5,-32(s0)
    502013fe:	fc043703          	ld	a4,-64(s0)
    50201402:	eb98                	sd	a4,16(a5)
    50201404:	00018713          	mv	a4,gp
    50201408:	fe043783          	ld	a5,-32(s0)
    5020140c:	ef98                	sd	a4,24(a5)
    5020140e:	fb043703          	ld	a4,-80(s0)
    50201412:	fe043783          	ld	a5,-32(s0)
    50201416:	f398                	sd	a4,32(a5)
    50201418:	fe043783          	ld	a5,-32(s0)
    5020141c:	fb843703          	ld	a4,-72(s0)
    50201420:	10e7b423          	sd	a4,264(a5)
    50201424:	fe043783          	ld	a5,-32(s0)
    50201428:	1007b023          	sd	zero,256(a5)
    5020142c:	fe043783          	ld	a5,-32(s0)
    50201430:	1007bc23          	sd	zero,280(a5)
    50201434:	fe043783          	ld	a5,-32(s0)
    50201438:	1007b823          	sd	zero,272(a5)
    5020143c:	fa843703          	ld	a4,-88(s0)
    50201440:	fe043783          	ld	a5,-32(s0)
    50201444:	ebb8                	sd	a4,80(a5)
    50201446:	fc843783          	ld	a5,-56(s0)
    5020144a:	e7078713          	addi	a4,a5,-400
    5020144e:	fb043783          	ld	a5,-80(s0)
    50201452:	e398                	sd	a4,0(a5)
    50201454:	fb043783          	ld	a5,-80(s0)
    50201458:	639c                	ld	a5,0(a5)
    5020145a:	fcf43c23          	sd	a5,-40(s0)
    5020145e:	fb043783          	ld	a5,-80(s0)
    50201462:	fc043703          	ld	a4,-64(s0)
    50201466:	e798                	sd	a4,8(a5)
    50201468:	fb043783          	ld	a5,-80(s0)
    5020146c:	57dc                	lw	a5,44(a5)
    5020146e:	873e                	mv	a4,a5
    50201470:	4789                	li	a5,2
    50201472:	00f70963          	beq	a4,a5,50201484 <init_pcb_stack+0xf6>
    50201476:	fb043783          	ld	a5,-80(s0)
    5020147a:	57dc                	lw	a5,44(a5)
    5020147c:	873e                	mv	a4,a5
    5020147e:	478d                	li	a5,3
    50201480:	00f71a63          	bne	a4,a5,50201494 <init_pcb_stack+0x106>
    50201484:	00000717          	auipc	a4,0x0
    50201488:	ce470713          	addi	a4,a4,-796 # 50201168 <ret_from_exception>
    5020148c:	fd843783          	ld	a5,-40(s0)
    50201490:	e398                	sd	a4,0(a5)
    50201492:	a031                	j	5020149e <init_pcb_stack+0x110>
    50201494:	fd843783          	ld	a5,-40(s0)
    50201498:	fb843703          	ld	a4,-72(s0)
    5020149c:	e398                	sd	a4,0(a5)
    5020149e:	fd843783          	ld	a5,-40(s0)
    502014a2:	fc043703          	ld	a4,-64(s0)
    502014a6:	e798                	sd	a4,8(a5)
    502014a8:	4789                	li	a5,2
    502014aa:	fef43423          	sd	a5,-24(s0)
    502014ae:	a831                	j	502014ca <init_pcb_stack+0x13c>
    502014b0:	fd843703          	ld	a4,-40(s0)
    502014b4:	fe843783          	ld	a5,-24(s0)
    502014b8:	078e                	slli	a5,a5,0x3
    502014ba:	97ba                	add	a5,a5,a4
    502014bc:	0007b023          	sd	zero,0(a5)
    502014c0:	fe843783          	ld	a5,-24(s0)
    502014c4:	0785                	addi	a5,a5,1
    502014c6:	fef43423          	sd	a5,-24(s0)
    502014ca:	fe843703          	ld	a4,-24(s0)
    502014ce:	47b5                	li	a5,13
    502014d0:	fee7f0e3          	bgeu	a5,a4,502014b0 <init_pcb_stack+0x122>
    502014d4:	0001                	nop
    502014d6:	0001                	nop
    502014d8:	6466                	ld	s0,88(sp)
    502014da:	6125                	addi	sp,sp,96
    502014dc:	8082                	ret

00000000502014de <init_shell>:
    502014de:	1101                	addi	sp,sp,-32
    502014e0:	ec06                	sd	ra,24(sp)
    502014e2:	e822                	sd	s0,16(sp)
    502014e4:	1000                	addi	s0,sp,32
    502014e6:	b97ff0ef          	jal	ra,5020107c <get_current_cpu_id>
    502014ea:	87aa                	mv	a5,a0
    502014ec:	e791                	bnez	a5,502014f8 <init_shell+0x1a>
    502014ee:	0000a797          	auipc	a5,0xa
    502014f2:	0aa78793          	addi	a5,a5,170 # 5020b598 <current_running_core0>
    502014f6:	a029                	j	50201500 <init_shell+0x22>
    502014f8:	0000a797          	auipc	a5,0xa
    502014fc:	09878793          	addi	a5,a5,152 # 5020b590 <current_running_core1>
    50201500:	0000c717          	auipc	a4,0xc
    50201504:	85070713          	addi	a4,a4,-1968 # 5020cd50 <current_running>
    50201508:	e31c                	sd	a5,0(a4)
    5020150a:	00008517          	auipc	a0,0x8
    5020150e:	df650513          	addi	a0,a0,-522 # 50209300 <ready_queue>
    50201512:	dedff0ef          	jal	ra,502012fe <init_list_head>
    50201516:	00008517          	auipc	a0,0x8
    5020151a:	e0a50513          	addi	a0,a0,-502 # 50209320 <sleep_queue>
    5020151e:	de1ff0ef          	jal	ra,502012fe <init_list_head>
    50201522:	0000c797          	auipc	a5,0xc
    50201526:	83678793          	addi	a5,a5,-1994 # 5020cd58 <pcb>
    5020152a:	4705                	li	a4,1
    5020152c:	d798                	sw	a4,40(a5)
    5020152e:	0000c797          	auipc	a5,0xc
    50201532:	82a78793          	addi	a5,a5,-2006 # 5020cd58 <pcb>
    50201536:	4709                	li	a4,2
    50201538:	db98                	sw	a4,48(a5)
    5020153a:	0000c797          	auipc	a5,0xc
    5020153e:	81e78793          	addi	a5,a5,-2018 # 5020cd58 <pcb>
    50201542:	4709                	li	a4,2
    50201544:	d7d8                	sw	a4,44(a5)
    50201546:	fe043423          	sd	zero,-24(s0)
    5020154a:	0000a797          	auipc	a5,0xa
    5020154e:	05678793          	addi	a5,a5,86 # 5020b5a0 <kernel_stack>
    50201552:	6398                	ld	a4,0(a5)
    50201554:	0000c797          	auipc	a5,0xc
    50201558:	80478793          	addi	a5,a5,-2044 # 5020cd58 <pcb>
    5020155c:	e398                	sd	a4,0(a5)
    5020155e:	0000a797          	auipc	a5,0xa
    50201562:	faa78793          	addi	a5,a5,-86 # 5020b508 <user_stack>
    50201566:	6398                	ld	a4,0(a5)
    50201568:	0000b797          	auipc	a5,0xb
    5020156c:	7f078793          	addi	a5,a5,2032 # 5020cd58 <pcb>
    50201570:	e798                	sd	a4,8(a5)
    50201572:	0000b797          	auipc	a5,0xb
    50201576:	7e678793          	addi	a5,a5,2022 # 5020cd58 <pcb>
    5020157a:	470d                	li	a4,3
    5020157c:	0ae78823          	sb	a4,176(a5)
    50201580:	0000b797          	auipc	a5,0xb
    50201584:	7d878793          	addi	a5,a5,2008 # 5020cd58 <pcb>
    50201588:	6388                	ld	a0,0(a5)
    5020158a:	0000b797          	auipc	a5,0xb
    5020158e:	7ce78793          	addi	a5,a5,1998 # 5020cd58 <pcb>
    50201592:	679c                	ld	a5,8(a5)
    50201594:	00005617          	auipc	a2,0x5
    50201598:	5b860613          	addi	a2,a2,1464 # 50206b4c <test_shell>
    5020159c:	fe843703          	ld	a4,-24(s0)
    502015a0:	0000b697          	auipc	a3,0xb
    502015a4:	7b868693          	addi	a3,a3,1976 # 5020cd58 <pcb>
    502015a8:	85be                	mv	a1,a5
    502015aa:	de5ff0ef          	jal	ra,5020138e <init_pcb_stack>
    502015ae:	0000b597          	auipc	a1,0xb
    502015b2:	7aa58593          	addi	a1,a1,1962 # 5020cd58 <pcb>
    502015b6:	00008517          	auipc	a0,0x8
    502015ba:	d4a50513          	addi	a0,a0,-694 # 50209300 <ready_queue>
    502015be:	495020ef          	jal	ra,50204252 <enqueue>
    502015c2:	0001                	nop
    502015c4:	60e2                	ld	ra,24(sp)
    502015c6:	6442                	ld	s0,16(sp)
    502015c8:	6105                	addi	sp,sp,32
    502015ca:	8082                	ret

00000000502015cc <findpid>:
    502015cc:	1101                	addi	sp,sp,-32
    502015ce:	ec22                	sd	s0,24(sp)
    502015d0:	1000                	addi	s0,sp,32
    502015d2:	4785                	li	a5,1
    502015d4:	fef42623          	sw	a5,-20(s0)
    502015d8:	a035                	j	50201604 <findpid+0x38>
    502015da:	0000b717          	auipc	a4,0xb
    502015de:	77e70713          	addi	a4,a4,1918 # 5020cd58 <pcb>
    502015e2:	fec42683          	lw	a3,-20(s0)
    502015e6:	0b800793          	li	a5,184
    502015ea:	02f687b3          	mul	a5,a3,a5
    502015ee:	97ba                	add	a5,a5,a4
    502015f0:	579c                	lw	a5,40(a5)
    502015f2:	e781                	bnez	a5,502015fa <findpid+0x2e>
    502015f4:	fec42783          	lw	a5,-20(s0)
    502015f8:	a831                	j	50201614 <findpid+0x48>
    502015fa:	fec42783          	lw	a5,-20(s0)
    502015fe:	2785                	addiw	a5,a5,1
    50201600:	fef42623          	sw	a5,-20(s0)
    50201604:	fec42783          	lw	a5,-20(s0)
    50201608:	0007871b          	sext.w	a4,a5
    5020160c:	47bd                	li	a5,15
    5020160e:	fce7d6e3          	bge	a5,a4,502015da <findpid+0xe>
    50201612:	57fd                	li	a5,-1
    50201614:	853e                	mv	a0,a5
    50201616:	6462                	ld	s0,24(sp)
    50201618:	6105                	addi	sp,sp,32
    5020161a:	8082                	ret

000000005020161c <init_pcb>:
    5020161c:	7139                	addi	sp,sp,-64
    5020161e:	fc06                	sd	ra,56(sp)
    50201620:	f822                	sd	s0,48(sp)
    50201622:	0080                	addi	s0,sp,64
    50201624:	fca43c23          	sd	a0,-40(s0)
    50201628:	fcb43823          	sd	a1,-48(s0)
    5020162c:	87b2                	mv	a5,a2
    5020162e:	8736                	mv	a4,a3
    50201630:	fcf42623          	sw	a5,-52(s0)
    50201634:	87ba                	mv	a5,a4
    50201636:	fcf405a3          	sb	a5,-53(s0)
    5020163a:	a43ff0ef          	jal	ra,5020107c <get_current_cpu_id>
    5020163e:	87aa                	mv	a5,a0
    50201640:	e791                	bnez	a5,5020164c <init_pcb+0x30>
    50201642:	0000a797          	auipc	a5,0xa
    50201646:	f5678793          	addi	a5,a5,-170 # 5020b598 <current_running_core0>
    5020164a:	a029                	j	50201654 <init_pcb+0x38>
    5020164c:	0000a797          	auipc	a5,0xa
    50201650:	f4478793          	addi	a5,a5,-188 # 5020b590 <current_running_core1>
    50201654:	0000b717          	auipc	a4,0xb
    50201658:	6fc70713          	addi	a4,a4,1788 # 5020cd50 <current_running>
    5020165c:	e31c                	sd	a5,0(a4)
    5020165e:	f6fff0ef          	jal	ra,502015cc <findpid>
    50201662:	87aa                	mv	a5,a0
    50201664:	fef42623          	sw	a5,-20(s0)
    50201668:	fec42783          	lw	a5,-20(s0)
    5020166c:	2781                	sext.w	a5,a5
    5020166e:	00f04963          	bgtz	a5,50201680 <init_pcb+0x64>
    50201672:	00007517          	auipc	a0,0x7
    50201676:	9ee50513          	addi	a0,a0,-1554 # 50208060 <barrier_task+0xaa>
    5020167a:	3eb030ef          	jal	ra,50205264 <printk>
    5020167e:	a001                	j	5020167e <init_pcb+0x62>
    50201680:	0000b717          	auipc	a4,0xb
    50201684:	6d870713          	addi	a4,a4,1752 # 5020cd58 <pcb>
    50201688:	fec42683          	lw	a3,-20(s0)
    5020168c:	0b800793          	li	a5,184
    50201690:	02f687b3          	mul	a5,a3,a5
    50201694:	97ba                	add	a5,a5,a4
    50201696:	4709                	li	a4,2
    50201698:	db98                	sw	a4,48(a5)
    5020169a:	fec42783          	lw	a5,-20(s0)
    5020169e:	2785                	addiw	a5,a5,1
    502016a0:	0007871b          	sext.w	a4,a5
    502016a4:	0000b697          	auipc	a3,0xb
    502016a8:	6b468693          	addi	a3,a3,1716 # 5020cd58 <pcb>
    502016ac:	fec42603          	lw	a2,-20(s0)
    502016b0:	0b800793          	li	a5,184
    502016b4:	02f607b3          	mul	a5,a2,a5
    502016b8:	97b6                	add	a5,a5,a3
    502016ba:	d798                	sw	a4,40(a5)
    502016bc:	0000b717          	auipc	a4,0xb
    502016c0:	69c70713          	addi	a4,a4,1692 # 5020cd58 <pcb>
    502016c4:	fec42683          	lw	a3,-20(s0)
    502016c8:	0b800793          	li	a5,184
    502016cc:	02f687b3          	mul	a5,a3,a5
    502016d0:	97ba                	add	a5,a5,a4
    502016d2:	fcc42703          	lw	a4,-52(s0)
    502016d6:	dbd8                	sw	a4,52(a5)
    502016d8:	fd843783          	ld	a5,-40(s0)
    502016dc:	4798                	lw	a4,8(a5)
    502016de:	0000b697          	auipc	a3,0xb
    502016e2:	67a68693          	addi	a3,a3,1658 # 5020cd58 <pcb>
    502016e6:	fec42603          	lw	a2,-20(s0)
    502016ea:	0b800793          	li	a5,184
    502016ee:	02f607b3          	mul	a5,a2,a5
    502016f2:	97b6                	add	a5,a5,a3
    502016f4:	d7d8                	sw	a4,44(a5)
    502016f6:	0000a717          	auipc	a4,0xa
    502016fa:	eaa70713          	addi	a4,a4,-342 # 5020b5a0 <kernel_stack>
    502016fe:	fec42783          	lw	a5,-20(s0)
    50201702:	078e                	slli	a5,a5,0x3
    50201704:	97ba                	add	a5,a5,a4
    50201706:	6398                	ld	a4,0(a5)
    50201708:	0000b697          	auipc	a3,0xb
    5020170c:	65068693          	addi	a3,a3,1616 # 5020cd58 <pcb>
    50201710:	fec42603          	lw	a2,-20(s0)
    50201714:	0b800793          	li	a5,184
    50201718:	02f607b3          	mul	a5,a2,a5
    5020171c:	97b6                	add	a5,a5,a3
    5020171e:	e398                	sd	a4,0(a5)
    50201720:	0000a717          	auipc	a4,0xa
    50201724:	de870713          	addi	a4,a4,-536 # 5020b508 <user_stack>
    50201728:	fec42783          	lw	a5,-20(s0)
    5020172c:	078e                	slli	a5,a5,0x3
    5020172e:	97ba                	add	a5,a5,a4
    50201730:	6398                	ld	a4,0(a5)
    50201732:	0000b697          	auipc	a3,0xb
    50201736:	62668693          	addi	a3,a3,1574 # 5020cd58 <pcb>
    5020173a:	fec42603          	lw	a2,-20(s0)
    5020173e:	0b800793          	li	a5,184
    50201742:	02f607b3          	mul	a5,a2,a5
    50201746:	97b6                	add	a5,a5,a3
    50201748:	e798                	sd	a4,8(a5)
    5020174a:	fcb44783          	lbu	a5,-53(s0)
    5020174e:	0ff7f793          	andi	a5,a5,255
    50201752:	eb99                	bnez	a5,50201768 <init_pcb+0x14c>
    50201754:	0000b797          	auipc	a5,0xb
    50201758:	5fc78793          	addi	a5,a5,1532 # 5020cd50 <current_running>
    5020175c:	639c                	ld	a5,0(a5)
    5020175e:	639c                	ld	a5,0(a5)
    50201760:	0b07c783          	lbu	a5,176(a5)
    50201764:	fcf405a3          	sb	a5,-53(s0)
    50201768:	0000b717          	auipc	a4,0xb
    5020176c:	5f070713          	addi	a4,a4,1520 # 5020cd58 <pcb>
    50201770:	fec42683          	lw	a3,-20(s0)
    50201774:	0b800793          	li	a5,184
    50201778:	02f687b3          	mul	a5,a3,a5
    5020177c:	97ba                	add	a5,a5,a4
    5020177e:	fcb44703          	lbu	a4,-53(s0)
    50201782:	0ae78823          	sb	a4,176(a5)
    50201786:	0000b717          	auipc	a4,0xb
    5020178a:	5d270713          	addi	a4,a4,1490 # 5020cd58 <pcb>
    5020178e:	fec42683          	lw	a3,-20(s0)
    50201792:	0b800793          	li	a5,184
    50201796:	02f687b3          	mul	a5,a3,a5
    5020179a:	97ba                	add	a5,a5,a4
    5020179c:	6388                	ld	a0,0(a5)
    5020179e:	0000b717          	auipc	a4,0xb
    502017a2:	5ba70713          	addi	a4,a4,1466 # 5020cd58 <pcb>
    502017a6:	fec42683          	lw	a3,-20(s0)
    502017aa:	0b800793          	li	a5,184
    502017ae:	02f687b3          	mul	a5,a3,a5
    502017b2:	97ba                	add	a5,a5,a4
    502017b4:	678c                	ld	a1,8(a5)
    502017b6:	fd843783          	ld	a5,-40(s0)
    502017ba:	6390                	ld	a2,0(a5)
    502017bc:	fec42703          	lw	a4,-20(s0)
    502017c0:	0b800793          	li	a5,184
    502017c4:	02f70733          	mul	a4,a4,a5
    502017c8:	0000b797          	auipc	a5,0xb
    502017cc:	59078793          	addi	a5,a5,1424 # 5020cd58 <pcb>
    502017d0:	97ba                	add	a5,a5,a4
    502017d2:	fd043703          	ld	a4,-48(s0)
    502017d6:	86be                	mv	a3,a5
    502017d8:	bb7ff0ef          	jal	ra,5020138e <init_pcb_stack>
    502017dc:	fec42703          	lw	a4,-20(s0)
    502017e0:	0b800793          	li	a5,184
    502017e4:	02f70733          	mul	a4,a4,a5
    502017e8:	0000b797          	auipc	a5,0xb
    502017ec:	57078793          	addi	a5,a5,1392 # 5020cd58 <pcb>
    502017f0:	97ba                	add	a5,a5,a4
    502017f2:	85be                	mv	a1,a5
    502017f4:	00008517          	auipc	a0,0x8
    502017f8:	b0c50513          	addi	a0,a0,-1268 # 50209300 <ready_queue>
    502017fc:	257020ef          	jal	ra,50204252 <enqueue>
    50201800:	fec42783          	lw	a5,-20(s0)
    50201804:	2785                	addiw	a5,a5,1
    50201806:	2781                	sext.w	a5,a5
    50201808:	853e                	mv	a0,a5
    5020180a:	70e2                	ld	ra,56(sp)
    5020180c:	7442                	ld	s0,48(sp)
    5020180e:	6121                	addi	sp,sp,64
    50201810:	8082                	ret

0000000050201812 <init_all_stack>:
    50201812:	1101                	addi	sp,sp,-32
    50201814:	ec06                	sd	ra,24(sp)
    50201816:	e822                	sd	s0,16(sp)
    50201818:	1000                	addi	s0,sp,32
    5020181a:	fe042623          	sw	zero,-20(s0)
    5020181e:	a081                	j	5020185e <init_all_stack+0x4c>
    50201820:	4505                	li	a0,1
    50201822:	769020ef          	jal	ra,5020478a <allocPage>
    50201826:	86aa                	mv	a3,a0
    50201828:	0000a717          	auipc	a4,0xa
    5020182c:	d7870713          	addi	a4,a4,-648 # 5020b5a0 <kernel_stack>
    50201830:	fec42783          	lw	a5,-20(s0)
    50201834:	078e                	slli	a5,a5,0x3
    50201836:	97ba                	add	a5,a5,a4
    50201838:	e394                	sd	a3,0(a5)
    5020183a:	4505                	li	a0,1
    5020183c:	74f020ef          	jal	ra,5020478a <allocPage>
    50201840:	86aa                	mv	a3,a0
    50201842:	0000a717          	auipc	a4,0xa
    50201846:	cc670713          	addi	a4,a4,-826 # 5020b508 <user_stack>
    5020184a:	fec42783          	lw	a5,-20(s0)
    5020184e:	078e                	slli	a5,a5,0x3
    50201850:	97ba                	add	a5,a5,a4
    50201852:	e394                	sd	a3,0(a5)
    50201854:	fec42783          	lw	a5,-20(s0)
    50201858:	2785                	addiw	a5,a5,1
    5020185a:	fef42623          	sw	a5,-20(s0)
    5020185e:	fec42783          	lw	a5,-20(s0)
    50201862:	0007871b          	sext.w	a4,a5
    50201866:	47bd                	li	a5,15
    50201868:	fae7dce3          	bge	a5,a4,50201820 <init_all_stack+0xe>
    5020186c:	0001                	nop
    5020186e:	0001                	nop
    50201870:	60e2                	ld	ra,24(sp)
    50201872:	6442                	ld	s0,16(sp)
    50201874:	6105                	addi	sp,sp,32
    50201876:	8082                	ret

0000000050201878 <error_syscall>:
    50201878:	1141                	addi	sp,sp,-16
    5020187a:	e406                	sd	ra,8(sp)
    5020187c:	e022                	sd	s0,0(sp)
    5020187e:	0800                	addi	s0,sp,16
    50201880:	00006517          	auipc	a0,0x6
    50201884:	7f050513          	addi	a0,a0,2032 # 50208070 <barrier_task+0xba>
    50201888:	1dd030ef          	jal	ra,50205264 <printk>
    5020188c:	00007517          	auipc	a0,0x7
    50201890:	80450513          	addi	a0,a0,-2044 # 50208090 <barrier_task+0xda>
    50201894:	1d1030ef          	jal	ra,50205264 <printk>
    50201898:	a001                	j	50201898 <error_syscall+0x20>

000000005020189a <kernel_taskset>:
    5020189a:	1101                	addi	sp,sp,-32
    5020189c:	ec06                	sd	ra,24(sp)
    5020189e:	e822                	sd	s0,16(sp)
    502018a0:	1000                	addi	s0,sp,32
    502018a2:	87aa                	mv	a5,a0
    502018a4:	872e                	mv	a4,a1
    502018a6:	fef407a3          	sb	a5,-17(s0)
    502018aa:	87ba                	mv	a5,a4
    502018ac:	fef42423          	sw	a5,-24(s0)
    502018b0:	fe842783          	lw	a5,-24(s0)
    502018b4:	37fd                	addiw	a5,a5,-1
    502018b6:	0007869b          	sext.w	a3,a5
    502018ba:	0000b717          	auipc	a4,0xb
    502018be:	49e70713          	addi	a4,a4,1182 # 5020cd58 <pcb>
    502018c2:	0b800793          	li	a5,184
    502018c6:	02f687b3          	mul	a5,a3,a5
    502018ca:	97ba                	add	a5,a5,a4
    502018cc:	579c                	lw	a5,40(a5)
    502018ce:	eb99                	bnez	a5,502018e4 <kernel_taskset+0x4a>
    502018d0:	fe842783          	lw	a5,-24(s0)
    502018d4:	85be                	mv	a1,a5
    502018d6:	00006517          	auipc	a0,0x6
    502018da:	7ca50513          	addi	a0,a0,1994 # 502080a0 <barrier_task+0xea>
    502018de:	20f030ef          	jal	ra,502052ec <prints>
    502018e2:	a01d                	j	50201908 <kernel_taskset+0x6e>
    502018e4:	fe842783          	lw	a5,-24(s0)
    502018e8:	37fd                	addiw	a5,a5,-1
    502018ea:	0007869b          	sext.w	a3,a5
    502018ee:	0000b717          	auipc	a4,0xb
    502018f2:	46a70713          	addi	a4,a4,1130 # 5020cd58 <pcb>
    502018f6:	0b800793          	li	a5,184
    502018fa:	02f687b3          	mul	a5,a3,a5
    502018fe:	97ba                	add	a5,a5,a4
    50201900:	fef44703          	lbu	a4,-17(s0)
    50201904:	0ae78823          	sb	a4,176(a5)
    50201908:	60e2                	ld	ra,24(sp)
    5020190a:	6442                	ld	s0,16(sp)
    5020190c:	6105                	addi	sp,sp,32
    5020190e:	8082                	ret

0000000050201910 <init_syscall>:
    50201910:	1101                	addi	sp,sp,-32
    50201912:	ec22                	sd	s0,24(sp)
    50201914:	1000                	addi	s0,sp,32
    50201916:	fe042623          	sw	zero,-20(s0)
    5020191a:	a01d                	j	50201940 <init_syscall+0x30>
    5020191c:	0000c717          	auipc	a4,0xc
    50201920:	fbc70713          	addi	a4,a4,-68 # 5020d8d8 <syscall>
    50201924:	fec42783          	lw	a5,-20(s0)
    50201928:	078e                	slli	a5,a5,0x3
    5020192a:	97ba                	add	a5,a5,a4
    5020192c:	00000717          	auipc	a4,0x0
    50201930:	f4c70713          	addi	a4,a4,-180 # 50201878 <error_syscall>
    50201934:	e398                	sd	a4,0(a5)
    50201936:	fec42783          	lw	a5,-20(s0)
    5020193a:	2785                	addiw	a5,a5,1
    5020193c:	fef42623          	sw	a5,-20(s0)
    50201940:	fec42783          	lw	a5,-20(s0)
    50201944:	0007871b          	sext.w	a4,a5
    50201948:	03f00793          	li	a5,63
    5020194c:	fce7d8e3          	bge	a5,a4,5020191c <init_syscall+0xc>
    50201950:	0000c797          	auipc	a5,0xc
    50201954:	f8878793          	addi	a5,a5,-120 # 5020d8d8 <syscall>
    50201958:	00002717          	auipc	a4,0x2
    5020195c:	7fc70713          	addi	a4,a4,2044 # 50204154 <do_sleep>
    50201960:	eb98                	sd	a4,16(a5)
    50201962:	0000c797          	auipc	a5,0xc
    50201966:	f7678793          	addi	a5,a5,-138 # 5020d8d8 <syscall>
    5020196a:	00001717          	auipc	a4,0x1
    5020196e:	07270713          	addi	a4,a4,114 # 502029dc <kernel_semget>
    50201972:	e3b8                	sd	a4,64(a5)
    50201974:	0000c797          	auipc	a5,0xc
    50201978:	f6478793          	addi	a5,a5,-156 # 5020d8d8 <syscall>
    5020197c:	00001717          	auipc	a4,0x1
    50201980:	15870713          	addi	a4,a4,344 # 50202ad4 <kernel_binsemop>
    50201984:	e7b8                	sd	a4,72(a5)
    50201986:	0000c797          	auipc	a5,0xc
    5020198a:	f5278793          	addi	a5,a5,-174 # 5020d8d8 <syscall>
    5020198e:	00001717          	auipc	a4,0x1
    50201992:	9e470713          	addi	a4,a4,-1564 # 50202372 <screen_write>
    50201996:	f3d8                	sd	a4,160(a5)
    50201998:	0000c797          	auipc	a5,0xc
    5020199c:	f4078793          	addi	a5,a5,-192 # 5020d8d8 <syscall>
    502019a0:	00001717          	auipc	a4,0x1
    502019a4:	96a70713          	addi	a4,a4,-1686 # 5020230a <screen_move_cursor>
    502019a8:	fbd8                	sd	a4,176(a5)
    502019aa:	0000c797          	auipc	a5,0xc
    502019ae:	f2e78793          	addi	a5,a5,-210 # 5020d8d8 <syscall>
    502019b2:	00001717          	auipc	a4,0x1
    502019b6:	a5870713          	addi	a4,a4,-1448 # 5020240a <screen_reflush>
    502019ba:	ffd8                	sd	a4,184(a5)
    502019bc:	0000c797          	auipc	a5,0xc
    502019c0:	f1c78793          	addi	a5,a5,-228 # 5020d8d8 <syscall>
    502019c4:	00002717          	auipc	a4,0x2
    502019c8:	1b870713          	addi	a4,a4,440 # 50203b7c <do_scheduler>
    502019cc:	ff98                	sd	a4,56(a5)
    502019ce:	0000c797          	auipc	a5,0xc
    502019d2:	f0a78793          	addi	a5,a5,-246 # 5020d8d8 <syscall>
    502019d6:	00003717          	auipc	a4,0x3
    502019da:	d6670713          	addi	a4,a4,-666 # 5020473c <get_time_base>
    502019de:	fbf8                	sd	a4,240(a5)
    502019e0:	0000c797          	auipc	a5,0xc
    502019e4:	ef878793          	addi	a5,a5,-264 # 5020d8d8 <syscall>
    502019e8:	00003717          	auipc	a4,0x3
    502019ec:	d1070713          	addi	a4,a4,-752 # 502046f8 <get_ticks>
    502019f0:	fff8                	sd	a4,248(a5)
    502019f2:	0000c797          	auipc	a5,0xc
    502019f6:	ee678793          	addi	a5,a5,-282 # 5020d8d8 <syscall>
    502019fa:	00001717          	auipc	a4,0x1
    502019fe:	9d670713          	addi	a4,a4,-1578 # 502023d0 <serial_getchar>
    50201a02:	e3f8                	sd	a4,192(a5)
    50201a04:	0000c797          	auipc	a5,0xc
    50201a08:	ed478793          	addi	a5,a5,-300 # 5020d8d8 <syscall>
    50201a0c:	00000717          	auipc	a4,0x0
    50201a10:	6da70713          	addi	a4,a4,1754 # 502020e6 <screen_write_ch>
    50201a14:	e7f8                	sd	a4,200(a5)
    50201a16:	0000c797          	auipc	a5,0xc
    50201a1a:	ec278793          	addi	a5,a5,-318 # 5020d8d8 <syscall>
    50201a1e:	00001717          	auipc	a4,0x1
    50201a22:	82670713          	addi	a4,a4,-2010 # 50202244 <screen_clear>
    50201a26:	eff8                	sd	a4,216(a5)
    50201a28:	0000c797          	auipc	a5,0xc
    50201a2c:	eb078793          	addi	a5,a5,-336 # 5020d8d8 <syscall>
    50201a30:	00000717          	auipc	a4,0x0
    50201a34:	bec70713          	addi	a4,a4,-1044 # 5020161c <init_pcb>
    50201a38:	e398                	sd	a4,0(a5)
    50201a3a:	0000c797          	auipc	a5,0xc
    50201a3e:	e9e78793          	addi	a5,a5,-354 # 5020d8d8 <syscall>
    50201a42:	00002717          	auipc	a4,0x2
    50201a46:	25070713          	addi	a4,a4,592 # 50203c92 <do_kill>
    50201a4a:	ef98                	sd	a4,24(a5)
    50201a4c:	0000c797          	auipc	a5,0xc
    50201a50:	e8c78793          	addi	a5,a5,-372 # 5020d8d8 <syscall>
    50201a54:	00002717          	auipc	a4,0x2
    50201a58:	34670713          	addi	a4,a4,838 # 50203d9a <do_process_show>
    50201a5c:	f798                	sd	a4,40(a5)
    50201a5e:	0000c797          	auipc	a5,0xc
    50201a62:	e7a78793          	addi	a5,a5,-390 # 5020d8d8 <syscall>
    50201a66:	00002717          	auipc	a4,0x2
    50201a6a:	6aa70713          	addi	a4,a4,1706 # 50204110 <do_getpid>
    50201a6e:	fb98                	sd	a4,48(a5)
    50201a70:	0000c797          	auipc	a5,0xc
    50201a74:	e6878793          	addi	a5,a5,-408 # 5020d8d8 <syscall>
    50201a78:	00003717          	auipc	a4,0x3
    50201a7c:	8de70713          	addi	a4,a4,-1826 # 50204356 <do_exit>
    50201a80:	e798                	sd	a4,8(a5)
    50201a82:	0000c797          	auipc	a5,0xc
    50201a86:	e5678793          	addi	a5,a5,-426 # 5020d8d8 <syscall>
    50201a8a:	00003717          	auipc	a4,0x3
    50201a8e:	97270713          	addi	a4,a4,-1678 # 502043fc <do_waitpid>
    50201a92:	f398                	sd	a4,32(a5)
    50201a94:	0000c797          	auipc	a5,0xc
    50201a98:	e4478793          	addi	a5,a5,-444 # 5020d8d8 <syscall>
    50201a9c:	00002717          	auipc	a4,0x2
    50201aa0:	75870713          	addi	a4,a4,1880 # 502041f4 <do_block>
    50201aa4:	ffb8                	sd	a4,120(a5)
    50201aa6:	0000c797          	auipc	a5,0xc
    50201aaa:	e3278793          	addi	a5,a5,-462 # 5020d8d8 <syscall>
    50201aae:	00003717          	auipc	a4,0x3
    50201ab2:	81670713          	addi	a4,a4,-2026 # 502042c4 <do_unblock>
    50201ab6:	e3d8                	sd	a4,128(a5)
    50201ab8:	0000c797          	auipc	a5,0xc
    50201abc:	e2078793          	addi	a5,a5,-480 # 5020d8d8 <syscall>
    50201ac0:	00001717          	auipc	a4,0x1
    50201ac4:	1f670713          	addi	a4,a4,502 # 50202cb6 <kernel_sem_wait>
    50201ac8:	14e7b023          	sd	a4,320(a5)
    50201acc:	0000c797          	auipc	a5,0xc
    50201ad0:	e0c78793          	addi	a5,a5,-500 # 5020d8d8 <syscall>
    50201ad4:	00001717          	auipc	a4,0x1
    50201ad8:	2a670713          	addi	a4,a4,678 # 50202d7a <kernel_sem_signal>
    50201adc:	14e7b423          	sd	a4,328(a5)
    50201ae0:	0000c797          	auipc	a5,0xc
    50201ae4:	df878793          	addi	a5,a5,-520 # 5020d8d8 <syscall>
    50201ae8:	00001717          	auipc	a4,0x1
    50201aec:	2ea70713          	addi	a4,a4,746 # 50202dd2 <kernel_sem_broadcast>
    50201af0:	14e7b823          	sd	a4,336(a5)
    50201af4:	0000c797          	auipc	a5,0xc
    50201af8:	de478793          	addi	a5,a5,-540 # 5020d8d8 <syscall>
    50201afc:	00001717          	auipc	a4,0x1
    50201b00:	34270713          	addi	a4,a4,834 # 50202e3e <kernel_barrier_wait>
    50201b04:	14e7bc23          	sd	a4,344(a5)
    50201b08:	0000c797          	auipc	a5,0xc
    50201b0c:	dd078793          	addi	a5,a5,-560 # 5020d8d8 <syscall>
    50201b10:	00001717          	auipc	a4,0x1
    50201b14:	46270713          	addi	a4,a4,1122 # 50202f72 <kernel_mbox_open>
    50201b18:	16e7b023          	sd	a4,352(a5)
    50201b1c:	0000c797          	auipc	a5,0xc
    50201b20:	dbc78793          	addi	a5,a5,-580 # 5020d8d8 <syscall>
    50201b24:	00001717          	auipc	a4,0x1
    50201b28:	65470713          	addi	a4,a4,1620 # 50203178 <kernel_mbox_close>
    50201b2c:	16e7b423          	sd	a4,360(a5)
    50201b30:	0000c797          	auipc	a5,0xc
    50201b34:	da878793          	addi	a5,a5,-600 # 5020d8d8 <syscall>
    50201b38:	00001717          	auipc	a4,0x1
    50201b3c:	66870713          	addi	a4,a4,1640 # 502031a0 <kernel_mbox_send>
    50201b40:	16e7b823          	sd	a4,368(a5)
    50201b44:	0000c797          	auipc	a5,0xc
    50201b48:	d9478793          	addi	a5,a5,-620 # 5020d8d8 <syscall>
    50201b4c:	00001717          	auipc	a4,0x1
    50201b50:	7f070713          	addi	a4,a4,2032 # 5020333c <kernel_mbox_recv>
    50201b54:	16e7bc23          	sd	a4,376(a5)
    50201b58:	0000c797          	auipc	a5,0xc
    50201b5c:	d8078793          	addi	a5,a5,-640 # 5020d8d8 <syscall>
    50201b60:	00001717          	auipc	a4,0x1
    50201b64:	c1e70713          	addi	a4,a4,-994 # 5020277e <kernel_screen_scroll_check>
    50201b68:	18e7b023          	sd	a4,384(a5)
    50201b6c:	0000c797          	auipc	a5,0xc
    50201b70:	d6c78793          	addi	a5,a5,-660 # 5020d8d8 <syscall>
    50201b74:	00000717          	auipc	a4,0x0
    50201b78:	d2670713          	addi	a4,a4,-730 # 5020189a <kernel_taskset>
    50201b7c:	18e7b423          	sd	a4,392(a5)
    50201b80:	0001                	nop
    50201b82:	6462                	ld	s0,24(sp)
    50201b84:	6105                	addi	sp,sp,32
    50201b86:	8082                	ret

0000000050201b88 <main>:
    50201b88:	1141                	addi	sp,sp,-16
    50201b8a:	e406                	sd	ra,8(sp)
    50201b8c:	e022                	sd	s0,0(sp)
    50201b8e:	0800                	addi	s0,sp,16
    50201b90:	d81ff0ef          	jal	ra,50201910 <init_syscall>
    50201b94:	ce8ff0ef          	jal	ra,5020107c <get_current_cpu_id>
    50201b98:	87aa                	mv	a5,a0
    50201b9a:	efb1                	bnez	a5,50201bf6 <main+0x6e>
    50201b9c:	0000a517          	auipc	a0,0xa
    50201ba0:	b0450513          	addi	a0,a0,-1276 # 5020b6a0 <kernel_lock>
    50201ba4:	4bb000ef          	jal	ra,5020285e <spin_lock_init>
    50201ba8:	0000a517          	auipc	a0,0xa
    50201bac:	af850513          	addi	a0,a0,-1288 # 5020b6a0 <kernel_lock>
    50201bb0:	4ef000ef          	jal	ra,5020289e <spin_lock_acquire>
    50201bb4:	0000b797          	auipc	a5,0xb
    50201bb8:	19c78793          	addi	a5,a5,412 # 5020cd50 <current_running>
    50201bbc:	0000a717          	auipc	a4,0xa
    50201bc0:	9dc70713          	addi	a4,a4,-1572 # 5020b598 <current_running_core0>
    50201bc4:	e398                	sd	a4,0(a5)
    50201bc6:	0000b797          	auipc	a5,0xb
    50201bca:	18a78793          	addi	a5,a5,394 # 5020cd50 <current_running>
    50201bce:	639c                	ld	a5,0(a5)
    50201bd0:	00007717          	auipc	a4,0x7
    50201bd4:	5c070713          	addi	a4,a4,1472 # 50209190 <pid0_pcb_core0>
    50201bd8:	e398                	sd	a4,0(a5)
    50201bda:	c39ff0ef          	jal	ra,50201812 <init_all_stack>
    50201bde:	901ff0ef          	jal	ra,502014de <init_shell>
    50201be2:	00006517          	auipc	a0,0x6
    50201be6:	4de50513          	addi	a0,a0,1246 # 502080c0 <barrier_task+0x10a>
    50201bea:	67a030ef          	jal	ra,50205264 <printk>
    50201bee:	4501                	li	a0,0
    50201bf0:	f54ff0ef          	jal	ra,50201344 <sbi_send_ipi>
    50201bf4:	a815                	j	50201c28 <main+0xa0>
    50201bf6:	0000b797          	auipc	a5,0xb
    50201bfa:	15a78793          	addi	a5,a5,346 # 5020cd50 <current_running>
    50201bfe:	0000a717          	auipc	a4,0xa
    50201c02:	99270713          	addi	a4,a4,-1646 # 5020b590 <current_running_core1>
    50201c06:	e398                	sd	a4,0(a5)
    50201c08:	0000b797          	auipc	a5,0xb
    50201c0c:	14878793          	addi	a5,a5,328 # 5020cd50 <current_running>
    50201c10:	639c                	ld	a5,0(a5)
    50201c12:	00007717          	auipc	a4,0x7
    50201c16:	63670713          	addi	a4,a4,1590 # 50209248 <pid0_pcb_core1>
    50201c1a:	e398                	sd	a4,0(a5)
    50201c1c:	00006517          	auipc	a0,0x6
    50201c20:	4bc50513          	addi	a0,a0,1212 # 502080d8 <barrier_task+0x122>
    50201c24:	640030ef          	jal	ra,50205264 <printk>
    50201c28:	4501                	li	a0,0
    50201c2a:	f3cff0ef          	jal	ra,50201366 <sbi_read_fdt>
    50201c2e:	87aa                	mv	a5,a0
    50201c30:	0007871b          	sext.w	a4,a5
    50201c34:	84018793          	addi	a5,gp,-1984 # 50209590 <time_base>
    50201c38:	c398                	sw	a4,0(a5)
    50201c3a:	158000ef          	jal	ra,50201d92 <init_exception>
    50201c3e:	c3eff0ef          	jal	ra,5020107c <get_current_cpu_id>
    50201c42:	87aa                	mv	a5,a0
    50201c44:	e399                	bnez	a5,50201c4a <main+0xc2>
    50201c46:	5e4000ef          	jal	ra,5020222a <init_screen>
    50201c4a:	2af020ef          	jal	ra,502046f8 <get_ticks>
    50201c4e:	872a                	mv	a4,a0
    50201c50:	84018793          	addi	a5,gp,-1984 # 50209590 <time_base>
    50201c54:	439c                	lw	a5,0(a5)
    50201c56:	86be                	mv	a3,a5
    50201c58:	06400793          	li	a5,100
    50201c5c:	02f6d7bb          	divuw	a5,a3,a5
    50201c60:	2781                	sext.w	a5,a5
    50201c62:	1782                	slli	a5,a5,0x20
    50201c64:	9381                	srli	a5,a5,0x20
    50201c66:	97ba                	add	a5,a5,a4
    50201c68:	853e                	mv	a0,a5
    50201c6a:	ebaff0ef          	jal	ra,50201324 <sbi_set_timer>
    50201c6e:	0000a517          	auipc	a0,0xa
    50201c72:	a3250513          	addi	a0,a0,-1486 # 5020b6a0 <kernel_lock>
    50201c76:	455000ef          	jal	ra,502028ca <spin_lock_release>
    50201c7a:	c92ff0ef          	jal	ra,5020110c <enable_interrupt>
    50201c7e:	10500073          	wfi
    50201c82:	bfe5                	j	50201c7a <main+0xf2>

0000000050201c84 <_panic>:
    50201c84:	7179                	addi	sp,sp,-48
    50201c86:	f406                	sd	ra,40(sp)
    50201c88:	f022                	sd	s0,32(sp)
    50201c8a:	1800                	addi	s0,sp,48
    50201c8c:	fea43423          	sd	a0,-24(s0)
    50201c90:	87ae                	mv	a5,a1
    50201c92:	fcc43c23          	sd	a2,-40(s0)
    50201c96:	fef42223          	sw	a5,-28(s0)
    50201c9a:	fe442783          	lw	a5,-28(s0)
    50201c9e:	86be                	mv	a3,a5
    50201ca0:	fe843603          	ld	a2,-24(s0)
    50201ca4:	fd843583          	ld	a1,-40(s0)
    50201ca8:	00006517          	auipc	a0,0x6
    50201cac:	54850513          	addi	a0,a0,1352 # 502081f0 <barrier_task+0x23a>
    50201cb0:	5b4030ef          	jal	ra,50205264 <printk>
    50201cb4:	a001                	j	50201cb4 <_panic+0x30>

0000000050201cb6 <sbi_set_timer>:
    50201cb6:	1101                	addi	sp,sp,-32
    50201cb8:	ec22                	sd	s0,24(sp)
    50201cba:	1000                	addi	s0,sp,32
    50201cbc:	fea43423          	sd	a0,-24(s0)
    50201cc0:	fe843503          	ld	a0,-24(s0)
    50201cc4:	4581                	li	a1,0
    50201cc6:	4601                	li	a2,0
    50201cc8:	4881                	li	a7,0
    50201cca:	00000073          	ecall
    50201cce:	0001                	nop
    50201cd0:	6462                	ld	s0,24(sp)
    50201cd2:	6105                	addi	sp,sp,32
    50201cd4:	8082                	ret

0000000050201cd6 <reset_irq_timer>:
    50201cd6:	1141                	addi	sp,sp,-16
    50201cd8:	e406                	sd	ra,8(sp)
    50201cda:	e022                	sd	s0,0(sp)
    50201cdc:	0800                	addi	s0,sp,16
    50201cde:	72c000ef          	jal	ra,5020240a <screen_reflush>
    50201ce2:	183020ef          	jal	ra,50204664 <timer_check>
    50201ce6:	213020ef          	jal	ra,502046f8 <get_ticks>
    50201cea:	872a                	mv	a4,a0
    50201cec:	000257b7          	lui	a5,0x25
    50201cf0:	9f078793          	addi	a5,a5,-1552 # 249f0 <_start-0x501dc610>
    50201cf4:	97ba                	add	a5,a5,a4
    50201cf6:	853e                	mv	a0,a5
    50201cf8:	fbfff0ef          	jal	ra,50201cb6 <sbi_set_timer>
    50201cfc:	681010ef          	jal	ra,50203b7c <do_scheduler>
    50201d00:	0001                	nop
    50201d02:	60a2                	ld	ra,8(sp)
    50201d04:	6402                	ld	s0,0(sp)
    50201d06:	0141                	addi	sp,sp,16
    50201d08:	8082                	ret

0000000050201d0a <interrupt_helper>:
    50201d0a:	7139                	addi	sp,sp,-64
    50201d0c:	fc06                	sd	ra,56(sp)
    50201d0e:	f822                	sd	s0,48(sp)
    50201d10:	0080                	addi	s0,sp,64
    50201d12:	fca43c23          	sd	a0,-40(s0)
    50201d16:	fcb43823          	sd	a1,-48(s0)
    50201d1a:	fcc43423          	sd	a2,-56(s0)
    50201d1e:	fc843783          	ld	a5,-56(s0)
    50201d22:	0007d763          	bgez	a5,50201d30 <interrupt_helper+0x26>
    50201d26:	0000a797          	auipc	a5,0xa
    50201d2a:	98a78793          	addi	a5,a5,-1654 # 5020b6b0 <irq_table>
    50201d2e:	a029                	j	50201d38 <interrupt_helper+0x2e>
    50201d30:	0000a797          	auipc	a5,0xa
    50201d34:	8f078793          	addi	a5,a5,-1808 # 5020b620 <exc_table>
    50201d38:	fef43423          	sd	a5,-24(s0)
    50201d3c:	fc843703          	ld	a4,-56(s0)
    50201d40:	57fd                	li	a5,-1
    50201d42:	8385                	srli	a5,a5,0x1
    50201d44:	8ff9                	and	a5,a5,a4
    50201d46:	fef43023          	sd	a5,-32(s0)
    50201d4a:	fe043783          	ld	a5,-32(s0)
    50201d4e:	078e                	slli	a5,a5,0x3
    50201d50:	fe843703          	ld	a4,-24(s0)
    50201d54:	97ba                	add	a5,a5,a4
    50201d56:	639c                	ld	a5,0(a5)
    50201d58:	fc843603          	ld	a2,-56(s0)
    50201d5c:	fd043583          	ld	a1,-48(s0)
    50201d60:	fd843503          	ld	a0,-40(s0)
    50201d64:	9782                	jalr	a5
    50201d66:	0001                	nop
    50201d68:	70e2                	ld	ra,56(sp)
    50201d6a:	7442                	ld	s0,48(sp)
    50201d6c:	6121                	addi	sp,sp,64
    50201d6e:	8082                	ret

0000000050201d70 <handle_int>:
    50201d70:	7179                	addi	sp,sp,-48
    50201d72:	f406                	sd	ra,40(sp)
    50201d74:	f022                	sd	s0,32(sp)
    50201d76:	1800                	addi	s0,sp,48
    50201d78:	fea43423          	sd	a0,-24(s0)
    50201d7c:	feb43023          	sd	a1,-32(s0)
    50201d80:	fcc43c23          	sd	a2,-40(s0)
    50201d84:	f53ff0ef          	jal	ra,50201cd6 <reset_irq_timer>
    50201d88:	0001                	nop
    50201d8a:	70a2                	ld	ra,40(sp)
    50201d8c:	7402                	ld	s0,32(sp)
    50201d8e:	6145                	addi	sp,sp,48
    50201d90:	8082                	ret

0000000050201d92 <init_exception>:
    50201d92:	1101                	addi	sp,sp,-32
    50201d94:	ec06                	sd	ra,24(sp)
    50201d96:	e822                	sd	s0,16(sp)
    50201d98:	1000                	addi	s0,sp,32
    50201d9a:	fe042623          	sw	zero,-20(s0)
    50201d9e:	a01d                	j	50201dc4 <init_exception+0x32>
    50201da0:	0000a717          	auipc	a4,0xa
    50201da4:	91070713          	addi	a4,a4,-1776 # 5020b6b0 <irq_table>
    50201da8:	fec42783          	lw	a5,-20(s0)
    50201dac:	078e                	slli	a5,a5,0x3
    50201dae:	97ba                	add	a5,a5,a4
    50201db0:	00000717          	auipc	a4,0x0
    50201db4:	fc070713          	addi	a4,a4,-64 # 50201d70 <handle_int>
    50201db8:	e398                	sd	a4,0(a5)
    50201dba:	fec42783          	lw	a5,-20(s0)
    50201dbe:	2785                	addiw	a5,a5,1
    50201dc0:	fef42623          	sw	a5,-20(s0)
    50201dc4:	fec42783          	lw	a5,-20(s0)
    50201dc8:	0007871b          	sext.w	a4,a5
    50201dcc:	47ad                	li	a5,11
    50201dce:	fce7d9e3          	bge	a5,a4,50201da0 <init_exception+0xe>
    50201dd2:	fe042623          	sw	zero,-20(s0)
    50201dd6:	a01d                	j	50201dfc <init_exception+0x6a>
    50201dd8:	0000a717          	auipc	a4,0xa
    50201ddc:	84870713          	addi	a4,a4,-1976 # 5020b620 <exc_table>
    50201de0:	fec42783          	lw	a5,-20(s0)
    50201de4:	078e                	slli	a5,a5,0x3
    50201de6:	97ba                	add	a5,a5,a4
    50201de8:	00000717          	auipc	a4,0x0
    50201dec:	04270713          	addi	a4,a4,66 # 50201e2a <handle_other>
    50201df0:	e398                	sd	a4,0(a5)
    50201df2:	fec42783          	lw	a5,-20(s0)
    50201df6:	2785                	addiw	a5,a5,1
    50201df8:	fef42623          	sw	a5,-20(s0)
    50201dfc:	fec42783          	lw	a5,-20(s0)
    50201e00:	0007871b          	sext.w	a4,a5
    50201e04:	47bd                	li	a5,15
    50201e06:	fce7d9e3          	bge	a5,a4,50201dd8 <init_exception+0x46>
    50201e0a:	0000a797          	auipc	a5,0xa
    50201e0e:	81678793          	addi	a5,a5,-2026 # 5020b620 <exc_table>
    50201e12:	00003717          	auipc	a4,0x3
    50201e16:	9f270713          	addi	a4,a4,-1550 # 50204804 <handle_syscall>
    50201e1a:	e3b8                	sd	a4,64(a5)
    50201e1c:	a68ff0ef          	jal	ra,50201084 <setup_exception>
    50201e20:	0001                	nop
    50201e22:	60e2                	ld	ra,24(sp)
    50201e24:	6442                	ld	s0,16(sp)
    50201e26:	6105                	addi	sp,sp,32
    50201e28:	8082                	ret

0000000050201e2a <handle_other>:
    50201e2a:	710d                	addi	sp,sp,-352
    50201e2c:	ee86                	sd	ra,344(sp)
    50201e2e:	eaa2                	sd	s0,336(sp)
    50201e30:	1280                	addi	s0,sp,352
    50201e32:	eaa43c23          	sd	a0,-328(s0)
    50201e36:	eab43823          	sd	a1,-336(s0)
    50201e3a:	eac43423          	sd	a2,-344(s0)
    50201e3e:	00006717          	auipc	a4,0x6
    50201e42:	47a70713          	addi	a4,a4,1146 # 502082b8 <barrier_task+0x302>
    50201e46:	ec840793          	addi	a5,s0,-312
    50201e4a:	86ba                	mv	a3,a4
    50201e4c:	10000713          	li	a4,256
    50201e50:	863a                	mv	a2,a4
    50201e52:	85b6                	mv	a1,a3
    50201e54:	853e                	mv	a0,a5
    50201e56:	55d030ef          	jal	ra,50205bb2 <memcpy>
    50201e5a:	fe042623          	sw	zero,-20(s0)
    50201e5e:	a061                	j	50201ee6 <handle_other+0xbc>
    50201e60:	fe042423          	sw	zero,-24(s0)
    50201e64:	a0a9                	j	50201eae <handle_other+0x84>
    50201e66:	fec42703          	lw	a4,-20(s0)
    50201e6a:	fe842783          	lw	a5,-24(s0)
    50201e6e:	9fb9                	addw	a5,a5,a4
    50201e70:	2781                	sext.w	a5,a5
    50201e72:	078e                	slli	a5,a5,0x3
    50201e74:	ff040713          	addi	a4,s0,-16
    50201e78:	97ba                	add	a5,a5,a4
    50201e7a:	ed87b683          	ld	a3,-296(a5)
    50201e7e:	fec42703          	lw	a4,-20(s0)
    50201e82:	fe842783          	lw	a5,-24(s0)
    50201e86:	9fb9                	addw	a5,a5,a4
    50201e88:	2781                	sext.w	a5,a5
    50201e8a:	eb843703          	ld	a4,-328(s0)
    50201e8e:	078e                	slli	a5,a5,0x3
    50201e90:	97ba                	add	a5,a5,a4
    50201e92:	639c                	ld	a5,0(a5)
    50201e94:	863e                	mv	a2,a5
    50201e96:	85b6                	mv	a1,a3
    50201e98:	00006517          	auipc	a0,0x6
    50201e9c:	38050513          	addi	a0,a0,896 # 50208218 <barrier_task+0x262>
    50201ea0:	3c4030ef          	jal	ra,50205264 <printk>
    50201ea4:	fe842783          	lw	a5,-24(s0)
    50201ea8:	2785                	addiw	a5,a5,1
    50201eaa:	fef42423          	sw	a5,-24(s0)
    50201eae:	fe842783          	lw	a5,-24(s0)
    50201eb2:	0007871b          	sext.w	a4,a5
    50201eb6:	4789                	li	a5,2
    50201eb8:	00e7cc63          	blt	a5,a4,50201ed0 <handle_other+0xa6>
    50201ebc:	fec42703          	lw	a4,-20(s0)
    50201ec0:	fe842783          	lw	a5,-24(s0)
    50201ec4:	9fb9                	addw	a5,a5,a4
    50201ec6:	2781                	sext.w	a5,a5
    50201ec8:	873e                	mv	a4,a5
    50201eca:	47fd                	li	a5,31
    50201ecc:	f8e7dde3          	bge	a5,a4,50201e66 <handle_other+0x3c>
    50201ed0:	00006517          	auipc	a0,0x6
    50201ed4:	35850513          	addi	a0,a0,856 # 50208228 <barrier_task+0x272>
    50201ed8:	38c030ef          	jal	ra,50205264 <printk>
    50201edc:	fec42783          	lw	a5,-20(s0)
    50201ee0:	278d                	addiw	a5,a5,3
    50201ee2:	fef42623          	sw	a5,-20(s0)
    50201ee6:	fec42783          	lw	a5,-20(s0)
    50201eea:	0007871b          	sext.w	a4,a5
    50201eee:	47fd                	li	a5,31
    50201ef0:	f6e7d8e3          	bge	a5,a4,50201e60 <handle_other+0x36>
    50201ef4:	eb843783          	ld	a5,-328(s0)
    50201ef8:	1007b703          	ld	a4,256(a5)
    50201efc:	eb843783          	ld	a5,-328(s0)
    50201f00:	1107b603          	ld	a2,272(a5)
    50201f04:	eb843783          	ld	a5,-328(s0)
    50201f08:	1187b783          	ld	a5,280(a5)
    50201f0c:	86be                	mv	a3,a5
    50201f0e:	85ba                	mv	a1,a4
    50201f10:	00006517          	auipc	a0,0x6
    50201f14:	32050513          	addi	a0,a0,800 # 50208230 <barrier_task+0x27a>
    50201f18:	34c030ef          	jal	ra,50205264 <printk>
    50201f1c:	eb843783          	ld	a5,-328(s0)
    50201f20:	1087b783          	ld	a5,264(a5)
    50201f24:	85be                	mv	a1,a5
    50201f26:	00006517          	auipc	a0,0x6
    50201f2a:	33a50513          	addi	a0,a0,826 # 50208260 <barrier_task+0x2aa>
    50201f2e:	336030ef          	jal	ra,50205264 <printk>
    50201f32:	eb843783          	ld	a5,-328(s0)
    50201f36:	63bc                	ld	a5,64(a5)
    50201f38:	fef43023          	sd	a5,-32(s0)
    50201f3c:	eb843783          	ld	a5,-328(s0)
    50201f40:	6b9c                	ld	a5,16(a5)
    50201f42:	fcf43c23          	sd	a5,-40(s0)
    50201f46:	00006517          	auipc	a0,0x6
    50201f4a:	32a50513          	addi	a0,a0,810 # 50208270 <barrier_task+0x2ba>
    50201f4e:	316030ef          	jal	ra,50205264 <printk>
    50201f52:	eb843783          	ld	a5,-328(s0)
    50201f56:	679c                	ld	a5,8(a5)
    50201f58:	17f1                	addi	a5,a5,-4
    50201f5a:	fe043683          	ld	a3,-32(s0)
    50201f5e:	fd843603          	ld	a2,-40(s0)
    50201f62:	85be                	mv	a1,a5
    50201f64:	00006517          	auipc	a0,0x6
    50201f68:	31c50513          	addi	a0,a0,796 # 50208280 <barrier_task+0x2ca>
    50201f6c:	2f8030ef          	jal	ra,50205264 <printk>
    50201f70:	a83d                	j	50201fae <handle_other+0x184>
    50201f72:	fe043783          	ld	a5,-32(s0)
    50201f76:	17e1                	addi	a5,a5,-8
    50201f78:	639c                	ld	a5,0(a5)
    50201f7a:	fcf43823          	sd	a5,-48(s0)
    50201f7e:	fe043783          	ld	a5,-32(s0)
    50201f82:	17c1                	addi	a5,a5,-16
    50201f84:	639c                	ld	a5,0(a5)
    50201f86:	fcf43423          	sd	a5,-56(s0)
    50201f8a:	fd043783          	ld	a5,-48(s0)
    50201f8e:	17f1                	addi	a5,a5,-4
    50201f90:	fc843683          	ld	a3,-56(s0)
    50201f94:	fe043603          	ld	a2,-32(s0)
    50201f98:	85be                	mv	a1,a5
    50201f9a:	00006517          	auipc	a0,0x6
    50201f9e:	2e650513          	addi	a0,a0,742 # 50208280 <barrier_task+0x2ca>
    50201fa2:	2c2030ef          	jal	ra,50205264 <printk>
    50201fa6:	fc843783          	ld	a5,-56(s0)
    50201faa:	fef43023          	sd	a5,-32(s0)
    50201fae:	fe043703          	ld	a4,-32(s0)
    50201fb2:	67c1                	lui	a5,0x10
    50201fb4:	fae7efe3          	bltu	a5,a4,50201f72 <handle_other+0x148>
    50201fb8:	00006617          	auipc	a2,0x6
    50201fbc:	40060613          	addi	a2,a2,1024 # 502083b8 <__FUNCTION__.1646>
    50201fc0:	05a00593          	li	a1,90
    50201fc4:	00006517          	auipc	a0,0x6
    50201fc8:	2dc50513          	addi	a0,a0,732 # 502082a0 <barrier_task+0x2ea>
    50201fcc:	cb9ff0ef          	jal	ra,50201c84 <_panic>
    50201fd0:	0001                	nop
    50201fd2:	60f6                	ld	ra,344(sp)
    50201fd4:	6456                	ld	s0,336(sp)
    50201fd6:	6135                	addi	sp,sp,352
    50201fd8:	8082                	ret

0000000050201fda <sbi_console_putchar>:
    50201fda:	1101                	addi	sp,sp,-32
    50201fdc:	ec22                	sd	s0,24(sp)
    50201fde:	1000                	addi	s0,sp,32
    50201fe0:	87aa                	mv	a5,a0
    50201fe2:	fef42623          	sw	a5,-20(s0)
    50201fe6:	fec42783          	lw	a5,-20(s0)
    50201fea:	853e                	mv	a0,a5
    50201fec:	4581                	li	a1,0
    50201fee:	4601                	li	a2,0
    50201ff0:	4885                	li	a7,1
    50201ff2:	00000073          	ecall
    50201ff6:	0001                	nop
    50201ff8:	6462                	ld	s0,24(sp)
    50201ffa:	6105                	addi	sp,sp,32
    50201ffc:	8082                	ret

0000000050201ffe <sbi_console_getchar>:
    50201ffe:	1141                	addi	sp,sp,-16
    50202000:	e422                	sd	s0,8(sp)
    50202002:	0800                	addi	s0,sp,16
    50202004:	4501                	li	a0,0
    50202006:	4581                	li	a1,0
    50202008:	4601                	li	a2,0
    5020200a:	4889                	li	a7,2
    5020200c:	00000073          	ecall
    50202010:	87aa                	mv	a5,a0
    50202012:	2781                	sext.w	a5,a5
    50202014:	853e                	mv	a0,a5
    50202016:	6422                	ld	s0,8(sp)
    50202018:	0141                	addi	sp,sp,16
    5020201a:	8082                	ret

000000005020201c <vt100_move_cursor>:
    5020201c:	1101                	addi	sp,sp,-32
    5020201e:	ec06                	sd	ra,24(sp)
    50202020:	e822                	sd	s0,16(sp)
    50202022:	1000                	addi	s0,sp,32
    50202024:	87aa                	mv	a5,a0
    50202026:	872e                	mv	a4,a1
    50202028:	fef42623          	sw	a5,-20(s0)
    5020202c:	87ba                	mv	a5,a4
    5020202e:	fef42423          	sw	a5,-24(s0)
    50202032:	84aff0ef          	jal	ra,5020107c <get_current_cpu_id>
    50202036:	87aa                	mv	a5,a0
    50202038:	e791                	bnez	a5,50202044 <vt100_move_cursor+0x28>
    5020203a:	00009797          	auipc	a5,0x9
    5020203e:	55e78793          	addi	a5,a5,1374 # 5020b598 <current_running_core0>
    50202042:	a029                	j	5020204c <vt100_move_cursor+0x30>
    50202044:	00009797          	auipc	a5,0x9
    50202048:	54c78793          	addi	a5,a5,1356 # 5020b590 <current_running_core1>
    5020204c:	0000b717          	auipc	a4,0xb
    50202050:	d0470713          	addi	a4,a4,-764 # 5020cd50 <current_running>
    50202054:	e31c                	sd	a5,0(a4)
    50202056:	88aff0ef          	jal	ra,502010e0 <disable_preempt>
    5020205a:	fec42703          	lw	a4,-20(s0)
    5020205e:	fe842783          	lw	a5,-24(s0)
    50202062:	86ba                	mv	a3,a4
    50202064:	863e                	mv	a2,a5
    50202066:	45ed                	li	a1,27
    50202068:	00006517          	auipc	a0,0x6
    5020206c:	36050513          	addi	a0,a0,864 # 502083c8 <__FUNCTION__.1646+0x10>
    50202070:	1f4030ef          	jal	ra,50205264 <printk>
    50202074:	0000b797          	auipc	a5,0xb
    50202078:	cdc78793          	addi	a5,a5,-804 # 5020cd50 <current_running>
    5020207c:	639c                	ld	a5,0(a5)
    5020207e:	639c                	ld	a5,0(a5)
    50202080:	fec42703          	lw	a4,-20(s0)
    50202084:	df98                	sw	a4,56(a5)
    50202086:	0000b797          	auipc	a5,0xb
    5020208a:	cca78793          	addi	a5,a5,-822 # 5020cd50 <current_running>
    5020208e:	639c                	ld	a5,0(a5)
    50202090:	639c                	ld	a5,0(a5)
    50202092:	fe842703          	lw	a4,-24(s0)
    50202096:	dfd8                	sw	a4,60(a5)
    50202098:	810ff0ef          	jal	ra,502010a8 <enable_preempt>
    5020209c:	0001                	nop
    5020209e:	60e2                	ld	ra,24(sp)
    502020a0:	6442                	ld	s0,16(sp)
    502020a2:	6105                	addi	sp,sp,32
    502020a4:	8082                	ret

00000000502020a6 <vt100_clear>:
    502020a6:	1141                	addi	sp,sp,-16
    502020a8:	e406                	sd	ra,8(sp)
    502020aa:	e022                	sd	s0,0(sp)
    502020ac:	0800                	addi	s0,sp,16
    502020ae:	45ed                	li	a1,27
    502020b0:	00006517          	auipc	a0,0x6
    502020b4:	32850513          	addi	a0,a0,808 # 502083d8 <__FUNCTION__.1646+0x20>
    502020b8:	1ac030ef          	jal	ra,50205264 <printk>
    502020bc:	0001                	nop
    502020be:	60a2                	ld	ra,8(sp)
    502020c0:	6402                	ld	s0,0(sp)
    502020c2:	0141                	addi	sp,sp,16
    502020c4:	8082                	ret

00000000502020c6 <vt100_hidden_cursor>:
    502020c6:	1141                	addi	sp,sp,-16
    502020c8:	e406                	sd	ra,8(sp)
    502020ca:	e022                	sd	s0,0(sp)
    502020cc:	0800                	addi	s0,sp,16
    502020ce:	45ed                	li	a1,27
    502020d0:	00006517          	auipc	a0,0x6
    502020d4:	31050513          	addi	a0,a0,784 # 502083e0 <__FUNCTION__.1646+0x28>
    502020d8:	18c030ef          	jal	ra,50205264 <printk>
    502020dc:	0001                	nop
    502020de:	60a2                	ld	ra,8(sp)
    502020e0:	6402                	ld	s0,0(sp)
    502020e2:	0141                	addi	sp,sp,16
    502020e4:	8082                	ret

00000000502020e6 <screen_write_ch>:
    502020e6:	1101                	addi	sp,sp,-32
    502020e8:	ec06                	sd	ra,24(sp)
    502020ea:	e822                	sd	s0,16(sp)
    502020ec:	1000                	addi	s0,sp,32
    502020ee:	87aa                	mv	a5,a0
    502020f0:	fef407a3          	sb	a5,-17(s0)
    502020f4:	f89fe0ef          	jal	ra,5020107c <get_current_cpu_id>
    502020f8:	87aa                	mv	a5,a0
    502020fa:	e791                	bnez	a5,50202106 <screen_write_ch+0x20>
    502020fc:	00009797          	auipc	a5,0x9
    50202100:	49c78793          	addi	a5,a5,1180 # 5020b598 <current_running_core0>
    50202104:	a029                	j	5020210e <screen_write_ch+0x28>
    50202106:	00009797          	auipc	a5,0x9
    5020210a:	48a78793          	addi	a5,a5,1162 # 5020b590 <current_running_core1>
    5020210e:	0000b717          	auipc	a4,0xb
    50202112:	c4270713          	addi	a4,a4,-958 # 5020cd50 <current_running>
    50202116:	e31c                	sd	a5,0(a4)
    50202118:	fef44783          	lbu	a5,-17(s0)
    5020211c:	0ff7f713          	andi	a4,a5,255
    50202120:	47a9                	li	a5,10
    50202122:	02f71463          	bne	a4,a5,5020214a <screen_write_ch+0x64>
    50202126:	0000b797          	auipc	a5,0xb
    5020212a:	c2a78793          	addi	a5,a5,-982 # 5020cd50 <current_running>
    5020212e:	639c                	ld	a5,0(a5)
    50202130:	639c                	ld	a5,0(a5)
    50202132:	4705                	li	a4,1
    50202134:	df98                	sw	a4,56(a5)
    50202136:	0000b797          	auipc	a5,0xb
    5020213a:	c1a78793          	addi	a5,a5,-998 # 5020cd50 <current_running>
    5020213e:	639c                	ld	a5,0(a5)
    50202140:	639c                	ld	a5,0(a5)
    50202142:	5fd8                	lw	a4,60(a5)
    50202144:	2705                	addiw	a4,a4,1
    50202146:	2701                	sext.w	a4,a4
    50202148:	dfd8                	sw	a4,60(a5)
    5020214a:	fef44783          	lbu	a5,-17(s0)
    5020214e:	0ff7f713          	andi	a4,a5,255
    50202152:	47a1                	li	a5,8
    50202154:	00f70a63          	beq	a4,a5,50202168 <screen_write_ch+0x82>
    50202158:	fef44783          	lbu	a5,-17(s0)
    5020215c:	0ff7f713          	andi	a4,a5,255
    50202160:	07f00793          	li	a5,127
    50202164:	04f71d63          	bne	a4,a5,502021be <screen_write_ch+0xd8>
    50202168:	0000b797          	auipc	a5,0xb
    5020216c:	be878793          	addi	a5,a5,-1048 # 5020cd50 <current_running>
    50202170:	639c                	ld	a5,0(a5)
    50202172:	639c                	ld	a5,0(a5)
    50202174:	5fdc                	lw	a5,60(a5)
    50202176:	37fd                	addiw	a5,a5,-1
    50202178:	2781                	sext.w	a5,a5
    5020217a:	873e                	mv	a4,a5
    5020217c:	87ba                	mv	a5,a4
    5020217e:	0027979b          	slliw	a5,a5,0x2
    50202182:	9fb9                	addw	a5,a5,a4
    50202184:	0047979b          	slliw	a5,a5,0x4
    50202188:	0007871b          	sext.w	a4,a5
    5020218c:	0000b797          	auipc	a5,0xb
    50202190:	bc478793          	addi	a5,a5,-1084 # 5020cd50 <current_running>
    50202194:	639c                	ld	a5,0(a5)
    50202196:	639c                	ld	a5,0(a5)
    50202198:	5f94                	lw	a3,56(a5)
    5020219a:	36fd                	addiw	a3,a3,-1
    5020219c:	2681                	sext.w	a3,a3
    5020219e:	df94                	sw	a3,56(a5)
    502021a0:	5f9c                	lw	a5,56(a5)
    502021a2:	37fd                	addiw	a5,a5,-1
    502021a4:	2781                	sext.w	a5,a5
    502021a6:	9fb9                	addw	a5,a5,a4
    502021a8:	2781                	sext.w	a5,a5
    502021aa:	00007717          	auipc	a4,0x7
    502021ae:	3ee70713          	addi	a4,a4,1006 # 50209598 <new_screen>
    502021b2:	97ba                	add	a5,a5,a4
    502021b4:	02000713          	li	a4,32
    502021b8:	00e78023          	sb	a4,0(a5)
    502021bc:	a095                	j	50202220 <screen_write_ch+0x13a>
    502021be:	0000b797          	auipc	a5,0xb
    502021c2:	b9278793          	addi	a5,a5,-1134 # 5020cd50 <current_running>
    502021c6:	639c                	ld	a5,0(a5)
    502021c8:	639c                	ld	a5,0(a5)
    502021ca:	5fdc                	lw	a5,60(a5)
    502021cc:	37fd                	addiw	a5,a5,-1
    502021ce:	2781                	sext.w	a5,a5
    502021d0:	873e                	mv	a4,a5
    502021d2:	87ba                	mv	a5,a4
    502021d4:	0027979b          	slliw	a5,a5,0x2
    502021d8:	9fb9                	addw	a5,a5,a4
    502021da:	0047979b          	slliw	a5,a5,0x4
    502021de:	0007871b          	sext.w	a4,a5
    502021e2:	0000b797          	auipc	a5,0xb
    502021e6:	b6e78793          	addi	a5,a5,-1170 # 5020cd50 <current_running>
    502021ea:	639c                	ld	a5,0(a5)
    502021ec:	639c                	ld	a5,0(a5)
    502021ee:	5f9c                	lw	a5,56(a5)
    502021f0:	37fd                	addiw	a5,a5,-1
    502021f2:	2781                	sext.w	a5,a5
    502021f4:	9fb9                	addw	a5,a5,a4
    502021f6:	2781                	sext.w	a5,a5
    502021f8:	00007717          	auipc	a4,0x7
    502021fc:	3a070713          	addi	a4,a4,928 # 50209598 <new_screen>
    50202200:	97ba                	add	a5,a5,a4
    50202202:	fef44703          	lbu	a4,-17(s0)
    50202206:	00e78023          	sb	a4,0(a5)
    5020220a:	0000b797          	auipc	a5,0xb
    5020220e:	b4678793          	addi	a5,a5,-1210 # 5020cd50 <current_running>
    50202212:	639c                	ld	a5,0(a5)
    50202214:	639c                	ld	a5,0(a5)
    50202216:	5f98                	lw	a4,56(a5)
    50202218:	2705                	addiw	a4,a4,1
    5020221a:	2701                	sext.w	a4,a4
    5020221c:	df98                	sw	a4,56(a5)
    5020221e:	0001                	nop
    50202220:	0001                	nop
    50202222:	60e2                	ld	ra,24(sp)
    50202224:	6442                	ld	s0,16(sp)
    50202226:	6105                	addi	sp,sp,32
    50202228:	8082                	ret

000000005020222a <init_screen>:
    5020222a:	1141                	addi	sp,sp,-16
    5020222c:	e406                	sd	ra,8(sp)
    5020222e:	e022                	sd	s0,0(sp)
    50202230:	0800                	addi	s0,sp,16
    50202232:	e95ff0ef          	jal	ra,502020c6 <vt100_hidden_cursor>
    50202236:	e71ff0ef          	jal	ra,502020a6 <vt100_clear>
    5020223a:	0001                	nop
    5020223c:	60a2                	ld	ra,8(sp)
    5020223e:	6402                	ld	s0,0(sp)
    50202240:	0141                	addi	sp,sp,16
    50202242:	8082                	ret

0000000050202244 <screen_clear>:
    50202244:	1101                	addi	sp,sp,-32
    50202246:	ec06                	sd	ra,24(sp)
    50202248:	e822                	sd	s0,16(sp)
    5020224a:	1000                	addi	s0,sp,32
    5020224c:	e31fe0ef          	jal	ra,5020107c <get_current_cpu_id>
    50202250:	87aa                	mv	a5,a0
    50202252:	e791                	bnez	a5,5020225e <screen_clear+0x1a>
    50202254:	00009797          	auipc	a5,0x9
    50202258:	34478793          	addi	a5,a5,836 # 5020b598 <current_running_core0>
    5020225c:	a029                	j	50202266 <screen_clear+0x22>
    5020225e:	00009797          	auipc	a5,0x9
    50202262:	33278793          	addi	a5,a5,818 # 5020b590 <current_running_core1>
    50202266:	0000b717          	auipc	a4,0xb
    5020226a:	aea70713          	addi	a4,a4,-1302 # 5020cd50 <current_running>
    5020226e:	e31c                	sd	a5,0(a4)
    50202270:	fe042623          	sw	zero,-20(s0)
    50202274:	a8a1                	j	502022cc <screen_clear+0x88>
    50202276:	fe042423          	sw	zero,-24(s0)
    5020227a:	a825                	j	502022b2 <screen_clear+0x6e>
    5020227c:	fec42703          	lw	a4,-20(s0)
    50202280:	87ba                	mv	a5,a4
    50202282:	0027979b          	slliw	a5,a5,0x2
    50202286:	9fb9                	addw	a5,a5,a4
    50202288:	0047979b          	slliw	a5,a5,0x4
    5020228c:	2781                	sext.w	a5,a5
    5020228e:	fe842703          	lw	a4,-24(s0)
    50202292:	9fb9                	addw	a5,a5,a4
    50202294:	2781                	sext.w	a5,a5
    50202296:	00007717          	auipc	a4,0x7
    5020229a:	30270713          	addi	a4,a4,770 # 50209598 <new_screen>
    5020229e:	97ba                	add	a5,a5,a4
    502022a0:	02000713          	li	a4,32
    502022a4:	00e78023          	sb	a4,0(a5)
    502022a8:	fe842783          	lw	a5,-24(s0)
    502022ac:	2785                	addiw	a5,a5,1
    502022ae:	fef42423          	sw	a5,-24(s0)
    502022b2:	fe842783          	lw	a5,-24(s0)
    502022b6:	0007871b          	sext.w	a4,a5
    502022ba:	04f00793          	li	a5,79
    502022be:	fae7dfe3          	bge	a5,a4,5020227c <screen_clear+0x38>
    502022c2:	fec42783          	lw	a5,-20(s0)
    502022c6:	2785                	addiw	a5,a5,1
    502022c8:	fef42623          	sw	a5,-20(s0)
    502022cc:	fec42783          	lw	a5,-20(s0)
    502022d0:	0007871b          	sext.w	a4,a5
    502022d4:	03100793          	li	a5,49
    502022d8:	f8e7dfe3          	bge	a5,a4,50202276 <screen_clear+0x32>
    502022dc:	0000b797          	auipc	a5,0xb
    502022e0:	a7478793          	addi	a5,a5,-1420 # 5020cd50 <current_running>
    502022e4:	639c                	ld	a5,0(a5)
    502022e6:	639c                	ld	a5,0(a5)
    502022e8:	4705                	li	a4,1
    502022ea:	df98                	sw	a4,56(a5)
    502022ec:	0000b797          	auipc	a5,0xb
    502022f0:	a6478793          	addi	a5,a5,-1436 # 5020cd50 <current_running>
    502022f4:	639c                	ld	a5,0(a5)
    502022f6:	639c                	ld	a5,0(a5)
    502022f8:	4705                	li	a4,1
    502022fa:	dfd8                	sw	a4,60(a5)
    502022fc:	10e000ef          	jal	ra,5020240a <screen_reflush>
    50202300:	0001                	nop
    50202302:	60e2                	ld	ra,24(sp)
    50202304:	6442                	ld	s0,16(sp)
    50202306:	6105                	addi	sp,sp,32
    50202308:	8082                	ret

000000005020230a <screen_move_cursor>:
    5020230a:	1101                	addi	sp,sp,-32
    5020230c:	ec06                	sd	ra,24(sp)
    5020230e:	e822                	sd	s0,16(sp)
    50202310:	1000                	addi	s0,sp,32
    50202312:	87aa                	mv	a5,a0
    50202314:	872e                	mv	a4,a1
    50202316:	fef42623          	sw	a5,-20(s0)
    5020231a:	87ba                	mv	a5,a4
    5020231c:	fef42423          	sw	a5,-24(s0)
    50202320:	d5dfe0ef          	jal	ra,5020107c <get_current_cpu_id>
    50202324:	87aa                	mv	a5,a0
    50202326:	e791                	bnez	a5,50202332 <screen_move_cursor+0x28>
    50202328:	00009797          	auipc	a5,0x9
    5020232c:	27078793          	addi	a5,a5,624 # 5020b598 <current_running_core0>
    50202330:	a029                	j	5020233a <screen_move_cursor+0x30>
    50202332:	00009797          	auipc	a5,0x9
    50202336:	25e78793          	addi	a5,a5,606 # 5020b590 <current_running_core1>
    5020233a:	0000b717          	auipc	a4,0xb
    5020233e:	a1670713          	addi	a4,a4,-1514 # 5020cd50 <current_running>
    50202342:	e31c                	sd	a5,0(a4)
    50202344:	0000b797          	auipc	a5,0xb
    50202348:	a0c78793          	addi	a5,a5,-1524 # 5020cd50 <current_running>
    5020234c:	639c                	ld	a5,0(a5)
    5020234e:	639c                	ld	a5,0(a5)
    50202350:	fec42703          	lw	a4,-20(s0)
    50202354:	df98                	sw	a4,56(a5)
    50202356:	0000b797          	auipc	a5,0xb
    5020235a:	9fa78793          	addi	a5,a5,-1542 # 5020cd50 <current_running>
    5020235e:	639c                	ld	a5,0(a5)
    50202360:	639c                	ld	a5,0(a5)
    50202362:	fe842703          	lw	a4,-24(s0)
    50202366:	dfd8                	sw	a4,60(a5)
    50202368:	0001                	nop
    5020236a:	60e2                	ld	ra,24(sp)
    5020236c:	6442                	ld	s0,16(sp)
    5020236e:	6105                	addi	sp,sp,32
    50202370:	8082                	ret

0000000050202372 <screen_write>:
    50202372:	7179                	addi	sp,sp,-48
    50202374:	f406                	sd	ra,40(sp)
    50202376:	f022                	sd	s0,32(sp)
    50202378:	1800                	addi	s0,sp,48
    5020237a:	fca43c23          	sd	a0,-40(s0)
    5020237e:	fe042623          	sw	zero,-20(s0)
    50202382:	fd843503          	ld	a0,-40(s0)
    50202386:	4ee020ef          	jal	ra,50204874 <kstrlen>
    5020238a:	87aa                	mv	a5,a0
    5020238c:	fef42423          	sw	a5,-24(s0)
    50202390:	fe042623          	sw	zero,-20(s0)
    50202394:	a005                	j	502023b4 <screen_write+0x42>
    50202396:	fec42783          	lw	a5,-20(s0)
    5020239a:	fd843703          	ld	a4,-40(s0)
    5020239e:	97ba                	add	a5,a5,a4
    502023a0:	0007c783          	lbu	a5,0(a5)
    502023a4:	853e                	mv	a0,a5
    502023a6:	d41ff0ef          	jal	ra,502020e6 <screen_write_ch>
    502023aa:	fec42783          	lw	a5,-20(s0)
    502023ae:	2785                	addiw	a5,a5,1
    502023b0:	fef42623          	sw	a5,-20(s0)
    502023b4:	fec42703          	lw	a4,-20(s0)
    502023b8:	fe842783          	lw	a5,-24(s0)
    502023bc:	2701                	sext.w	a4,a4
    502023be:	2781                	sext.w	a5,a5
    502023c0:	fcf74be3          	blt	a4,a5,50202396 <screen_write+0x24>
    502023c4:	0001                	nop
    502023c6:	0001                	nop
    502023c8:	70a2                	ld	ra,40(sp)
    502023ca:	7402                	ld	s0,32(sp)
    502023cc:	6145                	addi	sp,sp,48
    502023ce:	8082                	ret

00000000502023d0 <serial_getchar>:
    502023d0:	1141                	addi	sp,sp,-16
    502023d2:	e406                	sd	ra,8(sp)
    502023d4:	e022                	sd	s0,0(sp)
    502023d6:	0800                	addi	s0,sp,16
    502023d8:	c27ff0ef          	jal	ra,50201ffe <sbi_console_getchar>
    502023dc:	87aa                	mv	a5,a0
    502023de:	853e                	mv	a0,a5
    502023e0:	60a2                	ld	ra,8(sp)
    502023e2:	6402                	ld	s0,0(sp)
    502023e4:	0141                	addi	sp,sp,16
    502023e6:	8082                	ret

00000000502023e8 <serial_putchar>:
    502023e8:	1101                	addi	sp,sp,-32
    502023ea:	ec06                	sd	ra,24(sp)
    502023ec:	e822                	sd	s0,16(sp)
    502023ee:	1000                	addi	s0,sp,32
    502023f0:	87aa                	mv	a5,a0
    502023f2:	fef42623          	sw	a5,-20(s0)
    502023f6:	fec42783          	lw	a5,-20(s0)
    502023fa:	853e                	mv	a0,a5
    502023fc:	bdfff0ef          	jal	ra,50201fda <sbi_console_putchar>
    50202400:	0001                	nop
    50202402:	60e2                	ld	ra,24(sp)
    50202404:	6442                	ld	s0,16(sp)
    50202406:	6105                	addi	sp,sp,32
    50202408:	8082                	ret

000000005020240a <screen_reflush>:
    5020240a:	1101                	addi	sp,sp,-32
    5020240c:	ec06                	sd	ra,24(sp)
    5020240e:	e822                	sd	s0,16(sp)
    50202410:	1000                	addi	s0,sp,32
    50202412:	c6bfe0ef          	jal	ra,5020107c <get_current_cpu_id>
    50202416:	87aa                	mv	a5,a0
    50202418:	e791                	bnez	a5,50202424 <screen_reflush+0x1a>
    5020241a:	00009797          	auipc	a5,0x9
    5020241e:	17e78793          	addi	a5,a5,382 # 5020b598 <current_running_core0>
    50202422:	a029                	j	5020242c <screen_reflush+0x22>
    50202424:	00009797          	auipc	a5,0x9
    50202428:	16c78793          	addi	a5,a5,364 # 5020b590 <current_running_core1>
    5020242c:	0000b717          	auipc	a4,0xb
    50202430:	92470713          	addi	a4,a4,-1756 # 5020cd50 <current_running>
    50202434:	e31c                	sd	a5,0(a4)
    50202436:	0000b797          	auipc	a5,0xb
    5020243a:	91a78793          	addi	a5,a5,-1766 # 5020cd50 <current_running>
    5020243e:	639c                	ld	a5,0(a5)
    50202440:	639c                	ld	a5,0(a5)
    50202442:	5f9c                	lw	a5,56(a5)
    50202444:	fef42223          	sw	a5,-28(s0)
    50202448:	0000b797          	auipc	a5,0xb
    5020244c:	90878793          	addi	a5,a5,-1784 # 5020cd50 <current_running>
    50202450:	639c                	ld	a5,0(a5)
    50202452:	639c                	ld	a5,0(a5)
    50202454:	5fdc                	lw	a5,60(a5)
    50202456:	fef42023          	sw	a5,-32(s0)
    5020245a:	fe042623          	sw	zero,-20(s0)
    5020245e:	aa31                	j	5020257a <screen_reflush+0x170>
    50202460:	fe042423          	sw	zero,-24(s0)
    50202464:	a8f5                	j	50202560 <screen_reflush+0x156>
    50202466:	fec42703          	lw	a4,-20(s0)
    5020246a:	87ba                	mv	a5,a4
    5020246c:	0027979b          	slliw	a5,a5,0x2
    50202470:	9fb9                	addw	a5,a5,a4
    50202472:	0047979b          	slliw	a5,a5,0x4
    50202476:	2781                	sext.w	a5,a5
    50202478:	fe842703          	lw	a4,-24(s0)
    5020247c:	9fb9                	addw	a5,a5,a4
    5020247e:	2781                	sext.w	a5,a5
    50202480:	00007717          	auipc	a4,0x7
    50202484:	11870713          	addi	a4,a4,280 # 50209598 <new_screen>
    50202488:	97ba                	add	a5,a5,a4
    5020248a:	0007c683          	lbu	a3,0(a5)
    5020248e:	fec42703          	lw	a4,-20(s0)
    50202492:	87ba                	mv	a5,a4
    50202494:	0027979b          	slliw	a5,a5,0x2
    50202498:	9fb9                	addw	a5,a5,a4
    5020249a:	0047979b          	slliw	a5,a5,0x4
    5020249e:	2781                	sext.w	a5,a5
    502024a0:	fe842703          	lw	a4,-24(s0)
    502024a4:	9fb9                	addw	a5,a5,a4
    502024a6:	2781                	sext.w	a5,a5
    502024a8:	00008717          	auipc	a4,0x8
    502024ac:	09070713          	addi	a4,a4,144 # 5020a538 <old_screen>
    502024b0:	97ba                	add	a5,a5,a4
    502024b2:	0007c783          	lbu	a5,0(a5)
    502024b6:	8736                	mv	a4,a3
    502024b8:	08f70f63          	beq	a4,a5,50202556 <screen_reflush+0x14c>
    502024bc:	fe842783          	lw	a5,-24(s0)
    502024c0:	2785                	addiw	a5,a5,1
    502024c2:	0007871b          	sext.w	a4,a5
    502024c6:	fec42783          	lw	a5,-20(s0)
    502024ca:	2785                	addiw	a5,a5,1
    502024cc:	2781                	sext.w	a5,a5
    502024ce:	85be                	mv	a1,a5
    502024d0:	853a                	mv	a0,a4
    502024d2:	b4bff0ef          	jal	ra,5020201c <vt100_move_cursor>
    502024d6:	fec42703          	lw	a4,-20(s0)
    502024da:	87ba                	mv	a5,a4
    502024dc:	0027979b          	slliw	a5,a5,0x2
    502024e0:	9fb9                	addw	a5,a5,a4
    502024e2:	0047979b          	slliw	a5,a5,0x4
    502024e6:	2781                	sext.w	a5,a5
    502024e8:	fe842703          	lw	a4,-24(s0)
    502024ec:	9fb9                	addw	a5,a5,a4
    502024ee:	2781                	sext.w	a5,a5
    502024f0:	00007717          	auipc	a4,0x7
    502024f4:	0a870713          	addi	a4,a4,168 # 50209598 <new_screen>
    502024f8:	97ba                	add	a5,a5,a4
    502024fa:	0007c783          	lbu	a5,0(a5)
    502024fe:	853e                	mv	a0,a5
    50202500:	dbdfe0ef          	jal	ra,502012bc <port_write_ch>
    50202504:	fec42703          	lw	a4,-20(s0)
    50202508:	87ba                	mv	a5,a4
    5020250a:	0027979b          	slliw	a5,a5,0x2
    5020250e:	9fb9                	addw	a5,a5,a4
    50202510:	0047979b          	slliw	a5,a5,0x4
    50202514:	2781                	sext.w	a5,a5
    50202516:	fe842703          	lw	a4,-24(s0)
    5020251a:	9fb9                	addw	a5,a5,a4
    5020251c:	0007869b          	sext.w	a3,a5
    50202520:	fec42703          	lw	a4,-20(s0)
    50202524:	87ba                	mv	a5,a4
    50202526:	0027979b          	slliw	a5,a5,0x2
    5020252a:	9fb9                	addw	a5,a5,a4
    5020252c:	0047979b          	slliw	a5,a5,0x4
    50202530:	2781                	sext.w	a5,a5
    50202532:	fe842703          	lw	a4,-24(s0)
    50202536:	9fb9                	addw	a5,a5,a4
    50202538:	2781                	sext.w	a5,a5
    5020253a:	00007717          	auipc	a4,0x7
    5020253e:	05e70713          	addi	a4,a4,94 # 50209598 <new_screen>
    50202542:	9736                	add	a4,a4,a3
    50202544:	00074703          	lbu	a4,0(a4)
    50202548:	00008697          	auipc	a3,0x8
    5020254c:	ff068693          	addi	a3,a3,-16 # 5020a538 <old_screen>
    50202550:	97b6                	add	a5,a5,a3
    50202552:	00e78023          	sb	a4,0(a5)
    50202556:	fe842783          	lw	a5,-24(s0)
    5020255a:	2785                	addiw	a5,a5,1
    5020255c:	fef42423          	sw	a5,-24(s0)
    50202560:	fe842783          	lw	a5,-24(s0)
    50202564:	0007871b          	sext.w	a4,a5
    50202568:	04f00793          	li	a5,79
    5020256c:	eee7dde3          	bge	a5,a4,50202466 <screen_reflush+0x5c>
    50202570:	fec42783          	lw	a5,-20(s0)
    50202574:	2785                	addiw	a5,a5,1
    50202576:	fef42623          	sw	a5,-20(s0)
    5020257a:	fec42783          	lw	a5,-20(s0)
    5020257e:	0007871b          	sext.w	a4,a5
    50202582:	03100793          	li	a5,49
    50202586:	ece7dde3          	bge	a5,a4,50202460 <screen_reflush+0x56>
    5020258a:	0000a797          	auipc	a5,0xa
    5020258e:	7c678793          	addi	a5,a5,1990 # 5020cd50 <current_running>
    50202592:	639c                	ld	a5,0(a5)
    50202594:	639c                	ld	a5,0(a5)
    50202596:	fe442703          	lw	a4,-28(s0)
    5020259a:	df98                	sw	a4,56(a5)
    5020259c:	0000a797          	auipc	a5,0xa
    502025a0:	7b478793          	addi	a5,a5,1972 # 5020cd50 <current_running>
    502025a4:	639c                	ld	a5,0(a5)
    502025a6:	639c                	ld	a5,0(a5)
    502025a8:	fe042703          	lw	a4,-32(s0)
    502025ac:	dfd8                	sw	a4,60(a5)
    502025ae:	0000a797          	auipc	a5,0xa
    502025b2:	7a278793          	addi	a5,a5,1954 # 5020cd50 <current_running>
    502025b6:	639c                	ld	a5,0(a5)
    502025b8:	639c                	ld	a5,0(a5)
    502025ba:	5f98                	lw	a4,56(a5)
    502025bc:	0000a797          	auipc	a5,0xa
    502025c0:	79478793          	addi	a5,a5,1940 # 5020cd50 <current_running>
    502025c4:	639c                	ld	a5,0(a5)
    502025c6:	639c                	ld	a5,0(a5)
    502025c8:	5fdc                	lw	a5,60(a5)
    502025ca:	85be                	mv	a1,a5
    502025cc:	853a                	mv	a0,a4
    502025ce:	a4fff0ef          	jal	ra,5020201c <vt100_move_cursor>
    502025d2:	0001                	nop
    502025d4:	60e2                	ld	ra,24(sp)
    502025d6:	6442                	ld	s0,16(sp)
    502025d8:	6105                	addi	sp,sp,32
    502025da:	8082                	ret

00000000502025dc <screen_scroll>:
    502025dc:	7179                	addi	sp,sp,-48
    502025de:	f406                	sd	ra,40(sp)
    502025e0:	f022                	sd	s0,32(sp)
    502025e2:	1800                	addi	s0,sp,48
    502025e4:	87aa                	mv	a5,a0
    502025e6:	872e                	mv	a4,a1
    502025e8:	fcf42e23          	sw	a5,-36(s0)
    502025ec:	87ba                	mv	a5,a4
    502025ee:	fcf42c23          	sw	a5,-40(s0)
    502025f2:	a8bfe0ef          	jal	ra,5020107c <get_current_cpu_id>
    502025f6:	87aa                	mv	a5,a0
    502025f8:	e791                	bnez	a5,50202604 <screen_scroll+0x28>
    502025fa:	00009797          	auipc	a5,0x9
    502025fe:	f9e78793          	addi	a5,a5,-98 # 5020b598 <current_running_core0>
    50202602:	a029                	j	5020260c <screen_scroll+0x30>
    50202604:	00009797          	auipc	a5,0x9
    50202608:	f8c78793          	addi	a5,a5,-116 # 5020b590 <current_running_core1>
    5020260c:	0000a717          	auipc	a4,0xa
    50202610:	74470713          	addi	a4,a4,1860 # 5020cd50 <current_running>
    50202614:	e31c                	sd	a5,0(a4)
    50202616:	fdc42783          	lw	a5,-36(s0)
    5020261a:	fef42623          	sw	a5,-20(s0)
    5020261e:	a891                	j	50202672 <screen_scroll+0x96>
    50202620:	fe042423          	sw	zero,-24(s0)
    50202624:	a815                	j	50202658 <screen_scroll+0x7c>
    50202626:	fec42703          	lw	a4,-20(s0)
    5020262a:	87ba                	mv	a5,a4
    5020262c:	0027979b          	slliw	a5,a5,0x2
    50202630:	9fb9                	addw	a5,a5,a4
    50202632:	0047979b          	slliw	a5,a5,0x4
    50202636:	2781                	sext.w	a5,a5
    50202638:	fe842703          	lw	a4,-24(s0)
    5020263c:	9fb9                	addw	a5,a5,a4
    5020263e:	2781                	sext.w	a5,a5
    50202640:	00008717          	auipc	a4,0x8
    50202644:	ef870713          	addi	a4,a4,-264 # 5020a538 <old_screen>
    50202648:	97ba                	add	a5,a5,a4
    5020264a:	00078023          	sb	zero,0(a5)
    5020264e:	fe842783          	lw	a5,-24(s0)
    50202652:	2785                	addiw	a5,a5,1
    50202654:	fef42423          	sw	a5,-24(s0)
    50202658:	fe842783          	lw	a5,-24(s0)
    5020265c:	0007871b          	sext.w	a4,a5
    50202660:	04f00793          	li	a5,79
    50202664:	fce7d1e3          	bge	a5,a4,50202626 <screen_scroll+0x4a>
    50202668:	fec42783          	lw	a5,-20(s0)
    5020266c:	2785                	addiw	a5,a5,1
    5020266e:	fef42623          	sw	a5,-20(s0)
    50202672:	fec42703          	lw	a4,-20(s0)
    50202676:	fd842783          	lw	a5,-40(s0)
    5020267a:	2701                	sext.w	a4,a4
    5020267c:	2781                	sext.w	a5,a5
    5020267e:	fae7d1e3          	bge	a5,a4,50202620 <screen_scroll+0x44>
    50202682:	fdc42783          	lw	a5,-36(s0)
    50202686:	fef42623          	sw	a5,-20(s0)
    5020268a:	a0c9                	j	5020274c <screen_scroll+0x170>
    5020268c:	fe042423          	sw	zero,-24(s0)
    50202690:	a04d                	j	50202732 <screen_scroll+0x156>
    50202692:	fec42703          	lw	a4,-20(s0)
    50202696:	fd842783          	lw	a5,-40(s0)
    5020269a:	2701                	sext.w	a4,a4
    5020269c:	2781                	sext.w	a5,a5
    5020269e:	02f71963          	bne	a4,a5,502026d0 <screen_scroll+0xf4>
    502026a2:	fec42703          	lw	a4,-20(s0)
    502026a6:	87ba                	mv	a5,a4
    502026a8:	0027979b          	slliw	a5,a5,0x2
    502026ac:	9fb9                	addw	a5,a5,a4
    502026ae:	0047979b          	slliw	a5,a5,0x4
    502026b2:	2781                	sext.w	a5,a5
    502026b4:	fe842703          	lw	a4,-24(s0)
    502026b8:	9fb9                	addw	a5,a5,a4
    502026ba:	2781                	sext.w	a5,a5
    502026bc:	00007717          	auipc	a4,0x7
    502026c0:	edc70713          	addi	a4,a4,-292 # 50209598 <new_screen>
    502026c4:	97ba                	add	a5,a5,a4
    502026c6:	02000713          	li	a4,32
    502026ca:	00e78023          	sb	a4,0(a5)
    502026ce:	a8a9                	j	50202728 <screen_scroll+0x14c>
    502026d0:	fec42783          	lw	a5,-20(s0)
    502026d4:	2785                	addiw	a5,a5,1
    502026d6:	2781                	sext.w	a5,a5
    502026d8:	873e                	mv	a4,a5
    502026da:	87ba                	mv	a5,a4
    502026dc:	0027979b          	slliw	a5,a5,0x2
    502026e0:	9fb9                	addw	a5,a5,a4
    502026e2:	0047979b          	slliw	a5,a5,0x4
    502026e6:	2781                	sext.w	a5,a5
    502026e8:	fe842703          	lw	a4,-24(s0)
    502026ec:	9fb9                	addw	a5,a5,a4
    502026ee:	0007869b          	sext.w	a3,a5
    502026f2:	fec42703          	lw	a4,-20(s0)
    502026f6:	87ba                	mv	a5,a4
    502026f8:	0027979b          	slliw	a5,a5,0x2
    502026fc:	9fb9                	addw	a5,a5,a4
    502026fe:	0047979b          	slliw	a5,a5,0x4
    50202702:	2781                	sext.w	a5,a5
    50202704:	fe842703          	lw	a4,-24(s0)
    50202708:	9fb9                	addw	a5,a5,a4
    5020270a:	2781                	sext.w	a5,a5
    5020270c:	00007717          	auipc	a4,0x7
    50202710:	e8c70713          	addi	a4,a4,-372 # 50209598 <new_screen>
    50202714:	9736                	add	a4,a4,a3
    50202716:	00074703          	lbu	a4,0(a4)
    5020271a:	00007697          	auipc	a3,0x7
    5020271e:	e7e68693          	addi	a3,a3,-386 # 50209598 <new_screen>
    50202722:	97b6                	add	a5,a5,a3
    50202724:	00e78023          	sb	a4,0(a5)
    50202728:	fe842783          	lw	a5,-24(s0)
    5020272c:	2785                	addiw	a5,a5,1
    5020272e:	fef42423          	sw	a5,-24(s0)
    50202732:	fe842783          	lw	a5,-24(s0)
    50202736:	0007871b          	sext.w	a4,a5
    5020273a:	04f00793          	li	a5,79
    5020273e:	f4e7dae3          	bge	a5,a4,50202692 <screen_scroll+0xb6>
    50202742:	fec42783          	lw	a5,-20(s0)
    50202746:	2785                	addiw	a5,a5,1
    50202748:	fef42623          	sw	a5,-20(s0)
    5020274c:	fec42703          	lw	a4,-20(s0)
    50202750:	fd842783          	lw	a5,-40(s0)
    50202754:	2701                	sext.w	a4,a4
    50202756:	2781                	sext.w	a5,a5
    50202758:	f2e7dae3          	bge	a5,a4,5020268c <screen_scroll+0xb0>
    5020275c:	0000a797          	auipc	a5,0xa
    50202760:	5f478793          	addi	a5,a5,1524 # 5020cd50 <current_running>
    50202764:	639c                	ld	a5,0(a5)
    50202766:	639c                	ld	a5,0(a5)
    50202768:	5fd8                	lw	a4,60(a5)
    5020276a:	377d                	addiw	a4,a4,-1
    5020276c:	2701                	sext.w	a4,a4
    5020276e:	dfd8                	sw	a4,60(a5)
    50202770:	c9bff0ef          	jal	ra,5020240a <screen_reflush>
    50202774:	0001                	nop
    50202776:	70a2                	ld	ra,40(sp)
    50202778:	7402                	ld	s0,32(sp)
    5020277a:	6145                	addi	sp,sp,48
    5020277c:	8082                	ret

000000005020277e <kernel_screen_scroll_check>:
    5020277e:	1141                	addi	sp,sp,-16
    50202780:	e406                	sd	ra,8(sp)
    50202782:	e022                	sd	s0,0(sp)
    50202784:	0800                	addi	s0,sp,16
    50202786:	8f7fe0ef          	jal	ra,5020107c <get_current_cpu_id>
    5020278a:	87aa                	mv	a5,a0
    5020278c:	e791                	bnez	a5,50202798 <kernel_screen_scroll_check+0x1a>
    5020278e:	00009797          	auipc	a5,0x9
    50202792:	e0a78793          	addi	a5,a5,-502 # 5020b598 <current_running_core0>
    50202796:	a029                	j	502027a0 <kernel_screen_scroll_check+0x22>
    50202798:	00009797          	auipc	a5,0x9
    5020279c:	df878793          	addi	a5,a5,-520 # 5020b590 <current_running_core1>
    502027a0:	0000a717          	auipc	a4,0xa
    502027a4:	5b070713          	addi	a4,a4,1456 # 5020cd50 <current_running>
    502027a8:	e31c                	sd	a5,0(a4)
    502027aa:	0000a797          	auipc	a5,0xa
    502027ae:	5a678793          	addi	a5,a5,1446 # 5020cd50 <current_running>
    502027b2:	639c                	ld	a5,0(a5)
    502027b4:	639c                	ld	a5,0(a5)
    502027b6:	5fdc                	lw	a5,60(a5)
    502027b8:	873e                	mv	a4,a5
    502027ba:	47f9                	li	a5,30
    502027bc:	00e7df63          	bge	a5,a4,502027da <kernel_screen_scroll_check+0x5c>
    502027c0:	0000a797          	auipc	a5,0xa
    502027c4:	59078793          	addi	a5,a5,1424 # 5020cd50 <current_running>
    502027c8:	639c                	ld	a5,0(a5)
    502027ca:	639c                	ld	a5,0(a5)
    502027cc:	5fdc                	lw	a5,60(a5)
    502027ce:	37fd                	addiw	a5,a5,-1
    502027d0:	2781                	sext.w	a5,a5
    502027d2:	85be                	mv	a1,a5
    502027d4:	4541                	li	a0,16
    502027d6:	e07ff0ef          	jal	ra,502025dc <screen_scroll>
    502027da:	0001                	nop
    502027dc:	60a2                	ld	ra,8(sp)
    502027de:	6402                	ld	s0,0(sp)
    502027e0:	0141                	addi	sp,sp,16
    502027e2:	8082                	ret

00000000502027e4 <init_list_head>:
    502027e4:	1101                	addi	sp,sp,-32
    502027e6:	ec22                	sd	s0,24(sp)
    502027e8:	1000                	addi	s0,sp,32
    502027ea:	fea43423          	sd	a0,-24(s0)
    502027ee:	fe843783          	ld	a5,-24(s0)
    502027f2:	fe843703          	ld	a4,-24(s0)
    502027f6:	e398                	sd	a4,0(a5)
    502027f8:	fe843783          	ld	a5,-24(s0)
    502027fc:	fe843703          	ld	a4,-24(s0)
    50202800:	e798                	sd	a4,8(a5)
    50202802:	0001                	nop
    50202804:	6462                	ld	s0,24(sp)
    50202806:	6105                	addi	sp,sp,32
    50202808:	8082                	ret

000000005020280a <list_empty>:
    5020280a:	1101                	addi	sp,sp,-32
    5020280c:	ec22                	sd	s0,24(sp)
    5020280e:	1000                	addi	s0,sp,32
    50202810:	fea43423          	sd	a0,-24(s0)
    50202814:	fe843783          	ld	a5,-24(s0)
    50202818:	639c                	ld	a5,0(a5)
    5020281a:	fe843703          	ld	a4,-24(s0)
    5020281e:	40f707b3          	sub	a5,a4,a5
    50202822:	0017b793          	seqz	a5,a5
    50202826:	0ff7f793          	andi	a5,a5,255
    5020282a:	2781                	sext.w	a5,a5
    5020282c:	853e                	mv	a0,a5
    5020282e:	6462                	ld	s0,24(sp)
    50202830:	6105                	addi	sp,sp,32
    50202832:	8082                	ret

0000000050202834 <atomic_swap_d>:
    50202834:	7179                	addi	sp,sp,-48
    50202836:	f422                	sd	s0,40(sp)
    50202838:	1800                	addi	s0,sp,48
    5020283a:	fca43c23          	sd	a0,-40(s0)
    5020283e:	fcb43823          	sd	a1,-48(s0)
    50202842:	fd043783          	ld	a5,-48(s0)
    50202846:	fd843703          	ld	a4,-40(s0)
    5020284a:	0ee7b72f          	amoswap.d.aqrl	a4,a4,(a5)
    5020284e:	fee43423          	sd	a4,-24(s0)
    50202852:	fe843783          	ld	a5,-24(s0)
    50202856:	853e                	mv	a0,a5
    50202858:	7422                	ld	s0,40(sp)
    5020285a:	6145                	addi	sp,sp,48
    5020285c:	8082                	ret

000000005020285e <spin_lock_init>:
    5020285e:	1101                	addi	sp,sp,-32
    50202860:	ec22                	sd	s0,24(sp)
    50202862:	1000                	addi	s0,sp,32
    50202864:	fea43423          	sd	a0,-24(s0)
    50202868:	fe843783          	ld	a5,-24(s0)
    5020286c:	0007a023          	sw	zero,0(a5)
    50202870:	0001                	nop
    50202872:	6462                	ld	s0,24(sp)
    50202874:	6105                	addi	sp,sp,32
    50202876:	8082                	ret

0000000050202878 <spin_lock_try_acquire>:
    50202878:	1101                	addi	sp,sp,-32
    5020287a:	ec06                	sd	ra,24(sp)
    5020287c:	e822                	sd	s0,16(sp)
    5020287e:	1000                	addi	s0,sp,32
    50202880:	fea43423          	sd	a0,-24(s0)
    50202884:	fe843783          	ld	a5,-24(s0)
    50202888:	85be                	mv	a1,a5
    5020288a:	4505                	li	a0,1
    5020288c:	fa9ff0ef          	jal	ra,50202834 <atomic_swap_d>
    50202890:	87aa                	mv	a5,a0
    50202892:	2781                	sext.w	a5,a5
    50202894:	853e                	mv	a0,a5
    50202896:	60e2                	ld	ra,24(sp)
    50202898:	6442                	ld	s0,16(sp)
    5020289a:	6105                	addi	sp,sp,32
    5020289c:	8082                	ret

000000005020289e <spin_lock_acquire>:
    5020289e:	1101                	addi	sp,sp,-32
    502028a0:	ec06                	sd	ra,24(sp)
    502028a2:	e822                	sd	s0,16(sp)
    502028a4:	1000                	addi	s0,sp,32
    502028a6:	fea43423          	sd	a0,-24(s0)
    502028aa:	0001                	nop
    502028ac:	fe843503          	ld	a0,-24(s0)
    502028b0:	fc9ff0ef          	jal	ra,50202878 <spin_lock_try_acquire>
    502028b4:	87aa                	mv	a5,a0
    502028b6:	873e                	mv	a4,a5
    502028b8:	4785                	li	a5,1
    502028ba:	fef709e3          	beq	a4,a5,502028ac <spin_lock_acquire+0xe>
    502028be:	0001                	nop
    502028c0:	0001                	nop
    502028c2:	60e2                	ld	ra,24(sp)
    502028c4:	6442                	ld	s0,16(sp)
    502028c6:	6105                	addi	sp,sp,32
    502028c8:	8082                	ret

00000000502028ca <spin_lock_release>:
    502028ca:	1101                	addi	sp,sp,-32
    502028cc:	ec22                	sd	s0,24(sp)
    502028ce:	1000                	addi	s0,sp,32
    502028d0:	fea43423          	sd	a0,-24(s0)
    502028d4:	fe843783          	ld	a5,-24(s0)
    502028d8:	0007a023          	sw	zero,0(a5)
    502028dc:	0001                	nop
    502028de:	6462                	ld	s0,24(sp)
    502028e0:	6105                	addi	sp,sp,32
    502028e2:	8082                	ret

00000000502028e4 <do_mutex_lock_init>:
    502028e4:	1101                	addi	sp,sp,-32
    502028e6:	ec06                	sd	ra,24(sp)
    502028e8:	e822                	sd	s0,16(sp)
    502028ea:	1000                	addi	s0,sp,32
    502028ec:	fea43423          	sd	a0,-24(s0)
    502028f0:	fe843783          	ld	a5,-24(s0)
    502028f4:	07a1                	addi	a5,a5,8
    502028f6:	853e                	mv	a0,a5
    502028f8:	eedff0ef          	jal	ra,502027e4 <init_list_head>
    502028fc:	fe843783          	ld	a5,-24(s0)
    50202900:	0007a023          	sw	zero,0(a5)
    50202904:	0001                	nop
    50202906:	60e2                	ld	ra,24(sp)
    50202908:	6442                	ld	s0,16(sp)
    5020290a:	6105                	addi	sp,sp,32
    5020290c:	8082                	ret

000000005020290e <do_mutex_lock_acquire>:
    5020290e:	1101                	addi	sp,sp,-32
    50202910:	ec06                	sd	ra,24(sp)
    50202912:	e822                	sd	s0,16(sp)
    50202914:	1000                	addi	s0,sp,32
    50202916:	fea43423          	sd	a0,-24(s0)
    5020291a:	f62fe0ef          	jal	ra,5020107c <get_current_cpu_id>
    5020291e:	87aa                	mv	a5,a0
    50202920:	e791                	bnez	a5,5020292c <do_mutex_lock_acquire+0x1e>
    50202922:	00009797          	auipc	a5,0x9
    50202926:	c7678793          	addi	a5,a5,-906 # 5020b598 <current_running_core0>
    5020292a:	a029                	j	50202934 <do_mutex_lock_acquire+0x26>
    5020292c:	00009797          	auipc	a5,0x9
    50202930:	c6478793          	addi	a5,a5,-924 # 5020b590 <current_running_core1>
    50202934:	0000a717          	auipc	a4,0xa
    50202938:	41c70713          	addi	a4,a4,1052 # 5020cd50 <current_running>
    5020293c:	e31c                	sd	a5,0(a4)
    5020293e:	fe843783          	ld	a5,-24(s0)
    50202942:	439c                	lw	a5,0(a5)
    50202944:	2781                	sext.w	a5,a5
    50202946:	873e                	mv	a4,a5
    50202948:	4785                	li	a5,1
    5020294a:	02f71063          	bne	a4,a5,5020296a <do_mutex_lock_acquire+0x5c>
    5020294e:	0000a797          	auipc	a5,0xa
    50202952:	40278793          	addi	a5,a5,1026 # 5020cd50 <current_running>
    50202956:	639c                	ld	a5,0(a5)
    50202958:	6398                	ld	a4,0(a5)
    5020295a:	fe843783          	ld	a5,-24(s0)
    5020295e:	07a1                	addi	a5,a5,8
    50202960:	85be                	mv	a1,a5
    50202962:	853a                	mv	a0,a4
    50202964:	091010ef          	jal	ra,502041f4 <do_block>
    50202968:	a029                	j	50202972 <do_mutex_lock_acquire+0x64>
    5020296a:	fe843783          	ld	a5,-24(s0)
    5020296e:	4705                	li	a4,1
    50202970:	c398                	sw	a4,0(a5)
    50202972:	0001                	nop
    50202974:	60e2                	ld	ra,24(sp)
    50202976:	6442                	ld	s0,16(sp)
    50202978:	6105                	addi	sp,sp,32
    5020297a:	8082                	ret

000000005020297c <do_mutex_lock_release>:
    5020297c:	1101                	addi	sp,sp,-32
    5020297e:	ec06                	sd	ra,24(sp)
    50202980:	e822                	sd	s0,16(sp)
    50202982:	1000                	addi	s0,sp,32
    50202984:	fea43423          	sd	a0,-24(s0)
    50202988:	fe843783          	ld	a5,-24(s0)
    5020298c:	07a1                	addi	a5,a5,8
    5020298e:	853e                	mv	a0,a5
    50202990:	e7bff0ef          	jal	ra,5020280a <list_empty>
    50202994:	87aa                	mv	a5,a0
    50202996:	c791                	beqz	a5,502029a2 <do_mutex_lock_release+0x26>
    50202998:	fe843783          	ld	a5,-24(s0)
    5020299c:	0007a023          	sw	zero,0(a5)
    502029a0:	a039                	j	502029ae <do_mutex_lock_release+0x32>
    502029a2:	fe843783          	ld	a5,-24(s0)
    502029a6:	07a1                	addi	a5,a5,8
    502029a8:	853e                	mv	a0,a5
    502029aa:	11b010ef          	jal	ra,502042c4 <do_unblock>
    502029ae:	0001                	nop
    502029b0:	60e2                	ld	ra,24(sp)
    502029b2:	6442                	ld	s0,16(sp)
    502029b4:	6105                	addi	sp,sp,32
    502029b6:	8082                	ret

00000000502029b8 <id_gen>:
    502029b8:	1101                	addi	sp,sp,-32
    502029ba:	ec06                	sd	ra,24(sp)
    502029bc:	e822                	sd	s0,16(sp)
    502029be:	1000                	addi	s0,sp,32
    502029c0:	539010ef          	jal	ra,502046f8 <get_ticks>
    502029c4:	fea43423          	sd	a0,-24(s0)
    502029c8:	fe843783          	ld	a5,-24(s0)
    502029cc:	0ff7f793          	andi	a5,a5,255
    502029d0:	2781                	sext.w	a5,a5
    502029d2:	853e                	mv	a0,a5
    502029d4:	60e2                	ld	ra,24(sp)
    502029d6:	6442                	ld	s0,16(sp)
    502029d8:	6105                	addi	sp,sp,32
    502029da:	8082                	ret

00000000502029dc <kernel_semget>:
    502029dc:	7179                	addi	sp,sp,-48
    502029de:	f406                	sd	ra,40(sp)
    502029e0:	f022                	sd	s0,32(sp)
    502029e2:	1800                	addi	s0,sp,48
    502029e4:	87aa                	mv	a5,a0
    502029e6:	fcf42e23          	sw	a5,-36(s0)
    502029ea:	fe042423          	sw	zero,-24(s0)
    502029ee:	a891                	j	50202a42 <kernel_semget+0x66>
    502029f0:	00009717          	auipc	a4,0x9
    502029f4:	d2070713          	addi	a4,a4,-736 # 5020b710 <sem_list>
    502029f8:	fe842783          	lw	a5,-24(s0)
    502029fc:	078e                	slli	a5,a5,0x3
    502029fe:	97ba                	add	a5,a5,a4
    50202a00:	639c                	ld	a5,0(a5)
    50202a02:	cb9d                	beqz	a5,50202a38 <kernel_semget+0x5c>
    50202a04:	00009717          	auipc	a4,0x9
    50202a08:	d0c70713          	addi	a4,a4,-756 # 5020b710 <sem_list>
    50202a0c:	fe842783          	lw	a5,-24(s0)
    50202a10:	078e                	slli	a5,a5,0x3
    50202a12:	97ba                	add	a5,a5,a4
    50202a14:	639c                	ld	a5,0(a5)
    50202a16:	43d8                	lw	a4,4(a5)
    50202a18:	fdc42783          	lw	a5,-36(s0)
    50202a1c:	2781                	sext.w	a5,a5
    50202a1e:	00e79d63          	bne	a5,a4,50202a38 <kernel_semget+0x5c>
    50202a22:	00009717          	auipc	a4,0x9
    50202a26:	cee70713          	addi	a4,a4,-786 # 5020b710 <sem_list>
    50202a2a:	fe842783          	lw	a5,-24(s0)
    50202a2e:	078e                	slli	a5,a5,0x3
    50202a30:	97ba                	add	a5,a5,a4
    50202a32:	639c                	ld	a5,0(a5)
    50202a34:	439c                	lw	a5,0(a5)
    50202a36:	a851                	j	50202aca <kernel_semget+0xee>
    50202a38:	fe842783          	lw	a5,-24(s0)
    50202a3c:	2785                	addiw	a5,a5,1
    50202a3e:	fef42423          	sw	a5,-24(s0)
    50202a42:	fe842783          	lw	a5,-24(s0)
    50202a46:	0007871b          	sext.w	a4,a5
    50202a4a:	0ff00793          	li	a5,255
    50202a4e:	fae7d1e3          	bge	a5,a4,502029f0 <kernel_semget+0x14>
    50202a52:	f67ff0ef          	jal	ra,502029b8 <id_gen>
    50202a56:	87aa                	mv	a5,a0
    50202a58:	fef42623          	sw	a5,-20(s0)
    50202a5c:	a031                	j	50202a68 <kernel_semget+0x8c>
    50202a5e:	f5bff0ef          	jal	ra,502029b8 <id_gen>
    50202a62:	87aa                	mv	a5,a0
    50202a64:	fef42623          	sw	a5,-20(s0)
    50202a68:	00009717          	auipc	a4,0x9
    50202a6c:	ca870713          	addi	a4,a4,-856 # 5020b710 <sem_list>
    50202a70:	fec42783          	lw	a5,-20(s0)
    50202a74:	078e                	slli	a5,a5,0x3
    50202a76:	97ba                	add	a5,a5,a4
    50202a78:	639c                	ld	a5,0(a5)
    50202a7a:	f3f5                	bnez	a5,50202a5e <kernel_semget+0x82>
    50202a7c:	02000513          	li	a0,32
    50202a80:	551010ef          	jal	ra,502047d0 <kmalloc>
    50202a84:	fea43023          	sd	a0,-32(s0)
    50202a88:	fe043783          	ld	a5,-32(s0)
    50202a8c:	fec42703          	lw	a4,-20(s0)
    50202a90:	c398                	sw	a4,0(a5)
    50202a92:	fe043783          	ld	a5,-32(s0)
    50202a96:	fdc42703          	lw	a4,-36(s0)
    50202a9a:	c3d8                	sw	a4,4(a5)
    50202a9c:	fe043783          	ld	a5,-32(s0)
    50202aa0:	0007a423          	sw	zero,8(a5)
    50202aa4:	fe043783          	ld	a5,-32(s0)
    50202aa8:	07c1                	addi	a5,a5,16
    50202aaa:	853e                	mv	a0,a5
    50202aac:	d39ff0ef          	jal	ra,502027e4 <init_list_head>
    50202ab0:	00009717          	auipc	a4,0x9
    50202ab4:	c6070713          	addi	a4,a4,-928 # 5020b710 <sem_list>
    50202ab8:	fec42783          	lw	a5,-20(s0)
    50202abc:	078e                	slli	a5,a5,0x3
    50202abe:	97ba                	add	a5,a5,a4
    50202ac0:	fe043703          	ld	a4,-32(s0)
    50202ac4:	e398                	sd	a4,0(a5)
    50202ac6:	fec42783          	lw	a5,-20(s0)
    50202aca:	853e                	mv	a0,a5
    50202acc:	70a2                	ld	ra,40(sp)
    50202ace:	7402                	ld	s0,32(sp)
    50202ad0:	6145                	addi	sp,sp,48
    50202ad2:	8082                	ret

0000000050202ad4 <kernel_binsemop>:
    50202ad4:	7179                	addi	sp,sp,-48
    50202ad6:	f406                	sd	ra,40(sp)
    50202ad8:	f022                	sd	s0,32(sp)
    50202ada:	1800                	addi	s0,sp,48
    50202adc:	87aa                	mv	a5,a0
    50202ade:	872e                	mv	a4,a1
    50202ae0:	fcf42e23          	sw	a5,-36(s0)
    50202ae4:	87ba                	mv	a5,a4
    50202ae6:	fcf42c23          	sw	a5,-40(s0)
    50202aea:	d92fe0ef          	jal	ra,5020107c <get_current_cpu_id>
    50202aee:	87aa                	mv	a5,a0
    50202af0:	e791                	bnez	a5,50202afc <kernel_binsemop+0x28>
    50202af2:	00009797          	auipc	a5,0x9
    50202af6:	aa678793          	addi	a5,a5,-1370 # 5020b598 <current_running_core0>
    50202afa:	a029                	j	50202b04 <kernel_binsemop+0x30>
    50202afc:	00009797          	auipc	a5,0x9
    50202b00:	a9478793          	addi	a5,a5,-1388 # 5020b590 <current_running_core1>
    50202b04:	0000a717          	auipc	a4,0xa
    50202b08:	24c70713          	addi	a4,a4,588 # 5020cd50 <current_running>
    50202b0c:	e31c                	sd	a5,0(a4)
    50202b0e:	00009717          	auipc	a4,0x9
    50202b12:	c0270713          	addi	a4,a4,-1022 # 5020b710 <sem_list>
    50202b16:	fdc42783          	lw	a5,-36(s0)
    50202b1a:	078e                	slli	a5,a5,0x3
    50202b1c:	97ba                	add	a5,a5,a4
    50202b1e:	639c                	ld	a5,0(a5)
    50202b20:	fef43023          	sd	a5,-32(s0)
    50202b24:	fd842783          	lw	a5,-40(s0)
    50202b28:	2781                	sext.w	a5,a5
    50202b2a:	e7d1                	bnez	a5,50202bb6 <kernel_binsemop+0xe2>
    50202b2c:	fe043783          	ld	a5,-32(s0)
    50202b30:	479c                	lw	a5,8(a5)
    50202b32:	873e                	mv	a4,a5
    50202b34:	4785                	li	a5,1
    50202b36:	02f71063          	bne	a4,a5,50202b56 <kernel_binsemop+0x82>
    50202b3a:	0000a797          	auipc	a5,0xa
    50202b3e:	21678793          	addi	a5,a5,534 # 5020cd50 <current_running>
    50202b42:	639c                	ld	a5,0(a5)
    50202b44:	6398                	ld	a4,0(a5)
    50202b46:	fe043783          	ld	a5,-32(s0)
    50202b4a:	07c1                	addi	a5,a5,16
    50202b4c:	85be                	mv	a1,a5
    50202b4e:	853a                	mv	a0,a4
    50202b50:	6a4010ef          	jal	ra,502041f4 <do_block>
    50202b54:	aa99                	j	50202caa <kernel_binsemop+0x1d6>
    50202b56:	d26fe0ef          	jal	ra,5020107c <get_current_cpu_id>
    50202b5a:	87aa                	mv	a5,a0
    50202b5c:	e791                	bnez	a5,50202b68 <kernel_binsemop+0x94>
    50202b5e:	00009797          	auipc	a5,0x9
    50202b62:	a3a78793          	addi	a5,a5,-1478 # 5020b598 <current_running_core0>
    50202b66:	a029                	j	50202b70 <kernel_binsemop+0x9c>
    50202b68:	00009797          	auipc	a5,0x9
    50202b6c:	a2878793          	addi	a5,a5,-1496 # 5020b590 <current_running_core1>
    50202b70:	0000a717          	auipc	a4,0xa
    50202b74:	1e070713          	addi	a4,a4,480 # 5020cd50 <current_running>
    50202b78:	e31c                	sd	a5,0(a4)
    50202b7a:	fe043783          	ld	a5,-32(s0)
    50202b7e:	4705                	li	a4,1
    50202b80:	c798                	sw	a4,8(a5)
    50202b82:	0000a797          	auipc	a5,0xa
    50202b86:	1ce78793          	addi	a5,a5,462 # 5020cd50 <current_running>
    50202b8a:	639c                	ld	a5,0(a5)
    50202b8c:	6394                	ld	a3,0(a5)
    50202b8e:	0000a797          	auipc	a5,0xa
    50202b92:	1c278793          	addi	a5,a5,450 # 5020cd50 <current_running>
    50202b96:	639c                	ld	a5,0(a5)
    50202b98:	6398                	ld	a4,0(a5)
    50202b9a:	0ac72783          	lw	a5,172(a4)
    50202b9e:	0017861b          	addiw	a2,a5,1
    50202ba2:	2601                	sext.w	a2,a2
    50202ba4:	0ac72623          	sw	a2,172(a4)
    50202ba8:	07e1                	addi	a5,a5,24
    50202baa:	078a                	slli	a5,a5,0x2
    50202bac:	97b6                	add	a5,a5,a3
    50202bae:	fdc42703          	lw	a4,-36(s0)
    50202bb2:	c7d8                	sw	a4,12(a5)
    50202bb4:	a8dd                	j	50202caa <kernel_binsemop+0x1d6>
    50202bb6:	fd842783          	lw	a5,-40(s0)
    50202bba:	0007871b          	sext.w	a4,a5
    50202bbe:	4785                	li	a5,1
    50202bc0:	0cf71e63          	bne	a4,a5,50202c9c <kernel_binsemop+0x1c8>
    50202bc4:	fe043783          	ld	a5,-32(s0)
    50202bc8:	07c1                	addi	a5,a5,16
    50202bca:	853e                	mv	a0,a5
    50202bcc:	c3fff0ef          	jal	ra,5020280a <list_empty>
    50202bd0:	87aa                	mv	a5,a0
    50202bd2:	cfc1                	beqz	a5,50202c6a <kernel_binsemop+0x196>
    50202bd4:	ca8fe0ef          	jal	ra,5020107c <get_current_cpu_id>
    50202bd8:	87aa                	mv	a5,a0
    50202bda:	e791                	bnez	a5,50202be6 <kernel_binsemop+0x112>
    50202bdc:	00009797          	auipc	a5,0x9
    50202be0:	9bc78793          	addi	a5,a5,-1604 # 5020b598 <current_running_core0>
    50202be4:	a029                	j	50202bee <kernel_binsemop+0x11a>
    50202be6:	00009797          	auipc	a5,0x9
    50202bea:	9aa78793          	addi	a5,a5,-1622 # 5020b590 <current_running_core1>
    50202bee:	0000a717          	auipc	a4,0xa
    50202bf2:	16270713          	addi	a4,a4,354 # 5020cd50 <current_running>
    50202bf6:	e31c                	sd	a5,0(a4)
    50202bf8:	fe042623          	sw	zero,-20(s0)
    50202bfc:	a0a9                	j	50202c46 <kernel_binsemop+0x172>
    50202bfe:	0000a797          	auipc	a5,0xa
    50202c02:	15278793          	addi	a5,a5,338 # 5020cd50 <current_running>
    50202c06:	639c                	ld	a5,0(a5)
    50202c08:	6398                	ld	a4,0(a5)
    50202c0a:	fec42783          	lw	a5,-20(s0)
    50202c0e:	07e1                	addi	a5,a5,24
    50202c10:	078a                	slli	a5,a5,0x2
    50202c12:	97ba                	add	a5,a5,a4
    50202c14:	47d8                	lw	a4,12(a5)
    50202c16:	fdc42783          	lw	a5,-36(s0)
    50202c1a:	2781                	sext.w	a5,a5
    50202c1c:	02e79063          	bne	a5,a4,50202c3c <kernel_binsemop+0x168>
    50202c20:	0000a797          	auipc	a5,0xa
    50202c24:	13078793          	addi	a5,a5,304 # 5020cd50 <current_running>
    50202c28:	639c                	ld	a5,0(a5)
    50202c2a:	6398                	ld	a4,0(a5)
    50202c2c:	fec42783          	lw	a5,-20(s0)
    50202c30:	07e1                	addi	a5,a5,24
    50202c32:	078a                	slli	a5,a5,0x2
    50202c34:	97ba                	add	a5,a5,a4
    50202c36:	577d                	li	a4,-1
    50202c38:	c7d8                	sw	a4,12(a5)
    50202c3a:	a01d                	j	50202c60 <kernel_binsemop+0x18c>
    50202c3c:	fec42783          	lw	a5,-20(s0)
    50202c40:	2785                	addiw	a5,a5,1
    50202c42:	fef42623          	sw	a5,-20(s0)
    50202c46:	0000a797          	auipc	a5,0xa
    50202c4a:	10a78793          	addi	a5,a5,266 # 5020cd50 <current_running>
    50202c4e:	639c                	ld	a5,0(a5)
    50202c50:	639c                	ld	a5,0(a5)
    50202c52:	0ac7a703          	lw	a4,172(a5)
    50202c56:	fec42783          	lw	a5,-20(s0)
    50202c5a:	2781                	sext.w	a5,a5
    50202c5c:	fae7c1e3          	blt	a5,a4,50202bfe <kernel_binsemop+0x12a>
    50202c60:	fe043783          	ld	a5,-32(s0)
    50202c64:	0007a423          	sw	zero,8(a5)
    50202c68:	a089                	j	50202caa <kernel_binsemop+0x1d6>
    50202c6a:	c12fe0ef          	jal	ra,5020107c <get_current_cpu_id>
    50202c6e:	87aa                	mv	a5,a0
    50202c70:	e791                	bnez	a5,50202c7c <kernel_binsemop+0x1a8>
    50202c72:	00009797          	auipc	a5,0x9
    50202c76:	92678793          	addi	a5,a5,-1754 # 5020b598 <current_running_core0>
    50202c7a:	a029                	j	50202c84 <kernel_binsemop+0x1b0>
    50202c7c:	00009797          	auipc	a5,0x9
    50202c80:	91478793          	addi	a5,a5,-1772 # 5020b590 <current_running_core1>
    50202c84:	0000a717          	auipc	a4,0xa
    50202c88:	0cc70713          	addi	a4,a4,204 # 5020cd50 <current_running>
    50202c8c:	e31c                	sd	a5,0(a4)
    50202c8e:	fe043783          	ld	a5,-32(s0)
    50202c92:	6b9c                	ld	a5,16(a5)
    50202c94:	853e                	mv	a0,a5
    50202c96:	62e010ef          	jal	ra,502042c4 <do_unblock>
    50202c9a:	a801                	j	50202caa <kernel_binsemop+0x1d6>
    50202c9c:	00005517          	auipc	a0,0x5
    50202ca0:	74c50513          	addi	a0,a0,1868 # 502083e8 <__FUNCTION__.1646+0x30>
    50202ca4:	648020ef          	jal	ra,502052ec <prints>
    50202ca8:	a001                	j	50202ca8 <kernel_binsemop+0x1d4>
    50202caa:	0001                	nop
    50202cac:	853e                	mv	a0,a5
    50202cae:	70a2                	ld	ra,40(sp)
    50202cb0:	7402                	ld	s0,32(sp)
    50202cb2:	6145                	addi	sp,sp,48
    50202cb4:	8082                	ret

0000000050202cb6 <kernel_sem_wait>:
    50202cb6:	7179                	addi	sp,sp,-48
    50202cb8:	f406                	sd	ra,40(sp)
    50202cba:	f022                	sd	s0,32(sp)
    50202cbc:	1800                	addi	s0,sp,48
    50202cbe:	87aa                	mv	a5,a0
    50202cc0:	872e                	mv	a4,a1
    50202cc2:	fcf42e23          	sw	a5,-36(s0)
    50202cc6:	87ba                	mv	a5,a4
    50202cc8:	fcf42c23          	sw	a5,-40(s0)
    50202ccc:	bb0fe0ef          	jal	ra,5020107c <get_current_cpu_id>
    50202cd0:	87aa                	mv	a5,a0
    50202cd2:	e791                	bnez	a5,50202cde <kernel_sem_wait+0x28>
    50202cd4:	00009797          	auipc	a5,0x9
    50202cd8:	8c478793          	addi	a5,a5,-1852 # 5020b598 <current_running_core0>
    50202cdc:	a029                	j	50202ce6 <kernel_sem_wait+0x30>
    50202cde:	00009797          	auipc	a5,0x9
    50202ce2:	8b278793          	addi	a5,a5,-1870 # 5020b590 <current_running_core1>
    50202ce6:	0000a717          	auipc	a4,0xa
    50202cea:	06a70713          	addi	a4,a4,106 # 5020cd50 <current_running>
    50202cee:	e31c                	sd	a5,0(a4)
    50202cf0:	00009717          	auipc	a4,0x9
    50202cf4:	a2070713          	addi	a4,a4,-1504 # 5020b710 <sem_list>
    50202cf8:	fdc42783          	lw	a5,-36(s0)
    50202cfc:	078e                	slli	a5,a5,0x3
    50202cfe:	97ba                	add	a5,a5,a4
    50202d00:	639c                	ld	a5,0(a5)
    50202d02:	fef43423          	sd	a5,-24(s0)
    50202d06:	fe843783          	ld	a5,-24(s0)
    50202d0a:	479c                	lw	a5,8(a5)
    50202d0c:	2785                	addiw	a5,a5,1
    50202d0e:	0007871b          	sext.w	a4,a5
    50202d12:	fe843783          	ld	a5,-24(s0)
    50202d16:	c798                	sw	a4,8(a5)
    50202d18:	fd842783          	lw	a5,-40(s0)
    50202d1c:	4585                	li	a1,1
    50202d1e:	853e                	mv	a0,a5
    50202d20:	db5ff0ef          	jal	ra,50202ad4 <kernel_binsemop>
    50202d24:	b58fe0ef          	jal	ra,5020107c <get_current_cpu_id>
    50202d28:	87aa                	mv	a5,a0
    50202d2a:	e791                	bnez	a5,50202d36 <kernel_sem_wait+0x80>
    50202d2c:	00009797          	auipc	a5,0x9
    50202d30:	86c78793          	addi	a5,a5,-1940 # 5020b598 <current_running_core0>
    50202d34:	a029                	j	50202d3e <kernel_sem_wait+0x88>
    50202d36:	00009797          	auipc	a5,0x9
    50202d3a:	85a78793          	addi	a5,a5,-1958 # 5020b590 <current_running_core1>
    50202d3e:	0000a717          	auipc	a4,0xa
    50202d42:	01270713          	addi	a4,a4,18 # 5020cd50 <current_running>
    50202d46:	e31c                	sd	a5,0(a4)
    50202d48:	0000a797          	auipc	a5,0xa
    50202d4c:	00878793          	addi	a5,a5,8 # 5020cd50 <current_running>
    50202d50:	639c                	ld	a5,0(a5)
    50202d52:	6398                	ld	a4,0(a5)
    50202d54:	fe843783          	ld	a5,-24(s0)
    50202d58:	07c1                	addi	a5,a5,16
    50202d5a:	85be                	mv	a1,a5
    50202d5c:	853a                	mv	a0,a4
    50202d5e:	496010ef          	jal	ra,502041f4 <do_block>
    50202d62:	fd842783          	lw	a5,-40(s0)
    50202d66:	4581                	li	a1,0
    50202d68:	853e                	mv	a0,a5
    50202d6a:	d6bff0ef          	jal	ra,50202ad4 <kernel_binsemop>
    50202d6e:	0001                	nop
    50202d70:	853e                	mv	a0,a5
    50202d72:	70a2                	ld	ra,40(sp)
    50202d74:	7402                	ld	s0,32(sp)
    50202d76:	6145                	addi	sp,sp,48
    50202d78:	8082                	ret

0000000050202d7a <kernel_sem_signal>:
    50202d7a:	7179                	addi	sp,sp,-48
    50202d7c:	f406                	sd	ra,40(sp)
    50202d7e:	f022                	sd	s0,32(sp)
    50202d80:	1800                	addi	s0,sp,48
    50202d82:	87aa                	mv	a5,a0
    50202d84:	fcf42e23          	sw	a5,-36(s0)
    50202d88:	00009717          	auipc	a4,0x9
    50202d8c:	98870713          	addi	a4,a4,-1656 # 5020b710 <sem_list>
    50202d90:	fdc42783          	lw	a5,-36(s0)
    50202d94:	078e                	slli	a5,a5,0x3
    50202d96:	97ba                	add	a5,a5,a4
    50202d98:	639c                	ld	a5,0(a5)
    50202d9a:	fef43423          	sd	a5,-24(s0)
    50202d9e:	fe843783          	ld	a5,-24(s0)
    50202da2:	479c                	lw	a5,8(a5)
    50202da4:	00f05863          	blez	a5,50202db4 <kernel_sem_signal+0x3a>
    50202da8:	fe843783          	ld	a5,-24(s0)
    50202dac:	6b9c                	ld	a5,16(a5)
    50202dae:	853e                	mv	a0,a5
    50202db0:	514010ef          	jal	ra,502042c4 <do_unblock>
    50202db4:	fe843783          	ld	a5,-24(s0)
    50202db8:	479c                	lw	a5,8(a5)
    50202dba:	37fd                	addiw	a5,a5,-1
    50202dbc:	0007871b          	sext.w	a4,a5
    50202dc0:	fe843783          	ld	a5,-24(s0)
    50202dc4:	c798                	sw	a4,8(a5)
    50202dc6:	0001                	nop
    50202dc8:	853e                	mv	a0,a5
    50202dca:	70a2                	ld	ra,40(sp)
    50202dcc:	7402                	ld	s0,32(sp)
    50202dce:	6145                	addi	sp,sp,48
    50202dd0:	8082                	ret

0000000050202dd2 <kernel_sem_broadcast>:
    50202dd2:	7139                	addi	sp,sp,-64
    50202dd4:	fc06                	sd	ra,56(sp)
    50202dd6:	f822                	sd	s0,48(sp)
    50202dd8:	0080                	addi	s0,sp,64
    50202dda:	87aa                	mv	a5,a0
    50202ddc:	fcf42623          	sw	a5,-52(s0)
    50202de0:	00009717          	auipc	a4,0x9
    50202de4:	93070713          	addi	a4,a4,-1744 # 5020b710 <sem_list>
    50202de8:	fcc42783          	lw	a5,-52(s0)
    50202dec:	078e                	slli	a5,a5,0x3
    50202dee:	97ba                	add	a5,a5,a4
    50202df0:	639c                	ld	a5,0(a5)
    50202df2:	fef43023          	sd	a5,-32(s0)
    50202df6:	fe043783          	ld	a5,-32(s0)
    50202dfa:	6b9c                	ld	a5,16(a5)
    50202dfc:	fef43423          	sd	a5,-24(s0)
    50202e00:	a831                	j	50202e1c <kernel_sem_broadcast+0x4a>
    50202e02:	fe843783          	ld	a5,-24(s0)
    50202e06:	639c                	ld	a5,0(a5)
    50202e08:	fcf43c23          	sd	a5,-40(s0)
    50202e0c:	fe843503          	ld	a0,-24(s0)
    50202e10:	4b4010ef          	jal	ra,502042c4 <do_unblock>
    50202e14:	fd843783          	ld	a5,-40(s0)
    50202e18:	fef43423          	sd	a5,-24(s0)
    50202e1c:	fe043783          	ld	a5,-32(s0)
    50202e20:	07c1                	addi	a5,a5,16
    50202e22:	fe843703          	ld	a4,-24(s0)
    50202e26:	fcf71ee3          	bne	a4,a5,50202e02 <kernel_sem_broadcast+0x30>
    50202e2a:	fe043783          	ld	a5,-32(s0)
    50202e2e:	0007a423          	sw	zero,8(a5)
    50202e32:	0001                	nop
    50202e34:	853e                	mv	a0,a5
    50202e36:	70e2                	ld	ra,56(sp)
    50202e38:	7442                	ld	s0,48(sp)
    50202e3a:	6121                	addi	sp,sp,64
    50202e3c:	8082                	ret

0000000050202e3e <kernel_barrier_wait>:
    50202e3e:	7139                	addi	sp,sp,-64
    50202e40:	fc06                	sd	ra,56(sp)
    50202e42:	f822                	sd	s0,48(sp)
    50202e44:	0080                	addi	s0,sp,64
    50202e46:	87aa                	mv	a5,a0
    50202e48:	872e                	mv	a4,a1
    50202e4a:	fcf42623          	sw	a5,-52(s0)
    50202e4e:	87ba                	mv	a5,a4
    50202e50:	fcf42423          	sw	a5,-56(s0)
    50202e54:	a28fe0ef          	jal	ra,5020107c <get_current_cpu_id>
    50202e58:	87aa                	mv	a5,a0
    50202e5a:	e791                	bnez	a5,50202e66 <kernel_barrier_wait+0x28>
    50202e5c:	00008797          	auipc	a5,0x8
    50202e60:	73c78793          	addi	a5,a5,1852 # 5020b598 <current_running_core0>
    50202e64:	a029                	j	50202e6e <kernel_barrier_wait+0x30>
    50202e66:	00008797          	auipc	a5,0x8
    50202e6a:	72a78793          	addi	a5,a5,1834 # 5020b590 <current_running_core1>
    50202e6e:	0000a717          	auipc	a4,0xa
    50202e72:	ee270713          	addi	a4,a4,-286 # 5020cd50 <current_running>
    50202e76:	e31c                	sd	a5,0(a4)
    50202e78:	00009717          	auipc	a4,0x9
    50202e7c:	89870713          	addi	a4,a4,-1896 # 5020b710 <sem_list>
    50202e80:	fcc42783          	lw	a5,-52(s0)
    50202e84:	078e                	slli	a5,a5,0x3
    50202e86:	97ba                	add	a5,a5,a4
    50202e88:	639c                	ld	a5,0(a5)
    50202e8a:	fef43023          	sd	a5,-32(s0)
    50202e8e:	fe043783          	ld	a5,-32(s0)
    50202e92:	479c                	lw	a5,8(a5)
    50202e94:	2785                	addiw	a5,a5,1
    50202e96:	0007871b          	sext.w	a4,a5
    50202e9a:	fe043783          	ld	a5,-32(s0)
    50202e9e:	c798                	sw	a4,8(a5)
    50202ea0:	fe043783          	ld	a5,-32(s0)
    50202ea4:	4798                	lw	a4,8(a5)
    50202ea6:	fc842783          	lw	a5,-56(s0)
    50202eaa:	2781                	sext.w	a5,a5
    50202eac:	04e79163          	bne	a5,a4,50202eee <kernel_barrier_wait+0xb0>
    50202eb0:	fe043783          	ld	a5,-32(s0)
    50202eb4:	0007a423          	sw	zero,8(a5)
    50202eb8:	fe043783          	ld	a5,-32(s0)
    50202ebc:	6b9c                	ld	a5,16(a5)
    50202ebe:	fef43423          	sd	a5,-24(s0)
    50202ec2:	a831                	j	50202ede <kernel_barrier_wait+0xa0>
    50202ec4:	fe843783          	ld	a5,-24(s0)
    50202ec8:	639c                	ld	a5,0(a5)
    50202eca:	fcf43c23          	sd	a5,-40(s0)
    50202ece:	fe843503          	ld	a0,-24(s0)
    50202ed2:	3f2010ef          	jal	ra,502042c4 <do_unblock>
    50202ed6:	fd843783          	ld	a5,-40(s0)
    50202eda:	fef43423          	sd	a5,-24(s0)
    50202ede:	fe043783          	ld	a5,-32(s0)
    50202ee2:	07c1                	addi	a5,a5,16
    50202ee4:	fe843703          	ld	a4,-24(s0)
    50202ee8:	fcf71ee3          	bne	a4,a5,50202ec4 <kernel_barrier_wait+0x86>
    50202eec:	a831                	j	50202f08 <kernel_barrier_wait+0xca>
    50202eee:	0000a797          	auipc	a5,0xa
    50202ef2:	e6278793          	addi	a5,a5,-414 # 5020cd50 <current_running>
    50202ef6:	639c                	ld	a5,0(a5)
    50202ef8:	6398                	ld	a4,0(a5)
    50202efa:	fe043783          	ld	a5,-32(s0)
    50202efe:	07c1                	addi	a5,a5,16
    50202f00:	85be                	mv	a1,a5
    50202f02:	853a                	mv	a0,a4
    50202f04:	2f0010ef          	jal	ra,502041f4 <do_block>
    50202f08:	0001                	nop
    50202f0a:	853e                	mv	a0,a5
    50202f0c:	70e2                	ld	ra,56(sp)
    50202f0e:	7442                	ld	s0,48(sp)
    50202f10:	6121                	addi	sp,sp,64
    50202f12:	8082                	ret

0000000050202f14 <kernel_keygen>:
    50202f14:	1101                	addi	sp,sp,-32
    50202f16:	ec06                	sd	ra,24(sp)
    50202f18:	e822                	sd	s0,16(sp)
    50202f1a:	e426                	sd	s1,8(sp)
    50202f1c:	1000                	addi	s0,sp,32
    50202f1e:	83018793          	addi	a5,gp,-2000 # 50209580 <_edata>
    50202f22:	439c                	lw	a5,0(a5)
    50202f24:	2785                	addiw	a5,a5,1
    50202f26:	0007849b          	sext.w	s1,a5
    50202f2a:	4f2020ef          	jal	ra,5020541c <rand>
    50202f2e:	87aa                	mv	a5,a0
    50202f30:	873e                	mv	a4,a5
    50202f32:	4795                	li	a5,5
    50202f34:	02f767bb          	remw	a5,a4,a5
    50202f38:	2781                	sext.w	a5,a5
    50202f3a:	9fa5                	addw	a5,a5,s1
    50202f3c:	2781                	sext.w	a5,a5
    50202f3e:	873e                	mv	a4,a5
    50202f40:	41f7579b          	sraiw	a5,a4,0x1f
    50202f44:	0147d79b          	srliw	a5,a5,0x14
    50202f48:	00f706bb          	addw	a3,a4,a5
    50202f4c:	6705                	lui	a4,0x1
    50202f4e:	177d                	addi	a4,a4,-1
    50202f50:	8f75                	and	a4,a4,a3
    50202f52:	40f707bb          	subw	a5,a4,a5
    50202f56:	0007871b          	sext.w	a4,a5
    50202f5a:	83018793          	addi	a5,gp,-2000 # 50209580 <_edata>
    50202f5e:	c398                	sw	a4,0(a5)
    50202f60:	83018793          	addi	a5,gp,-2000 # 50209580 <_edata>
    50202f64:	439c                	lw	a5,0(a5)
    50202f66:	853e                	mv	a0,a5
    50202f68:	60e2                	ld	ra,24(sp)
    50202f6a:	6442                	ld	s0,16(sp)
    50202f6c:	64a2                	ld	s1,8(sp)
    50202f6e:	6105                	addi	sp,sp,32
    50202f70:	8082                	ret

0000000050202f72 <kernel_mbox_open>:
    50202f72:	7139                	addi	sp,sp,-64
    50202f74:	fc06                	sd	ra,56(sp)
    50202f76:	f822                	sd	s0,48(sp)
    50202f78:	f426                	sd	s1,40(sp)
    50202f7a:	0080                	addi	s0,sp,64
    50202f7c:	fca43423          	sd	a0,-56(s0)
    50202f80:	fc042e23          	sw	zero,-36(s0)
    50202f84:	fc042e23          	sw	zero,-36(s0)
    50202f88:	a89d                	j	50202ffe <kernel_mbox_open+0x8c>
    50202f8a:	00009717          	auipc	a4,0x9
    50202f8e:	f8670713          	addi	a4,a4,-122 # 5020bf10 <mbox_list>
    50202f92:	fdc42783          	lw	a5,-36(s0)
    50202f96:	078e                	slli	a5,a5,0x3
    50202f98:	97ba                	add	a5,a5,a4
    50202f9a:	639c                	ld	a5,0(a5)
    50202f9c:	cfa1                	beqz	a5,50202ff4 <kernel_mbox_open+0x82>
    50202f9e:	00009717          	auipc	a4,0x9
    50202fa2:	f7270713          	addi	a4,a4,-142 # 5020bf10 <mbox_list>
    50202fa6:	fdc42783          	lw	a5,-36(s0)
    50202faa:	078e                	slli	a5,a5,0x3
    50202fac:	97ba                	add	a5,a5,a4
    50202fae:	639c                	ld	a5,0(a5)
    50202fb0:	0791                	addi	a5,a5,4
    50202fb2:	85be                	mv	a1,a5
    50202fb4:	fc843503          	ld	a0,-56(s0)
    50202fb8:	4c5020ef          	jal	ra,50205c7c <strcmp>
    50202fbc:	87aa                	mv	a5,a0
    50202fbe:	eb9d                	bnez	a5,50202ff4 <kernel_mbox_open+0x82>
    50202fc0:	00009717          	auipc	a4,0x9
    50202fc4:	f5070713          	addi	a4,a4,-176 # 5020bf10 <mbox_list>
    50202fc8:	fdc42783          	lw	a5,-36(s0)
    50202fcc:	078e                	slli	a5,a5,0x3
    50202fce:	97ba                	add	a5,a5,a4
    50202fd0:	639c                	ld	a5,0(a5)
    50202fd2:	14c7a703          	lw	a4,332(a5)
    50202fd6:	2705                	addiw	a4,a4,1
    50202fd8:	2701                	sext.w	a4,a4
    50202fda:	14e7a623          	sw	a4,332(a5)
    50202fde:	00009717          	auipc	a4,0x9
    50202fe2:	f3270713          	addi	a4,a4,-206 # 5020bf10 <mbox_list>
    50202fe6:	fdc42783          	lw	a5,-36(s0)
    50202fea:	078e                	slli	a5,a5,0x3
    50202fec:	97ba                	add	a5,a5,a4
    50202fee:	639c                	ld	a5,0(a5)
    50202ff0:	439c                	lw	a5,0(a5)
    50202ff2:	aaad                	j	5020316c <kernel_mbox_open+0x1fa>
    50202ff4:	fdc42783          	lw	a5,-36(s0)
    50202ff8:	2785                	addiw	a5,a5,1
    50202ffa:	fcf42e23          	sw	a5,-36(s0)
    50202ffe:	fdc42783          	lw	a5,-36(s0)
    50203002:	0007871b          	sext.w	a4,a5
    50203006:	0ff00793          	li	a5,255
    5020300a:	f8e7d0e3          	bge	a5,a4,50202f8a <kernel_mbox_open+0x18>
    5020300e:	9abff0ef          	jal	ra,502029b8 <id_gen>
    50203012:	87aa                	mv	a5,a0
    50203014:	fcf42c23          	sw	a5,-40(s0)
    50203018:	00009717          	auipc	a4,0x9
    5020301c:	ef870713          	addi	a4,a4,-264 # 5020bf10 <mbox_list>
    50203020:	fd842783          	lw	a5,-40(s0)
    50203024:	078e                	slli	a5,a5,0x3
    50203026:	97ba                	add	a5,a5,a4
    50203028:	639c                	ld	a5,0(a5)
    5020302a:	c391                	beqz	a5,5020302e <kernel_mbox_open+0xbc>
    5020302c:	b7cd                	j	5020300e <kernel_mbox_open+0x9c>
    5020302e:	0001                	nop
    50203030:	16000513          	li	a0,352
    50203034:	79c010ef          	jal	ra,502047d0 <kmalloc>
    50203038:	fca43823          	sd	a0,-48(s0)
    5020303c:	fd043783          	ld	a5,-48(s0)
    50203040:	fd842703          	lw	a4,-40(s0)
    50203044:	c398                	sw	a4,0(a5)
    50203046:	fd043783          	ld	a5,-48(s0)
    5020304a:	439c                	lw	a5,0(a5)
    5020304c:	00009717          	auipc	a4,0x9
    50203050:	ec470713          	addi	a4,a4,-316 # 5020bf10 <mbox_list>
    50203054:	078e                	slli	a5,a5,0x3
    50203056:	97ba                	add	a5,a5,a4
    50203058:	fd043703          	ld	a4,-48(s0)
    5020305c:	e398                	sd	a4,0(a5)
    5020305e:	fd043783          	ld	a5,-48(s0)
    50203062:	439c                	lw	a5,0(a5)
    50203064:	00009717          	auipc	a4,0x9
    50203068:	eac70713          	addi	a4,a4,-340 # 5020bf10 <mbox_list>
    5020306c:	078e                	slli	a5,a5,0x3
    5020306e:	97ba                	add	a5,a5,a4
    50203070:	639c                	ld	a5,0(a5)
    50203072:	0791                	addi	a5,a5,4
    50203074:	fc843583          	ld	a1,-56(s0)
    50203078:	853e                	mv	a0,a5
    5020307a:	491020ef          	jal	ra,50205d0a <strcpy>
    5020307e:	fd043783          	ld	a5,-48(s0)
    50203082:	439c                	lw	a5,0(a5)
    50203084:	00009717          	auipc	a4,0x9
    50203088:	e8c70713          	addi	a4,a4,-372 # 5020bf10 <mbox_list>
    5020308c:	078e                	slli	a5,a5,0x3
    5020308e:	97ba                	add	a5,a5,a4
    50203090:	639c                	ld	a5,0(a5)
    50203092:	14c7a703          	lw	a4,332(a5)
    50203096:	2705                	addiw	a4,a4,1
    50203098:	2701                	sext.w	a4,a4
    5020309a:	14e7a623          	sw	a4,332(a5)
    5020309e:	fd043783          	ld	a5,-48(s0)
    502030a2:	439c                	lw	a5,0(a5)
    502030a4:	00009717          	auipc	a4,0x9
    502030a8:	e6c70713          	addi	a4,a4,-404 # 5020bf10 <mbox_list>
    502030ac:	078e                	slli	a5,a5,0x3
    502030ae:	97ba                	add	a5,a5,a4
    502030b0:	6398                	ld	a4,0(a5)
    502030b2:	14072423          	sw	zero,328(a4)
    502030b6:	fd043783          	ld	a5,-48(s0)
    502030ba:	439c                	lw	a5,0(a5)
    502030bc:	00009697          	auipc	a3,0x9
    502030c0:	e5468693          	addi	a3,a3,-428 # 5020bf10 <mbox_list>
    502030c4:	078e                	slli	a5,a5,0x3
    502030c6:	97b6                	add	a5,a5,a3
    502030c8:	639c                	ld	a5,0(a5)
    502030ca:	14872703          	lw	a4,328(a4)
    502030ce:	14e7a223          	sw	a4,324(a5)
    502030d2:	fd043703          	ld	a4,-48(s0)
    502030d6:	4318                	lw	a4,0(a4)
    502030d8:	00009697          	auipc	a3,0x9
    502030dc:	e3868693          	addi	a3,a3,-456 # 5020bf10 <mbox_list>
    502030e0:	070e                	slli	a4,a4,0x3
    502030e2:	9736                	add	a4,a4,a3
    502030e4:	6318                	ld	a4,0(a4)
    502030e6:	1447a783          	lw	a5,324(a5)
    502030ea:	14f72823          	sw	a5,336(a4)
    502030ee:	e27ff0ef          	jal	ra,50202f14 <kernel_keygen>
    502030f2:	87aa                	mv	a5,a0
    502030f4:	86be                	mv	a3,a5
    502030f6:	fd043783          	ld	a5,-48(s0)
    502030fa:	439c                	lw	a5,0(a5)
    502030fc:	00009717          	auipc	a4,0x9
    50203100:	e1470713          	addi	a4,a4,-492 # 5020bf10 <mbox_list>
    50203104:	078e                	slli	a5,a5,0x3
    50203106:	97ba                	add	a5,a5,a4
    50203108:	6384                	ld	s1,0(a5)
    5020310a:	8536                	mv	a0,a3
    5020310c:	8d1ff0ef          	jal	ra,502029dc <kernel_semget>
    50203110:	87aa                	mv	a5,a0
    50203112:	14f4ac23          	sw	a5,344(s1)
    50203116:	dffff0ef          	jal	ra,50202f14 <kernel_keygen>
    5020311a:	87aa                	mv	a5,a0
    5020311c:	86be                	mv	a3,a5
    5020311e:	fd043783          	ld	a5,-48(s0)
    50203122:	439c                	lw	a5,0(a5)
    50203124:	00009717          	auipc	a4,0x9
    50203128:	dec70713          	addi	a4,a4,-532 # 5020bf10 <mbox_list>
    5020312c:	078e                	slli	a5,a5,0x3
    5020312e:	97ba                	add	a5,a5,a4
    50203130:	6384                	ld	s1,0(a5)
    50203132:	8536                	mv	a0,a3
    50203134:	8a9ff0ef          	jal	ra,502029dc <kernel_semget>
    50203138:	87aa                	mv	a5,a0
    5020313a:	14f4aa23          	sw	a5,340(s1)
    5020313e:	dd7ff0ef          	jal	ra,50202f14 <kernel_keygen>
    50203142:	87aa                	mv	a5,a0
    50203144:	86be                	mv	a3,a5
    50203146:	fd043783          	ld	a5,-48(s0)
    5020314a:	439c                	lw	a5,0(a5)
    5020314c:	00009717          	auipc	a4,0x9
    50203150:	dc470713          	addi	a4,a4,-572 # 5020bf10 <mbox_list>
    50203154:	078e                	slli	a5,a5,0x3
    50203156:	97ba                	add	a5,a5,a4
    50203158:	6384                	ld	s1,0(a5)
    5020315a:	8536                	mv	a0,a3
    5020315c:	881ff0ef          	jal	ra,502029dc <kernel_semget>
    50203160:	87aa                	mv	a5,a0
    50203162:	14f4ae23          	sw	a5,348(s1)
    50203166:	fd043783          	ld	a5,-48(s0)
    5020316a:	439c                	lw	a5,0(a5)
    5020316c:	853e                	mv	a0,a5
    5020316e:	70e2                	ld	ra,56(sp)
    50203170:	7442                	ld	s0,48(sp)
    50203172:	74a2                	ld	s1,40(sp)
    50203174:	6121                	addi	sp,sp,64
    50203176:	8082                	ret

0000000050203178 <kernel_mbox_close>:
    50203178:	1101                	addi	sp,sp,-32
    5020317a:	ec22                	sd	s0,24(sp)
    5020317c:	1000                	addi	s0,sp,32
    5020317e:	87aa                	mv	a5,a0
    50203180:	fef42623          	sw	a5,-20(s0)
    50203184:	00009717          	auipc	a4,0x9
    50203188:	d8c70713          	addi	a4,a4,-628 # 5020bf10 <mbox_list>
    5020318c:	fec42783          	lw	a5,-20(s0)
    50203190:	078e                	slli	a5,a5,0x3
    50203192:	97ba                	add	a5,a5,a4
    50203194:	0007b023          	sd	zero,0(a5)
    50203198:	0001                	nop
    5020319a:	6462                	ld	s0,24(sp)
    5020319c:	6105                	addi	sp,sp,32
    5020319e:	8082                	ret

00000000502031a0 <kernel_mbox_send>:
    502031a0:	7179                	addi	sp,sp,-48
    502031a2:	f406                	sd	ra,40(sp)
    502031a4:	f022                	sd	s0,32(sp)
    502031a6:	1800                	addi	s0,sp,48
    502031a8:	87aa                	mv	a5,a0
    502031aa:	fcb43823          	sd	a1,-48(s0)
    502031ae:	8732                	mv	a4,a2
    502031b0:	fcf42e23          	sw	a5,-36(s0)
    502031b4:	87ba                	mv	a5,a4
    502031b6:	fcf42c23          	sw	a5,-40(s0)
    502031ba:	00009717          	auipc	a4,0x9
    502031be:	d5670713          	addi	a4,a4,-682 # 5020bf10 <mbox_list>
    502031c2:	fdc42783          	lw	a5,-36(s0)
    502031c6:	078e                	slli	a5,a5,0x3
    502031c8:	97ba                	add	a5,a5,a4
    502031ca:	639c                	ld	a5,0(a5)
    502031cc:	fef43423          	sd	a5,-24(s0)
    502031d0:	fe843783          	ld	a5,-24(s0)
    502031d4:	15c7a783          	lw	a5,348(a5)
    502031d8:	4581                	li	a1,0
    502031da:	853e                	mv	a0,a5
    502031dc:	8f9ff0ef          	jal	ra,50202ad4 <kernel_binsemop>
    502031e0:	a829                	j	502031fa <kernel_mbox_send+0x5a>
    502031e2:	fe843783          	ld	a5,-24(s0)
    502031e6:	1587a703          	lw	a4,344(a5)
    502031ea:	fe843783          	ld	a5,-24(s0)
    502031ee:	15c7a783          	lw	a5,348(a5)
    502031f2:	85be                	mv	a1,a5
    502031f4:	853a                	mv	a0,a4
    502031f6:	ac1ff0ef          	jal	ra,50202cb6 <kernel_sem_wait>
    502031fa:	fe843783          	ld	a5,-24(s0)
    502031fe:	1507a783          	lw	a5,336(a5)
    50203202:	10000713          	li	a4,256
    50203206:	40f707bb          	subw	a5,a4,a5
    5020320a:	0007871b          	sext.w	a4,a5
    5020320e:	fd842783          	lw	a5,-40(s0)
    50203212:	2781                	sext.w	a5,a5
    50203214:	fcf747e3          	blt	a4,a5,502031e2 <kernel_mbox_send+0x42>
    50203218:	fe843783          	ld	a5,-24(s0)
    5020321c:	1487a783          	lw	a5,328(a5)
    50203220:	10000713          	li	a4,256
    50203224:	40f707bb          	subw	a5,a4,a5
    50203228:	0007871b          	sext.w	a4,a5
    5020322c:	fd842783          	lw	a5,-40(s0)
    50203230:	2781                	sext.w	a5,a5
    50203232:	08f75663          	bge	a4,a5,502032be <kernel_mbox_send+0x11e>
    50203236:	fe843783          	ld	a5,-24(s0)
    5020323a:	04478793          	addi	a5,a5,68
    5020323e:	fe843703          	ld	a4,-24(s0)
    50203242:	14872703          	lw	a4,328(a4)
    50203246:	00e786b3          	add	a3,a5,a4
    5020324a:	fe843783          	ld	a5,-24(s0)
    5020324e:	1487a783          	lw	a5,328(a5)
    50203252:	10000713          	li	a4,256
    50203256:	40f707bb          	subw	a5,a4,a5
    5020325a:	2781                	sext.w	a5,a5
    5020325c:	863e                	mv	a2,a5
    5020325e:	fd043583          	ld	a1,-48(s0)
    50203262:	8536                	mv	a0,a3
    50203264:	14f020ef          	jal	ra,50205bb2 <memcpy>
    50203268:	fe843783          	ld	a5,-24(s0)
    5020326c:	1487a783          	lw	a5,328(a5)
    50203270:	10000713          	li	a4,256
    50203274:	40f707bb          	subw	a5,a4,a5
    50203278:	2781                	sext.w	a5,a5
    5020327a:	fd842703          	lw	a4,-40(s0)
    5020327e:	40f707bb          	subw	a5,a4,a5
    50203282:	0007871b          	sext.w	a4,a5
    50203286:	fe843783          	ld	a5,-24(s0)
    5020328a:	14e7a423          	sw	a4,328(a5)
    5020328e:	fe843783          	ld	a5,-24(s0)
    50203292:	04478693          	addi	a3,a5,68
    50203296:	fd842783          	lw	a5,-40(s0)
    5020329a:	fe843703          	ld	a4,-24(s0)
    5020329e:	14872703          	lw	a4,328(a4)
    502032a2:	8f99                	sub	a5,a5,a4
    502032a4:	fd043703          	ld	a4,-48(s0)
    502032a8:	973e                	add	a4,a4,a5
    502032aa:	fe843783          	ld	a5,-24(s0)
    502032ae:	1487a783          	lw	a5,328(a5)
    502032b2:	863e                	mv	a2,a5
    502032b4:	85ba                	mv	a1,a4
    502032b6:	8536                	mv	a0,a3
    502032b8:	0fb020ef          	jal	ra,50205bb2 <memcpy>
    502032bc:	a83d                	j	502032fa <kernel_mbox_send+0x15a>
    502032be:	fe843783          	ld	a5,-24(s0)
    502032c2:	04478793          	addi	a5,a5,68
    502032c6:	fe843703          	ld	a4,-24(s0)
    502032ca:	14872703          	lw	a4,328(a4)
    502032ce:	97ba                	add	a5,a5,a4
    502032d0:	fd842703          	lw	a4,-40(s0)
    502032d4:	863a                	mv	a2,a4
    502032d6:	fd043583          	ld	a1,-48(s0)
    502032da:	853e                	mv	a0,a5
    502032dc:	0d7020ef          	jal	ra,50205bb2 <memcpy>
    502032e0:	fe843783          	ld	a5,-24(s0)
    502032e4:	1487a783          	lw	a5,328(a5)
    502032e8:	fd842703          	lw	a4,-40(s0)
    502032ec:	9fb9                	addw	a5,a5,a4
    502032ee:	0007871b          	sext.w	a4,a5
    502032f2:	fe843783          	ld	a5,-24(s0)
    502032f6:	14e7a423          	sw	a4,328(a5)
    502032fa:	fe843783          	ld	a5,-24(s0)
    502032fe:	1507a783          	lw	a5,336(a5)
    50203302:	fd842703          	lw	a4,-40(s0)
    50203306:	9fb9                	addw	a5,a5,a4
    50203308:	0007871b          	sext.w	a4,a5
    5020330c:	fe843783          	ld	a5,-24(s0)
    50203310:	14e7a823          	sw	a4,336(a5)
    50203314:	fe843783          	ld	a5,-24(s0)
    50203318:	1547a783          	lw	a5,340(a5)
    5020331c:	853e                	mv	a0,a5
    5020331e:	ab5ff0ef          	jal	ra,50202dd2 <kernel_sem_broadcast>
    50203322:	fe843783          	ld	a5,-24(s0)
    50203326:	15c7a783          	lw	a5,348(a5)
    5020332a:	4585                	li	a1,1
    5020332c:	853e                	mv	a0,a5
    5020332e:	fa6ff0ef          	jal	ra,50202ad4 <kernel_binsemop>
    50203332:	0001                	nop
    50203334:	70a2                	ld	ra,40(sp)
    50203336:	7402                	ld	s0,32(sp)
    50203338:	6145                	addi	sp,sp,48
    5020333a:	8082                	ret

000000005020333c <kernel_mbox_recv>:
    5020333c:	7179                	addi	sp,sp,-48
    5020333e:	f406                	sd	ra,40(sp)
    50203340:	f022                	sd	s0,32(sp)
    50203342:	1800                	addi	s0,sp,48
    50203344:	87aa                	mv	a5,a0
    50203346:	fcb43823          	sd	a1,-48(s0)
    5020334a:	8732                	mv	a4,a2
    5020334c:	fcf42e23          	sw	a5,-36(s0)
    50203350:	87ba                	mv	a5,a4
    50203352:	fcf42c23          	sw	a5,-40(s0)
    50203356:	00009717          	auipc	a4,0x9
    5020335a:	bba70713          	addi	a4,a4,-1094 # 5020bf10 <mbox_list>
    5020335e:	fdc42783          	lw	a5,-36(s0)
    50203362:	078e                	slli	a5,a5,0x3
    50203364:	97ba                	add	a5,a5,a4
    50203366:	639c                	ld	a5,0(a5)
    50203368:	fef43423          	sd	a5,-24(s0)
    5020336c:	fe843783          	ld	a5,-24(s0)
    50203370:	15c7a783          	lw	a5,348(a5)
    50203374:	4581                	li	a1,0
    50203376:	853e                	mv	a0,a5
    50203378:	f5cff0ef          	jal	ra,50202ad4 <kernel_binsemop>
    5020337c:	a829                	j	50203396 <kernel_mbox_recv+0x5a>
    5020337e:	fe843783          	ld	a5,-24(s0)
    50203382:	1547a703          	lw	a4,340(a5)
    50203386:	fe843783          	ld	a5,-24(s0)
    5020338a:	15c7a783          	lw	a5,348(a5)
    5020338e:	85be                	mv	a1,a5
    50203390:	853a                	mv	a0,a4
    50203392:	925ff0ef          	jal	ra,50202cb6 <kernel_sem_wait>
    50203396:	fe843783          	ld	a5,-24(s0)
    5020339a:	1507a703          	lw	a4,336(a5)
    5020339e:	fd842783          	lw	a5,-40(s0)
    502033a2:	2781                	sext.w	a5,a5
    502033a4:	fcf74de3          	blt	a4,a5,5020337e <kernel_mbox_recv+0x42>
    502033a8:	fe843783          	ld	a5,-24(s0)
    502033ac:	1447a783          	lw	a5,324(a5)
    502033b0:	10000713          	li	a4,256
    502033b4:	40f707bb          	subw	a5,a4,a5
    502033b8:	0007871b          	sext.w	a4,a5
    502033bc:	fd842783          	lw	a5,-40(s0)
    502033c0:	2781                	sext.w	a5,a5
    502033c2:	08f75663          	bge	a4,a5,5020344e <kernel_mbox_recv+0x112>
    502033c6:	fe843783          	ld	a5,-24(s0)
    502033ca:	04478793          	addi	a5,a5,68
    502033ce:	fe843703          	ld	a4,-24(s0)
    502033d2:	14472703          	lw	a4,324(a4)
    502033d6:	00e786b3          	add	a3,a5,a4
    502033da:	fe843783          	ld	a5,-24(s0)
    502033de:	1447a783          	lw	a5,324(a5)
    502033e2:	10000713          	li	a4,256
    502033e6:	40f707bb          	subw	a5,a4,a5
    502033ea:	2781                	sext.w	a5,a5
    502033ec:	863e                	mv	a2,a5
    502033ee:	85b6                	mv	a1,a3
    502033f0:	fd043503          	ld	a0,-48(s0)
    502033f4:	7be020ef          	jal	ra,50205bb2 <memcpy>
    502033f8:	fe843783          	ld	a5,-24(s0)
    502033fc:	1447a783          	lw	a5,324(a5)
    50203400:	10000713          	li	a4,256
    50203404:	40f707bb          	subw	a5,a4,a5
    50203408:	2781                	sext.w	a5,a5
    5020340a:	fd842703          	lw	a4,-40(s0)
    5020340e:	40f707bb          	subw	a5,a4,a5
    50203412:	0007871b          	sext.w	a4,a5
    50203416:	fe843783          	ld	a5,-24(s0)
    5020341a:	14e7a223          	sw	a4,324(a5)
    5020341e:	fd842783          	lw	a5,-40(s0)
    50203422:	fe843703          	ld	a4,-24(s0)
    50203426:	14472703          	lw	a4,324(a4)
    5020342a:	8f99                	sub	a5,a5,a4
    5020342c:	fd043703          	ld	a4,-48(s0)
    50203430:	973e                	add	a4,a4,a5
    50203432:	fe843783          	ld	a5,-24(s0)
    50203436:	04478693          	addi	a3,a5,68
    5020343a:	fe843783          	ld	a5,-24(s0)
    5020343e:	1447a783          	lw	a5,324(a5)
    50203442:	863e                	mv	a2,a5
    50203444:	85b6                	mv	a1,a3
    50203446:	853a                	mv	a0,a4
    50203448:	76a020ef          	jal	ra,50205bb2 <memcpy>
    5020344c:	a83d                	j	5020348a <kernel_mbox_recv+0x14e>
    5020344e:	fe843783          	ld	a5,-24(s0)
    50203452:	04478793          	addi	a5,a5,68
    50203456:	fe843703          	ld	a4,-24(s0)
    5020345a:	14472703          	lw	a4,324(a4)
    5020345e:	97ba                	add	a5,a5,a4
    50203460:	fd842703          	lw	a4,-40(s0)
    50203464:	863a                	mv	a2,a4
    50203466:	85be                	mv	a1,a5
    50203468:	fd043503          	ld	a0,-48(s0)
    5020346c:	746020ef          	jal	ra,50205bb2 <memcpy>
    50203470:	fe843783          	ld	a5,-24(s0)
    50203474:	1447a783          	lw	a5,324(a5)
    50203478:	fd842703          	lw	a4,-40(s0)
    5020347c:	9fb9                	addw	a5,a5,a4
    5020347e:	0007871b          	sext.w	a4,a5
    50203482:	fe843783          	ld	a5,-24(s0)
    50203486:	14e7a223          	sw	a4,324(a5)
    5020348a:	fe843783          	ld	a5,-24(s0)
    5020348e:	1507a703          	lw	a4,336(a5)
    50203492:	fd842783          	lw	a5,-40(s0)
    50203496:	40f707bb          	subw	a5,a4,a5
    5020349a:	0007871b          	sext.w	a4,a5
    5020349e:	fe843783          	ld	a5,-24(s0)
    502034a2:	14e7a823          	sw	a4,336(a5)
    502034a6:	fe843783          	ld	a5,-24(s0)
    502034aa:	1587a783          	lw	a5,344(a5)
    502034ae:	853e                	mv	a0,a5
    502034b0:	923ff0ef          	jal	ra,50202dd2 <kernel_sem_broadcast>
    502034b4:	fe843783          	ld	a5,-24(s0)
    502034b8:	15c7a783          	lw	a5,348(a5)
    502034bc:	4585                	li	a1,1
    502034be:	853e                	mv	a0,a5
    502034c0:	e14ff0ef          	jal	ra,50202ad4 <kernel_binsemop>
    502034c4:	0001                	nop
    502034c6:	70a2                	ld	ra,40(sp)
    502034c8:	7402                	ld	s0,32(sp)
    502034ca:	6145                	addi	sp,sp,48
    502034cc:	8082                	ret

00000000502034ce <init_list_head>:
    502034ce:	1101                	addi	sp,sp,-32
    502034d0:	ec22                	sd	s0,24(sp)
    502034d2:	1000                	addi	s0,sp,32
    502034d4:	fea43423          	sd	a0,-24(s0)
    502034d8:	fe843783          	ld	a5,-24(s0)
    502034dc:	fe843703          	ld	a4,-24(s0)
    502034e0:	e398                	sd	a4,0(a5)
    502034e2:	fe843783          	ld	a5,-24(s0)
    502034e6:	fe843703          	ld	a4,-24(s0)
    502034ea:	e798                	sd	a4,8(a5)
    502034ec:	0001                	nop
    502034ee:	6462                	ld	s0,24(sp)
    502034f0:	6105                	addi	sp,sp,32
    502034f2:	8082                	ret

00000000502034f4 <_list_add>:
    502034f4:	7179                	addi	sp,sp,-48
    502034f6:	f422                	sd	s0,40(sp)
    502034f8:	1800                	addi	s0,sp,48
    502034fa:	fea43423          	sd	a0,-24(s0)
    502034fe:	feb43023          	sd	a1,-32(s0)
    50203502:	fcc43c23          	sd	a2,-40(s0)
    50203506:	fd843783          	ld	a5,-40(s0)
    5020350a:	fe843703          	ld	a4,-24(s0)
    5020350e:	e798                	sd	a4,8(a5)
    50203510:	fe843783          	ld	a5,-24(s0)
    50203514:	fd843703          	ld	a4,-40(s0)
    50203518:	e398                	sd	a4,0(a5)
    5020351a:	fe843783          	ld	a5,-24(s0)
    5020351e:	fe043703          	ld	a4,-32(s0)
    50203522:	e798                	sd	a4,8(a5)
    50203524:	fe043783          	ld	a5,-32(s0)
    50203528:	fe843703          	ld	a4,-24(s0)
    5020352c:	e398                	sd	a4,0(a5)
    5020352e:	0001                	nop
    50203530:	7422                	ld	s0,40(sp)
    50203532:	6145                	addi	sp,sp,48
    50203534:	8082                	ret

0000000050203536 <list_add_tail>:
    50203536:	1101                	addi	sp,sp,-32
    50203538:	ec06                	sd	ra,24(sp)
    5020353a:	e822                	sd	s0,16(sp)
    5020353c:	1000                	addi	s0,sp,32
    5020353e:	fea43423          	sd	a0,-24(s0)
    50203542:	feb43023          	sd	a1,-32(s0)
    50203546:	fe043783          	ld	a5,-32(s0)
    5020354a:	679c                	ld	a5,8(a5)
    5020354c:	fe043603          	ld	a2,-32(s0)
    50203550:	85be                	mv	a1,a5
    50203552:	fe843503          	ld	a0,-24(s0)
    50203556:	f9fff0ef          	jal	ra,502034f4 <_list_add>
    5020355a:	0001                	nop
    5020355c:	60e2                	ld	ra,24(sp)
    5020355e:	6442                	ld	s0,16(sp)
    50203560:	6105                	addi	sp,sp,32
    50203562:	8082                	ret

0000000050203564 <list_empty>:
    50203564:	1101                	addi	sp,sp,-32
    50203566:	ec22                	sd	s0,24(sp)
    50203568:	1000                	addi	s0,sp,32
    5020356a:	fea43423          	sd	a0,-24(s0)
    5020356e:	fe843783          	ld	a5,-24(s0)
    50203572:	639c                	ld	a5,0(a5)
    50203574:	fe843703          	ld	a4,-24(s0)
    50203578:	40f707b3          	sub	a5,a4,a5
    5020357c:	0017b793          	seqz	a5,a5
    50203580:	0ff7f793          	andi	a5,a5,255
    50203584:	2781                	sext.w	a5,a5
    50203586:	853e                	mv	a0,a5
    50203588:	6462                	ld	s0,24(sp)
    5020358a:	6105                	addi	sp,sp,32
    5020358c:	8082                	ret

000000005020358e <_panic>:
    5020358e:	7179                	addi	sp,sp,-48
    50203590:	f406                	sd	ra,40(sp)
    50203592:	f022                	sd	s0,32(sp)
    50203594:	1800                	addi	s0,sp,48
    50203596:	fea43423          	sd	a0,-24(s0)
    5020359a:	87ae                	mv	a5,a1
    5020359c:	fcc43c23          	sd	a2,-40(s0)
    502035a0:	fef42223          	sw	a5,-28(s0)
    502035a4:	fe442783          	lw	a5,-28(s0)
    502035a8:	86be                	mv	a3,a5
    502035aa:	fe843603          	ld	a2,-24(s0)
    502035ae:	fd843583          	ld	a1,-40(s0)
    502035b2:	00005517          	auipc	a0,0x5
    502035b6:	e5e50513          	addi	a0,a0,-418 # 50208410 <__FUNCTION__.1646+0x58>
    502035ba:	4ab010ef          	jal	ra,50205264 <printk>
    502035be:	a001                	j	502035be <_panic+0x30>

00000000502035c0 <init_system_futex>:
    502035c0:	1101                	addi	sp,sp,-32
    502035c2:	ec06                	sd	ra,24(sp)
    502035c4:	e822                	sd	s0,16(sp)
    502035c6:	1000                	addi	s0,sp,32
    502035c8:	b19fd0ef          	jal	ra,502010e0 <disable_preempt>
    502035cc:	fe042623          	sw	zero,-20(s0)
    502035d0:	a015                	j	502035f4 <init_system_futex+0x34>
    502035d2:	fec42783          	lw	a5,-20(s0)
    502035d6:	00479713          	slli	a4,a5,0x4
    502035da:	00009797          	auipc	a5,0x9
    502035de:	13678793          	addi	a5,a5,310 # 5020c710 <futex_buckets>
    502035e2:	97ba                	add	a5,a5,a4
    502035e4:	853e                	mv	a0,a5
    502035e6:	ee9ff0ef          	jal	ra,502034ce <init_list_head>
    502035ea:	fec42783          	lw	a5,-20(s0)
    502035ee:	2785                	addiw	a5,a5,1
    502035f0:	fef42623          	sw	a5,-20(s0)
    502035f4:	fec42783          	lw	a5,-20(s0)
    502035f8:	0007871b          	sext.w	a4,a5
    502035fc:	06300793          	li	a5,99
    50203600:	fce7d9e3          	bge	a5,a4,502035d2 <init_system_futex+0x12>
    50203604:	aa5fd0ef          	jal	ra,502010a8 <enable_preempt>
    50203608:	0001                	nop
    5020360a:	60e2                	ld	ra,24(sp)
    5020360c:	6442                	ld	s0,16(sp)
    5020360e:	6105                	addi	sp,sp,32
    50203610:	8082                	ret

0000000050203612 <futex_hash>:
    50203612:	1101                	addi	sp,sp,-32
    50203614:	ec22                	sd	s0,24(sp)
    50203616:	1000                	addi	s0,sp,32
    50203618:	fea43423          	sd	a0,-24(s0)
    5020361c:	fe843783          	ld	a5,-24(s0)
    50203620:	01e7d713          	srli	a4,a5,0x1e
    50203624:	fe843783          	ld	a5,-24(s0)
    50203628:	8f3d                	xor	a4,a4,a5
    5020362a:	00005797          	auipc	a5,0x5
    5020362e:	e3e78793          	addi	a5,a5,-450 # 50208468 <__FUNCTION__.1480+0x10>
    50203632:	639c                	ld	a5,0(a5)
    50203634:	02f707b3          	mul	a5,a4,a5
    50203638:	fef43423          	sd	a5,-24(s0)
    5020363c:	fe843783          	ld	a5,-24(s0)
    50203640:	01b7d713          	srli	a4,a5,0x1b
    50203644:	fe843783          	ld	a5,-24(s0)
    50203648:	8f3d                	xor	a4,a4,a5
    5020364a:	00005797          	auipc	a5,0x5
    5020364e:	e2678793          	addi	a5,a5,-474 # 50208470 <__FUNCTION__.1480+0x18>
    50203652:	639c                	ld	a5,0(a5)
    50203654:	02f707b3          	mul	a5,a4,a5
    50203658:	fef43423          	sd	a5,-24(s0)
    5020365c:	fe843783          	ld	a5,-24(s0)
    50203660:	83fd                	srli	a5,a5,0x1f
    50203662:	fe843703          	ld	a4,-24(s0)
    50203666:	8fb9                	xor	a5,a5,a4
    50203668:	fef43423          	sd	a5,-24(s0)
    5020366c:	fe843703          	ld	a4,-24(s0)
    50203670:	06400793          	li	a5,100
    50203674:	02f777b3          	remu	a5,a4,a5
    50203678:	2781                	sext.w	a5,a5
    5020367a:	853e                	mv	a0,a5
    5020367c:	6462                	ld	s0,24(sp)
    5020367e:	6105                	addi	sp,sp,32
    50203680:	8082                	ret

0000000050203682 <get_node>:
    50203682:	715d                	addi	sp,sp,-80
    50203684:	e486                	sd	ra,72(sp)
    50203686:	e0a2                	sd	s0,64(sp)
    50203688:	0880                	addi	s0,sp,80
    5020368a:	faa43c23          	sd	a0,-72(s0)
    5020368e:	87ae                	mv	a5,a1
    50203690:	faf42a23          	sw	a5,-76(s0)
    50203694:	fb843783          	ld	a5,-72(s0)
    50203698:	853e                	mv	a0,a5
    5020369a:	f79ff0ef          	jal	ra,50203612 <futex_hash>
    5020369e:	87aa                	mv	a5,a0
    502036a0:	fef42223          	sw	a5,-28(s0)
    502036a4:	fe442783          	lw	a5,-28(s0)
    502036a8:	00479713          	slli	a4,a5,0x4
    502036ac:	00009797          	auipc	a5,0x9
    502036b0:	06478793          	addi	a5,a5,100 # 5020c710 <futex_buckets>
    502036b4:	97ba                	add	a5,a5,a4
    502036b6:	fcf43c23          	sd	a5,-40(s0)
    502036ba:	fd843783          	ld	a5,-40(s0)
    502036be:	639c                	ld	a5,0(a5)
    502036c0:	fef43423          	sd	a5,-24(s0)
    502036c4:	a80d                	j	502036f6 <get_node+0x74>
    502036c6:	fe843783          	ld	a5,-24(s0)
    502036ca:	fcf43423          	sd	a5,-56(s0)
    502036ce:	fc843783          	ld	a5,-56(s0)
    502036d2:	17e1                	addi	a5,a5,-8
    502036d4:	fcf43023          	sd	a5,-64(s0)
    502036d8:	fc043783          	ld	a5,-64(s0)
    502036dc:	6398                	ld	a4,0(a5)
    502036de:	fb843783          	ld	a5,-72(s0)
    502036e2:	00f71563          	bne	a4,a5,502036ec <get_node+0x6a>
    502036e6:	fc043783          	ld	a5,-64(s0)
    502036ea:	a0b5                	j	50203756 <get_node+0xd4>
    502036ec:	fe843783          	ld	a5,-24(s0)
    502036f0:	639c                	ld	a5,0(a5)
    502036f2:	fef43423          	sd	a5,-24(s0)
    502036f6:	fe843703          	ld	a4,-24(s0)
    502036fa:	fd843783          	ld	a5,-40(s0)
    502036fe:	fcf714e3          	bne	a4,a5,502036c6 <get_node+0x44>
    50203702:	fb442783          	lw	a5,-76(s0)
    50203706:	2781                	sext.w	a5,a5
    50203708:	c7b1                	beqz	a5,50203754 <get_node+0xd2>
    5020370a:	02800513          	li	a0,40
    5020370e:	0c2010ef          	jal	ra,502047d0 <kmalloc>
    50203712:	fca43823          	sd	a0,-48(s0)
    50203716:	fb843703          	ld	a4,-72(s0)
    5020371a:	fd043783          	ld	a5,-48(s0)
    5020371e:	e398                	sd	a4,0(a5)
    50203720:	fd043783          	ld	a5,-48(s0)
    50203724:	07e1                	addi	a5,a5,24
    50203726:	853e                	mv	a0,a5
    50203728:	da7ff0ef          	jal	ra,502034ce <init_list_head>
    5020372c:	fd043783          	ld	a5,-48(s0)
    50203730:	00878693          	addi	a3,a5,8
    50203734:	fe442783          	lw	a5,-28(s0)
    50203738:	00479713          	slli	a4,a5,0x4
    5020373c:	00009797          	auipc	a5,0x9
    50203740:	fd478793          	addi	a5,a5,-44 # 5020c710 <futex_buckets>
    50203744:	97ba                	add	a5,a5,a4
    50203746:	85be                	mv	a1,a5
    50203748:	8536                	mv	a0,a3
    5020374a:	dedff0ef          	jal	ra,50203536 <list_add_tail>
    5020374e:	fd043783          	ld	a5,-48(s0)
    50203752:	a011                	j	50203756 <get_node+0xd4>
    50203754:	4781                	li	a5,0
    50203756:	853e                	mv	a0,a5
    50203758:	60a6                	ld	ra,72(sp)
    5020375a:	6406                	ld	s0,64(sp)
    5020375c:	6161                	addi	sp,sp,80
    5020375e:	8082                	ret

0000000050203760 <futex_wait>:
    50203760:	7179                	addi	sp,sp,-48
    50203762:	f406                	sd	ra,40(sp)
    50203764:	f022                	sd	s0,32(sp)
    50203766:	1800                	addi	s0,sp,48
    50203768:	fca43c23          	sd	a0,-40(s0)
    5020376c:	fcb43823          	sd	a1,-48(s0)
    50203770:	90dfd0ef          	jal	ra,5020107c <get_current_cpu_id>
    50203774:	87aa                	mv	a5,a0
    50203776:	e791                	bnez	a5,50203782 <futex_wait+0x22>
    50203778:	00008797          	auipc	a5,0x8
    5020377c:	e2078793          	addi	a5,a5,-480 # 5020b598 <current_running_core0>
    50203780:	a029                	j	5020378a <futex_wait+0x2a>
    50203782:	00008797          	auipc	a5,0x8
    50203786:	e0e78793          	addi	a5,a5,-498 # 5020b590 <current_running_core1>
    5020378a:	00009717          	auipc	a4,0x9
    5020378e:	5c670713          	addi	a4,a4,1478 # 5020cd50 <current_running>
    50203792:	e31c                	sd	a5,0(a4)
    50203794:	94dfd0ef          	jal	ra,502010e0 <disable_preempt>
    50203798:	4585                	li	a1,1
    5020379a:	fd843503          	ld	a0,-40(s0)
    5020379e:	ee5ff0ef          	jal	ra,50203682 <get_node>
    502037a2:	fea43423          	sd	a0,-24(s0)
    502037a6:	fe843783          	ld	a5,-24(s0)
    502037aa:	ef89                	bnez	a5,502037c4 <futex_wait+0x64>
    502037ac:	00005617          	auipc	a2,0x5
    502037b0:	cac60613          	addi	a2,a2,-852 # 50208458 <__FUNCTION__.1480>
    502037b4:	03600593          	li	a1,54
    502037b8:	00005517          	auipc	a0,0x5
    502037bc:	c8050513          	addi	a0,a0,-896 # 50208438 <__FUNCTION__.1646+0x80>
    502037c0:	dcfff0ef          	jal	ra,5020358e <_panic>
    502037c4:	fd843783          	ld	a5,-40(s0)
    502037c8:	639c                	ld	a5,0(a5)
    502037ca:	fd043703          	ld	a4,-48(s0)
    502037ce:	02f71363          	bne	a4,a5,502037f4 <futex_wait+0x94>
    502037d2:	00009797          	auipc	a5,0x9
    502037d6:	57e78793          	addi	a5,a5,1406 # 5020cd50 <current_running>
    502037da:	639c                	ld	a5,0(a5)
    502037dc:	639c                	ld	a5,0(a5)
    502037de:	01878713          	addi	a4,a5,24
    502037e2:	fe843783          	ld	a5,-24(s0)
    502037e6:	07e1                	addi	a5,a5,24
    502037e8:	85be                	mv	a1,a5
    502037ea:	853a                	mv	a0,a4
    502037ec:	209000ef          	jal	ra,502041f4 <do_block>
    502037f0:	38c000ef          	jal	ra,50203b7c <do_scheduler>
    502037f4:	8b5fd0ef          	jal	ra,502010a8 <enable_preempt>
    502037f8:	0001                	nop
    502037fa:	70a2                	ld	ra,40(sp)
    502037fc:	7402                	ld	s0,32(sp)
    502037fe:	6145                	addi	sp,sp,48
    50203800:	8082                	ret

0000000050203802 <futex_wakeup>:
    50203802:	7179                	addi	sp,sp,-48
    50203804:	f406                	sd	ra,40(sp)
    50203806:	f022                	sd	s0,32(sp)
    50203808:	1800                	addi	s0,sp,48
    5020380a:	fca43c23          	sd	a0,-40(s0)
    5020380e:	87ae                	mv	a5,a1
    50203810:	fcf42a23          	sw	a5,-44(s0)
    50203814:	8cdfd0ef          	jal	ra,502010e0 <disable_preempt>
    50203818:	4581                	li	a1,0
    5020381a:	fd843503          	ld	a0,-40(s0)
    5020381e:	e65ff0ef          	jal	ra,50203682 <get_node>
    50203822:	fea43023          	sd	a0,-32(s0)
    50203826:	fe043783          	ld	a5,-32(s0)
    5020382a:	c3a9                	beqz	a5,5020386c <futex_wakeup+0x6a>
    5020382c:	fe042623          	sw	zero,-20(s0)
    50203830:	a025                	j	50203858 <futex_wakeup+0x56>
    50203832:	fe043783          	ld	a5,-32(s0)
    50203836:	07e1                	addi	a5,a5,24
    50203838:	853e                	mv	a0,a5
    5020383a:	d2bff0ef          	jal	ra,50203564 <list_empty>
    5020383e:	87aa                	mv	a5,a0
    50203840:	e78d                	bnez	a5,5020386a <futex_wakeup+0x68>
    50203842:	fe043783          	ld	a5,-32(s0)
    50203846:	6f9c                	ld	a5,24(a5)
    50203848:	853e                	mv	a0,a5
    5020384a:	27b000ef          	jal	ra,502042c4 <do_unblock>
    5020384e:	fec42783          	lw	a5,-20(s0)
    50203852:	2785                	addiw	a5,a5,1
    50203854:	fef42623          	sw	a5,-20(s0)
    50203858:	fec42703          	lw	a4,-20(s0)
    5020385c:	fd442783          	lw	a5,-44(s0)
    50203860:	2701                	sext.w	a4,a4
    50203862:	2781                	sext.w	a5,a5
    50203864:	fcf747e3          	blt	a4,a5,50203832 <futex_wakeup+0x30>
    50203868:	a011                	j	5020386c <futex_wakeup+0x6a>
    5020386a:	0001                	nop
    5020386c:	310000ef          	jal	ra,50203b7c <do_scheduler>
    50203870:	839fd0ef          	jal	ra,502010a8 <enable_preempt>
    50203874:	0001                	nop
    50203876:	70a2                	ld	ra,40(sp)
    50203878:	7402                	ld	s0,32(sp)
    5020387a:	6145                	addi	sp,sp,48
    5020387c:	8082                	ret

000000005020387e <_list_add>:
    5020387e:	7179                	addi	sp,sp,-48
    50203880:	f422                	sd	s0,40(sp)
    50203882:	1800                	addi	s0,sp,48
    50203884:	fea43423          	sd	a0,-24(s0)
    50203888:	feb43023          	sd	a1,-32(s0)
    5020388c:	fcc43c23          	sd	a2,-40(s0)
    50203890:	fd843783          	ld	a5,-40(s0)
    50203894:	fe843703          	ld	a4,-24(s0)
    50203898:	e798                	sd	a4,8(a5)
    5020389a:	fe843783          	ld	a5,-24(s0)
    5020389e:	fd843703          	ld	a4,-40(s0)
    502038a2:	e398                	sd	a4,0(a5)
    502038a4:	fe843783          	ld	a5,-24(s0)
    502038a8:	fe043703          	ld	a4,-32(s0)
    502038ac:	e798                	sd	a4,8(a5)
    502038ae:	fe043783          	ld	a5,-32(s0)
    502038b2:	fe843703          	ld	a4,-24(s0)
    502038b6:	e398                	sd	a4,0(a5)
    502038b8:	0001                	nop
    502038ba:	7422                	ld	s0,40(sp)
    502038bc:	6145                	addi	sp,sp,48
    502038be:	8082                	ret

00000000502038c0 <_list_del>:
    502038c0:	1101                	addi	sp,sp,-32
    502038c2:	ec22                	sd	s0,24(sp)
    502038c4:	1000                	addi	s0,sp,32
    502038c6:	fea43423          	sd	a0,-24(s0)
    502038ca:	feb43023          	sd	a1,-32(s0)
    502038ce:	fe043783          	ld	a5,-32(s0)
    502038d2:	fe843703          	ld	a4,-24(s0)
    502038d6:	e798                	sd	a4,8(a5)
    502038d8:	fe843783          	ld	a5,-24(s0)
    502038dc:	fe043703          	ld	a4,-32(s0)
    502038e0:	e398                	sd	a4,0(a5)
    502038e2:	0001                	nop
    502038e4:	6462                	ld	s0,24(sp)
    502038e6:	6105                	addi	sp,sp,32
    502038e8:	8082                	ret

00000000502038ea <list_del>:
    502038ea:	1101                	addi	sp,sp,-32
    502038ec:	ec06                	sd	ra,24(sp)
    502038ee:	e822                	sd	s0,16(sp)
    502038f0:	1000                	addi	s0,sp,32
    502038f2:	fea43423          	sd	a0,-24(s0)
    502038f6:	fe843783          	ld	a5,-24(s0)
    502038fa:	679c                	ld	a5,8(a5)
    502038fc:	c79d                	beqz	a5,5020392a <list_del+0x40>
    502038fe:	fe843783          	ld	a5,-24(s0)
    50203902:	639c                	ld	a5,0(a5)
    50203904:	c39d                	beqz	a5,5020392a <list_del+0x40>
    50203906:	fe843783          	ld	a5,-24(s0)
    5020390a:	6798                	ld	a4,8(a5)
    5020390c:	fe843783          	ld	a5,-24(s0)
    50203910:	639c                	ld	a5,0(a5)
    50203912:	85be                	mv	a1,a5
    50203914:	853a                	mv	a0,a4
    50203916:	fabff0ef          	jal	ra,502038c0 <_list_del>
    5020391a:	fe843783          	ld	a5,-24(s0)
    5020391e:	0007b423          	sd	zero,8(a5)
    50203922:	fe843783          	ld	a5,-24(s0)
    50203926:	0007b023          	sd	zero,0(a5)
    5020392a:	0001                	nop
    5020392c:	60e2                	ld	ra,24(sp)
    5020392e:	6442                	ld	s0,16(sp)
    50203930:	6105                	addi	sp,sp,32
    50203932:	8082                	ret

0000000050203934 <list_add_tail>:
    50203934:	1101                	addi	sp,sp,-32
    50203936:	ec06                	sd	ra,24(sp)
    50203938:	e822                	sd	s0,16(sp)
    5020393a:	1000                	addi	s0,sp,32
    5020393c:	fea43423          	sd	a0,-24(s0)
    50203940:	feb43023          	sd	a1,-32(s0)
    50203944:	fe043783          	ld	a5,-32(s0)
    50203948:	679c                	ld	a5,8(a5)
    5020394a:	fe043603          	ld	a2,-32(s0)
    5020394e:	85be                	mv	a1,a5
    50203950:	fe843503          	ld	a0,-24(s0)
    50203954:	f2bff0ef          	jal	ra,5020387e <_list_add>
    50203958:	0001                	nop
    5020395a:	60e2                	ld	ra,24(sp)
    5020395c:	6442                	ld	s0,16(sp)
    5020395e:	6105                	addi	sp,sp,32
    50203960:	8082                	ret

0000000050203962 <list_empty>:
    50203962:	1101                	addi	sp,sp,-32
    50203964:	ec22                	sd	s0,24(sp)
    50203966:	1000                	addi	s0,sp,32
    50203968:	fea43423          	sd	a0,-24(s0)
    5020396c:	fe843783          	ld	a5,-24(s0)
    50203970:	639c                	ld	a5,0(a5)
    50203972:	fe843703          	ld	a4,-24(s0)
    50203976:	40f707b3          	sub	a5,a4,a5
    5020397a:	0017b793          	seqz	a5,a5
    5020397e:	0ff7f793          	andi	a5,a5,255
    50203982:	2781                	sext.w	a5,a5
    50203984:	853e                	mv	a0,a5
    50203986:	6462                	ld	s0,24(sp)
    50203988:	6105                	addi	sp,sp,32
    5020398a:	8082                	ret

000000005020398c <score>:
    5020398c:	7179                	addi	sp,sp,-48
    5020398e:	f406                	sd	ra,40(sp)
    50203990:	f022                	sd	s0,32(sp)
    50203992:	ec26                	sd	s1,24(sp)
    50203994:	1800                	addi	s0,sp,48
    50203996:	87aa                	mv	a5,a0
    50203998:	fcb43823          	sd	a1,-48(s0)
    5020399c:	fcf42e23          	sw	a5,-36(s0)
    502039a0:	fdc42783          	lw	a5,-36(s0)
    502039a4:	17c2                	slli	a5,a5,0x30
    502039a6:	93c1                	srli	a5,a5,0x30
    502039a8:	873e                	mv	a4,a5
    502039aa:	87ba                	mv	a5,a4
    502039ac:	0027979b          	slliw	a5,a5,0x2
    502039b0:	9fb9                	addw	a5,a5,a4
    502039b2:	03079493          	slli	s1,a5,0x30
    502039b6:	90c1                	srli	s1,s1,0x30
    502039b8:	541000ef          	jal	ra,502046f8 <get_ticks>
    502039bc:	872a                	mv	a4,a0
    502039be:	fd043783          	ld	a5,-48(s0)
    502039c2:	8f1d                	sub	a4,a4,a5
    502039c4:	000257b7          	lui	a5,0x25
    502039c8:	9f078793          	addi	a5,a5,-1552 # 249f0 <_start-0x501dc610>
    502039cc:	02f757b3          	divu	a5,a4,a5
    502039d0:	17c2                	slli	a5,a5,0x30
    502039d2:	93c1                	srli	a5,a5,0x30
    502039d4:	9fa5                	addw	a5,a5,s1
    502039d6:	17c2                	slli	a5,a5,0x30
    502039d8:	93c1                	srli	a5,a5,0x30
    502039da:	853e                	mv	a0,a5
    502039dc:	70a2                	ld	ra,40(sp)
    502039de:	7402                	ld	s0,32(sp)
    502039e0:	64e2                	ld	s1,24(sp)
    502039e2:	6145                	addi	sp,sp,48
    502039e4:	8082                	ret

00000000502039e6 <findnext>:
    502039e6:	715d                	addi	sp,sp,-80
    502039e8:	e486                	sd	ra,72(sp)
    502039ea:	e0a2                	sd	s0,64(sp)
    502039ec:	0880                	addi	s0,sp,80
    502039ee:	faa43c23          	sd	a0,-72(s0)
    502039f2:	fe043423          	sd	zero,-24(s0)
    502039f6:	fb843783          	ld	a5,-72(s0)
    502039fa:	639c                	ld	a5,0(a5)
    502039fc:	fef43023          	sd	a5,-32(s0)
    50203a00:	fe043783          	ld	a5,-32(s0)
    50203a04:	fcf43823          	sd	a5,-48(s0)
    50203a08:	fd043783          	ld	a5,-48(s0)
    50203a0c:	17a1                	addi	a5,a5,-24
    50203a0e:	fcf43423          	sd	a5,-56(s0)
    50203a12:	fc843783          	ld	a5,-56(s0)
    50203a16:	fef43423          	sd	a5,-24(s0)
    50203a1a:	fc040fa3          	sb	zero,-33(s0)
    50203a1e:	a0a5                	j	50203a86 <findnext+0xa0>
    50203a20:	fe043783          	ld	a5,-32(s0)
    50203a24:	fcf43023          	sd	a5,-64(s0)
    50203a28:	fc043783          	ld	a5,-64(s0)
    50203a2c:	17a1                	addi	a5,a5,-24
    50203a2e:	fcf43423          	sd	a5,-56(s0)
    50203a32:	fc843783          	ld	a5,-56(s0)
    50203a36:	4fb8                	lw	a4,88(a5)
    50203a38:	fc843783          	ld	a5,-56(s0)
    50203a3c:	73bc                	ld	a5,96(a5)
    50203a3e:	85be                	mv	a1,a5
    50203a40:	853a                	mv	a0,a4
    50203a42:	f4bff0ef          	jal	ra,5020398c <score>
    50203a46:	87aa                	mv	a5,a0
    50203a48:	873e                	mv	a4,a5
    50203a4a:	fdf44783          	lbu	a5,-33(s0)
    50203a4e:	17c2                	slli	a5,a5,0x30
    50203a50:	93c1                	srli	a5,a5,0x30
    50203a52:	2701                	sext.w	a4,a4
    50203a54:	2781                	sext.w	a5,a5
    50203a56:	02e7f363          	bgeu	a5,a4,50203a7c <findnext+0x96>
    50203a5a:	fc843783          	ld	a5,-56(s0)
    50203a5e:	fef43423          	sd	a5,-24(s0)
    50203a62:	fc843783          	ld	a5,-56(s0)
    50203a66:	4fb8                	lw	a4,88(a5)
    50203a68:	fc843783          	ld	a5,-56(s0)
    50203a6c:	73bc                	ld	a5,96(a5)
    50203a6e:	85be                	mv	a1,a5
    50203a70:	853a                	mv	a0,a4
    50203a72:	f1bff0ef          	jal	ra,5020398c <score>
    50203a76:	87aa                	mv	a5,a0
    50203a78:	fcf40fa3          	sb	a5,-33(s0)
    50203a7c:	fe043783          	ld	a5,-32(s0)
    50203a80:	639c                	ld	a5,0(a5)
    50203a82:	fef43023          	sd	a5,-32(s0)
    50203a86:	fe043703          	ld	a4,-32(s0)
    50203a8a:	fb843783          	ld	a5,-72(s0)
    50203a8e:	f8f719e3          	bne	a4,a5,50203a20 <findnext+0x3a>
    50203a92:	fe843783          	ld	a5,-24(s0)
    50203a96:	853e                	mv	a0,a5
    50203a98:	60a6                	ld	ra,72(sp)
    50203a9a:	6406                	ld	s0,64(sp)
    50203a9c:	6161                	addi	sp,sp,80
    50203a9e:	8082                	ret

0000000050203aa0 <findnext_core>:
    50203aa0:	7139                	addi	sp,sp,-64
    50203aa2:	fc06                	sd	ra,56(sp)
    50203aa4:	f822                	sd	s0,48(sp)
    50203aa6:	0080                	addi	s0,sp,64
    50203aa8:	00006797          	auipc	a5,0x6
    50203aac:	85878793          	addi	a5,a5,-1960 # 50209300 <ready_queue>
    50203ab0:	639c                	ld	a5,0(a5)
    50203ab2:	fef43423          	sd	a5,-24(s0)
    50203ab6:	478d                	li	a5,3
    50203ab8:	fef403a3          	sb	a5,-25(s0)
    50203abc:	dc0fd0ef          	jal	ra,5020107c <get_current_cpu_id>
    50203ac0:	87aa                	mv	a5,a0
    50203ac2:	fef42023          	sw	a5,-32(s0)
    50203ac6:	a869                	j	50203b60 <findnext_core+0xc0>
    50203ac8:	fe843783          	ld	a5,-24(s0)
    50203acc:	fcf43c23          	sd	a5,-40(s0)
    50203ad0:	fd843783          	ld	a5,-40(s0)
    50203ad4:	17a1                	addi	a5,a5,-24
    50203ad6:	fcf43823          	sd	a5,-48(s0)
    50203ada:	fd043783          	ld	a5,-48(s0)
    50203ade:	0b07c703          	lbu	a4,176(a5)
    50203ae2:	fe744783          	lbu	a5,-25(s0)
    50203ae6:	8ff9                	and	a5,a5,a4
    50203ae8:	fcf407a3          	sb	a5,-49(s0)
    50203aec:	fe042783          	lw	a5,-32(s0)
    50203af0:	2781                	sext.w	a5,a5
    50203af2:	e795                	bnez	a5,50203b1e <findnext_core+0x7e>
    50203af4:	fcf44783          	lbu	a5,-49(s0)
    50203af8:	0ff7f713          	andi	a4,a5,255
    50203afc:	4785                	li	a5,1
    50203afe:	00f70963          	beq	a4,a5,50203b10 <findnext_core+0x70>
    50203b02:	fcf44783          	lbu	a5,-49(s0)
    50203b06:	0ff7f713          	andi	a4,a5,255
    50203b0a:	478d                	li	a5,3
    50203b0c:	00f71963          	bne	a4,a5,50203b1e <findnext_core+0x7e>
    50203b10:	fe843503          	ld	a0,-24(s0)
    50203b14:	dd7ff0ef          	jal	ra,502038ea <list_del>
    50203b18:	fd043783          	ld	a5,-48(s0)
    50203b1c:	a899                	j	50203b72 <findnext_core+0xd2>
    50203b1e:	fe042783          	lw	a5,-32(s0)
    50203b22:	0007871b          	sext.w	a4,a5
    50203b26:	4785                	li	a5,1
    50203b28:	02f71763          	bne	a4,a5,50203b56 <findnext_core+0xb6>
    50203b2c:	fcf44783          	lbu	a5,-49(s0)
    50203b30:	0ff7f713          	andi	a4,a5,255
    50203b34:	4789                	li	a5,2
    50203b36:	00f70963          	beq	a4,a5,50203b48 <findnext_core+0xa8>
    50203b3a:	fcf44783          	lbu	a5,-49(s0)
    50203b3e:	0ff7f713          	andi	a4,a5,255
    50203b42:	478d                	li	a5,3
    50203b44:	00f71963          	bne	a4,a5,50203b56 <findnext_core+0xb6>
    50203b48:	fe843503          	ld	a0,-24(s0)
    50203b4c:	d9fff0ef          	jal	ra,502038ea <list_del>
    50203b50:	fd043783          	ld	a5,-48(s0)
    50203b54:	a839                	j	50203b72 <findnext_core+0xd2>
    50203b56:	fe843783          	ld	a5,-24(s0)
    50203b5a:	639c                	ld	a5,0(a5)
    50203b5c:	fef43423          	sd	a5,-24(s0)
    50203b60:	fe843703          	ld	a4,-24(s0)
    50203b64:	00005797          	auipc	a5,0x5
    50203b68:	79c78793          	addi	a5,a5,1948 # 50209300 <ready_queue>
    50203b6c:	f4f71ee3          	bne	a4,a5,50203ac8 <findnext_core+0x28>
    50203b70:	4781                	li	a5,0
    50203b72:	853e                	mv	a0,a5
    50203b74:	70e2                	ld	ra,56(sp)
    50203b76:	7442                	ld	s0,48(sp)
    50203b78:	6121                	addi	sp,sp,64
    50203b7a:	8082                	ret

0000000050203b7c <do_scheduler>:
    50203b7c:	7179                	addi	sp,sp,-48
    50203b7e:	f406                	sd	ra,40(sp)
    50203b80:	f022                	sd	s0,32(sp)
    50203b82:	ec26                	sd	s1,24(sp)
    50203b84:	1800                	addi	s0,sp,48
    50203b86:	cf6fd0ef          	jal	ra,5020107c <get_current_cpu_id>
    50203b8a:	87aa                	mv	a5,a0
    50203b8c:	e791                	bnez	a5,50203b98 <do_scheduler+0x1c>
    50203b8e:	00008797          	auipc	a5,0x8
    50203b92:	a0a78793          	addi	a5,a5,-1526 # 5020b598 <current_running_core0>
    50203b96:	a029                	j	50203ba0 <do_scheduler+0x24>
    50203b98:	00008797          	auipc	a5,0x8
    50203b9c:	9f878793          	addi	a5,a5,-1544 # 5020b590 <current_running_core1>
    50203ba0:	00009717          	auipc	a4,0x9
    50203ba4:	1b070713          	addi	a4,a4,432 # 5020cd50 <current_running>
    50203ba8:	e31c                	sd	a5,0(a4)
    50203baa:	ef7ff0ef          	jal	ra,50203aa0 <findnext_core>
    50203bae:	fca43c23          	sd	a0,-40(s0)
    50203bb2:	fd843783          	ld	a5,-40(s0)
    50203bb6:	e385                	bnez	a5,50203bd6 <do_scheduler+0x5a>
    50203bb8:	cc4fd0ef          	jal	ra,5020107c <get_current_cpu_id>
    50203bbc:	87aa                	mv	a5,a0
    50203bbe:	e791                	bnez	a5,50203bca <do_scheduler+0x4e>
    50203bc0:	00005797          	auipc	a5,0x5
    50203bc4:	5d078793          	addi	a5,a5,1488 # 50209190 <pid0_pcb_core0>
    50203bc8:	a029                	j	50203bd2 <do_scheduler+0x56>
    50203bca:	00005797          	auipc	a5,0x5
    50203bce:	67e78793          	addi	a5,a5,1662 # 50209248 <pid0_pcb_core1>
    50203bd2:	fcf43c23          	sd	a5,-40(s0)
    50203bd6:	00009797          	auipc	a5,0x9
    50203bda:	17a78793          	addi	a5,a5,378 # 5020cd50 <current_running>
    50203bde:	639c                	ld	a5,0(a5)
    50203be0:	639c                	ld	a5,0(a5)
    50203be2:	fcf43823          	sd	a5,-48(s0)
    50203be6:	00009797          	auipc	a5,0x9
    50203bea:	16a78793          	addi	a5,a5,362 # 5020cd50 <current_running>
    50203bee:	639c                	ld	a5,0(a5)
    50203bf0:	639c                	ld	a5,0(a5)
    50203bf2:	5b9c                	lw	a5,48(a5)
    50203bf4:	873e                	mv	a4,a5
    50203bf6:	4785                	li	a5,1
    50203bf8:	02f71f63          	bne	a4,a5,50203c36 <do_scheduler+0xba>
    50203bfc:	00009797          	auipc	a5,0x9
    50203c00:	15478793          	addi	a5,a5,340 # 5020cd50 <current_running>
    50203c04:	639c                	ld	a5,0(a5)
    50203c06:	639c                	ld	a5,0(a5)
    50203c08:	579c                	lw	a5,40(a5)
    50203c0a:	c795                	beqz	a5,50203c36 <do_scheduler+0xba>
    50203c0c:	00009797          	auipc	a5,0x9
    50203c10:	14478793          	addi	a5,a5,324 # 5020cd50 <current_running>
    50203c14:	639c                	ld	a5,0(a5)
    50203c16:	639c                	ld	a5,0(a5)
    50203c18:	85be                	mv	a1,a5
    50203c1a:	00005517          	auipc	a0,0x5
    50203c1e:	6e650513          	addi	a0,a0,1766 # 50209300 <ready_queue>
    50203c22:	630000ef          	jal	ra,50204252 <enqueue>
    50203c26:	00009797          	auipc	a5,0x9
    50203c2a:	12a78793          	addi	a5,a5,298 # 5020cd50 <current_running>
    50203c2e:	639c                	ld	a5,0(a5)
    50203c30:	639c                	ld	a5,0(a5)
    50203c32:	4709                	li	a4,2
    50203c34:	db98                	sw	a4,48(a5)
    50203c36:	fd843783          	ld	a5,-40(s0)
    50203c3a:	4705                	li	a4,1
    50203c3c:	db98                	sw	a4,48(a5)
    50203c3e:	00009797          	auipc	a5,0x9
    50203c42:	11278793          	addi	a5,a5,274 # 5020cd50 <current_running>
    50203c46:	639c                	ld	a5,0(a5)
    50203c48:	6384                	ld	s1,0(a5)
    50203c4a:	2af000ef          	jal	ra,502046f8 <get_ticks>
    50203c4e:	87aa                	mv	a5,a0
    50203c50:	f0bc                	sd	a5,96(s1)
    50203c52:	00009797          	auipc	a5,0x9
    50203c56:	0fe78793          	addi	a5,a5,254 # 5020cd50 <current_running>
    50203c5a:	639c                	ld	a5,0(a5)
    50203c5c:	fd843703          	ld	a4,-40(s0)
    50203c60:	e398                	sd	a4,0(a5)
    50203c62:	00009797          	auipc	a5,0x9
    50203c66:	0ee78793          	addi	a5,a5,238 # 5020cd50 <current_running>
    50203c6a:	639c                	ld	a5,0(a5)
    50203c6c:	639c                	ld	a5,0(a5)
    50203c6e:	5798                	lw	a4,40(a5)
    50203c70:	00006797          	auipc	a5,0x6
    50203c74:	8f078793          	addi	a5,a5,-1808 # 50209560 <process_id>
    50203c78:	c398                	sw	a4,0(a5)
    50203c7a:	fd843583          	ld	a1,-40(s0)
    50203c7e:	fd043503          	ld	a0,-48(s0)
    50203c82:	c9afd0ef          	jal	ra,5020111c <switch_to>
    50203c86:	0001                	nop
    50203c88:	70a2                	ld	ra,40(sp)
    50203c8a:	7402                	ld	s0,32(sp)
    50203c8c:	64e2                	ld	s1,24(sp)
    50203c8e:	6145                	addi	sp,sp,48
    50203c90:	8082                	ret

0000000050203c92 <do_kill>:
    50203c92:	1101                	addi	sp,sp,-32
    50203c94:	ec06                	sd	ra,24(sp)
    50203c96:	e822                	sd	s0,16(sp)
    50203c98:	1000                	addi	s0,sp,32
    50203c9a:	87aa                	mv	a5,a0
    50203c9c:	fef42623          	sw	a5,-20(s0)
    50203ca0:	fec42783          	lw	a5,-20(s0)
    50203ca4:	0007871b          	sext.w	a4,a5
    50203ca8:	4785                	li	a5,1
    50203caa:	00f71a63          	bne	a4,a5,50203cbe <do_kill+0x2c>
    50203cae:	00004517          	auipc	a0,0x4
    50203cb2:	7ca50513          	addi	a0,a0,1994 # 50208478 <__FUNCTION__.1480+0x20>
    50203cb6:	636010ef          	jal	ra,502052ec <prints>
    50203cba:	4781                	li	a5,0
    50203cbc:	a8d1                	j	50203d90 <do_kill+0xfe>
    50203cbe:	fec42783          	lw	a5,-20(s0)
    50203cc2:	37fd                	addiw	a5,a5,-1
    50203cc4:	0007869b          	sext.w	a3,a5
    50203cc8:	00009717          	auipc	a4,0x9
    50203ccc:	09070713          	addi	a4,a4,144 # 5020cd58 <pcb>
    50203cd0:	0b800793          	li	a5,184
    50203cd4:	02f687b3          	mul	a5,a3,a5
    50203cd8:	97ba                	add	a5,a5,a4
    50203cda:	579c                	lw	a5,40(a5)
    50203cdc:	e399                	bnez	a5,50203ce2 <do_kill+0x50>
    50203cde:	4781                	li	a5,0
    50203ce0:	a845                	j	50203d90 <do_kill+0xfe>
    50203ce2:	fec42783          	lw	a5,-20(s0)
    50203ce6:	37fd                	addiw	a5,a5,-1
    50203ce8:	0007869b          	sext.w	a3,a5
    50203cec:	00009717          	auipc	a4,0x9
    50203cf0:	06c70713          	addi	a4,a4,108 # 5020cd58 <pcb>
    50203cf4:	0b800793          	li	a5,184
    50203cf8:	02f687b3          	mul	a5,a3,a5
    50203cfc:	97ba                	add	a5,a5,a4
    50203cfe:	470d                	li	a4,3
    50203d00:	db98                	sw	a4,48(a5)
    50203d02:	fec42783          	lw	a5,-20(s0)
    50203d06:	37fd                	addiw	a5,a5,-1
    50203d08:	0007869b          	sext.w	a3,a5
    50203d0c:	00009717          	auipc	a4,0x9
    50203d10:	04c70713          	addi	a4,a4,76 # 5020cd58 <pcb>
    50203d14:	0b800793          	li	a5,184
    50203d18:	02f687b3          	mul	a5,a3,a5
    50203d1c:	97ba                	add	a5,a5,a4
    50203d1e:	0207a423          	sw	zero,40(a5)
    50203d22:	fec42783          	lw	a5,-20(s0)
    50203d26:	37fd                	addiw	a5,a5,-1
    50203d28:	0007871b          	sext.w	a4,a5
    50203d2c:	0b800793          	li	a5,184
    50203d30:	02f707b3          	mul	a5,a4,a5
    50203d34:	01078713          	addi	a4,a5,16
    50203d38:	00009797          	auipc	a5,0x9
    50203d3c:	02078793          	addi	a5,a5,32 # 5020cd58 <pcb>
    50203d40:	97ba                	add	a5,a5,a4
    50203d42:	07a1                	addi	a5,a5,8
    50203d44:	853e                	mv	a0,a5
    50203d46:	ba5ff0ef          	jal	ra,502038ea <list_del>
    50203d4a:	fec42783          	lw	a5,-20(s0)
    50203d4e:	37fd                	addiw	a5,a5,-1
    50203d50:	0007869b          	sext.w	a3,a5
    50203d54:	00009717          	auipc	a4,0x9
    50203d58:	00470713          	addi	a4,a4,4 # 5020cd58 <pcb>
    50203d5c:	0b800793          	li	a5,184
    50203d60:	02f687b3          	mul	a5,a3,a5
    50203d64:	97ba                	add	a5,a5,a4
    50203d66:	5bdc                	lw	a5,52(a5)
    50203d68:	e39d                	bnez	a5,50203d8e <do_kill+0xfc>
    50203d6a:	fec42783          	lw	a5,-20(s0)
    50203d6e:	37fd                	addiw	a5,a5,-1
    50203d70:	0007869b          	sext.w	a3,a5
    50203d74:	00009717          	auipc	a4,0x9
    50203d78:	fe470713          	addi	a4,a4,-28 # 5020cd58 <pcb>
    50203d7c:	0b800793          	li	a5,184
    50203d80:	02f687b3          	mul	a5,a3,a5
    50203d84:	97ba                	add	a5,a5,a4
    50203d86:	57bc                	lw	a5,104(a5)
    50203d88:	853e                	mv	a0,a5
    50203d8a:	582000ef          	jal	ra,5020430c <zombie_check>
    50203d8e:	4785                	li	a5,1
    50203d90:	853e                	mv	a0,a5
    50203d92:	60e2                	ld	ra,24(sp)
    50203d94:	6442                	ld	s0,16(sp)
    50203d96:	6105                	addi	sp,sp,32
    50203d98:	8082                	ret

0000000050203d9a <do_process_show>:
    50203d9a:	1101                	addi	sp,sp,-32
    50203d9c:	ec06                	sd	ra,24(sp)
    50203d9e:	e822                	sd	s0,16(sp)
    50203da0:	1000                	addi	s0,sp,32
    50203da2:	00004517          	auipc	a0,0x4
    50203da6:	6ee50513          	addi	a0,a0,1774 # 50208490 <__FUNCTION__.1480+0x38>
    50203daa:	542010ef          	jal	ra,502052ec <prints>
    50203dae:	fe042623          	sw	zero,-20(s0)
    50203db2:	a691                	j	502040f6 <do_process_show+0x35c>
    50203db4:	00009717          	auipc	a4,0x9
    50203db8:	fa470713          	addi	a4,a4,-92 # 5020cd58 <pcb>
    50203dbc:	fec42683          	lw	a3,-20(s0)
    50203dc0:	0b800793          	li	a5,184
    50203dc4:	02f687b3          	mul	a5,a3,a5
    50203dc8:	97ba                	add	a5,a5,a4
    50203dca:	579c                	lw	a5,40(a5)
    50203dcc:	30078d63          	beqz	a5,502040e6 <do_process_show+0x34c>
    50203dd0:	00009717          	auipc	a4,0x9
    50203dd4:	f8870713          	addi	a4,a4,-120 # 5020cd58 <pcb>
    50203dd8:	fec42683          	lw	a3,-20(s0)
    50203ddc:	0b800793          	li	a5,184
    50203de0:	02f687b3          	mul	a5,a3,a5
    50203de4:	97ba                	add	a5,a5,a4
    50203de6:	5b9c                	lw	a5,48(a5)
    50203de8:	86be                	mv	a3,a5
    50203dea:	470d                	li	a4,3
    50203dec:	26e68163          	beq	a3,a4,5020404e <do_process_show+0x2b4>
    50203df0:	86be                	mv	a3,a5
    50203df2:	470d                	li	a4,3
    50203df4:	2ed76c63          	bltu	a4,a3,502040ec <do_process_show+0x352>
    50203df8:	86be                	mv	a3,a5
    50203dfa:	4709                	li	a4,2
    50203dfc:	28e68f63          	beq	a3,a4,5020409a <do_process_show+0x300>
    50203e00:	86be                	mv	a3,a5
    50203e02:	4709                	li	a4,2
    50203e04:	2ed76463          	bltu	a4,a3,502040ec <do_process_show+0x352>
    50203e08:	1e078d63          	beqz	a5,50204002 <do_process_show+0x268>
    50203e0c:	873e                	mv	a4,a5
    50203e0e:	4785                	li	a5,1
    50203e10:	2cf71e63          	bne	a4,a5,502040ec <do_process_show+0x352>
    50203e14:	00009797          	auipc	a5,0x9
    50203e18:	f3c78793          	addi	a5,a5,-196 # 5020cd50 <current_running>
    50203e1c:	639c                	ld	a5,0(a5)
    50203e1e:	6398                	ld	a4,0(a5)
    50203e20:	fec42683          	lw	a3,-20(s0)
    50203e24:	0b800793          	li	a5,184
    50203e28:	02f686b3          	mul	a3,a3,a5
    50203e2c:	00009797          	auipc	a5,0x9
    50203e30:	f2c78793          	addi	a5,a5,-212 # 5020cd58 <pcb>
    50203e34:	97b6                	add	a5,a5,a3
    50203e36:	04f71b63          	bne	a4,a5,50203e8c <do_process_show+0xf2>
    50203e3a:	a42fd0ef          	jal	ra,5020107c <get_current_cpu_id>
    50203e3e:	87aa                	mv	a5,a0
    50203e40:	e7b1                	bnez	a5,50203e8c <do_process_show+0xf2>
    50203e42:	00009717          	auipc	a4,0x9
    50203e46:	f1670713          	addi	a4,a4,-234 # 5020cd58 <pcb>
    50203e4a:	fec42683          	lw	a3,-20(s0)
    50203e4e:	0b800793          	li	a5,184
    50203e52:	02f687b3          	mul	a5,a3,a5
    50203e56:	97ba                	add	a5,a5,a4
    50203e58:	578c                	lw	a1,40(a5)
    50203e5a:	00009717          	auipc	a4,0x9
    50203e5e:	efe70713          	addi	a4,a4,-258 # 5020cd58 <pcb>
    50203e62:	fec42683          	lw	a3,-20(s0)
    50203e66:	0b800793          	li	a5,184
    50203e6a:	02f687b3          	mul	a5,a3,a5
    50203e6e:	97ba                	add	a5,a5,a4
    50203e70:	0b07c783          	lbu	a5,176(a5)
    50203e74:	2781                	sext.w	a5,a5
    50203e76:	86be                	mv	a3,a5
    50203e78:	00004617          	auipc	a2,0x4
    50203e7c:	63060613          	addi	a2,a2,1584 # 502084a8 <__FUNCTION__.1480+0x50>
    50203e80:	00004517          	auipc	a0,0x4
    50203e84:	64050513          	addi	a0,a0,1600 # 502084c0 <__FUNCTION__.1480+0x68>
    50203e88:	464010ef          	jal	ra,502052ec <prints>
    50203e8c:	00009797          	auipc	a5,0x9
    50203e90:	ec478793          	addi	a5,a5,-316 # 5020cd50 <current_running>
    50203e94:	639c                	ld	a5,0(a5)
    50203e96:	6398                	ld	a4,0(a5)
    50203e98:	fec42683          	lw	a3,-20(s0)
    50203e9c:	0b800793          	li	a5,184
    50203ea0:	02f686b3          	mul	a3,a3,a5
    50203ea4:	00009797          	auipc	a5,0x9
    50203ea8:	eb478793          	addi	a5,a5,-332 # 5020cd58 <pcb>
    50203eac:	97b6                	add	a5,a5,a3
    50203eae:	04f71e63          	bne	a4,a5,50203f0a <do_process_show+0x170>
    50203eb2:	9cafd0ef          	jal	ra,5020107c <get_current_cpu_id>
    50203eb6:	87aa                	mv	a5,a0
    50203eb8:	873e                	mv	a4,a5
    50203eba:	4785                	li	a5,1
    50203ebc:	04f71763          	bne	a4,a5,50203f0a <do_process_show+0x170>
    50203ec0:	00009717          	auipc	a4,0x9
    50203ec4:	e9870713          	addi	a4,a4,-360 # 5020cd58 <pcb>
    50203ec8:	fec42683          	lw	a3,-20(s0)
    50203ecc:	0b800793          	li	a5,184
    50203ed0:	02f687b3          	mul	a5,a3,a5
    50203ed4:	97ba                	add	a5,a5,a4
    50203ed6:	578c                	lw	a1,40(a5)
    50203ed8:	00009717          	auipc	a4,0x9
    50203edc:	e8070713          	addi	a4,a4,-384 # 5020cd58 <pcb>
    50203ee0:	fec42683          	lw	a3,-20(s0)
    50203ee4:	0b800793          	li	a5,184
    50203ee8:	02f687b3          	mul	a5,a3,a5
    50203eec:	97ba                	add	a5,a5,a4
    50203eee:	0b07c783          	lbu	a5,176(a5)
    50203ef2:	2781                	sext.w	a5,a5
    50203ef4:	86be                	mv	a3,a5
    50203ef6:	00004617          	auipc	a2,0x4
    50203efa:	5e260613          	addi	a2,a2,1506 # 502084d8 <__FUNCTION__.1480+0x80>
    50203efe:	00004517          	auipc	a0,0x4
    50203f02:	5c250513          	addi	a0,a0,1474 # 502084c0 <__FUNCTION__.1480+0x68>
    50203f06:	3e6010ef          	jal	ra,502052ec <prints>
    50203f0a:	00009797          	auipc	a5,0x9
    50203f0e:	e4678793          	addi	a5,a5,-442 # 5020cd50 <current_running>
    50203f12:	639c                	ld	a5,0(a5)
    50203f14:	6398                	ld	a4,0(a5)
    50203f16:	fec42683          	lw	a3,-20(s0)
    50203f1a:	0b800793          	li	a5,184
    50203f1e:	02f686b3          	mul	a3,a3,a5
    50203f22:	00009797          	auipc	a5,0x9
    50203f26:	e3678793          	addi	a5,a5,-458 # 5020cd58 <pcb>
    50203f2a:	97b6                	add	a5,a5,a3
    50203f2c:	04f70b63          	beq	a4,a5,50203f82 <do_process_show+0x1e8>
    50203f30:	94cfd0ef          	jal	ra,5020107c <get_current_cpu_id>
    50203f34:	87aa                	mv	a5,a0
    50203f36:	e7b1                	bnez	a5,50203f82 <do_process_show+0x1e8>
    50203f38:	00009717          	auipc	a4,0x9
    50203f3c:	e2070713          	addi	a4,a4,-480 # 5020cd58 <pcb>
    50203f40:	fec42683          	lw	a3,-20(s0)
    50203f44:	0b800793          	li	a5,184
    50203f48:	02f687b3          	mul	a5,a3,a5
    50203f4c:	97ba                	add	a5,a5,a4
    50203f4e:	578c                	lw	a1,40(a5)
    50203f50:	00009717          	auipc	a4,0x9
    50203f54:	e0870713          	addi	a4,a4,-504 # 5020cd58 <pcb>
    50203f58:	fec42683          	lw	a3,-20(s0)
    50203f5c:	0b800793          	li	a5,184
    50203f60:	02f687b3          	mul	a5,a3,a5
    50203f64:	97ba                	add	a5,a5,a4
    50203f66:	0b07c783          	lbu	a5,176(a5)
    50203f6a:	2781                	sext.w	a5,a5
    50203f6c:	86be                	mv	a3,a5
    50203f6e:	00004617          	auipc	a2,0x4
    50203f72:	56a60613          	addi	a2,a2,1386 # 502084d8 <__FUNCTION__.1480+0x80>
    50203f76:	00004517          	auipc	a0,0x4
    50203f7a:	54a50513          	addi	a0,a0,1354 # 502084c0 <__FUNCTION__.1480+0x68>
    50203f7e:	36e010ef          	jal	ra,502052ec <prints>
    50203f82:	00009797          	auipc	a5,0x9
    50203f86:	dce78793          	addi	a5,a5,-562 # 5020cd50 <current_running>
    50203f8a:	639c                	ld	a5,0(a5)
    50203f8c:	6398                	ld	a4,0(a5)
    50203f8e:	fec42683          	lw	a3,-20(s0)
    50203f92:	0b800793          	li	a5,184
    50203f96:	02f686b3          	mul	a3,a3,a5
    50203f9a:	00009797          	auipc	a5,0x9
    50203f9e:	dbe78793          	addi	a5,a5,-578 # 5020cd58 <pcb>
    50203fa2:	97b6                	add	a5,a5,a3
    50203fa4:	14f70363          	beq	a4,a5,502040ea <do_process_show+0x350>
    50203fa8:	8d4fd0ef          	jal	ra,5020107c <get_current_cpu_id>
    50203fac:	87aa                	mv	a5,a0
    50203fae:	873e                	mv	a4,a5
    50203fb0:	4785                	li	a5,1
    50203fb2:	12f71c63          	bne	a4,a5,502040ea <do_process_show+0x350>
    50203fb6:	00009717          	auipc	a4,0x9
    50203fba:	da270713          	addi	a4,a4,-606 # 5020cd58 <pcb>
    50203fbe:	fec42683          	lw	a3,-20(s0)
    50203fc2:	0b800793          	li	a5,184
    50203fc6:	02f687b3          	mul	a5,a3,a5
    50203fca:	97ba                	add	a5,a5,a4
    50203fcc:	578c                	lw	a1,40(a5)
    50203fce:	00009717          	auipc	a4,0x9
    50203fd2:	d8a70713          	addi	a4,a4,-630 # 5020cd58 <pcb>
    50203fd6:	fec42683          	lw	a3,-20(s0)
    50203fda:	0b800793          	li	a5,184
    50203fde:	02f687b3          	mul	a5,a3,a5
    50203fe2:	97ba                	add	a5,a5,a4
    50203fe4:	0b07c783          	lbu	a5,176(a5)
    50203fe8:	2781                	sext.w	a5,a5
    50203fea:	86be                	mv	a3,a5
    50203fec:	00004617          	auipc	a2,0x4
    50203ff0:	4bc60613          	addi	a2,a2,1212 # 502084a8 <__FUNCTION__.1480+0x50>
    50203ff4:	00004517          	auipc	a0,0x4
    50203ff8:	4cc50513          	addi	a0,a0,1228 # 502084c0 <__FUNCTION__.1480+0x68>
    50203ffc:	2f0010ef          	jal	ra,502052ec <prints>
    50204000:	a0ed                	j	502040ea <do_process_show+0x350>
    50204002:	00009717          	auipc	a4,0x9
    50204006:	d5670713          	addi	a4,a4,-682 # 5020cd58 <pcb>
    5020400a:	fec42683          	lw	a3,-20(s0)
    5020400e:	0b800793          	li	a5,184
    50204012:	02f687b3          	mul	a5,a3,a5
    50204016:	97ba                	add	a5,a5,a4
    50204018:	578c                	lw	a1,40(a5)
    5020401a:	00009717          	auipc	a4,0x9
    5020401e:	d3e70713          	addi	a4,a4,-706 # 5020cd58 <pcb>
    50204022:	fec42683          	lw	a3,-20(s0)
    50204026:	0b800793          	li	a5,184
    5020402a:	02f687b3          	mul	a5,a3,a5
    5020402e:	97ba                	add	a5,a5,a4
    50204030:	0b07c783          	lbu	a5,176(a5)
    50204034:	2781                	sext.w	a5,a5
    50204036:	86be                	mv	a3,a5
    50204038:	00004617          	auipc	a2,0x4
    5020403c:	4b860613          	addi	a2,a2,1208 # 502084f0 <__FUNCTION__.1480+0x98>
    50204040:	00004517          	auipc	a0,0x4
    50204044:	48050513          	addi	a0,a0,1152 # 502084c0 <__FUNCTION__.1480+0x68>
    50204048:	2a4010ef          	jal	ra,502052ec <prints>
    5020404c:	a045                	j	502040ec <do_process_show+0x352>
    5020404e:	00009717          	auipc	a4,0x9
    50204052:	d0a70713          	addi	a4,a4,-758 # 5020cd58 <pcb>
    50204056:	fec42683          	lw	a3,-20(s0)
    5020405a:	0b800793          	li	a5,184
    5020405e:	02f687b3          	mul	a5,a3,a5
    50204062:	97ba                	add	a5,a5,a4
    50204064:	578c                	lw	a1,40(a5)
    50204066:	00009717          	auipc	a4,0x9
    5020406a:	cf270713          	addi	a4,a4,-782 # 5020cd58 <pcb>
    5020406e:	fec42683          	lw	a3,-20(s0)
    50204072:	0b800793          	li	a5,184
    50204076:	02f687b3          	mul	a5,a3,a5
    5020407a:	97ba                	add	a5,a5,a4
    5020407c:	0b07c783          	lbu	a5,176(a5)
    50204080:	2781                	sext.w	a5,a5
    50204082:	86be                	mv	a3,a5
    50204084:	00004617          	auipc	a2,0x4
    50204088:	47460613          	addi	a2,a2,1140 # 502084f8 <__FUNCTION__.1480+0xa0>
    5020408c:	00004517          	auipc	a0,0x4
    50204090:	43450513          	addi	a0,a0,1076 # 502084c0 <__FUNCTION__.1480+0x68>
    50204094:	258010ef          	jal	ra,502052ec <prints>
    50204098:	a891                	j	502040ec <do_process_show+0x352>
    5020409a:	00009717          	auipc	a4,0x9
    5020409e:	cbe70713          	addi	a4,a4,-834 # 5020cd58 <pcb>
    502040a2:	fec42683          	lw	a3,-20(s0)
    502040a6:	0b800793          	li	a5,184
    502040aa:	02f687b3          	mul	a5,a3,a5
    502040ae:	97ba                	add	a5,a5,a4
    502040b0:	578c                	lw	a1,40(a5)
    502040b2:	00009717          	auipc	a4,0x9
    502040b6:	ca670713          	addi	a4,a4,-858 # 5020cd58 <pcb>
    502040ba:	fec42683          	lw	a3,-20(s0)
    502040be:	0b800793          	li	a5,184
    502040c2:	02f687b3          	mul	a5,a3,a5
    502040c6:	97ba                	add	a5,a5,a4
    502040c8:	0b07c783          	lbu	a5,176(a5)
    502040cc:	2781                	sext.w	a5,a5
    502040ce:	86be                	mv	a3,a5
    502040d0:	00004617          	auipc	a2,0x4
    502040d4:	43060613          	addi	a2,a2,1072 # 50208500 <__FUNCTION__.1480+0xa8>
    502040d8:	00004517          	auipc	a0,0x4
    502040dc:	3e850513          	addi	a0,a0,1000 # 502084c0 <__FUNCTION__.1480+0x68>
    502040e0:	20c010ef          	jal	ra,502052ec <prints>
    502040e4:	a021                	j	502040ec <do_process_show+0x352>
    502040e6:	0001                	nop
    502040e8:	a011                	j	502040ec <do_process_show+0x352>
    502040ea:	0001                	nop
    502040ec:	fec42783          	lw	a5,-20(s0)
    502040f0:	2785                	addiw	a5,a5,1
    502040f2:	fef42623          	sw	a5,-20(s0)
    502040f6:	fec42783          	lw	a5,-20(s0)
    502040fa:	0007871b          	sext.w	a4,a5
    502040fe:	47bd                	li	a5,15
    50204100:	cae7dae3          	bge	a5,a4,50203db4 <do_process_show+0x1a>
    50204104:	0001                	nop
    50204106:	0001                	nop
    50204108:	60e2                	ld	ra,24(sp)
    5020410a:	6442                	ld	s0,16(sp)
    5020410c:	6105                	addi	sp,sp,32
    5020410e:	8082                	ret

0000000050204110 <do_getpid>:
    50204110:	1141                	addi	sp,sp,-16
    50204112:	e406                	sd	ra,8(sp)
    50204114:	e022                	sd	s0,0(sp)
    50204116:	0800                	addi	s0,sp,16
    50204118:	f65fc0ef          	jal	ra,5020107c <get_current_cpu_id>
    5020411c:	87aa                	mv	a5,a0
    5020411e:	e791                	bnez	a5,5020412a <do_getpid+0x1a>
    50204120:	00007797          	auipc	a5,0x7
    50204124:	47878793          	addi	a5,a5,1144 # 5020b598 <current_running_core0>
    50204128:	a029                	j	50204132 <do_getpid+0x22>
    5020412a:	00007797          	auipc	a5,0x7
    5020412e:	46678793          	addi	a5,a5,1126 # 5020b590 <current_running_core1>
    50204132:	00009717          	auipc	a4,0x9
    50204136:	c1e70713          	addi	a4,a4,-994 # 5020cd50 <current_running>
    5020413a:	e31c                	sd	a5,0(a4)
    5020413c:	00009797          	auipc	a5,0x9
    50204140:	c1478793          	addi	a5,a5,-1004 # 5020cd50 <current_running>
    50204144:	639c                	ld	a5,0(a5)
    50204146:	639c                	ld	a5,0(a5)
    50204148:	579c                	lw	a5,40(a5)
    5020414a:	853e                	mv	a0,a5
    5020414c:	60a2                	ld	ra,8(sp)
    5020414e:	6402                	ld	s0,0(sp)
    50204150:	0141                	addi	sp,sp,16
    50204152:	8082                	ret

0000000050204154 <do_sleep>:
    50204154:	1101                	addi	sp,sp,-32
    50204156:	ec06                	sd	ra,24(sp)
    50204158:	e822                	sd	s0,16(sp)
    5020415a:	1000                	addi	s0,sp,32
    5020415c:	87aa                	mv	a5,a0
    5020415e:	fef42623          	sw	a5,-20(s0)
    50204162:	f1bfc0ef          	jal	ra,5020107c <get_current_cpu_id>
    50204166:	87aa                	mv	a5,a0
    50204168:	e791                	bnez	a5,50204174 <do_sleep+0x20>
    5020416a:	00007797          	auipc	a5,0x7
    5020416e:	42e78793          	addi	a5,a5,1070 # 5020b598 <current_running_core0>
    50204172:	a029                	j	5020417c <do_sleep+0x28>
    50204174:	00007797          	auipc	a5,0x7
    50204178:	41c78793          	addi	a5,a5,1052 # 5020b590 <current_running_core1>
    5020417c:	00009717          	auipc	a4,0x9
    50204180:	bd470713          	addi	a4,a4,-1068 # 5020cd50 <current_running>
    50204184:	e31c                	sd	a5,0(a4)
    50204186:	00009797          	auipc	a5,0x9
    5020418a:	bca78793          	addi	a5,a5,-1078 # 5020cd50 <current_running>
    5020418e:	639c                	ld	a5,0(a5)
    50204190:	639c                	ld	a5,0(a5)
    50204192:	0207a823          	sw	zero,48(a5)
    50204196:	ee7fc0ef          	jal	ra,5020107c <get_current_cpu_id>
    5020419a:	87aa                	mv	a5,a0
    5020419c:	873e                	mv	a4,a5
    5020419e:	00009797          	auipc	a5,0x9
    502041a2:	bb278793          	addi	a5,a5,-1102 # 5020cd50 <current_running>
    502041a6:	639c                	ld	a5,0(a5)
    502041a8:	639c                	ld	a5,0(a5)
    502041aa:	0ff77713          	andi	a4,a4,255
    502041ae:	0ae788a3          	sb	a4,177(a5)
    502041b2:	00009797          	auipc	a5,0x9
    502041b6:	b9e78793          	addi	a5,a5,-1122 # 5020cd50 <current_running>
    502041ba:	639c                	ld	a5,0(a5)
    502041bc:	639c                	ld	a5,0(a5)
    502041be:	01878693          	addi	a3,a5,24
    502041c2:	84018793          	addi	a5,gp,-1984 # 50209590 <time_base>
    502041c6:	439c                	lw	a5,0(a5)
    502041c8:	fec42703          	lw	a4,-20(s0)
    502041cc:	02f707bb          	mulw	a5,a4,a5
    502041d0:	2781                	sext.w	a5,a5
    502041d2:	1782                	slli	a5,a5,0x20
    502041d4:	9381                	srli	a5,a5,0x20
    502041d6:	863e                	mv	a2,a5
    502041d8:	85b6                	mv	a1,a3
    502041da:	00000517          	auipc	a0,0x0
    502041de:	0ea50513          	addi	a0,a0,234 # 502042c4 <do_unblock>
    502041e2:	38e000ef          	jal	ra,50204570 <timer_create>
    502041e6:	997ff0ef          	jal	ra,50203b7c <do_scheduler>
    502041ea:	0001                	nop
    502041ec:	60e2                	ld	ra,24(sp)
    502041ee:	6442                	ld	s0,16(sp)
    502041f0:	6105                	addi	sp,sp,32
    502041f2:	8082                	ret

00000000502041f4 <do_block>:
    502041f4:	1101                	addi	sp,sp,-32
    502041f6:	ec06                	sd	ra,24(sp)
    502041f8:	e822                	sd	s0,16(sp)
    502041fa:	1000                	addi	s0,sp,32
    502041fc:	fea43423          	sd	a0,-24(s0)
    50204200:	feb43023          	sd	a1,-32(s0)
    50204204:	e79fc0ef          	jal	ra,5020107c <get_current_cpu_id>
    50204208:	87aa                	mv	a5,a0
    5020420a:	e791                	bnez	a5,50204216 <do_block+0x22>
    5020420c:	00007797          	auipc	a5,0x7
    50204210:	38c78793          	addi	a5,a5,908 # 5020b598 <current_running_core0>
    50204214:	a029                	j	5020421e <do_block+0x2a>
    50204216:	00007797          	auipc	a5,0x7
    5020421a:	37a78793          	addi	a5,a5,890 # 5020b590 <current_running_core1>
    5020421e:	00009717          	auipc	a4,0x9
    50204222:	b3270713          	addi	a4,a4,-1230 # 5020cd50 <current_running>
    50204226:	e31c                	sd	a5,0(a4)
    50204228:	fe843583          	ld	a1,-24(s0)
    5020422c:	fe043503          	ld	a0,-32(s0)
    50204230:	022000ef          	jal	ra,50204252 <enqueue>
    50204234:	00009797          	auipc	a5,0x9
    50204238:	b1c78793          	addi	a5,a5,-1252 # 5020cd50 <current_running>
    5020423c:	639c                	ld	a5,0(a5)
    5020423e:	639c                	ld	a5,0(a5)
    50204240:	0207a823          	sw	zero,48(a5)
    50204244:	939ff0ef          	jal	ra,50203b7c <do_scheduler>
    50204248:	0001                	nop
    5020424a:	60e2                	ld	ra,24(sp)
    5020424c:	6442                	ld	s0,16(sp)
    5020424e:	6105                	addi	sp,sp,32
    50204250:	8082                	ret

0000000050204252 <enqueue>:
    50204252:	1101                	addi	sp,sp,-32
    50204254:	ec06                	sd	ra,24(sp)
    50204256:	e822                	sd	s0,16(sp)
    50204258:	1000                	addi	s0,sp,32
    5020425a:	fea43423          	sd	a0,-24(s0)
    5020425e:	feb43023          	sd	a1,-32(s0)
    50204262:	fe043783          	ld	a5,-32(s0)
    50204266:	07e1                	addi	a5,a5,24
    50204268:	fe843583          	ld	a1,-24(s0)
    5020426c:	853e                	mv	a0,a5
    5020426e:	ec6ff0ef          	jal	ra,50203934 <list_add_tail>
    50204272:	0001                	nop
    50204274:	60e2                	ld	ra,24(sp)
    50204276:	6442                	ld	s0,16(sp)
    50204278:	6105                	addi	sp,sp,32
    5020427a:	8082                	ret

000000005020427c <dequeue>:
    5020427c:	7179                	addi	sp,sp,-48
    5020427e:	f406                	sd	ra,40(sp)
    50204280:	f022                	sd	s0,32(sp)
    50204282:	1800                	addi	s0,sp,48
    50204284:	fca43c23          	sd	a0,-40(s0)
    50204288:	fd843503          	ld	a0,-40(s0)
    5020428c:	ed6ff0ef          	jal	ra,50203962 <list_empty>
    50204290:	87aa                	mv	a5,a0
    50204292:	e785                	bnez	a5,502042ba <dequeue+0x3e>
    50204294:	fd843783          	ld	a5,-40(s0)
    50204298:	639c                	ld	a5,0(a5)
    5020429a:	fef43423          	sd	a5,-24(s0)
    5020429e:	fe843783          	ld	a5,-24(s0)
    502042a2:	17a1                	addi	a5,a5,-24
    502042a4:	fef43023          	sd	a5,-32(s0)
    502042a8:	fd843783          	ld	a5,-40(s0)
    502042ac:	639c                	ld	a5,0(a5)
    502042ae:	853e                	mv	a0,a5
    502042b0:	e3aff0ef          	jal	ra,502038ea <list_del>
    502042b4:	fe043783          	ld	a5,-32(s0)
    502042b8:	a009                	j	502042ba <dequeue+0x3e>
    502042ba:	853e                	mv	a0,a5
    502042bc:	70a2                	ld	ra,40(sp)
    502042be:	7402                	ld	s0,32(sp)
    502042c0:	6145                	addi	sp,sp,48
    502042c2:	8082                	ret

00000000502042c4 <do_unblock>:
    502042c4:	7179                	addi	sp,sp,-48
    502042c6:	f406                	sd	ra,40(sp)
    502042c8:	f022                	sd	s0,32(sp)
    502042ca:	1800                	addi	s0,sp,48
    502042cc:	fca43c23          	sd	a0,-40(s0)
    502042d0:	fd843783          	ld	a5,-40(s0)
    502042d4:	fef43423          	sd	a5,-24(s0)
    502042d8:	fe843783          	ld	a5,-24(s0)
    502042dc:	17a1                	addi	a5,a5,-24
    502042de:	fef43023          	sd	a5,-32(s0)
    502042e2:	fd843503          	ld	a0,-40(s0)
    502042e6:	e04ff0ef          	jal	ra,502038ea <list_del>
    502042ea:	fe043783          	ld	a5,-32(s0)
    502042ee:	4709                	li	a4,2
    502042f0:	db98                	sw	a4,48(a5)
    502042f2:	fe043583          	ld	a1,-32(s0)
    502042f6:	00005517          	auipc	a0,0x5
    502042fa:	00a50513          	addi	a0,a0,10 # 50209300 <ready_queue>
    502042fe:	f55ff0ef          	jal	ra,50204252 <enqueue>
    50204302:	0001                	nop
    50204304:	70a2                	ld	ra,40(sp)
    50204306:	7402                	ld	s0,32(sp)
    50204308:	6145                	addi	sp,sp,48
    5020430a:	8082                	ret

000000005020430c <zombie_check>:
    5020430c:	1101                	addi	sp,sp,-32
    5020430e:	ec06                	sd	ra,24(sp)
    50204310:	e822                	sd	s0,16(sp)
    50204312:	1000                	addi	s0,sp,32
    50204314:	87aa                	mv	a5,a0
    50204316:	fef42623          	sw	a5,-20(s0)
    5020431a:	fec42783          	lw	a5,-20(s0)
    5020431e:	2781                	sext.w	a5,a5
    50204320:	c795                	beqz	a5,5020434c <zombie_check+0x40>
    50204322:	fec42783          	lw	a5,-20(s0)
    50204326:	37fd                	addiw	a5,a5,-1
    50204328:	0007871b          	sext.w	a4,a5
    5020432c:	0b800793          	li	a5,184
    50204330:	02f707b3          	mul	a5,a4,a5
    50204334:	01078713          	addi	a4,a5,16
    50204338:	00009797          	auipc	a5,0x9
    5020433c:	a2078793          	addi	a5,a5,-1504 # 5020cd58 <pcb>
    50204340:	97ba                	add	a5,a5,a4
    50204342:	07a1                	addi	a5,a5,8
    50204344:	853e                	mv	a0,a5
    50204346:	f7fff0ef          	jal	ra,502042c4 <do_unblock>
    5020434a:	a011                	j	5020434e <zombie_check+0x42>
    5020434c:	0001                	nop
    5020434e:	60e2                	ld	ra,24(sp)
    50204350:	6442                	ld	s0,16(sp)
    50204352:	6105                	addi	sp,sp,32
    50204354:	8082                	ret

0000000050204356 <do_exit>:
    50204356:	1141                	addi	sp,sp,-16
    50204358:	e406                	sd	ra,8(sp)
    5020435a:	e022                	sd	s0,0(sp)
    5020435c:	0800                	addi	s0,sp,16
    5020435e:	d1ffc0ef          	jal	ra,5020107c <get_current_cpu_id>
    50204362:	87aa                	mv	a5,a0
    50204364:	e791                	bnez	a5,50204370 <do_exit+0x1a>
    50204366:	00007797          	auipc	a5,0x7
    5020436a:	23278793          	addi	a5,a5,562 # 5020b598 <current_running_core0>
    5020436e:	a029                	j	50204378 <do_exit+0x22>
    50204370:	00007797          	auipc	a5,0x7
    50204374:	22078793          	addi	a5,a5,544 # 5020b590 <current_running_core1>
    50204378:	00009717          	auipc	a4,0x9
    5020437c:	9d870713          	addi	a4,a4,-1576 # 5020cd50 <current_running>
    50204380:	e31c                	sd	a5,0(a4)
    50204382:	00009797          	auipc	a5,0x9
    50204386:	9ce78793          	addi	a5,a5,-1586 # 5020cd50 <current_running>
    5020438a:	639c                	ld	a5,0(a5)
    5020438c:	639c                	ld	a5,0(a5)
    5020438e:	5bdc                	lw	a5,52(a5)
    50204390:	873e                	mv	a4,a5
    50204392:	4785                	li	a5,1
    50204394:	02f71363          	bne	a4,a5,502043ba <do_exit+0x64>
    50204398:	00009797          	auipc	a5,0x9
    5020439c:	9b878793          	addi	a5,a5,-1608 # 5020cd50 <current_running>
    502043a0:	639c                	ld	a5,0(a5)
    502043a2:	639c                	ld	a5,0(a5)
    502043a4:	0207a423          	sw	zero,40(a5)
    502043a8:	00009797          	auipc	a5,0x9
    502043ac:	9a878793          	addi	a5,a5,-1624 # 5020cd50 <current_running>
    502043b0:	639c                	ld	a5,0(a5)
    502043b2:	639c                	ld	a5,0(a5)
    502043b4:	470d                	li	a4,3
    502043b6:	db98                	sw	a4,48(a5)
    502043b8:	a81d                	j	502043ee <do_exit+0x98>
    502043ba:	00009797          	auipc	a5,0x9
    502043be:	99678793          	addi	a5,a5,-1642 # 5020cd50 <current_running>
    502043c2:	639c                	ld	a5,0(a5)
    502043c4:	639c                	ld	a5,0(a5)
    502043c6:	470d                	li	a4,3
    502043c8:	db98                	sw	a4,48(a5)
    502043ca:	00009797          	auipc	a5,0x9
    502043ce:	98678793          	addi	a5,a5,-1658 # 5020cd50 <current_running>
    502043d2:	639c                	ld	a5,0(a5)
    502043d4:	639c                	ld	a5,0(a5)
    502043d6:	0207a423          	sw	zero,40(a5)
    502043da:	00009797          	auipc	a5,0x9
    502043de:	97678793          	addi	a5,a5,-1674 # 5020cd50 <current_running>
    502043e2:	639c                	ld	a5,0(a5)
    502043e4:	639c                	ld	a5,0(a5)
    502043e6:	57bc                	lw	a5,104(a5)
    502043e8:	853e                	mv	a0,a5
    502043ea:	f23ff0ef          	jal	ra,5020430c <zombie_check>
    502043ee:	f8eff0ef          	jal	ra,50203b7c <do_scheduler>
    502043f2:	0001                	nop
    502043f4:	60a2                	ld	ra,8(sp)
    502043f6:	6402                	ld	s0,0(sp)
    502043f8:	0141                	addi	sp,sp,16
    502043fa:	8082                	ret

00000000502043fc <do_waitpid>:
    502043fc:	1101                	addi	sp,sp,-32
    502043fe:	ec06                	sd	ra,24(sp)
    50204400:	e822                	sd	s0,16(sp)
    50204402:	1000                	addi	s0,sp,32
    50204404:	87aa                	mv	a5,a0
    50204406:	fef42623          	sw	a5,-20(s0)
    5020440a:	c73fc0ef          	jal	ra,5020107c <get_current_cpu_id>
    5020440e:	87aa                	mv	a5,a0
    50204410:	e791                	bnez	a5,5020441c <do_waitpid+0x20>
    50204412:	00007797          	auipc	a5,0x7
    50204416:	18678793          	addi	a5,a5,390 # 5020b598 <current_running_core0>
    5020441a:	a029                	j	50204424 <do_waitpid+0x28>
    5020441c:	00007797          	auipc	a5,0x7
    50204420:	17478793          	addi	a5,a5,372 # 5020b590 <current_running_core1>
    50204424:	00009717          	auipc	a4,0x9
    50204428:	92c70713          	addi	a4,a4,-1748 # 5020cd50 <current_running>
    5020442c:	e31c                	sd	a5,0(a4)
    5020442e:	fec42783          	lw	a5,-20(s0)
    50204432:	37fd                	addiw	a5,a5,-1
    50204434:	0007869b          	sext.w	a3,a5
    50204438:	00009717          	auipc	a4,0x9
    5020443c:	92070713          	addi	a4,a4,-1760 # 5020cd58 <pcb>
    50204440:	0b800793          	li	a5,184
    50204444:	02f687b3          	mul	a5,a3,a5
    50204448:	97ba                	add	a5,a5,a4
    5020444a:	579c                	lw	a5,40(a5)
    5020444c:	c7bd                	beqz	a5,502044ba <do_waitpid+0xbe>
    5020444e:	fec42783          	lw	a5,-20(s0)
    50204452:	37fd                	addiw	a5,a5,-1
    50204454:	0007869b          	sext.w	a3,a5
    50204458:	00009717          	auipc	a4,0x9
    5020445c:	90070713          	addi	a4,a4,-1792 # 5020cd58 <pcb>
    50204460:	0b800793          	li	a5,184
    50204464:	02f687b3          	mul	a5,a3,a5
    50204468:	97ba                	add	a5,a5,a4
    5020446a:	5b9c                	lw	a5,48(a5)
    5020446c:	873e                	mv	a4,a5
    5020446e:	478d                	li	a5,3
    50204470:	04f70563          	beq	a4,a5,502044ba <do_waitpid+0xbe>
    50204474:	00009797          	auipc	a5,0x9
    50204478:	8dc78793          	addi	a5,a5,-1828 # 5020cd50 <current_running>
    5020447c:	639c                	ld	a5,0(a5)
    5020447e:	639c                	ld	a5,0(a5)
    50204480:	fec42703          	lw	a4,-20(s0)
    50204484:	377d                	addiw	a4,a4,-1
    50204486:	0007061b          	sext.w	a2,a4
    5020448a:	5798                	lw	a4,40(a5)
    5020448c:	00009697          	auipc	a3,0x9
    50204490:	8cc68693          	addi	a3,a3,-1844 # 5020cd58 <pcb>
    50204494:	0b800793          	li	a5,184
    50204498:	02f607b3          	mul	a5,a2,a5
    5020449c:	97b6                	add	a5,a5,a3
    5020449e:	d7b8                	sw	a4,104(a5)
    502044a0:	00009797          	auipc	a5,0x9
    502044a4:	8b078793          	addi	a5,a5,-1872 # 5020cd50 <current_running>
    502044a8:	639c                	ld	a5,0(a5)
    502044aa:	639c                	ld	a5,0(a5)
    502044ac:	00005597          	auipc	a1,0x5
    502044b0:	e6458593          	addi	a1,a1,-412 # 50209310 <wait_queue>
    502044b4:	853e                	mv	a0,a5
    502044b6:	d3fff0ef          	jal	ra,502041f4 <do_block>
    502044ba:	fec42783          	lw	a5,-20(s0)
    502044be:	853e                	mv	a0,a5
    502044c0:	60e2                	ld	ra,24(sp)
    502044c2:	6442                	ld	s0,16(sp)
    502044c4:	6105                	addi	sp,sp,32
    502044c6:	8082                	ret

00000000502044c8 <smp_init>:
    502044c8:	1141                	addi	sp,sp,-16
    502044ca:	e422                	sd	s0,8(sp)
    502044cc:	0800                	addi	s0,sp,16
    502044ce:	0001                	nop
    502044d0:	6422                	ld	s0,8(sp)
    502044d2:	0141                	addi	sp,sp,16
    502044d4:	8082                	ret

00000000502044d6 <wakeup_other_hart>:
    502044d6:	1141                	addi	sp,sp,-16
    502044d8:	e422                	sd	s0,8(sp)
    502044da:	0800                	addi	s0,sp,16
    502044dc:	0001                	nop
    502044de:	6422                	ld	s0,8(sp)
    502044e0:	0141                	addi	sp,sp,16
    502044e2:	8082                	ret

00000000502044e4 <lock_kernel>:
    502044e4:	1141                	addi	sp,sp,-16
    502044e6:	e422                	sd	s0,8(sp)
    502044e8:	0800                	addi	s0,sp,16
    502044ea:	0001                	nop
    502044ec:	6422                	ld	s0,8(sp)
    502044ee:	0141                	addi	sp,sp,16
    502044f0:	8082                	ret

00000000502044f2 <unlock_kernel>:
    502044f2:	1141                	addi	sp,sp,-16
    502044f4:	e422                	sd	s0,8(sp)
    502044f6:	0800                	addi	s0,sp,16
    502044f8:	0001                	nop
    502044fa:	6422                	ld	s0,8(sp)
    502044fc:	0141                	addi	sp,sp,16
    502044fe:	8082                	ret

0000000050204500 <_list_add>:
    50204500:	7179                	addi	sp,sp,-48
    50204502:	f422                	sd	s0,40(sp)
    50204504:	1800                	addi	s0,sp,48
    50204506:	fea43423          	sd	a0,-24(s0)
    5020450a:	feb43023          	sd	a1,-32(s0)
    5020450e:	fcc43c23          	sd	a2,-40(s0)
    50204512:	fd843783          	ld	a5,-40(s0)
    50204516:	fe843703          	ld	a4,-24(s0)
    5020451a:	e798                	sd	a4,8(a5)
    5020451c:	fe843783          	ld	a5,-24(s0)
    50204520:	fd843703          	ld	a4,-40(s0)
    50204524:	e398                	sd	a4,0(a5)
    50204526:	fe843783          	ld	a5,-24(s0)
    5020452a:	fe043703          	ld	a4,-32(s0)
    5020452e:	e798                	sd	a4,8(a5)
    50204530:	fe043783          	ld	a5,-32(s0)
    50204534:	fe843703          	ld	a4,-24(s0)
    50204538:	e398                	sd	a4,0(a5)
    5020453a:	0001                	nop
    5020453c:	7422                	ld	s0,40(sp)
    5020453e:	6145                	addi	sp,sp,48
    50204540:	8082                	ret

0000000050204542 <list_add_tail>:
    50204542:	1101                	addi	sp,sp,-32
    50204544:	ec06                	sd	ra,24(sp)
    50204546:	e822                	sd	s0,16(sp)
    50204548:	1000                	addi	s0,sp,32
    5020454a:	fea43423          	sd	a0,-24(s0)
    5020454e:	feb43023          	sd	a1,-32(s0)
    50204552:	fe043783          	ld	a5,-32(s0)
    50204556:	679c                	ld	a5,8(a5)
    50204558:	fe043603          	ld	a2,-32(s0)
    5020455c:	85be                	mv	a1,a5
    5020455e:	fe843503          	ld	a0,-24(s0)
    50204562:	f9fff0ef          	jal	ra,50204500 <_list_add>
    50204566:	0001                	nop
    50204568:	60e2                	ld	ra,24(sp)
    5020456a:	6442                	ld	s0,16(sp)
    5020456c:	6105                	addi	sp,sp,32
    5020456e:	8082                	ret

0000000050204570 <timer_create>:
    50204570:	7179                	addi	sp,sp,-48
    50204572:	f406                	sd	ra,40(sp)
    50204574:	f022                	sd	s0,32(sp)
    50204576:	1800                	addi	s0,sp,48
    50204578:	fea43423          	sd	a0,-24(s0)
    5020457c:	feb43023          	sd	a1,-32(s0)
    50204580:	fcc43c23          	sd	a2,-40(s0)
    50204584:	b5dfc0ef          	jal	ra,502010e0 <disable_preempt>
    50204588:	af5fc0ef          	jal	ra,5020107c <get_current_cpu_id>
    5020458c:	87aa                	mv	a5,a0
    5020458e:	e791                	bnez	a5,5020459a <timer_create+0x2a>
    50204590:	00007797          	auipc	a5,0x7
    50204594:	00878793          	addi	a5,a5,8 # 5020b598 <current_running_core0>
    50204598:	a029                	j	502045a2 <timer_create+0x32>
    5020459a:	00007797          	auipc	a5,0x7
    5020459e:	ff678793          	addi	a5,a5,-10 # 5020b590 <current_running_core1>
    502045a2:	00008717          	auipc	a4,0x8
    502045a6:	7ae70713          	addi	a4,a4,1966 # 5020cd50 <current_running>
    502045aa:	e31c                	sd	a5,0(a4)
    502045ac:	14c000ef          	jal	ra,502046f8 <get_ticks>
    502045b0:	86aa                	mv	a3,a0
    502045b2:	00008797          	auipc	a5,0x8
    502045b6:	79e78793          	addi	a5,a5,1950 # 5020cd50 <current_running>
    502045ba:	639c                	ld	a5,0(a5)
    502045bc:	639c                	ld	a5,0(a5)
    502045be:	fd843703          	ld	a4,-40(s0)
    502045c2:	9736                	add	a4,a4,a3
    502045c4:	e3b8                	sd	a4,64(a5)
    502045c6:	00008797          	auipc	a5,0x8
    502045ca:	78a78793          	addi	a5,a5,1930 # 5020cd50 <current_running>
    502045ce:	639c                	ld	a5,0(a5)
    502045d0:	639c                	ld	a5,0(a5)
    502045d2:	fe843703          	ld	a4,-24(s0)
    502045d6:	e7b8                	sd	a4,72(a5)
    502045d8:	00008797          	auipc	a5,0x8
    502045dc:	77878793          	addi	a5,a5,1912 # 5020cd50 <current_running>
    502045e0:	639c                	ld	a5,0(a5)
    502045e2:	639c                	ld	a5,0(a5)
    502045e4:	fe043703          	ld	a4,-32(s0)
    502045e8:	ebb8                	sd	a4,80(a5)
    502045ea:	00008797          	auipc	a5,0x8
    502045ee:	76678793          	addi	a5,a5,1894 # 5020cd50 <current_running>
    502045f2:	639c                	ld	a5,0(a5)
    502045f4:	639c                	ld	a5,0(a5)
    502045f6:	85be                	mv	a1,a5
    502045f8:	00005517          	auipc	a0,0x5
    502045fc:	d2850513          	addi	a0,a0,-728 # 50209320 <sleep_queue>
    50204600:	012000ef          	jal	ra,50204612 <enqueue_timer>
    50204604:	aa5fc0ef          	jal	ra,502010a8 <enable_preempt>
    50204608:	0001                	nop
    5020460a:	70a2                	ld	ra,40(sp)
    5020460c:	7402                	ld	s0,32(sp)
    5020460e:	6145                	addi	sp,sp,48
    50204610:	8082                	ret

0000000050204612 <enqueue_timer>:
    50204612:	1101                	addi	sp,sp,-32
    50204614:	ec06                	sd	ra,24(sp)
    50204616:	e822                	sd	s0,16(sp)
    50204618:	1000                	addi	s0,sp,32
    5020461a:	fea43423          	sd	a0,-24(s0)
    5020461e:	feb43023          	sd	a1,-32(s0)
    50204622:	fe043783          	ld	a5,-32(s0)
    50204626:	07e1                	addi	a5,a5,24
    50204628:	fe843583          	ld	a1,-24(s0)
    5020462c:	853e                	mv	a0,a5
    5020462e:	f15ff0ef          	jal	ra,50204542 <list_add_tail>
    50204632:	0001                	nop
    50204634:	60e2                	ld	ra,24(sp)
    50204636:	6442                	ld	s0,16(sp)
    50204638:	6105                	addi	sp,sp,32
    5020463a:	8082                	ret

000000005020463c <gethead_timer>:
    5020463c:	7179                	addi	sp,sp,-48
    5020463e:	f422                	sd	s0,40(sp)
    50204640:	1800                	addi	s0,sp,48
    50204642:	fca43c23          	sd	a0,-40(s0)
    50204646:	fd843783          	ld	a5,-40(s0)
    5020464a:	fef43423          	sd	a5,-24(s0)
    5020464e:	fe843783          	ld	a5,-24(s0)
    50204652:	17a1                	addi	a5,a5,-24
    50204654:	fef43023          	sd	a5,-32(s0)
    50204658:	fe043783          	ld	a5,-32(s0)
    5020465c:	853e                	mv	a0,a5
    5020465e:	7422                	ld	s0,40(sp)
    50204660:	6145                	addi	sp,sp,48
    50204662:	8082                	ret

0000000050204664 <timer_check>:
    50204664:	7139                	addi	sp,sp,-64
    50204666:	fc06                	sd	ra,56(sp)
    50204668:	f822                	sd	s0,48(sp)
    5020466a:	0080                	addi	s0,sp,64
    5020466c:	a75fc0ef          	jal	ra,502010e0 <disable_preempt>
    50204670:	a0dfc0ef          	jal	ra,5020107c <get_current_cpu_id>
    50204674:	87aa                	mv	a5,a0
    50204676:	fef403a3          	sb	a5,-25(s0)
    5020467a:	00005797          	auipc	a5,0x5
    5020467e:	ca678793          	addi	a5,a5,-858 # 50209320 <sleep_queue>
    50204682:	639c                	ld	a5,0(a5)
    50204684:	fef43423          	sd	a5,-24(s0)
    50204688:	a889                	j	502046da <timer_check+0x76>
    5020468a:	fe843783          	ld	a5,-24(s0)
    5020468e:	fcf43c23          	sd	a5,-40(s0)
    50204692:	fd843783          	ld	a5,-40(s0)
    50204696:	17a1                	addi	a5,a5,-24
    50204698:	fcf43823          	sd	a5,-48(s0)
    5020469c:	fe843783          	ld	a5,-24(s0)
    502046a0:	639c                	ld	a5,0(a5)
    502046a2:	fcf43423          	sd	a5,-56(s0)
    502046a6:	fd043783          	ld	a5,-48(s0)
    502046aa:	0b17c703          	lbu	a4,177(a5)
    502046ae:	fe744783          	lbu	a5,-25(s0)
    502046b2:	0ff7f793          	andi	a5,a5,255
    502046b6:	00e79e63          	bne	a5,a4,502046d2 <timer_check+0x6e>
    502046ba:	03e000ef          	jal	ra,502046f8 <get_ticks>
    502046be:	872a                	mv	a4,a0
    502046c0:	fd043783          	ld	a5,-48(s0)
    502046c4:	63bc                	ld	a5,64(a5)
    502046c6:	00f76663          	bltu	a4,a5,502046d2 <timer_check+0x6e>
    502046ca:	fe843503          	ld	a0,-24(s0)
    502046ce:	bf7ff0ef          	jal	ra,502042c4 <do_unblock>
    502046d2:	fc843783          	ld	a5,-56(s0)
    502046d6:	fef43423          	sd	a5,-24(s0)
    502046da:	fe843703          	ld	a4,-24(s0)
    502046de:	00005797          	auipc	a5,0x5
    502046e2:	c4278793          	addi	a5,a5,-958 # 50209320 <sleep_queue>
    502046e6:	faf712e3          	bne	a4,a5,5020468a <timer_check+0x26>
    502046ea:	9bffc0ef          	jal	ra,502010a8 <enable_preempt>
    502046ee:	0001                	nop
    502046f0:	70e2                	ld	ra,56(sp)
    502046f2:	7442                	ld	s0,48(sp)
    502046f4:	6121                	addi	sp,sp,64
    502046f6:	8082                	ret

00000000502046f8 <get_ticks>:
    502046f8:	1141                	addi	sp,sp,-16
    502046fa:	e422                	sd	s0,8(sp)
    502046fc:	0800                	addi	s0,sp,16
    502046fe:	c0102773          	rdtime	a4
    50204702:	83818793          	addi	a5,gp,-1992 # 50209588 <time_elapsed>
    50204706:	e398                	sd	a4,0(a5)
    50204708:	83818793          	addi	a5,gp,-1992 # 50209588 <time_elapsed>
    5020470c:	639c                	ld	a5,0(a5)
    5020470e:	853e                	mv	a0,a5
    50204710:	6422                	ld	s0,8(sp)
    50204712:	0141                	addi	sp,sp,16
    50204714:	8082                	ret

0000000050204716 <get_timer>:
    50204716:	1141                	addi	sp,sp,-16
    50204718:	e406                	sd	ra,8(sp)
    5020471a:	e022                	sd	s0,0(sp)
    5020471c:	0800                	addi	s0,sp,16
    5020471e:	fdbff0ef          	jal	ra,502046f8 <get_ticks>
    50204722:	872a                	mv	a4,a0
    50204724:	84018793          	addi	a5,gp,-1984 # 50209590 <time_base>
    50204728:	439c                	lw	a5,0(a5)
    5020472a:	1782                	slli	a5,a5,0x20
    5020472c:	9381                	srli	a5,a5,0x20
    5020472e:	02f757b3          	divu	a5,a4,a5
    50204732:	853e                	mv	a0,a5
    50204734:	60a2                	ld	ra,8(sp)
    50204736:	6402                	ld	s0,0(sp)
    50204738:	0141                	addi	sp,sp,16
    5020473a:	8082                	ret

000000005020473c <get_time_base>:
    5020473c:	1141                	addi	sp,sp,-16
    5020473e:	e422                	sd	s0,8(sp)
    50204740:	0800                	addi	s0,sp,16
    50204742:	84018793          	addi	a5,gp,-1984 # 50209590 <time_base>
    50204746:	439c                	lw	a5,0(a5)
    50204748:	1782                	slli	a5,a5,0x20
    5020474a:	9381                	srli	a5,a5,0x20
    5020474c:	853e                	mv	a0,a5
    5020474e:	6422                	ld	s0,8(sp)
    50204750:	0141                	addi	sp,sp,16
    50204752:	8082                	ret

0000000050204754 <latency>:
    50204754:	7179                	addi	sp,sp,-48
    50204756:	f406                	sd	ra,40(sp)
    50204758:	f022                	sd	s0,32(sp)
    5020475a:	1800                	addi	s0,sp,48
    5020475c:	fca43c23          	sd	a0,-40(s0)
    50204760:	fb7ff0ef          	jal	ra,50204716 <get_timer>
    50204764:	fea43423          	sd	a0,-24(s0)
    50204768:	0001                	nop
    5020476a:	fadff0ef          	jal	ra,50204716 <get_timer>
    5020476e:	872a                	mv	a4,a0
    50204770:	fe843783          	ld	a5,-24(s0)
    50204774:	40f707b3          	sub	a5,a4,a5
    50204778:	fd843703          	ld	a4,-40(s0)
    5020477c:	fee7e7e3          	bltu	a5,a4,5020476a <latency+0x16>
    50204780:	0001                	nop
    50204782:	70a2                	ld	ra,40(sp)
    50204784:	7402                	ld	s0,32(sp)
    50204786:	6145                	addi	sp,sp,48
    50204788:	8082                	ret

000000005020478a <allocPage>:
    5020478a:	7179                	addi	sp,sp,-48
    5020478c:	f422                	sd	s0,40(sp)
    5020478e:	1800                	addi	s0,sp,48
    50204790:	87aa                	mv	a5,a0
    50204792:	fcf42e23          	sw	a5,-36(s0)
    50204796:	81818793          	addi	a5,gp,-2024 # 50209568 <memCurr>
    5020479a:	6398                	ld	a4,0(a5)
    5020479c:	6785                	lui	a5,0x1
    5020479e:	17fd                	addi	a5,a5,-1
    502047a0:	973e                	add	a4,a4,a5
    502047a2:	77fd                	lui	a5,0xfffff
    502047a4:	8ff9                	and	a5,a5,a4
    502047a6:	fef43423          	sd	a5,-24(s0)
    502047aa:	fdc42783          	lw	a5,-36(s0)
    502047ae:	00c7979b          	slliw	a5,a5,0xc
    502047b2:	2781                	sext.w	a5,a5
    502047b4:	873e                	mv	a4,a5
    502047b6:	fe843783          	ld	a5,-24(s0)
    502047ba:	973e                	add	a4,a4,a5
    502047bc:	81818793          	addi	a5,gp,-2024 # 50209568 <memCurr>
    502047c0:	e398                	sd	a4,0(a5)
    502047c2:	81818793          	addi	a5,gp,-2024 # 50209568 <memCurr>
    502047c6:	639c                	ld	a5,0(a5)
    502047c8:	853e                	mv	a0,a5
    502047ca:	7422                	ld	s0,40(sp)
    502047cc:	6145                	addi	sp,sp,48
    502047ce:	8082                	ret

00000000502047d0 <kmalloc>:
    502047d0:	7179                	addi	sp,sp,-48
    502047d2:	f422                	sd	s0,40(sp)
    502047d4:	1800                	addi	s0,sp,48
    502047d6:	fca43c23          	sd	a0,-40(s0)
    502047da:	82018793          	addi	a5,gp,-2016 # 50209570 <heapCurr>
    502047de:	639c                	ld	a5,0(a5)
    502047e0:	078d                	addi	a5,a5,3
    502047e2:	9bf1                	andi	a5,a5,-4
    502047e4:	fef43423          	sd	a5,-24(s0)
    502047e8:	fe843703          	ld	a4,-24(s0)
    502047ec:	fd843783          	ld	a5,-40(s0)
    502047f0:	973e                	add	a4,a4,a5
    502047f2:	82018793          	addi	a5,gp,-2016 # 50209570 <heapCurr>
    502047f6:	e398                	sd	a4,0(a5)
    502047f8:	fe843783          	ld	a5,-24(s0)
    502047fc:	853e                	mv	a0,a5
    502047fe:	7422                	ld	s0,40(sp)
    50204800:	6145                	addi	sp,sp,48
    50204802:	8082                	ret

0000000050204804 <handle_syscall>:
    50204804:	7179                	addi	sp,sp,-48
    50204806:	f406                	sd	ra,40(sp)
    50204808:	f022                	sd	s0,32(sp)
    5020480a:	1800                	addi	s0,sp,48
    5020480c:	fea43423          	sd	a0,-24(s0)
    50204810:	feb43023          	sd	a1,-32(s0)
    50204814:	fcc43c23          	sd	a2,-40(s0)
    50204818:	fe843783          	ld	a5,-24(s0)
    5020481c:	1087b783          	ld	a5,264(a5) # fffffffffffff108 <__BSS_END__+0xffffffffafdf1618>
    50204820:	00478713          	addi	a4,a5,4
    50204824:	fe843783          	ld	a5,-24(s0)
    50204828:	10e7b423          	sd	a4,264(a5)
    5020482c:	fe843783          	ld	a5,-24(s0)
    50204830:	67dc                	ld	a5,136(a5)
    50204832:	00009717          	auipc	a4,0x9
    50204836:	0a670713          	addi	a4,a4,166 # 5020d8d8 <syscall>
    5020483a:	078e                	slli	a5,a5,0x3
    5020483c:	97ba                	add	a5,a5,a4
    5020483e:	0007b803          	ld	a6,0(a5)
    50204842:	fe843783          	ld	a5,-24(s0)
    50204846:	6bb8                	ld	a4,80(a5)
    50204848:	fe843783          	ld	a5,-24(s0)
    5020484c:	6fac                	ld	a1,88(a5)
    5020484e:	fe843783          	ld	a5,-24(s0)
    50204852:	73b0                	ld	a2,96(a5)
    50204854:	fe843783          	ld	a5,-24(s0)
    50204858:	77bc                	ld	a5,104(a5)
    5020485a:	86be                	mv	a3,a5
    5020485c:	853a                	mv	a0,a4
    5020485e:	9802                	jalr	a6
    50204860:	87aa                	mv	a5,a0
    50204862:	873e                	mv	a4,a5
    50204864:	fe843783          	ld	a5,-24(s0)
    50204868:	ebb8                	sd	a4,80(a5)
    5020486a:	0001                	nop
    5020486c:	70a2                	ld	ra,40(sp)
    5020486e:	7402                	ld	s0,32(sp)
    50204870:	6145                	addi	sp,sp,48
    50204872:	8082                	ret

0000000050204874 <kstrlen>:
    50204874:	7179                	addi	sp,sp,-48
    50204876:	f422                	sd	s0,40(sp)
    50204878:	1800                	addi	s0,sp,48
    5020487a:	fca43c23          	sd	a0,-40(s0)
    5020487e:	fe042623          	sw	zero,-20(s0)
    50204882:	a031                	j	5020488e <kstrlen+0x1a>
    50204884:	fec42783          	lw	a5,-20(s0)
    50204888:	2785                	addiw	a5,a5,1
    5020488a:	fef42623          	sw	a5,-20(s0)
    5020488e:	fec42783          	lw	a5,-20(s0)
    50204892:	fd843703          	ld	a4,-40(s0)
    50204896:	97ba                	add	a5,a5,a4
    50204898:	0007c783          	lbu	a5,0(a5)
    5020489c:	f7e5                	bnez	a5,50204884 <kstrlen+0x10>
    5020489e:	fec42783          	lw	a5,-20(s0)
    502048a2:	853e                	mv	a0,a5
    502048a4:	7422                	ld	s0,40(sp)
    502048a6:	6145                	addi	sp,sp,48
    502048a8:	8082                	ret

00000000502048aa <kmemcpy>:
    502048aa:	7179                	addi	sp,sp,-48
    502048ac:	f422                	sd	s0,40(sp)
    502048ae:	1800                	addi	s0,sp,48
    502048b0:	fea43423          	sd	a0,-24(s0)
    502048b4:	feb43023          	sd	a1,-32(s0)
    502048b8:	87b2                	mv	a5,a2
    502048ba:	fcf42e23          	sw	a5,-36(s0)
    502048be:	a035                	j	502048ea <kmemcpy+0x40>
    502048c0:	fe043703          	ld	a4,-32(s0)
    502048c4:	00170793          	addi	a5,a4,1
    502048c8:	fef43023          	sd	a5,-32(s0)
    502048cc:	fe843783          	ld	a5,-24(s0)
    502048d0:	00178693          	addi	a3,a5,1
    502048d4:	fed43423          	sd	a3,-24(s0)
    502048d8:	00074703          	lbu	a4,0(a4)
    502048dc:	00e78023          	sb	a4,0(a5)
    502048e0:	fdc42783          	lw	a5,-36(s0)
    502048e4:	37fd                	addiw	a5,a5,-1
    502048e6:	fcf42e23          	sw	a5,-36(s0)
    502048ea:	fdc42783          	lw	a5,-36(s0)
    502048ee:	2781                	sext.w	a5,a5
    502048f0:	fbe1                	bnez	a5,502048c0 <kmemcpy+0x16>
    502048f2:	0001                	nop
    502048f4:	0001                	nop
    502048f6:	7422                	ld	s0,40(sp)
    502048f8:	6145                	addi	sp,sp,48
    502048fa:	8082                	ret

00000000502048fc <kmemset>:
    502048fc:	7179                	addi	sp,sp,-48
    502048fe:	f422                	sd	s0,40(sp)
    50204900:	1800                	addi	s0,sp,48
    50204902:	fca43c23          	sd	a0,-40(s0)
    50204906:	87ae                	mv	a5,a1
    50204908:	8732                	mv	a4,a2
    5020490a:	fcf40ba3          	sb	a5,-41(s0)
    5020490e:	87ba                	mv	a5,a4
    50204910:	fcf42823          	sw	a5,-48(s0)
    50204914:	fd843783          	ld	a5,-40(s0)
    50204918:	fef43423          	sd	a5,-24(s0)
    5020491c:	a005                	j	5020493c <kmemset+0x40>
    5020491e:	fe843783          	ld	a5,-24(s0)
    50204922:	00178713          	addi	a4,a5,1
    50204926:	fee43423          	sd	a4,-24(s0)
    5020492a:	fd744703          	lbu	a4,-41(s0)
    5020492e:	00e78023          	sb	a4,0(a5)
    50204932:	fd042783          	lw	a5,-48(s0)
    50204936:	37fd                	addiw	a5,a5,-1
    50204938:	fcf42823          	sw	a5,-48(s0)
    5020493c:	fd042783          	lw	a5,-48(s0)
    50204940:	2781                	sext.w	a5,a5
    50204942:	fff1                	bnez	a5,5020491e <kmemset+0x22>
    50204944:	0001                	nop
    50204946:	0001                	nop
    50204948:	7422                	ld	s0,40(sp)
    5020494a:	6145                	addi	sp,sp,48
    5020494c:	8082                	ret

000000005020494e <kbzero>:
    5020494e:	1101                	addi	sp,sp,-32
    50204950:	ec06                	sd	ra,24(sp)
    50204952:	e822                	sd	s0,16(sp)
    50204954:	1000                	addi	s0,sp,32
    50204956:	fea43423          	sd	a0,-24(s0)
    5020495a:	87ae                	mv	a5,a1
    5020495c:	fef42223          	sw	a5,-28(s0)
    50204960:	fe442783          	lw	a5,-28(s0)
    50204964:	863e                	mv	a2,a5
    50204966:	4581                	li	a1,0
    50204968:	fe843503          	ld	a0,-24(s0)
    5020496c:	f91ff0ef          	jal	ra,502048fc <kmemset>
    50204970:	0001                	nop
    50204972:	60e2                	ld	ra,24(sp)
    50204974:	6442                	ld	s0,16(sp)
    50204976:	6105                	addi	sp,sp,32
    50204978:	8082                	ret

000000005020497a <kstrcmp>:
    5020497a:	1101                	addi	sp,sp,-32
    5020497c:	ec22                	sd	s0,24(sp)
    5020497e:	1000                	addi	s0,sp,32
    50204980:	fea43423          	sd	a0,-24(s0)
    50204984:	feb43023          	sd	a1,-32(s0)
    50204988:	a0a1                	j	502049d0 <kstrcmp+0x56>
    5020498a:	fe843783          	ld	a5,-24(s0)
    5020498e:	0007c703          	lbu	a4,0(a5)
    50204992:	fe043783          	ld	a5,-32(s0)
    50204996:	0007c783          	lbu	a5,0(a5)
    5020499a:	02f70163          	beq	a4,a5,502049bc <kstrcmp+0x42>
    5020499e:	fe843783          	ld	a5,-24(s0)
    502049a2:	0007c783          	lbu	a5,0(a5)
    502049a6:	0007871b          	sext.w	a4,a5
    502049aa:	fe043783          	ld	a5,-32(s0)
    502049ae:	0007c783          	lbu	a5,0(a5)
    502049b2:	2781                	sext.w	a5,a5
    502049b4:	40f707bb          	subw	a5,a4,a5
    502049b8:	2781                	sext.w	a5,a5
    502049ba:	a099                	j	50204a00 <kstrcmp+0x86>
    502049bc:	fe843783          	ld	a5,-24(s0)
    502049c0:	0785                	addi	a5,a5,1
    502049c2:	fef43423          	sd	a5,-24(s0)
    502049c6:	fe043783          	ld	a5,-32(s0)
    502049ca:	0785                	addi	a5,a5,1
    502049cc:	fef43023          	sd	a5,-32(s0)
    502049d0:	fe843783          	ld	a5,-24(s0)
    502049d4:	0007c783          	lbu	a5,0(a5)
    502049d8:	c791                	beqz	a5,502049e4 <kstrcmp+0x6a>
    502049da:	fe043783          	ld	a5,-32(s0)
    502049de:	0007c783          	lbu	a5,0(a5)
    502049e2:	f7c5                	bnez	a5,5020498a <kstrcmp+0x10>
    502049e4:	fe843783          	ld	a5,-24(s0)
    502049e8:	0007c783          	lbu	a5,0(a5)
    502049ec:	0007871b          	sext.w	a4,a5
    502049f0:	fe043783          	ld	a5,-32(s0)
    502049f4:	0007c783          	lbu	a5,0(a5)
    502049f8:	2781                	sext.w	a5,a5
    502049fa:	40f707bb          	subw	a5,a4,a5
    502049fe:	2781                	sext.w	a5,a5
    50204a00:	853e                	mv	a0,a5
    50204a02:	6462                	ld	s0,24(sp)
    50204a04:	6105                	addi	sp,sp,32
    50204a06:	8082                	ret

0000000050204a08 <kstrcpy>:
    50204a08:	7179                	addi	sp,sp,-48
    50204a0a:	f422                	sd	s0,40(sp)
    50204a0c:	1800                	addi	s0,sp,48
    50204a0e:	fca43c23          	sd	a0,-40(s0)
    50204a12:	fcb43823          	sd	a1,-48(s0)
    50204a16:	fd843783          	ld	a5,-40(s0)
    50204a1a:	fef43423          	sd	a5,-24(s0)
    50204a1e:	a00d                	j	50204a40 <kstrcpy+0x38>
    50204a20:	fd043703          	ld	a4,-48(s0)
    50204a24:	00170793          	addi	a5,a4,1
    50204a28:	fcf43823          	sd	a5,-48(s0)
    50204a2c:	fd843783          	ld	a5,-40(s0)
    50204a30:	00178693          	addi	a3,a5,1
    50204a34:	fcd43c23          	sd	a3,-40(s0)
    50204a38:	00074703          	lbu	a4,0(a4)
    50204a3c:	00e78023          	sb	a4,0(a5)
    50204a40:	fd043783          	ld	a5,-48(s0)
    50204a44:	0007c783          	lbu	a5,0(a5)
    50204a48:	ffe1                	bnez	a5,50204a20 <kstrcpy+0x18>
    50204a4a:	fd843783          	ld	a5,-40(s0)
    50204a4e:	00078023          	sb	zero,0(a5)
    50204a52:	fe843783          	ld	a5,-24(s0)
    50204a56:	853e                	mv	a0,a5
    50204a58:	7422                	ld	s0,40(sp)
    50204a5a:	6145                	addi	sp,sp,48
    50204a5c:	8082                	ret

0000000050204a5e <kstrcat>:
    50204a5e:	7179                	addi	sp,sp,-48
    50204a60:	f422                	sd	s0,40(sp)
    50204a62:	1800                	addi	s0,sp,48
    50204a64:	fca43c23          	sd	a0,-40(s0)
    50204a68:	fcb43823          	sd	a1,-48(s0)
    50204a6c:	fd843783          	ld	a5,-40(s0)
    50204a70:	fef43423          	sd	a5,-24(s0)
    50204a74:	a031                	j	50204a80 <kstrcat+0x22>
    50204a76:	fd843783          	ld	a5,-40(s0)
    50204a7a:	0785                	addi	a5,a5,1
    50204a7c:	fcf43c23          	sd	a5,-40(s0)
    50204a80:	fd843783          	ld	a5,-40(s0)
    50204a84:	0007c783          	lbu	a5,0(a5)
    50204a88:	f7fd                	bnez	a5,50204a76 <kstrcat+0x18>
    50204a8a:	a00d                	j	50204aac <kstrcat+0x4e>
    50204a8c:	fd043703          	ld	a4,-48(s0)
    50204a90:	00170793          	addi	a5,a4,1
    50204a94:	fcf43823          	sd	a5,-48(s0)
    50204a98:	fd843783          	ld	a5,-40(s0)
    50204a9c:	00178693          	addi	a3,a5,1
    50204aa0:	fcd43c23          	sd	a3,-40(s0)
    50204aa4:	00074703          	lbu	a4,0(a4)
    50204aa8:	00e78023          	sb	a4,0(a5)
    50204aac:	fd043783          	ld	a5,-48(s0)
    50204ab0:	0007c783          	lbu	a5,0(a5)
    50204ab4:	ffe1                	bnez	a5,50204a8c <kstrcat+0x2e>
    50204ab6:	fd843783          	ld	a5,-40(s0)
    50204aba:	00078023          	sb	zero,0(a5)
    50204abe:	fe843783          	ld	a5,-24(s0)
    50204ac2:	853e                	mv	a0,a5
    50204ac4:	7422                	ld	s0,40(sp)
    50204ac6:	6145                	addi	sp,sp,48
    50204ac8:	8082                	ret

0000000050204aca <mini_strlen>:
    50204aca:	7179                	addi	sp,sp,-48
    50204acc:	f422                	sd	s0,40(sp)
    50204ace:	1800                	addi	s0,sp,48
    50204ad0:	fca43c23          	sd	a0,-40(s0)
    50204ad4:	fe042623          	sw	zero,-20(s0)
    50204ad8:	a031                	j	50204ae4 <mini_strlen+0x1a>
    50204ada:	fec42783          	lw	a5,-20(s0)
    50204ade:	2785                	addiw	a5,a5,1
    50204ae0:	fef42623          	sw	a5,-20(s0)
    50204ae4:	fec46783          	lwu	a5,-20(s0)
    50204ae8:	fd843703          	ld	a4,-40(s0)
    50204aec:	97ba                	add	a5,a5,a4
    50204aee:	0007c783          	lbu	a5,0(a5)
    50204af2:	f7e5                	bnez	a5,50204ada <mini_strlen+0x10>
    50204af4:	fec42783          	lw	a5,-20(s0)
    50204af8:	853e                	mv	a0,a5
    50204afa:	7422                	ld	s0,40(sp)
    50204afc:	6145                	addi	sp,sp,48
    50204afe:	8082                	ret

0000000050204b00 <mini_itoa>:
    50204b00:	715d                	addi	sp,sp,-80
    50204b02:	e4a2                	sd	s0,72(sp)
    50204b04:	0880                	addi	s0,sp,80
    50204b06:	fca43423          	sd	a0,-56(s0)
    50204b0a:	fae43823          	sd	a4,-80(s0)
    50204b0e:	873e                	mv	a4,a5
    50204b10:	87ae                	mv	a5,a1
    50204b12:	fcf42223          	sw	a5,-60(s0)
    50204b16:	87b2                	mv	a5,a2
    50204b18:	fcf42023          	sw	a5,-64(s0)
    50204b1c:	87b6                	mv	a5,a3
    50204b1e:	faf42e23          	sw	a5,-68(s0)
    50204b22:	87ba                	mv	a5,a4
    50204b24:	faf42c23          	sw	a5,-72(s0)
    50204b28:	fb043783          	ld	a5,-80(s0)
    50204b2c:	fef43423          	sd	a5,-24(s0)
    50204b30:	fe042223          	sw	zero,-28(s0)
    50204b34:	fc442783          	lw	a5,-60(s0)
    50204b38:	0007871b          	sext.w	a4,a5
    50204b3c:	47c1                	li	a5,16
    50204b3e:	00e7f463          	bgeu	a5,a4,50204b46 <mini_itoa+0x46>
    50204b42:	4781                	li	a5,0
    50204b44:	aae9                	j	50204d1e <mini_itoa+0x21e>
    50204b46:	fc843783          	ld	a5,-56(s0)
    50204b4a:	0007df63          	bgez	a5,50204b68 <mini_itoa+0x68>
    50204b4e:	fbc42783          	lw	a5,-68(s0)
    50204b52:	2781                	sext.w	a5,a5
    50204b54:	eb91                	bnez	a5,50204b68 <mini_itoa+0x68>
    50204b56:	4785                	li	a5,1
    50204b58:	fef42223          	sw	a5,-28(s0)
    50204b5c:	fc843783          	ld	a5,-56(s0)
    50204b60:	40f007b3          	neg	a5,a5
    50204b64:	fcf43423          	sd	a5,-56(s0)
    50204b68:	fc042e23          	sw	zero,-36(s0)
    50204b6c:	fbc42783          	lw	a5,-68(s0)
    50204b70:	2781                	sext.w	a5,a5
    50204b72:	cb91                	beqz	a5,50204b86 <mini_itoa+0x86>
    50204b74:	fc843703          	ld	a4,-56(s0)
    50204b78:	fc446783          	lwu	a5,-60(s0)
    50204b7c:	02f777b3          	remu	a5,a4,a5
    50204b80:	fcf42e23          	sw	a5,-36(s0)
    50204b84:	a809                	j	50204b96 <mini_itoa+0x96>
    50204b86:	fc446783          	lwu	a5,-60(s0)
    50204b8a:	fc843703          	ld	a4,-56(s0)
    50204b8e:	02f767b3          	rem	a5,a4,a5
    50204b92:	fcf42e23          	sw	a5,-36(s0)
    50204b96:	fdc42783          	lw	a5,-36(s0)
    50204b9a:	0007871b          	sext.w	a4,a5
    50204b9e:	47a5                	li	a5,9
    50204ba0:	00e7cb63          	blt	a5,a4,50204bb6 <mini_itoa+0xb6>
    50204ba4:	fdc42783          	lw	a5,-36(s0)
    50204ba8:	0ff7f793          	andi	a5,a5,255
    50204bac:	0307879b          	addiw	a5,a5,48
    50204bb0:	0ff7f713          	andi	a4,a5,255
    50204bb4:	a025                	j	50204bdc <mini_itoa+0xdc>
    50204bb6:	fc042783          	lw	a5,-64(s0)
    50204bba:	2781                	sext.w	a5,a5
    50204bbc:	c781                	beqz	a5,50204bc4 <mini_itoa+0xc4>
    50204bbe:	04100793          	li	a5,65
    50204bc2:	a019                	j	50204bc8 <mini_itoa+0xc8>
    50204bc4:	06100793          	li	a5,97
    50204bc8:	fdc42703          	lw	a4,-36(s0)
    50204bcc:	0ff77713          	andi	a4,a4,255
    50204bd0:	9fb9                	addw	a5,a5,a4
    50204bd2:	0ff7f793          	andi	a5,a5,255
    50204bd6:	37d9                	addiw	a5,a5,-10
    50204bd8:	0ff7f713          	andi	a4,a5,255
    50204bdc:	fe843783          	ld	a5,-24(s0)
    50204be0:	00178693          	addi	a3,a5,1
    50204be4:	fed43423          	sd	a3,-24(s0)
    50204be8:	00e78023          	sb	a4,0(a5)
    50204bec:	fbc42783          	lw	a5,-68(s0)
    50204bf0:	2781                	sext.w	a5,a5
    50204bf2:	cb91                	beqz	a5,50204c06 <mini_itoa+0x106>
    50204bf4:	fc843703          	ld	a4,-56(s0)
    50204bf8:	fc446783          	lwu	a5,-60(s0)
    50204bfc:	02f757b3          	divu	a5,a4,a5
    50204c00:	fcf43423          	sd	a5,-56(s0)
    50204c04:	a809                	j	50204c16 <mini_itoa+0x116>
    50204c06:	fc446783          	lwu	a5,-60(s0)
    50204c0a:	fc843703          	ld	a4,-56(s0)
    50204c0e:	02f747b3          	div	a5,a4,a5
    50204c12:	fcf43423          	sd	a5,-56(s0)
    50204c16:	fc843783          	ld	a5,-56(s0)
    50204c1a:	f7b9                	bnez	a5,50204b68 <mini_itoa+0x68>
    50204c1c:	fe843703          	ld	a4,-24(s0)
    50204c20:	fb043783          	ld	a5,-80(s0)
    50204c24:	40f707b3          	sub	a5,a4,a5
    50204c28:	fef42023          	sw	a5,-32(s0)
    50204c2c:	a005                	j	50204c4c <mini_itoa+0x14c>
    50204c2e:	fe843783          	ld	a5,-24(s0)
    50204c32:	00178713          	addi	a4,a5,1
    50204c36:	fee43423          	sd	a4,-24(s0)
    50204c3a:	03000713          	li	a4,48
    50204c3e:	00e78023          	sb	a4,0(a5)
    50204c42:	fe042783          	lw	a5,-32(s0)
    50204c46:	2785                	addiw	a5,a5,1
    50204c48:	fef42023          	sw	a5,-32(s0)
    50204c4c:	fe042703          	lw	a4,-32(s0)
    50204c50:	fb842783          	lw	a5,-72(s0)
    50204c54:	2701                	sext.w	a4,a4
    50204c56:	2781                	sext.w	a5,a5
    50204c58:	fcf76be3          	bltu	a4,a5,50204c2e <mini_itoa+0x12e>
    50204c5c:	fe442783          	lw	a5,-28(s0)
    50204c60:	2781                	sext.w	a5,a5
    50204c62:	cb99                	beqz	a5,50204c78 <mini_itoa+0x178>
    50204c64:	fe843783          	ld	a5,-24(s0)
    50204c68:	00178713          	addi	a4,a5,1
    50204c6c:	fee43423          	sd	a4,-24(s0)
    50204c70:	02d00713          	li	a4,45
    50204c74:	00e78023          	sb	a4,0(a5)
    50204c78:	fe843783          	ld	a5,-24(s0)
    50204c7c:	00078023          	sb	zero,0(a5)
    50204c80:	fe843703          	ld	a4,-24(s0)
    50204c84:	fb043783          	ld	a5,-80(s0)
    50204c88:	40f707b3          	sub	a5,a4,a5
    50204c8c:	fcf42c23          	sw	a5,-40(s0)
    50204c90:	fe042023          	sw	zero,-32(s0)
    50204c94:	a885                	j	50204d04 <mini_itoa+0x204>
    50204c96:	fe046783          	lwu	a5,-32(s0)
    50204c9a:	fb043703          	ld	a4,-80(s0)
    50204c9e:	97ba                	add	a5,a5,a4
    50204ca0:	0007c783          	lbu	a5,0(a5)
    50204ca4:	fcf40ba3          	sb	a5,-41(s0)
    50204ca8:	fd842703          	lw	a4,-40(s0)
    50204cac:	fe042783          	lw	a5,-32(s0)
    50204cb0:	40f707bb          	subw	a5,a4,a5
    50204cb4:	2781                	sext.w	a5,a5
    50204cb6:	37fd                	addiw	a5,a5,-1
    50204cb8:	2781                	sext.w	a5,a5
    50204cba:	1782                	slli	a5,a5,0x20
    50204cbc:	9381                	srli	a5,a5,0x20
    50204cbe:	fb043703          	ld	a4,-80(s0)
    50204cc2:	973e                	add	a4,a4,a5
    50204cc4:	fe046783          	lwu	a5,-32(s0)
    50204cc8:	fb043683          	ld	a3,-80(s0)
    50204ccc:	97b6                	add	a5,a5,a3
    50204cce:	00074703          	lbu	a4,0(a4)
    50204cd2:	00e78023          	sb	a4,0(a5)
    50204cd6:	fd842703          	lw	a4,-40(s0)
    50204cda:	fe042783          	lw	a5,-32(s0)
    50204cde:	40f707bb          	subw	a5,a4,a5
    50204ce2:	2781                	sext.w	a5,a5
    50204ce4:	37fd                	addiw	a5,a5,-1
    50204ce6:	2781                	sext.w	a5,a5
    50204ce8:	1782                	slli	a5,a5,0x20
    50204cea:	9381                	srli	a5,a5,0x20
    50204cec:	fb043703          	ld	a4,-80(s0)
    50204cf0:	97ba                	add	a5,a5,a4
    50204cf2:	fd744703          	lbu	a4,-41(s0)
    50204cf6:	00e78023          	sb	a4,0(a5)
    50204cfa:	fe042783          	lw	a5,-32(s0)
    50204cfe:	2785                	addiw	a5,a5,1
    50204d00:	fef42023          	sw	a5,-32(s0)
    50204d04:	fd842783          	lw	a5,-40(s0)
    50204d08:	0017d79b          	srliw	a5,a5,0x1
    50204d0c:	0007871b          	sext.w	a4,a5
    50204d10:	fe042783          	lw	a5,-32(s0)
    50204d14:	2781                	sext.w	a5,a5
    50204d16:	f8e7e0e3          	bltu	a5,a4,50204c96 <mini_itoa+0x196>
    50204d1a:	fd842783          	lw	a5,-40(s0)
    50204d1e:	853e                	mv	a0,a5
    50204d20:	6426                	ld	s0,72(sp)
    50204d22:	6161                	addi	sp,sp,80
    50204d24:	8082                	ret

0000000050204d26 <_putc>:
    50204d26:	1101                	addi	sp,sp,-32
    50204d28:	ec22                	sd	s0,24(sp)
    50204d2a:	1000                	addi	s0,sp,32
    50204d2c:	87aa                	mv	a5,a0
    50204d2e:	feb43023          	sd	a1,-32(s0)
    50204d32:	fef42623          	sw	a5,-20(s0)
    50204d36:	fe043783          	ld	a5,-32(s0)
    50204d3a:	6798                	ld	a4,8(a5)
    50204d3c:	fe043783          	ld	a5,-32(s0)
    50204d40:	639c                	ld	a5,0(a5)
    50204d42:	40f707b3          	sub	a5,a4,a5
    50204d46:	2781                	sext.w	a5,a5
    50204d48:	2785                	addiw	a5,a5,1
    50204d4a:	0007871b          	sext.w	a4,a5
    50204d4e:	fe043783          	ld	a5,-32(s0)
    50204d52:	4b9c                	lw	a5,16(a5)
    50204d54:	00f76463          	bltu	a4,a5,50204d5c <_putc+0x36>
    50204d58:	4781                	li	a5,0
    50204d5a:	a02d                	j	50204d84 <_putc+0x5e>
    50204d5c:	fe043783          	ld	a5,-32(s0)
    50204d60:	679c                	ld	a5,8(a5)
    50204d62:	00178693          	addi	a3,a5,1
    50204d66:	fe043703          	ld	a4,-32(s0)
    50204d6a:	e714                	sd	a3,8(a4)
    50204d6c:	fec42703          	lw	a4,-20(s0)
    50204d70:	0ff77713          	andi	a4,a4,255
    50204d74:	00e78023          	sb	a4,0(a5)
    50204d78:	fe043783          	ld	a5,-32(s0)
    50204d7c:	679c                	ld	a5,8(a5)
    50204d7e:	00078023          	sb	zero,0(a5)
    50204d82:	4785                	li	a5,1
    50204d84:	853e                	mv	a0,a5
    50204d86:	6462                	ld	s0,24(sp)
    50204d88:	6105                	addi	sp,sp,32
    50204d8a:	8082                	ret

0000000050204d8c <_puts>:
    50204d8c:	7139                	addi	sp,sp,-64
    50204d8e:	fc22                	sd	s0,56(sp)
    50204d90:	0080                	addi	s0,sp,64
    50204d92:	fca43c23          	sd	a0,-40(s0)
    50204d96:	87ae                	mv	a5,a1
    50204d98:	fcc43423          	sd	a2,-56(s0)
    50204d9c:	fcf42a23          	sw	a5,-44(s0)
    50204da0:	fc843783          	ld	a5,-56(s0)
    50204da4:	4b9c                	lw	a5,16(a5)
    50204da6:	02079713          	slli	a4,a5,0x20
    50204daa:	9301                	srli	a4,a4,0x20
    50204dac:	fc843783          	ld	a5,-56(s0)
    50204db0:	6794                	ld	a3,8(a5)
    50204db2:	fc843783          	ld	a5,-56(s0)
    50204db6:	639c                	ld	a5,0(a5)
    50204db8:	40f687b3          	sub	a5,a3,a5
    50204dbc:	8f1d                	sub	a4,a4,a5
    50204dbe:	fd446783          	lwu	a5,-44(s0)
    50204dc2:	02e7c463          	blt	a5,a4,50204dea <_puts+0x5e>
    50204dc6:	fc843783          	ld	a5,-56(s0)
    50204dca:	4b98                	lw	a4,16(a5)
    50204dcc:	fc843783          	ld	a5,-56(s0)
    50204dd0:	6794                	ld	a3,8(a5)
    50204dd2:	fc843783          	ld	a5,-56(s0)
    50204dd6:	639c                	ld	a5,0(a5)
    50204dd8:	40f687b3          	sub	a5,a3,a5
    50204ddc:	2781                	sext.w	a5,a5
    50204dde:	40f707bb          	subw	a5,a4,a5
    50204de2:	2781                	sext.w	a5,a5
    50204de4:	37fd                	addiw	a5,a5,-1
    50204de6:	fcf42a23          	sw	a5,-44(s0)
    50204dea:	fe042623          	sw	zero,-20(s0)
    50204dee:	a03d                	j	50204e1c <_puts+0x90>
    50204df0:	fec46783          	lwu	a5,-20(s0)
    50204df4:	fd843703          	ld	a4,-40(s0)
    50204df8:	973e                	add	a4,a4,a5
    50204dfa:	fc843783          	ld	a5,-56(s0)
    50204dfe:	679c                	ld	a5,8(a5)
    50204e00:	00178613          	addi	a2,a5,1
    50204e04:	fc843683          	ld	a3,-56(s0)
    50204e08:	e690                	sd	a2,8(a3)
    50204e0a:	00074703          	lbu	a4,0(a4)
    50204e0e:	00e78023          	sb	a4,0(a5)
    50204e12:	fec42783          	lw	a5,-20(s0)
    50204e16:	2785                	addiw	a5,a5,1
    50204e18:	fef42623          	sw	a5,-20(s0)
    50204e1c:	fec42703          	lw	a4,-20(s0)
    50204e20:	fd442783          	lw	a5,-44(s0)
    50204e24:	2701                	sext.w	a4,a4
    50204e26:	2781                	sext.w	a5,a5
    50204e28:	fcf764e3          	bltu	a4,a5,50204df0 <_puts+0x64>
    50204e2c:	fc843783          	ld	a5,-56(s0)
    50204e30:	679c                	ld	a5,8(a5)
    50204e32:	00078023          	sb	zero,0(a5)
    50204e36:	fd442783          	lw	a5,-44(s0)
    50204e3a:	853e                	mv	a0,a5
    50204e3c:	7462                	ld	s0,56(sp)
    50204e3e:	6121                	addi	sp,sp,64
    50204e40:	8082                	ret

0000000050204e42 <mini_vsnprintf>:
    50204e42:	7119                	addi	sp,sp,-128
    50204e44:	fc86                	sd	ra,120(sp)
    50204e46:	f8a2                	sd	s0,112(sp)
    50204e48:	0100                	addi	s0,sp,128
    50204e4a:	f8a43c23          	sd	a0,-104(s0)
    50204e4e:	87ae                	mv	a5,a1
    50204e50:	f8c43423          	sd	a2,-120(s0)
    50204e54:	f8d43023          	sd	a3,-128(s0)
    50204e58:	f8f42a23          	sw	a5,-108(s0)
    50204e5c:	f9843783          	ld	a5,-104(s0)
    50204e60:	fcf43023          	sd	a5,-64(s0)
    50204e64:	f9843783          	ld	a5,-104(s0)
    50204e68:	fcf43423          	sd	a5,-56(s0)
    50204e6c:	f9442783          	lw	a5,-108(s0)
    50204e70:	fcf42823          	sw	a5,-48(s0)
    50204e74:	a4f9                	j	50205142 <mini_vsnprintf+0x300>
    50204e76:	fc843703          	ld	a4,-56(s0)
    50204e7a:	fc043783          	ld	a5,-64(s0)
    50204e7e:	40f707b3          	sub	a5,a4,a5
    50204e82:	2781                	sext.w	a5,a5
    50204e84:	2785                	addiw	a5,a5,1
    50204e86:	0007871b          	sext.w	a4,a5
    50204e8a:	fd042783          	lw	a5,-48(s0)
    50204e8e:	2cf77b63          	bgeu	a4,a5,50205164 <mini_vsnprintf+0x322>
    50204e92:	fef44783          	lbu	a5,-17(s0)
    50204e96:	0ff7f713          	andi	a4,a5,255
    50204e9a:	02500793          	li	a5,37
    50204e9e:	00f70c63          	beq	a4,a5,50204eb6 <mini_vsnprintf+0x74>
    50204ea2:	fef44783          	lbu	a5,-17(s0)
    50204ea6:	2781                	sext.w	a5,a5
    50204ea8:	fc040713          	addi	a4,s0,-64
    50204eac:	85ba                	mv	a1,a4
    50204eae:	853e                	mv	a0,a5
    50204eb0:	e77ff0ef          	jal	ra,50204d26 <_putc>
    50204eb4:	a479                	j	50205142 <mini_vsnprintf+0x300>
    50204eb6:	fe040723          	sb	zero,-18(s0)
    50204eba:	fe042423          	sw	zero,-24(s0)
    50204ebe:	f8843783          	ld	a5,-120(s0)
    50204ec2:	00178713          	addi	a4,a5,1
    50204ec6:	f8e43423          	sd	a4,-120(s0)
    50204eca:	0007c783          	lbu	a5,0(a5)
    50204ece:	fef407a3          	sb	a5,-17(s0)
    50204ed2:	fef44783          	lbu	a5,-17(s0)
    50204ed6:	0ff7f713          	andi	a4,a5,255
    50204eda:	03000793          	li	a5,48
    50204ede:	06f71b63          	bne	a4,a5,50204f54 <mini_vsnprintf+0x112>
    50204ee2:	a891                	j	50204f36 <mini_vsnprintf+0xf4>
    50204ee4:	fef44783          	lbu	a5,-17(s0)
    50204ee8:	0ff7f793          	andi	a5,a5,255
    50204eec:	26078e63          	beqz	a5,50205168 <mini_vsnprintf+0x326>
    50204ef0:	fef44783          	lbu	a5,-17(s0)
    50204ef4:	0ff7f713          	andi	a4,a5,255
    50204ef8:	02f00793          	li	a5,47
    50204efc:	04e7fc63          	bgeu	a5,a4,50204f54 <mini_vsnprintf+0x112>
    50204f00:	fef44783          	lbu	a5,-17(s0)
    50204f04:	0ff7f713          	andi	a4,a5,255
    50204f08:	03900793          	li	a5,57
    50204f0c:	04e7e463          	bltu	a5,a4,50204f54 <mini_vsnprintf+0x112>
    50204f10:	fee44703          	lbu	a4,-18(s0)
    50204f14:	87ba                	mv	a5,a4
    50204f16:	0027979b          	slliw	a5,a5,0x2
    50204f1a:	9fb9                	addw	a5,a5,a4
    50204f1c:	0017979b          	slliw	a5,a5,0x1
    50204f20:	0ff7f793          	andi	a5,a5,255
    50204f24:	fef44703          	lbu	a4,-17(s0)
    50204f28:	9fb9                	addw	a5,a5,a4
    50204f2a:	0ff7f793          	andi	a5,a5,255
    50204f2e:	fd07879b          	addiw	a5,a5,-48
    50204f32:	fef40723          	sb	a5,-18(s0)
    50204f36:	f8843783          	ld	a5,-120(s0)
    50204f3a:	00178713          	addi	a4,a5,1
    50204f3e:	f8e43423          	sd	a4,-120(s0)
    50204f42:	0007c783          	lbu	a5,0(a5)
    50204f46:	fef407a3          	sb	a5,-17(s0)
    50204f4a:	fef44783          	lbu	a5,-17(s0)
    50204f4e:	0ff7f793          	andi	a5,a5,255
    50204f52:	fbc9                	bnez	a5,50204ee4 <mini_vsnprintf+0xa2>
    50204f54:	fef44783          	lbu	a5,-17(s0)
    50204f58:	0ff7f713          	andi	a4,a5,255
    50204f5c:	06c00793          	li	a5,108
    50204f60:	00f71f63          	bne	a4,a5,50204f7e <mini_vsnprintf+0x13c>
    50204f64:	4785                	li	a5,1
    50204f66:	fef42423          	sw	a5,-24(s0)
    50204f6a:	f8843783          	ld	a5,-120(s0)
    50204f6e:	00178713          	addi	a4,a5,1
    50204f72:	f8e43423          	sd	a4,-120(s0)
    50204f76:	0007c783          	lbu	a5,0(a5)
    50204f7a:	fef407a3          	sb	a5,-17(s0)
    50204f7e:	fef44783          	lbu	a5,-17(s0)
    50204f82:	2781                	sext.w	a5,a5
    50204f84:	1e078463          	beqz	a5,5020516c <mini_vsnprintf+0x32a>
    50204f88:	873e                	mv	a4,a5
    50204f8a:	1a074263          	bltz	a4,5020512e <mini_vsnprintf+0x2ec>
    50204f8e:	86be                	mv	a3,a5
    50204f90:	07800713          	li	a4,120
    50204f94:	18d74d63          	blt	a4,a3,5020512e <mini_vsnprintf+0x2ec>
    50204f98:	86be                	mv	a3,a5
    50204f9a:	05800713          	li	a4,88
    50204f9e:	18e6c863          	blt	a3,a4,5020512e <mini_vsnprintf+0x2ec>
    50204fa2:	fa87869b          	addiw	a3,a5,-88
    50204fa6:	0006871b          	sext.w	a4,a3
    50204faa:	02000793          	li	a5,32
    50204fae:	18e7e063          	bltu	a5,a4,5020512e <mini_vsnprintf+0x2ec>
    50204fb2:	02069793          	slli	a5,a3,0x20
    50204fb6:	9381                	srli	a5,a5,0x20
    50204fb8:	00279713          	slli	a4,a5,0x2
    50204fbc:	00003797          	auipc	a5,0x3
    50204fc0:	54c78793          	addi	a5,a5,1356 # 50208508 <__FUNCTION__.1480+0xb0>
    50204fc4:	97ba                	add	a5,a5,a4
    50204fc6:	439c                	lw	a5,0(a5)
    50204fc8:	0007871b          	sext.w	a4,a5
    50204fcc:	00003797          	auipc	a5,0x3
    50204fd0:	53c78793          	addi	a5,a5,1340 # 50208508 <__FUNCTION__.1480+0xb0>
    50204fd4:	97ba                	add	a5,a5,a4
    50204fd6:	8782                	jr	a5
    50204fd8:	4785                	li	a5,1
    50204fda:	fef42423          	sw	a5,-24(s0)
    50204fde:	a295                	j	50205142 <mini_vsnprintf+0x300>
    50204fe0:	fe842783          	lw	a5,-24(s0)
    50204fe4:	2781                	sext.w	a5,a5
    50204fe6:	ef81                	bnez	a5,50204ffe <mini_vsnprintf+0x1bc>
    50204fe8:	f8043783          	ld	a5,-128(s0)
    50204fec:	00878713          	addi	a4,a5,8
    50204ff0:	f8e43023          	sd	a4,-128(s0)
    50204ff4:	439c                	lw	a5,0(a5)
    50204ff6:	02079513          	slli	a0,a5,0x20
    50204ffa:	9101                	srli	a0,a0,0x20
    50204ffc:	a809                	j	5020500e <mini_vsnprintf+0x1cc>
    50204ffe:	f8043783          	ld	a5,-128(s0)
    50205002:	00878713          	addi	a4,a5,8
    50205006:	f8e43023          	sd	a4,-128(s0)
    5020500a:	639c                	ld	a5,0(a5)
    5020500c:	853e                	mv	a0,a5
    5020500e:	fef44783          	lbu	a5,-17(s0)
    50205012:	0007871b          	sext.w	a4,a5
    50205016:	07500793          	li	a5,117
    5020501a:	40f707b3          	sub	a5,a4,a5
    5020501e:	0017b793          	seqz	a5,a5
    50205022:	0ff7f793          	andi	a5,a5,255
    50205026:	0007869b          	sext.w	a3,a5
    5020502a:	fee44783          	lbu	a5,-18(s0)
    5020502e:	2781                	sext.w	a5,a5
    50205030:	fa840713          	addi	a4,s0,-88
    50205034:	4601                	li	a2,0
    50205036:	45a9                	li	a1,10
    50205038:	ac9ff0ef          	jal	ra,50204b00 <mini_itoa>
    5020503c:	87aa                	mv	a5,a0
    5020503e:	fcf42e23          	sw	a5,-36(s0)
    50205042:	fc040693          	addi	a3,s0,-64
    50205046:	fdc42703          	lw	a4,-36(s0)
    5020504a:	fa840793          	addi	a5,s0,-88
    5020504e:	8636                	mv	a2,a3
    50205050:	85ba                	mv	a1,a4
    50205052:	853e                	mv	a0,a5
    50205054:	d39ff0ef          	jal	ra,50204d8c <_puts>
    50205058:	fe042423          	sw	zero,-24(s0)
    5020505c:	a0dd                	j	50205142 <mini_vsnprintf+0x300>
    5020505e:	fe842783          	lw	a5,-24(s0)
    50205062:	2781                	sext.w	a5,a5
    50205064:	ef81                	bnez	a5,5020507c <mini_vsnprintf+0x23a>
    50205066:	f8043783          	ld	a5,-128(s0)
    5020506a:	00878713          	addi	a4,a5,8
    5020506e:	f8e43023          	sd	a4,-128(s0)
    50205072:	439c                	lw	a5,0(a5)
    50205074:	02079513          	slli	a0,a5,0x20
    50205078:	9101                	srli	a0,a0,0x20
    5020507a:	a809                	j	5020508c <mini_vsnprintf+0x24a>
    5020507c:	f8043783          	ld	a5,-128(s0)
    50205080:	00878713          	addi	a4,a5,8
    50205084:	f8e43023          	sd	a4,-128(s0)
    50205088:	639c                	ld	a5,0(a5)
    5020508a:	853e                	mv	a0,a5
    5020508c:	fef44783          	lbu	a5,-17(s0)
    50205090:	0007871b          	sext.w	a4,a5
    50205094:	05800793          	li	a5,88
    50205098:	40f707b3          	sub	a5,a4,a5
    5020509c:	0017b793          	seqz	a5,a5
    502050a0:	0ff7f793          	andi	a5,a5,255
    502050a4:	0007861b          	sext.w	a2,a5
    502050a8:	fee44783          	lbu	a5,-18(s0)
    502050ac:	2781                	sext.w	a5,a5
    502050ae:	fa840713          	addi	a4,s0,-88
    502050b2:	4685                	li	a3,1
    502050b4:	45c1                	li	a1,16
    502050b6:	a4bff0ef          	jal	ra,50204b00 <mini_itoa>
    502050ba:	87aa                	mv	a5,a0
    502050bc:	fcf42e23          	sw	a5,-36(s0)
    502050c0:	fc040693          	addi	a3,s0,-64
    502050c4:	fdc42703          	lw	a4,-36(s0)
    502050c8:	fa840793          	addi	a5,s0,-88
    502050cc:	8636                	mv	a2,a3
    502050ce:	85ba                	mv	a1,a4
    502050d0:	853e                	mv	a0,a5
    502050d2:	cbbff0ef          	jal	ra,50204d8c <_puts>
    502050d6:	fe042423          	sw	zero,-24(s0)
    502050da:	a0a5                	j	50205142 <mini_vsnprintf+0x300>
    502050dc:	f8043783          	ld	a5,-128(s0)
    502050e0:	00878713          	addi	a4,a5,8
    502050e4:	f8e43023          	sd	a4,-128(s0)
    502050e8:	439c                	lw	a5,0(a5)
    502050ea:	0ff7f793          	andi	a5,a5,255
    502050ee:	2781                	sext.w	a5,a5
    502050f0:	fc040713          	addi	a4,s0,-64
    502050f4:	85ba                	mv	a1,a4
    502050f6:	853e                	mv	a0,a5
    502050f8:	c2fff0ef          	jal	ra,50204d26 <_putc>
    502050fc:	a099                	j	50205142 <mini_vsnprintf+0x300>
    502050fe:	f8043783          	ld	a5,-128(s0)
    50205102:	00878713          	addi	a4,a5,8
    50205106:	f8e43023          	sd	a4,-128(s0)
    5020510a:	639c                	ld	a5,0(a5)
    5020510c:	fef43023          	sd	a5,-32(s0)
    50205110:	fe043503          	ld	a0,-32(s0)
    50205114:	9b7ff0ef          	jal	ra,50204aca <mini_strlen>
    50205118:	87aa                	mv	a5,a0
    5020511a:	2781                	sext.w	a5,a5
    5020511c:	fc040713          	addi	a4,s0,-64
    50205120:	863a                	mv	a2,a4
    50205122:	85be                	mv	a1,a5
    50205124:	fe043503          	ld	a0,-32(s0)
    50205128:	c65ff0ef          	jal	ra,50204d8c <_puts>
    5020512c:	a819                	j	50205142 <mini_vsnprintf+0x300>
    5020512e:	fef44783          	lbu	a5,-17(s0)
    50205132:	2781                	sext.w	a5,a5
    50205134:	fc040713          	addi	a4,s0,-64
    50205138:	85ba                	mv	a1,a4
    5020513a:	853e                	mv	a0,a5
    5020513c:	bebff0ef          	jal	ra,50204d26 <_putc>
    50205140:	0001                	nop
    50205142:	f8843783          	ld	a5,-120(s0)
    50205146:	00178713          	addi	a4,a5,1
    5020514a:	f8e43423          	sd	a4,-120(s0)
    5020514e:	0007c783          	lbu	a5,0(a5)
    50205152:	fef407a3          	sb	a5,-17(s0)
    50205156:	fef44783          	lbu	a5,-17(s0)
    5020515a:	0ff7f793          	andi	a5,a5,255
    5020515e:	d0079ce3          	bnez	a5,50204e76 <mini_vsnprintf+0x34>
    50205162:	a031                	j	5020516e <mini_vsnprintf+0x32c>
    50205164:	0001                	nop
    50205166:	a021                	j	5020516e <mini_vsnprintf+0x32c>
    50205168:	0001                	nop
    5020516a:	a011                	j	5020516e <mini_vsnprintf+0x32c>
    5020516c:	0001                	nop
    5020516e:	fc843703          	ld	a4,-56(s0)
    50205172:	fc043783          	ld	a5,-64(s0)
    50205176:	40f707b3          	sub	a5,a4,a5
    5020517a:	2781                	sext.w	a5,a5
    5020517c:	853e                	mv	a0,a5
    5020517e:	70e6                	ld	ra,120(sp)
    50205180:	7446                	ld	s0,112(sp)
    50205182:	6109                	addi	sp,sp,128
    50205184:	8082                	ret

0000000050205186 <_vprint>:
    50205186:	7129                	addi	sp,sp,-320
    50205188:	fe06                	sd	ra,312(sp)
    5020518a:	fa22                	sd	s0,304(sp)
    5020518c:	0280                	addi	s0,sp,320
    5020518e:	eca43c23          	sd	a0,-296(s0)
    50205192:	ecb43823          	sd	a1,-304(s0)
    50205196:	ecc43423          	sd	a2,-312(s0)
    5020519a:	ee3fb0ef          	jal	ra,5020107c <get_current_cpu_id>
    5020519e:	87aa                	mv	a5,a0
    502051a0:	e791                	bnez	a5,502051ac <_vprint+0x26>
    502051a2:	00006797          	auipc	a5,0x6
    502051a6:	3f678793          	addi	a5,a5,1014 # 5020b598 <current_running_core0>
    502051aa:	a029                	j	502051b4 <_vprint+0x2e>
    502051ac:	00006797          	auipc	a5,0x6
    502051b0:	3e478793          	addi	a5,a5,996 # 5020b590 <current_running_core1>
    502051b4:	00008717          	auipc	a4,0x8
    502051b8:	b9c70713          	addi	a4,a4,-1124 # 5020cd50 <current_running>
    502051bc:	e31c                	sd	a5,0(a4)
    502051be:	ed043783          	ld	a5,-304(s0)
    502051c2:	fef43023          	sd	a5,-32(s0)
    502051c6:	fe043703          	ld	a4,-32(s0)
    502051ca:	ee040793          	addi	a5,s0,-288
    502051ce:	86ba                	mv	a3,a4
    502051d0:	ed843603          	ld	a2,-296(s0)
    502051d4:	10000593          	li	a1,256
    502051d8:	853e                	mv	a0,a5
    502051da:	c69ff0ef          	jal	ra,50204e42 <mini_vsnprintf>
    502051de:	87aa                	mv	a5,a0
    502051e0:	fef42423          	sw	a5,-24(s0)
    502051e4:	fe842783          	lw	a5,-24(s0)
    502051e8:	ff040713          	addi	a4,s0,-16
    502051ec:	97ba                	add	a5,a5,a4
    502051ee:	ee078823          	sb	zero,-272(a5)
    502051f2:	eeffb0ef          	jal	ra,502010e0 <disable_preempt>
    502051f6:	ee040793          	addi	a5,s0,-288
    502051fa:	ec843703          	ld	a4,-312(s0)
    502051fe:	853e                	mv	a0,a5
    50205200:	9702                	jalr	a4
    50205202:	fe042623          	sw	zero,-20(s0)
    50205206:	a031                	j	50205212 <_vprint+0x8c>
    50205208:	fec42783          	lw	a5,-20(s0)
    5020520c:	2785                	addiw	a5,a5,1
    5020520e:	fef42623          	sw	a5,-20(s0)
    50205212:	fec42703          	lw	a4,-20(s0)
    50205216:	fe842783          	lw	a5,-24(s0)
    5020521a:	2701                	sext.w	a4,a4
    5020521c:	2781                	sext.w	a5,a5
    5020521e:	fef745e3          	blt	a4,a5,50205208 <_vprint+0x82>
    50205222:	e87fb0ef          	jal	ra,502010a8 <enable_preempt>
    50205226:	fe842783          	lw	a5,-24(s0)
    5020522a:	853e                	mv	a0,a5
    5020522c:	70f2                	ld	ra,312(sp)
    5020522e:	7452                	ld	s0,304(sp)
    50205230:	6131                	addi	sp,sp,320
    50205232:	8082                	ret

0000000050205234 <vprintk>:
    50205234:	1101                	addi	sp,sp,-32
    50205236:	ec06                	sd	ra,24(sp)
    50205238:	e822                	sd	s0,16(sp)
    5020523a:	1000                	addi	s0,sp,32
    5020523c:	fea43423          	sd	a0,-24(s0)
    50205240:	feb43023          	sd	a1,-32(s0)
    50205244:	ffffc617          	auipc	a2,0xffffc
    50205248:	09c60613          	addi	a2,a2,156 # 502012e0 <port_write>
    5020524c:	fe043583          	ld	a1,-32(s0)
    50205250:	fe843503          	ld	a0,-24(s0)
    50205254:	f33ff0ef          	jal	ra,50205186 <_vprint>
    50205258:	87aa                	mv	a5,a0
    5020525a:	853e                	mv	a0,a5
    5020525c:	60e2                	ld	ra,24(sp)
    5020525e:	6442                	ld	s0,16(sp)
    50205260:	6105                	addi	sp,sp,32
    50205262:	8082                	ret

0000000050205264 <printk>:
    50205264:	7159                	addi	sp,sp,-112
    50205266:	f406                	sd	ra,40(sp)
    50205268:	f022                	sd	s0,32(sp)
    5020526a:	1800                	addi	s0,sp,48
    5020526c:	fca43c23          	sd	a0,-40(s0)
    50205270:	e40c                	sd	a1,8(s0)
    50205272:	e810                	sd	a2,16(s0)
    50205274:	ec14                	sd	a3,24(s0)
    50205276:	f018                	sd	a4,32(s0)
    50205278:	f41c                	sd	a5,40(s0)
    5020527a:	03043823          	sd	a6,48(s0)
    5020527e:	03143c23          	sd	a7,56(s0)
    50205282:	fe042623          	sw	zero,-20(s0)
    50205286:	04040793          	addi	a5,s0,64
    5020528a:	fcf43823          	sd	a5,-48(s0)
    5020528e:	fd043783          	ld	a5,-48(s0)
    50205292:	fc878793          	addi	a5,a5,-56
    50205296:	fef43023          	sd	a5,-32(s0)
    5020529a:	fe043783          	ld	a5,-32(s0)
    5020529e:	85be                	mv	a1,a5
    502052a0:	fd843503          	ld	a0,-40(s0)
    502052a4:	f91ff0ef          	jal	ra,50205234 <vprintk>
    502052a8:	87aa                	mv	a5,a0
    502052aa:	fef42623          	sw	a5,-20(s0)
    502052ae:	fec42783          	lw	a5,-20(s0)
    502052b2:	853e                	mv	a0,a5
    502052b4:	70a2                	ld	ra,40(sp)
    502052b6:	7402                	ld	s0,32(sp)
    502052b8:	6165                	addi	sp,sp,112
    502052ba:	8082                	ret

00000000502052bc <vprints>:
    502052bc:	1101                	addi	sp,sp,-32
    502052be:	ec06                	sd	ra,24(sp)
    502052c0:	e822                	sd	s0,16(sp)
    502052c2:	1000                	addi	s0,sp,32
    502052c4:	fea43423          	sd	a0,-24(s0)
    502052c8:	feb43023          	sd	a1,-32(s0)
    502052cc:	ffffd617          	auipc	a2,0xffffd
    502052d0:	0a660613          	addi	a2,a2,166 # 50202372 <screen_write>
    502052d4:	fe043583          	ld	a1,-32(s0)
    502052d8:	fe843503          	ld	a0,-24(s0)
    502052dc:	eabff0ef          	jal	ra,50205186 <_vprint>
    502052e0:	87aa                	mv	a5,a0
    502052e2:	853e                	mv	a0,a5
    502052e4:	60e2                	ld	ra,24(sp)
    502052e6:	6442                	ld	s0,16(sp)
    502052e8:	6105                	addi	sp,sp,32
    502052ea:	8082                	ret

00000000502052ec <prints>:
    502052ec:	7159                	addi	sp,sp,-112
    502052ee:	f406                	sd	ra,40(sp)
    502052f0:	f022                	sd	s0,32(sp)
    502052f2:	1800                	addi	s0,sp,48
    502052f4:	fca43c23          	sd	a0,-40(s0)
    502052f8:	e40c                	sd	a1,8(s0)
    502052fa:	e810                	sd	a2,16(s0)
    502052fc:	ec14                	sd	a3,24(s0)
    502052fe:	f018                	sd	a4,32(s0)
    50205300:	f41c                	sd	a5,40(s0)
    50205302:	03043823          	sd	a6,48(s0)
    50205306:	03143c23          	sd	a7,56(s0)
    5020530a:	fe042623          	sw	zero,-20(s0)
    5020530e:	c70fd0ef          	jal	ra,5020277e <kernel_screen_scroll_check>
    50205312:	04040793          	addi	a5,s0,64
    50205316:	fcf43823          	sd	a5,-48(s0)
    5020531a:	fd043783          	ld	a5,-48(s0)
    5020531e:	fc878793          	addi	a5,a5,-56
    50205322:	fef43023          	sd	a5,-32(s0)
    50205326:	fe043783          	ld	a5,-32(s0)
    5020532a:	85be                	mv	a1,a5
    5020532c:	fd843503          	ld	a0,-40(s0)
    50205330:	f8dff0ef          	jal	ra,502052bc <vprints>
    50205334:	87aa                	mv	a5,a0
    50205336:	fef42623          	sw	a5,-20(s0)
    5020533a:	fec42783          	lw	a5,-20(s0)
    5020533e:	853e                	mv	a0,a5
    50205340:	70a2                	ld	ra,40(sp)
    50205342:	7402                	ld	s0,32(sp)
    50205344:	6165                	addi	sp,sp,112
    50205346:	8082                	ret

0000000050205348 <mbox_open>:
    50205348:	1101                	addi	sp,sp,-32
    5020534a:	ec06                	sd	ra,24(sp)
    5020534c:	e822                	sd	s0,16(sp)
    5020534e:	1000                	addi	s0,sp,32
    50205350:	fea43423          	sd	a0,-24(s0)
    50205354:	fe843503          	ld	a0,-24(s0)
    50205358:	312010ef          	jal	ra,5020666a <sys_mbox_open>
    5020535c:	87aa                	mv	a5,a0
    5020535e:	853e                	mv	a0,a5
    50205360:	60e2                	ld	ra,24(sp)
    50205362:	6442                	ld	s0,16(sp)
    50205364:	6105                	addi	sp,sp,32
    50205366:	8082                	ret

0000000050205368 <mbox_close>:
    50205368:	1101                	addi	sp,sp,-32
    5020536a:	ec06                	sd	ra,24(sp)
    5020536c:	e822                	sd	s0,16(sp)
    5020536e:	1000                	addi	s0,sp,32
    50205370:	87aa                	mv	a5,a0
    50205372:	fef42623          	sw	a5,-20(s0)
    50205376:	fec42783          	lw	a5,-20(s0)
    5020537a:	853e                	mv	a0,a5
    5020537c:	31c010ef          	jal	ra,50206698 <sys_mbox_close>
    50205380:	0001                	nop
    50205382:	60e2                	ld	ra,24(sp)
    50205384:	6442                	ld	s0,16(sp)
    50205386:	6105                	addi	sp,sp,32
    50205388:	8082                	ret

000000005020538a <mbox_send>:
    5020538a:	1101                	addi	sp,sp,-32
    5020538c:	ec06                	sd	ra,24(sp)
    5020538e:	e822                	sd	s0,16(sp)
    50205390:	1000                	addi	s0,sp,32
    50205392:	87aa                	mv	a5,a0
    50205394:	feb43023          	sd	a1,-32(s0)
    50205398:	8732                	mv	a4,a2
    5020539a:	fef42623          	sw	a5,-20(s0)
    5020539e:	87ba                	mv	a5,a4
    502053a0:	fef42423          	sw	a5,-24(s0)
    502053a4:	fe842703          	lw	a4,-24(s0)
    502053a8:	fec42783          	lw	a5,-20(s0)
    502053ac:	863a                	mv	a2,a4
    502053ae:	fe043583          	ld	a1,-32(s0)
    502053b2:	853e                	mv	a0,a5
    502053b4:	310010ef          	jal	ra,502066c4 <sys_mbox_send>
    502053b8:	0001                	nop
    502053ba:	60e2                	ld	ra,24(sp)
    502053bc:	6442                	ld	s0,16(sp)
    502053be:	6105                	addi	sp,sp,32
    502053c0:	8082                	ret

00000000502053c2 <mbox_recv>:
    502053c2:	1101                	addi	sp,sp,-32
    502053c4:	ec06                	sd	ra,24(sp)
    502053c6:	e822                	sd	s0,16(sp)
    502053c8:	1000                	addi	s0,sp,32
    502053ca:	87aa                	mv	a5,a0
    502053cc:	feb43023          	sd	a1,-32(s0)
    502053d0:	8732                	mv	a4,a2
    502053d2:	fef42623          	sw	a5,-20(s0)
    502053d6:	87ba                	mv	a5,a4
    502053d8:	fef42423          	sw	a5,-24(s0)
    502053dc:	fe842703          	lw	a4,-24(s0)
    502053e0:	fec42783          	lw	a5,-20(s0)
    502053e4:	863a                	mv	a2,a4
    502053e6:	fe043583          	ld	a1,-32(s0)
    502053ea:	853e                	mv	a0,a5
    502053ec:	314010ef          	jal	ra,50206700 <sys_mbox_recv>
    502053f0:	0001                	nop
    502053f2:	60e2                	ld	ra,24(sp)
    502053f4:	6442                	ld	s0,16(sp)
    502053f6:	6105                	addi	sp,sp,32
    502053f8:	8082                	ret

00000000502053fa <srand>:
    502053fa:	1101                	addi	sp,sp,-32
    502053fc:	ec22                	sd	s0,24(sp)
    502053fe:	1000                	addi	s0,sp,32
    50205400:	87aa                	mv	a5,a0
    50205402:	fef42623          	sw	a5,-20(s0)
    50205406:	fec42703          	lw	a4,-20(s0)
    5020540a:	00008797          	auipc	a5,0x8
    5020540e:	6ce78793          	addi	a5,a5,1742 # 5020dad8 <x>
    50205412:	c398                	sw	a4,0(a5)
    50205414:	0001                	nop
    50205416:	6462                	ld	s0,24(sp)
    50205418:	6105                	addi	sp,sp,32
    5020541a:	8082                	ret

000000005020541c <rand>:
    5020541c:	1101                	addi	sp,sp,-32
    5020541e:	ec22                	sd	s0,24(sp)
    50205420:	1000                	addi	s0,sp,32
    50205422:	00008797          	auipc	a5,0x8
    50205426:	6b678793          	addi	a5,a5,1718 # 5020dad8 <x>
    5020542a:	439c                	lw	a5,0(a5)
    5020542c:	873e                	mv	a4,a5
    5020542e:	00003797          	auipc	a5,0x3
    50205432:	16278793          	addi	a5,a5,354 # 50208590 <__FUNCTION__.1480+0x138>
    50205436:	639c                	ld	a5,0(a5)
    50205438:	02f707b3          	mul	a5,a4,a5
    5020543c:	07ad                	addi	a5,a5,11
    5020543e:	fef43423          	sd	a5,-24(s0)
    50205442:	fe843783          	ld	a5,-24(s0)
    50205446:	0007871b          	sext.w	a4,a5
    5020544a:	800007b7          	lui	a5,0x80000
    5020544e:	fff7c793          	not	a5,a5
    50205452:	8ff9                	and	a5,a5,a4
    50205454:	0007871b          	sext.w	a4,a5
    50205458:	00008797          	auipc	a5,0x8
    5020545c:	68078793          	addi	a5,a5,1664 # 5020dad8 <x>
    50205460:	c398                	sw	a4,0(a5)
    50205462:	00008797          	auipc	a5,0x8
    50205466:	67678793          	addi	a5,a5,1654 # 5020dad8 <x>
    5020546a:	439c                	lw	a5,0(a5)
    5020546c:	853e                	mv	a0,a5
    5020546e:	6462                	ld	s0,24(sp)
    50205470:	6105                	addi	sp,sp,32
    50205472:	8082                	ret

0000000050205474 <mini_itoa>:
    50205474:	715d                	addi	sp,sp,-80
    50205476:	e4a2                	sd	s0,72(sp)
    50205478:	0880                	addi	s0,sp,80
    5020547a:	fca43423          	sd	a0,-56(s0)
    5020547e:	fae43823          	sd	a4,-80(s0)
    50205482:	873e                	mv	a4,a5
    50205484:	87ae                	mv	a5,a1
    50205486:	fcf42223          	sw	a5,-60(s0)
    5020548a:	87b2                	mv	a5,a2
    5020548c:	fcf42023          	sw	a5,-64(s0)
    50205490:	87b6                	mv	a5,a3
    50205492:	faf42e23          	sw	a5,-68(s0)
    50205496:	87ba                	mv	a5,a4
    50205498:	faf42c23          	sw	a5,-72(s0)
    5020549c:	fb043783          	ld	a5,-80(s0)
    502054a0:	fef43423          	sd	a5,-24(s0)
    502054a4:	fe042223          	sw	zero,-28(s0)
    502054a8:	fc442783          	lw	a5,-60(s0)
    502054ac:	0007871b          	sext.w	a4,a5
    502054b0:	47c1                	li	a5,16
    502054b2:	00e7f463          	bgeu	a5,a4,502054ba <mini_itoa+0x46>
    502054b6:	4781                	li	a5,0
    502054b8:	a255                	j	5020565c <mini_itoa+0x1e8>
    502054ba:	fc843783          	ld	a5,-56(s0)
    502054be:	0007df63          	bgez	a5,502054dc <mini_itoa+0x68>
    502054c2:	fbc42783          	lw	a5,-68(s0)
    502054c6:	2781                	sext.w	a5,a5
    502054c8:	eb91                	bnez	a5,502054dc <mini_itoa+0x68>
    502054ca:	4785                	li	a5,1
    502054cc:	fef42223          	sw	a5,-28(s0)
    502054d0:	fc843783          	ld	a5,-56(s0)
    502054d4:	40f007b3          	neg	a5,a5
    502054d8:	fcf43423          	sd	a5,-56(s0)
    502054dc:	fc446783          	lwu	a5,-60(s0)
    502054e0:	fc843703          	ld	a4,-56(s0)
    502054e4:	02f767b3          	rem	a5,a4,a5
    502054e8:	fcf42e23          	sw	a5,-36(s0)
    502054ec:	fdc42783          	lw	a5,-36(s0)
    502054f0:	0007871b          	sext.w	a4,a5
    502054f4:	47a5                	li	a5,9
    502054f6:	00e7cb63          	blt	a5,a4,5020550c <mini_itoa+0x98>
    502054fa:	fdc42783          	lw	a5,-36(s0)
    502054fe:	0ff7f793          	andi	a5,a5,255
    50205502:	0307879b          	addiw	a5,a5,48
    50205506:	0ff7f713          	andi	a4,a5,255
    5020550a:	a025                	j	50205532 <mini_itoa+0xbe>
    5020550c:	fc042783          	lw	a5,-64(s0)
    50205510:	2781                	sext.w	a5,a5
    50205512:	c781                	beqz	a5,5020551a <mini_itoa+0xa6>
    50205514:	04100793          	li	a5,65
    50205518:	a019                	j	5020551e <mini_itoa+0xaa>
    5020551a:	06100793          	li	a5,97
    5020551e:	fdc42703          	lw	a4,-36(s0)
    50205522:	0ff77713          	andi	a4,a4,255
    50205526:	9fb9                	addw	a5,a5,a4
    50205528:	0ff7f793          	andi	a5,a5,255
    5020552c:	37d9                	addiw	a5,a5,-10
    5020552e:	0ff7f713          	andi	a4,a5,255
    50205532:	fe843783          	ld	a5,-24(s0)
    50205536:	00178693          	addi	a3,a5,1
    5020553a:	fed43423          	sd	a3,-24(s0)
    5020553e:	00e78023          	sb	a4,0(a5)
    50205542:	fc446783          	lwu	a5,-60(s0)
    50205546:	fc843703          	ld	a4,-56(s0)
    5020554a:	02f747b3          	div	a5,a4,a5
    5020554e:	fcf43423          	sd	a5,-56(s0)
    50205552:	fc843783          	ld	a5,-56(s0)
    50205556:	f8f043e3          	bgtz	a5,502054dc <mini_itoa+0x68>
    5020555a:	fe843703          	ld	a4,-24(s0)
    5020555e:	fb043783          	ld	a5,-80(s0)
    50205562:	40f707b3          	sub	a5,a4,a5
    50205566:	fef42023          	sw	a5,-32(s0)
    5020556a:	a005                	j	5020558a <mini_itoa+0x116>
    5020556c:	fe843783          	ld	a5,-24(s0)
    50205570:	00178713          	addi	a4,a5,1
    50205574:	fee43423          	sd	a4,-24(s0)
    50205578:	03000713          	li	a4,48
    5020557c:	00e78023          	sb	a4,0(a5)
    50205580:	fe042783          	lw	a5,-32(s0)
    50205584:	2785                	addiw	a5,a5,1
    50205586:	fef42023          	sw	a5,-32(s0)
    5020558a:	fe042703          	lw	a4,-32(s0)
    5020558e:	fb842783          	lw	a5,-72(s0)
    50205592:	2701                	sext.w	a4,a4
    50205594:	2781                	sext.w	a5,a5
    50205596:	fcf76be3          	bltu	a4,a5,5020556c <mini_itoa+0xf8>
    5020559a:	fe442783          	lw	a5,-28(s0)
    5020559e:	2781                	sext.w	a5,a5
    502055a0:	cb99                	beqz	a5,502055b6 <mini_itoa+0x142>
    502055a2:	fe843783          	ld	a5,-24(s0)
    502055a6:	00178713          	addi	a4,a5,1
    502055aa:	fee43423          	sd	a4,-24(s0)
    502055ae:	02d00713          	li	a4,45
    502055b2:	00e78023          	sb	a4,0(a5)
    502055b6:	fe843783          	ld	a5,-24(s0)
    502055ba:	00078023          	sb	zero,0(a5)
    502055be:	fe843703          	ld	a4,-24(s0)
    502055c2:	fb043783          	ld	a5,-80(s0)
    502055c6:	40f707b3          	sub	a5,a4,a5
    502055ca:	fcf42c23          	sw	a5,-40(s0)
    502055ce:	fe042023          	sw	zero,-32(s0)
    502055d2:	a885                	j	50205642 <mini_itoa+0x1ce>
    502055d4:	fe046783          	lwu	a5,-32(s0)
    502055d8:	fb043703          	ld	a4,-80(s0)
    502055dc:	97ba                	add	a5,a5,a4
    502055de:	0007c783          	lbu	a5,0(a5)
    502055e2:	fcf40ba3          	sb	a5,-41(s0)
    502055e6:	fd842703          	lw	a4,-40(s0)
    502055ea:	fe042783          	lw	a5,-32(s0)
    502055ee:	40f707bb          	subw	a5,a4,a5
    502055f2:	2781                	sext.w	a5,a5
    502055f4:	37fd                	addiw	a5,a5,-1
    502055f6:	2781                	sext.w	a5,a5
    502055f8:	1782                	slli	a5,a5,0x20
    502055fa:	9381                	srli	a5,a5,0x20
    502055fc:	fb043703          	ld	a4,-80(s0)
    50205600:	973e                	add	a4,a4,a5
    50205602:	fe046783          	lwu	a5,-32(s0)
    50205606:	fb043683          	ld	a3,-80(s0)
    5020560a:	97b6                	add	a5,a5,a3
    5020560c:	00074703          	lbu	a4,0(a4)
    50205610:	00e78023          	sb	a4,0(a5)
    50205614:	fd842703          	lw	a4,-40(s0)
    50205618:	fe042783          	lw	a5,-32(s0)
    5020561c:	40f707bb          	subw	a5,a4,a5
    50205620:	2781                	sext.w	a5,a5
    50205622:	37fd                	addiw	a5,a5,-1
    50205624:	2781                	sext.w	a5,a5
    50205626:	1782                	slli	a5,a5,0x20
    50205628:	9381                	srli	a5,a5,0x20
    5020562a:	fb043703          	ld	a4,-80(s0)
    5020562e:	97ba                	add	a5,a5,a4
    50205630:	fd744703          	lbu	a4,-41(s0)
    50205634:	00e78023          	sb	a4,0(a5)
    50205638:	fe042783          	lw	a5,-32(s0)
    5020563c:	2785                	addiw	a5,a5,1
    5020563e:	fef42023          	sw	a5,-32(s0)
    50205642:	fd842783          	lw	a5,-40(s0)
    50205646:	0017d79b          	srliw	a5,a5,0x1
    5020564a:	0007871b          	sext.w	a4,a5
    5020564e:	fe042783          	lw	a5,-32(s0)
    50205652:	2781                	sext.w	a5,a5
    50205654:	f8e7e0e3          	bltu	a5,a4,502055d4 <mini_itoa+0x160>
    50205658:	fd842783          	lw	a5,-40(s0)
    5020565c:	853e                	mv	a0,a5
    5020565e:	6426                	ld	s0,72(sp)
    50205660:	6161                	addi	sp,sp,80
    50205662:	8082                	ret

0000000050205664 <_putc>:
    50205664:	1101                	addi	sp,sp,-32
    50205666:	ec22                	sd	s0,24(sp)
    50205668:	1000                	addi	s0,sp,32
    5020566a:	87aa                	mv	a5,a0
    5020566c:	feb43023          	sd	a1,-32(s0)
    50205670:	fef42623          	sw	a5,-20(s0)
    50205674:	fe043783          	ld	a5,-32(s0)
    50205678:	6798                	ld	a4,8(a5)
    5020567a:	fe043783          	ld	a5,-32(s0)
    5020567e:	639c                	ld	a5,0(a5)
    50205680:	40f707b3          	sub	a5,a4,a5
    50205684:	2781                	sext.w	a5,a5
    50205686:	2785                	addiw	a5,a5,1
    50205688:	0007871b          	sext.w	a4,a5
    5020568c:	fe043783          	ld	a5,-32(s0)
    50205690:	4b9c                	lw	a5,16(a5)
    50205692:	00f76463          	bltu	a4,a5,5020569a <_putc+0x36>
    50205696:	4781                	li	a5,0
    50205698:	a02d                	j	502056c2 <_putc+0x5e>
    5020569a:	fe043783          	ld	a5,-32(s0)
    5020569e:	679c                	ld	a5,8(a5)
    502056a0:	00178693          	addi	a3,a5,1
    502056a4:	fe043703          	ld	a4,-32(s0)
    502056a8:	e714                	sd	a3,8(a4)
    502056aa:	fec42703          	lw	a4,-20(s0)
    502056ae:	0ff77713          	andi	a4,a4,255
    502056b2:	00e78023          	sb	a4,0(a5)
    502056b6:	fe043783          	ld	a5,-32(s0)
    502056ba:	679c                	ld	a5,8(a5)
    502056bc:	00078023          	sb	zero,0(a5)
    502056c0:	4785                	li	a5,1
    502056c2:	853e                	mv	a0,a5
    502056c4:	6462                	ld	s0,24(sp)
    502056c6:	6105                	addi	sp,sp,32
    502056c8:	8082                	ret

00000000502056ca <_puts>:
    502056ca:	7139                	addi	sp,sp,-64
    502056cc:	fc22                	sd	s0,56(sp)
    502056ce:	0080                	addi	s0,sp,64
    502056d0:	fca43c23          	sd	a0,-40(s0)
    502056d4:	87ae                	mv	a5,a1
    502056d6:	fcc43423          	sd	a2,-56(s0)
    502056da:	fcf42a23          	sw	a5,-44(s0)
    502056de:	fc843783          	ld	a5,-56(s0)
    502056e2:	4b9c                	lw	a5,16(a5)
    502056e4:	02079713          	slli	a4,a5,0x20
    502056e8:	9301                	srli	a4,a4,0x20
    502056ea:	fc843783          	ld	a5,-56(s0)
    502056ee:	6794                	ld	a3,8(a5)
    502056f0:	fc843783          	ld	a5,-56(s0)
    502056f4:	639c                	ld	a5,0(a5)
    502056f6:	40f687b3          	sub	a5,a3,a5
    502056fa:	8f1d                	sub	a4,a4,a5
    502056fc:	fd446783          	lwu	a5,-44(s0)
    50205700:	02e7c463          	blt	a5,a4,50205728 <_puts+0x5e>
    50205704:	fc843783          	ld	a5,-56(s0)
    50205708:	4b98                	lw	a4,16(a5)
    5020570a:	fc843783          	ld	a5,-56(s0)
    5020570e:	6794                	ld	a3,8(a5)
    50205710:	fc843783          	ld	a5,-56(s0)
    50205714:	639c                	ld	a5,0(a5)
    50205716:	40f687b3          	sub	a5,a3,a5
    5020571a:	2781                	sext.w	a5,a5
    5020571c:	40f707bb          	subw	a5,a4,a5
    50205720:	2781                	sext.w	a5,a5
    50205722:	37fd                	addiw	a5,a5,-1
    50205724:	fcf42a23          	sw	a5,-44(s0)
    50205728:	fe042623          	sw	zero,-20(s0)
    5020572c:	a03d                	j	5020575a <_puts+0x90>
    5020572e:	fec46783          	lwu	a5,-20(s0)
    50205732:	fd843703          	ld	a4,-40(s0)
    50205736:	973e                	add	a4,a4,a5
    50205738:	fc843783          	ld	a5,-56(s0)
    5020573c:	679c                	ld	a5,8(a5)
    5020573e:	00178613          	addi	a2,a5,1
    50205742:	fc843683          	ld	a3,-56(s0)
    50205746:	e690                	sd	a2,8(a3)
    50205748:	00074703          	lbu	a4,0(a4)
    5020574c:	00e78023          	sb	a4,0(a5)
    50205750:	fec42783          	lw	a5,-20(s0)
    50205754:	2785                	addiw	a5,a5,1
    50205756:	fef42623          	sw	a5,-20(s0)
    5020575a:	fec42703          	lw	a4,-20(s0)
    5020575e:	fd442783          	lw	a5,-44(s0)
    50205762:	2701                	sext.w	a4,a4
    50205764:	2781                	sext.w	a5,a5
    50205766:	fcf764e3          	bltu	a4,a5,5020572e <_puts+0x64>
    5020576a:	fc843783          	ld	a5,-56(s0)
    5020576e:	679c                	ld	a5,8(a5)
    50205770:	00078023          	sb	zero,0(a5)
    50205774:	fd442783          	lw	a5,-44(s0)
    50205778:	853e                	mv	a0,a5
    5020577a:	7462                	ld	s0,56(sp)
    5020577c:	6121                	addi	sp,sp,64
    5020577e:	8082                	ret

0000000050205780 <mini_vsnprintf>:
    50205780:	7119                	addi	sp,sp,-128
    50205782:	fc86                	sd	ra,120(sp)
    50205784:	f8a2                	sd	s0,112(sp)
    50205786:	0100                	addi	s0,sp,128
    50205788:	f8a43c23          	sd	a0,-104(s0)
    5020578c:	87ae                	mv	a5,a1
    5020578e:	f8c43423          	sd	a2,-120(s0)
    50205792:	f8d43023          	sd	a3,-128(s0)
    50205796:	f8f42a23          	sw	a5,-108(s0)
    5020579a:	f9843783          	ld	a5,-104(s0)
    5020579e:	fcf43023          	sd	a5,-64(s0)
    502057a2:	f9843783          	ld	a5,-104(s0)
    502057a6:	fcf43423          	sd	a5,-56(s0)
    502057aa:	f9442783          	lw	a5,-108(s0)
    502057ae:	fcf42823          	sw	a5,-48(s0)
    502057b2:	a4f9                	j	50205a80 <mini_vsnprintf+0x300>
    502057b4:	fc843703          	ld	a4,-56(s0)
    502057b8:	fc043783          	ld	a5,-64(s0)
    502057bc:	40f707b3          	sub	a5,a4,a5
    502057c0:	2781                	sext.w	a5,a5
    502057c2:	2785                	addiw	a5,a5,1
    502057c4:	0007871b          	sext.w	a4,a5
    502057c8:	fd042783          	lw	a5,-48(s0)
    502057cc:	2cf77b63          	bgeu	a4,a5,50205aa2 <mini_vsnprintf+0x322>
    502057d0:	fef44783          	lbu	a5,-17(s0)
    502057d4:	0ff7f713          	andi	a4,a5,255
    502057d8:	02500793          	li	a5,37
    502057dc:	00f70c63          	beq	a4,a5,502057f4 <mini_vsnprintf+0x74>
    502057e0:	fef44783          	lbu	a5,-17(s0)
    502057e4:	2781                	sext.w	a5,a5
    502057e6:	fc040713          	addi	a4,s0,-64
    502057ea:	85ba                	mv	a1,a4
    502057ec:	853e                	mv	a0,a5
    502057ee:	e77ff0ef          	jal	ra,50205664 <_putc>
    502057f2:	a479                	j	50205a80 <mini_vsnprintf+0x300>
    502057f4:	fe040723          	sb	zero,-18(s0)
    502057f8:	fe042423          	sw	zero,-24(s0)
    502057fc:	f8843783          	ld	a5,-120(s0)
    50205800:	00178713          	addi	a4,a5,1
    50205804:	f8e43423          	sd	a4,-120(s0)
    50205808:	0007c783          	lbu	a5,0(a5)
    5020580c:	fef407a3          	sb	a5,-17(s0)
    50205810:	fef44783          	lbu	a5,-17(s0)
    50205814:	0ff7f713          	andi	a4,a5,255
    50205818:	03000793          	li	a5,48
    5020581c:	06f71b63          	bne	a4,a5,50205892 <mini_vsnprintf+0x112>
    50205820:	a891                	j	50205874 <mini_vsnprintf+0xf4>
    50205822:	fef44783          	lbu	a5,-17(s0)
    50205826:	0ff7f793          	andi	a5,a5,255
    5020582a:	26078e63          	beqz	a5,50205aa6 <mini_vsnprintf+0x326>
    5020582e:	fef44783          	lbu	a5,-17(s0)
    50205832:	0ff7f713          	andi	a4,a5,255
    50205836:	02f00793          	li	a5,47
    5020583a:	04e7fc63          	bgeu	a5,a4,50205892 <mini_vsnprintf+0x112>
    5020583e:	fef44783          	lbu	a5,-17(s0)
    50205842:	0ff7f713          	andi	a4,a5,255
    50205846:	03900793          	li	a5,57
    5020584a:	04e7e463          	bltu	a5,a4,50205892 <mini_vsnprintf+0x112>
    5020584e:	fee44703          	lbu	a4,-18(s0)
    50205852:	87ba                	mv	a5,a4
    50205854:	0027979b          	slliw	a5,a5,0x2
    50205858:	9fb9                	addw	a5,a5,a4
    5020585a:	0017979b          	slliw	a5,a5,0x1
    5020585e:	0ff7f793          	andi	a5,a5,255
    50205862:	fef44703          	lbu	a4,-17(s0)
    50205866:	9fb9                	addw	a5,a5,a4
    50205868:	0ff7f793          	andi	a5,a5,255
    5020586c:	fd07879b          	addiw	a5,a5,-48
    50205870:	fef40723          	sb	a5,-18(s0)
    50205874:	f8843783          	ld	a5,-120(s0)
    50205878:	00178713          	addi	a4,a5,1
    5020587c:	f8e43423          	sd	a4,-120(s0)
    50205880:	0007c783          	lbu	a5,0(a5)
    50205884:	fef407a3          	sb	a5,-17(s0)
    50205888:	fef44783          	lbu	a5,-17(s0)
    5020588c:	0ff7f793          	andi	a5,a5,255
    50205890:	fbc9                	bnez	a5,50205822 <mini_vsnprintf+0xa2>
    50205892:	fef44783          	lbu	a5,-17(s0)
    50205896:	0ff7f713          	andi	a4,a5,255
    5020589a:	06c00793          	li	a5,108
    5020589e:	00f71f63          	bne	a4,a5,502058bc <mini_vsnprintf+0x13c>
    502058a2:	4785                	li	a5,1
    502058a4:	fef42423          	sw	a5,-24(s0)
    502058a8:	f8843783          	ld	a5,-120(s0)
    502058ac:	00178713          	addi	a4,a5,1
    502058b0:	f8e43423          	sd	a4,-120(s0)
    502058b4:	0007c783          	lbu	a5,0(a5)
    502058b8:	fef407a3          	sb	a5,-17(s0)
    502058bc:	fef44783          	lbu	a5,-17(s0)
    502058c0:	2781                	sext.w	a5,a5
    502058c2:	1e078463          	beqz	a5,50205aaa <mini_vsnprintf+0x32a>
    502058c6:	873e                	mv	a4,a5
    502058c8:	1a074263          	bltz	a4,50205a6c <mini_vsnprintf+0x2ec>
    502058cc:	86be                	mv	a3,a5
    502058ce:	07800713          	li	a4,120
    502058d2:	18d74d63          	blt	a4,a3,50205a6c <mini_vsnprintf+0x2ec>
    502058d6:	86be                	mv	a3,a5
    502058d8:	05800713          	li	a4,88
    502058dc:	18e6c863          	blt	a3,a4,50205a6c <mini_vsnprintf+0x2ec>
    502058e0:	fa87869b          	addiw	a3,a5,-88
    502058e4:	0006871b          	sext.w	a4,a3
    502058e8:	02000793          	li	a5,32
    502058ec:	18e7e063          	bltu	a5,a4,50205a6c <mini_vsnprintf+0x2ec>
    502058f0:	02069793          	slli	a5,a3,0x20
    502058f4:	9381                	srli	a5,a5,0x20
    502058f6:	00279713          	slli	a4,a5,0x2
    502058fa:	00003797          	auipc	a5,0x3
    502058fe:	c9e78793          	addi	a5,a5,-866 # 50208598 <__FUNCTION__.1480+0x140>
    50205902:	97ba                	add	a5,a5,a4
    50205904:	439c                	lw	a5,0(a5)
    50205906:	0007871b          	sext.w	a4,a5
    5020590a:	00003797          	auipc	a5,0x3
    5020590e:	c8e78793          	addi	a5,a5,-882 # 50208598 <__FUNCTION__.1480+0x140>
    50205912:	97ba                	add	a5,a5,a4
    50205914:	8782                	jr	a5
    50205916:	4785                	li	a5,1
    50205918:	fef42423          	sw	a5,-24(s0)
    5020591c:	a295                	j	50205a80 <mini_vsnprintf+0x300>
    5020591e:	fe842783          	lw	a5,-24(s0)
    50205922:	2781                	sext.w	a5,a5
    50205924:	ef81                	bnez	a5,5020593c <mini_vsnprintf+0x1bc>
    50205926:	f8043783          	ld	a5,-128(s0)
    5020592a:	00878713          	addi	a4,a5,8
    5020592e:	f8e43023          	sd	a4,-128(s0)
    50205932:	439c                	lw	a5,0(a5)
    50205934:	02079513          	slli	a0,a5,0x20
    50205938:	9101                	srli	a0,a0,0x20
    5020593a:	a809                	j	5020594c <mini_vsnprintf+0x1cc>
    5020593c:	f8043783          	ld	a5,-128(s0)
    50205940:	00878713          	addi	a4,a5,8
    50205944:	f8e43023          	sd	a4,-128(s0)
    50205948:	639c                	ld	a5,0(a5)
    5020594a:	853e                	mv	a0,a5
    5020594c:	fef44783          	lbu	a5,-17(s0)
    50205950:	0007871b          	sext.w	a4,a5
    50205954:	07500793          	li	a5,117
    50205958:	40f707b3          	sub	a5,a4,a5
    5020595c:	0017b793          	seqz	a5,a5
    50205960:	0ff7f793          	andi	a5,a5,255
    50205964:	0007869b          	sext.w	a3,a5
    50205968:	fee44783          	lbu	a5,-18(s0)
    5020596c:	2781                	sext.w	a5,a5
    5020596e:	fa840713          	addi	a4,s0,-88
    50205972:	4601                	li	a2,0
    50205974:	45a9                	li	a1,10
    50205976:	affff0ef          	jal	ra,50205474 <mini_itoa>
    5020597a:	87aa                	mv	a5,a0
    5020597c:	fcf42e23          	sw	a5,-36(s0)
    50205980:	fc040693          	addi	a3,s0,-64
    50205984:	fdc42703          	lw	a4,-36(s0)
    50205988:	fa840793          	addi	a5,s0,-88
    5020598c:	8636                	mv	a2,a3
    5020598e:	85ba                	mv	a1,a4
    50205990:	853e                	mv	a0,a5
    50205992:	d39ff0ef          	jal	ra,502056ca <_puts>
    50205996:	fe042423          	sw	zero,-24(s0)
    5020599a:	a0dd                	j	50205a80 <mini_vsnprintf+0x300>
    5020599c:	fe842783          	lw	a5,-24(s0)
    502059a0:	2781                	sext.w	a5,a5
    502059a2:	ef81                	bnez	a5,502059ba <mini_vsnprintf+0x23a>
    502059a4:	f8043783          	ld	a5,-128(s0)
    502059a8:	00878713          	addi	a4,a5,8
    502059ac:	f8e43023          	sd	a4,-128(s0)
    502059b0:	439c                	lw	a5,0(a5)
    502059b2:	02079513          	slli	a0,a5,0x20
    502059b6:	9101                	srli	a0,a0,0x20
    502059b8:	a809                	j	502059ca <mini_vsnprintf+0x24a>
    502059ba:	f8043783          	ld	a5,-128(s0)
    502059be:	00878713          	addi	a4,a5,8
    502059c2:	f8e43023          	sd	a4,-128(s0)
    502059c6:	639c                	ld	a5,0(a5)
    502059c8:	853e                	mv	a0,a5
    502059ca:	fef44783          	lbu	a5,-17(s0)
    502059ce:	0007871b          	sext.w	a4,a5
    502059d2:	05800793          	li	a5,88
    502059d6:	40f707b3          	sub	a5,a4,a5
    502059da:	0017b793          	seqz	a5,a5
    502059de:	0ff7f793          	andi	a5,a5,255
    502059e2:	0007861b          	sext.w	a2,a5
    502059e6:	fee44783          	lbu	a5,-18(s0)
    502059ea:	2781                	sext.w	a5,a5
    502059ec:	fa840713          	addi	a4,s0,-88
    502059f0:	4685                	li	a3,1
    502059f2:	45c1                	li	a1,16
    502059f4:	a81ff0ef          	jal	ra,50205474 <mini_itoa>
    502059f8:	87aa                	mv	a5,a0
    502059fa:	fcf42e23          	sw	a5,-36(s0)
    502059fe:	fc040693          	addi	a3,s0,-64
    50205a02:	fdc42703          	lw	a4,-36(s0)
    50205a06:	fa840793          	addi	a5,s0,-88
    50205a0a:	8636                	mv	a2,a3
    50205a0c:	85ba                	mv	a1,a4
    50205a0e:	853e                	mv	a0,a5
    50205a10:	cbbff0ef          	jal	ra,502056ca <_puts>
    50205a14:	fe042423          	sw	zero,-24(s0)
    50205a18:	a0a5                	j	50205a80 <mini_vsnprintf+0x300>
    50205a1a:	f8043783          	ld	a5,-128(s0)
    50205a1e:	00878713          	addi	a4,a5,8
    50205a22:	f8e43023          	sd	a4,-128(s0)
    50205a26:	439c                	lw	a5,0(a5)
    50205a28:	0ff7f793          	andi	a5,a5,255
    50205a2c:	2781                	sext.w	a5,a5
    50205a2e:	fc040713          	addi	a4,s0,-64
    50205a32:	85ba                	mv	a1,a4
    50205a34:	853e                	mv	a0,a5
    50205a36:	c2fff0ef          	jal	ra,50205664 <_putc>
    50205a3a:	a099                	j	50205a80 <mini_vsnprintf+0x300>
    50205a3c:	f8043783          	ld	a5,-128(s0)
    50205a40:	00878713          	addi	a4,a5,8
    50205a44:	f8e43023          	sd	a4,-128(s0)
    50205a48:	639c                	ld	a5,0(a5)
    50205a4a:	fef43023          	sd	a5,-32(s0)
    50205a4e:	fe043503          	ld	a0,-32(s0)
    50205a52:	12a000ef          	jal	ra,50205b7c <strlen>
    50205a56:	87aa                	mv	a5,a0
    50205a58:	2781                	sext.w	a5,a5
    50205a5a:	fc040713          	addi	a4,s0,-64
    50205a5e:	863a                	mv	a2,a4
    50205a60:	85be                	mv	a1,a5
    50205a62:	fe043503          	ld	a0,-32(s0)
    50205a66:	c65ff0ef          	jal	ra,502056ca <_puts>
    50205a6a:	a819                	j	50205a80 <mini_vsnprintf+0x300>
    50205a6c:	fef44783          	lbu	a5,-17(s0)
    50205a70:	2781                	sext.w	a5,a5
    50205a72:	fc040713          	addi	a4,s0,-64
    50205a76:	85ba                	mv	a1,a4
    50205a78:	853e                	mv	a0,a5
    50205a7a:	bebff0ef          	jal	ra,50205664 <_putc>
    50205a7e:	0001                	nop
    50205a80:	f8843783          	ld	a5,-120(s0)
    50205a84:	00178713          	addi	a4,a5,1
    50205a88:	f8e43423          	sd	a4,-120(s0)
    50205a8c:	0007c783          	lbu	a5,0(a5)
    50205a90:	fef407a3          	sb	a5,-17(s0)
    50205a94:	fef44783          	lbu	a5,-17(s0)
    50205a98:	0ff7f793          	andi	a5,a5,255
    50205a9c:	d0079ce3          	bnez	a5,502057b4 <mini_vsnprintf+0x34>
    50205aa0:	a031                	j	50205aac <mini_vsnprintf+0x32c>
    50205aa2:	0001                	nop
    50205aa4:	a021                	j	50205aac <mini_vsnprintf+0x32c>
    50205aa6:	0001                	nop
    50205aa8:	a011                	j	50205aac <mini_vsnprintf+0x32c>
    50205aaa:	0001                	nop
    50205aac:	fc843703          	ld	a4,-56(s0)
    50205ab0:	fc043783          	ld	a5,-64(s0)
    50205ab4:	40f707b3          	sub	a5,a4,a5
    50205ab8:	2781                	sext.w	a5,a5
    50205aba:	853e                	mv	a0,a5
    50205abc:	70e6                	ld	ra,120(sp)
    50205abe:	7446                	ld	s0,112(sp)
    50205ac0:	6109                	addi	sp,sp,128
    50205ac2:	8082                	ret

0000000050205ac4 <vprintf>:
    50205ac4:	7169                	addi	sp,sp,-304
    50205ac6:	f606                	sd	ra,296(sp)
    50205ac8:	f222                	sd	s0,288(sp)
    50205aca:	1a00                	addi	s0,sp,304
    50205acc:	eca43c23          	sd	a0,-296(s0)
    50205ad0:	ecb43823          	sd	a1,-304(s0)
    50205ad4:	ed043783          	ld	a5,-304(s0)
    50205ad8:	fef43023          	sd	a5,-32(s0)
    50205adc:	fe043703          	ld	a4,-32(s0)
    50205ae0:	ee040793          	addi	a5,s0,-288
    50205ae4:	86ba                	mv	a3,a4
    50205ae6:	ed843603          	ld	a2,-296(s0)
    50205aea:	10000593          	li	a1,256
    50205aee:	853e                	mv	a0,a5
    50205af0:	c91ff0ef          	jal	ra,50205780 <mini_vsnprintf>
    50205af4:	87aa                	mv	a5,a0
    50205af6:	fef42623          	sw	a5,-20(s0)
    50205afa:	fec42783          	lw	a5,-20(s0)
    50205afe:	ff040713          	addi	a4,s0,-16
    50205b02:	97ba                	add	a5,a5,a4
    50205b04:	ee078823          	sb	zero,-272(a5)
    50205b08:	ee040793          	addi	a5,s0,-288
    50205b0c:	853e                	mv	a0,a5
    50205b0e:	798000ef          	jal	ra,502062a6 <sys_write>
    50205b12:	fec42783          	lw	a5,-20(s0)
    50205b16:	853e                	mv	a0,a5
    50205b18:	70b2                	ld	ra,296(sp)
    50205b1a:	7412                	ld	s0,288(sp)
    50205b1c:	6155                	addi	sp,sp,304
    50205b1e:	8082                	ret

0000000050205b20 <printf>:
    50205b20:	7159                	addi	sp,sp,-112
    50205b22:	f406                	sd	ra,40(sp)
    50205b24:	f022                	sd	s0,32(sp)
    50205b26:	1800                	addi	s0,sp,48
    50205b28:	fca43c23          	sd	a0,-40(s0)
    50205b2c:	e40c                	sd	a1,8(s0)
    50205b2e:	e810                	sd	a2,16(s0)
    50205b30:	ec14                	sd	a3,24(s0)
    50205b32:	f018                	sd	a4,32(s0)
    50205b34:	f41c                	sd	a5,40(s0)
    50205b36:	03043823          	sd	a6,48(s0)
    50205b3a:	03143c23          	sd	a7,56(s0)
    50205b3e:	fe042623          	sw	zero,-20(s0)
    50205b42:	3fb000ef          	jal	ra,5020673c <sys_scroll>
    50205b46:	04040793          	addi	a5,s0,64
    50205b4a:	fcf43823          	sd	a5,-48(s0)
    50205b4e:	fd043783          	ld	a5,-48(s0)
    50205b52:	fc878793          	addi	a5,a5,-56
    50205b56:	fef43023          	sd	a5,-32(s0)
    50205b5a:	fe043783          	ld	a5,-32(s0)
    50205b5e:	85be                	mv	a1,a5
    50205b60:	fd843503          	ld	a0,-40(s0)
    50205b64:	f61ff0ef          	jal	ra,50205ac4 <vprintf>
    50205b68:	87aa                	mv	a5,a0
    50205b6a:	fef42623          	sw	a5,-20(s0)
    50205b6e:	fec42783          	lw	a5,-20(s0)
    50205b72:	853e                	mv	a0,a5
    50205b74:	70a2                	ld	ra,40(sp)
    50205b76:	7402                	ld	s0,32(sp)
    50205b78:	6165                	addi	sp,sp,112
    50205b7a:	8082                	ret

0000000050205b7c <strlen>:
    50205b7c:	7179                	addi	sp,sp,-48
    50205b7e:	f422                	sd	s0,40(sp)
    50205b80:	1800                	addi	s0,sp,48
    50205b82:	fca43c23          	sd	a0,-40(s0)
    50205b86:	fe042623          	sw	zero,-20(s0)
    50205b8a:	a031                	j	50205b96 <strlen+0x1a>
    50205b8c:	fec42783          	lw	a5,-20(s0)
    50205b90:	2785                	addiw	a5,a5,1
    50205b92:	fef42623          	sw	a5,-20(s0)
    50205b96:	fec42783          	lw	a5,-20(s0)
    50205b9a:	fd843703          	ld	a4,-40(s0)
    50205b9e:	97ba                	add	a5,a5,a4
    50205ba0:	0007c783          	lbu	a5,0(a5)
    50205ba4:	f7e5                	bnez	a5,50205b8c <strlen+0x10>
    50205ba6:	fec42783          	lw	a5,-20(s0)
    50205baa:	853e                	mv	a0,a5
    50205bac:	7422                	ld	s0,40(sp)
    50205bae:	6145                	addi	sp,sp,48
    50205bb0:	8082                	ret

0000000050205bb2 <memcpy>:
    50205bb2:	7179                	addi	sp,sp,-48
    50205bb4:	f422                	sd	s0,40(sp)
    50205bb6:	1800                	addi	s0,sp,48
    50205bb8:	fea43423          	sd	a0,-24(s0)
    50205bbc:	feb43023          	sd	a1,-32(s0)
    50205bc0:	87b2                	mv	a5,a2
    50205bc2:	fcf42e23          	sw	a5,-36(s0)
    50205bc6:	a035                	j	50205bf2 <memcpy+0x40>
    50205bc8:	fe043703          	ld	a4,-32(s0)
    50205bcc:	00170793          	addi	a5,a4,1
    50205bd0:	fef43023          	sd	a5,-32(s0)
    50205bd4:	fe843783          	ld	a5,-24(s0)
    50205bd8:	00178693          	addi	a3,a5,1
    50205bdc:	fed43423          	sd	a3,-24(s0)
    50205be0:	00074703          	lbu	a4,0(a4)
    50205be4:	00e78023          	sb	a4,0(a5)
    50205be8:	fdc42783          	lw	a5,-36(s0)
    50205bec:	37fd                	addiw	a5,a5,-1
    50205bee:	fcf42e23          	sw	a5,-36(s0)
    50205bf2:	fdc42783          	lw	a5,-36(s0)
    50205bf6:	2781                	sext.w	a5,a5
    50205bf8:	fbe1                	bnez	a5,50205bc8 <memcpy+0x16>
    50205bfa:	0001                	nop
    50205bfc:	0001                	nop
    50205bfe:	7422                	ld	s0,40(sp)
    50205c00:	6145                	addi	sp,sp,48
    50205c02:	8082                	ret

0000000050205c04 <memset>:
    50205c04:	7139                	addi	sp,sp,-64
    50205c06:	fc22                	sd	s0,56(sp)
    50205c08:	0080                	addi	s0,sp,64
    50205c0a:	fca43c23          	sd	a0,-40(s0)
    50205c0e:	87ae                	mv	a5,a1
    50205c10:	fcc43423          	sd	a2,-56(s0)
    50205c14:	fcf40ba3          	sb	a5,-41(s0)
    50205c18:	fd843783          	ld	a5,-40(s0)
    50205c1c:	fef43423          	sd	a5,-24(s0)
    50205c20:	a005                	j	50205c40 <memset+0x3c>
    50205c22:	fe843783          	ld	a5,-24(s0)
    50205c26:	00178713          	addi	a4,a5,1
    50205c2a:	fee43423          	sd	a4,-24(s0)
    50205c2e:	fd744703          	lbu	a4,-41(s0)
    50205c32:	00e78023          	sb	a4,0(a5)
    50205c36:	fc843783          	ld	a5,-56(s0)
    50205c3a:	17fd                	addi	a5,a5,-1
    50205c3c:	fcf43423          	sd	a5,-56(s0)
    50205c40:	fc843783          	ld	a5,-56(s0)
    50205c44:	fff9                	bnez	a5,50205c22 <memset+0x1e>
    50205c46:	0001                	nop
    50205c48:	0001                	nop
    50205c4a:	7462                	ld	s0,56(sp)
    50205c4c:	6121                	addi	sp,sp,64
    50205c4e:	8082                	ret

0000000050205c50 <bzero>:
    50205c50:	1101                	addi	sp,sp,-32
    50205c52:	ec06                	sd	ra,24(sp)
    50205c54:	e822                	sd	s0,16(sp)
    50205c56:	1000                	addi	s0,sp,32
    50205c58:	fea43423          	sd	a0,-24(s0)
    50205c5c:	87ae                	mv	a5,a1
    50205c5e:	fef42223          	sw	a5,-28(s0)
    50205c62:	fe446783          	lwu	a5,-28(s0)
    50205c66:	863e                	mv	a2,a5
    50205c68:	4581                	li	a1,0
    50205c6a:	fe843503          	ld	a0,-24(s0)
    50205c6e:	f97ff0ef          	jal	ra,50205c04 <memset>
    50205c72:	0001                	nop
    50205c74:	60e2                	ld	ra,24(sp)
    50205c76:	6442                	ld	s0,16(sp)
    50205c78:	6105                	addi	sp,sp,32
    50205c7a:	8082                	ret

0000000050205c7c <strcmp>:
    50205c7c:	1101                	addi	sp,sp,-32
    50205c7e:	ec22                	sd	s0,24(sp)
    50205c80:	1000                	addi	s0,sp,32
    50205c82:	fea43423          	sd	a0,-24(s0)
    50205c86:	feb43023          	sd	a1,-32(s0)
    50205c8a:	a0a1                	j	50205cd2 <strcmp+0x56>
    50205c8c:	fe843783          	ld	a5,-24(s0)
    50205c90:	0007c703          	lbu	a4,0(a5)
    50205c94:	fe043783          	ld	a5,-32(s0)
    50205c98:	0007c783          	lbu	a5,0(a5)
    50205c9c:	02f70163          	beq	a4,a5,50205cbe <strcmp+0x42>
    50205ca0:	fe843783          	ld	a5,-24(s0)
    50205ca4:	0007c783          	lbu	a5,0(a5)
    50205ca8:	0007871b          	sext.w	a4,a5
    50205cac:	fe043783          	ld	a5,-32(s0)
    50205cb0:	0007c783          	lbu	a5,0(a5)
    50205cb4:	2781                	sext.w	a5,a5
    50205cb6:	40f707bb          	subw	a5,a4,a5
    50205cba:	2781                	sext.w	a5,a5
    50205cbc:	a099                	j	50205d02 <strcmp+0x86>
    50205cbe:	fe843783          	ld	a5,-24(s0)
    50205cc2:	0785                	addi	a5,a5,1
    50205cc4:	fef43423          	sd	a5,-24(s0)
    50205cc8:	fe043783          	ld	a5,-32(s0)
    50205ccc:	0785                	addi	a5,a5,1
    50205cce:	fef43023          	sd	a5,-32(s0)
    50205cd2:	fe843783          	ld	a5,-24(s0)
    50205cd6:	0007c783          	lbu	a5,0(a5)
    50205cda:	c791                	beqz	a5,50205ce6 <strcmp+0x6a>
    50205cdc:	fe043783          	ld	a5,-32(s0)
    50205ce0:	0007c783          	lbu	a5,0(a5)
    50205ce4:	f7c5                	bnez	a5,50205c8c <strcmp+0x10>
    50205ce6:	fe843783          	ld	a5,-24(s0)
    50205cea:	0007c783          	lbu	a5,0(a5)
    50205cee:	0007871b          	sext.w	a4,a5
    50205cf2:	fe043783          	ld	a5,-32(s0)
    50205cf6:	0007c783          	lbu	a5,0(a5)
    50205cfa:	2781                	sext.w	a5,a5
    50205cfc:	40f707bb          	subw	a5,a4,a5
    50205d00:	2781                	sext.w	a5,a5
    50205d02:	853e                	mv	a0,a5
    50205d04:	6462                	ld	s0,24(sp)
    50205d06:	6105                	addi	sp,sp,32
    50205d08:	8082                	ret

0000000050205d0a <strcpy>:
    50205d0a:	7179                	addi	sp,sp,-48
    50205d0c:	f422                	sd	s0,40(sp)
    50205d0e:	1800                	addi	s0,sp,48
    50205d10:	fca43c23          	sd	a0,-40(s0)
    50205d14:	fcb43823          	sd	a1,-48(s0)
    50205d18:	fd843783          	ld	a5,-40(s0)
    50205d1c:	fef43423          	sd	a5,-24(s0)
    50205d20:	a00d                	j	50205d42 <strcpy+0x38>
    50205d22:	fd043703          	ld	a4,-48(s0)
    50205d26:	00170793          	addi	a5,a4,1
    50205d2a:	fcf43823          	sd	a5,-48(s0)
    50205d2e:	fd843783          	ld	a5,-40(s0)
    50205d32:	00178693          	addi	a3,a5,1
    50205d36:	fcd43c23          	sd	a3,-40(s0)
    50205d3a:	00074703          	lbu	a4,0(a4)
    50205d3e:	00e78023          	sb	a4,0(a5)
    50205d42:	fd043783          	ld	a5,-48(s0)
    50205d46:	0007c783          	lbu	a5,0(a5)
    50205d4a:	ffe1                	bnez	a5,50205d22 <strcpy+0x18>
    50205d4c:	fd843783          	ld	a5,-40(s0)
    50205d50:	00078023          	sb	zero,0(a5)
    50205d54:	fe843783          	ld	a5,-24(s0)
    50205d58:	853e                	mv	a0,a5
    50205d5a:	7422                	ld	s0,40(sp)
    50205d5c:	6145                	addi	sp,sp,48
    50205d5e:	8082                	ret

0000000050205d60 <strcat>:
    50205d60:	7179                	addi	sp,sp,-48
    50205d62:	f422                	sd	s0,40(sp)
    50205d64:	1800                	addi	s0,sp,48
    50205d66:	fca43c23          	sd	a0,-40(s0)
    50205d6a:	fcb43823          	sd	a1,-48(s0)
    50205d6e:	fd843783          	ld	a5,-40(s0)
    50205d72:	fef43423          	sd	a5,-24(s0)
    50205d76:	a031                	j	50205d82 <strcat+0x22>
    50205d78:	fd843783          	ld	a5,-40(s0)
    50205d7c:	0785                	addi	a5,a5,1
    50205d7e:	fcf43c23          	sd	a5,-40(s0)
    50205d82:	fd843783          	ld	a5,-40(s0)
    50205d86:	0007c783          	lbu	a5,0(a5)
    50205d8a:	f7fd                	bnez	a5,50205d78 <strcat+0x18>
    50205d8c:	a00d                	j	50205dae <strcat+0x4e>
    50205d8e:	fd043703          	ld	a4,-48(s0)
    50205d92:	00170793          	addi	a5,a4,1
    50205d96:	fcf43823          	sd	a5,-48(s0)
    50205d9a:	fd843783          	ld	a5,-40(s0)
    50205d9e:	00178693          	addi	a3,a5,1
    50205da2:	fcd43c23          	sd	a3,-40(s0)
    50205da6:	00074703          	lbu	a4,0(a4)
    50205daa:	00e78023          	sb	a4,0(a5)
    50205dae:	fd043783          	ld	a5,-48(s0)
    50205db2:	0007c783          	lbu	a5,0(a5)
    50205db6:	ffe1                	bnez	a5,50205d8e <strcat+0x2e>
    50205db8:	fd843783          	ld	a5,-40(s0)
    50205dbc:	00078023          	sb	zero,0(a5)
    50205dc0:	fe843783          	ld	a5,-24(s0)
    50205dc4:	853e                	mv	a0,a5
    50205dc6:	7422                	ld	s0,40(sp)
    50205dc8:	6145                	addi	sp,sp,48
    50205dca:	8082                	ret

0000000050205dcc <strtok>:
    50205dcc:	7139                	addi	sp,sp,-64
    50205dce:	fc06                	sd	ra,56(sp)
    50205dd0:	f822                	sd	s0,48(sp)
    50205dd2:	0080                	addi	s0,sp,64
    50205dd4:	fca43c23          	sd	a0,-40(s0)
    50205dd8:	fcb43823          	sd	a1,-48(s0)
    50205ddc:	87b2                	mv	a5,a2
    50205dde:	fcf407a3          	sb	a5,-49(s0)
    50205de2:	fd043503          	ld	a0,-48(s0)
    50205de6:	d97ff0ef          	jal	ra,50205b7c <strlen>
    50205dea:	87aa                	mv	a5,a0
    50205dec:	fef42423          	sw	a5,-24(s0)
    50205df0:	fe842783          	lw	a5,-24(s0)
    50205df4:	2781                	sext.w	a5,a5
    50205df6:	e399                	bnez	a5,50205dfc <strtok+0x30>
    50205df8:	4781                	li	a5,0
    50205dfa:	a8a5                	j	50205e72 <strtok+0xa6>
    50205dfc:	fe042623          	sw	zero,-20(s0)
    50205e00:	a085                	j	50205e60 <strtok+0x94>
    50205e02:	fec42783          	lw	a5,-20(s0)
    50205e06:	fd043703          	ld	a4,-48(s0)
    50205e0a:	97ba                	add	a5,a5,a4
    50205e0c:	0007c703          	lbu	a4,0(a5)
    50205e10:	fcf44783          	lbu	a5,-49(s0)
    50205e14:	0ff7f793          	andi	a5,a5,255
    50205e18:	02e78163          	beq	a5,a4,50205e3a <strtok+0x6e>
    50205e1c:	fec42783          	lw	a5,-20(s0)
    50205e20:	fd043703          	ld	a4,-48(s0)
    50205e24:	973e                	add	a4,a4,a5
    50205e26:	fec42783          	lw	a5,-20(s0)
    50205e2a:	fd843683          	ld	a3,-40(s0)
    50205e2e:	97b6                	add	a5,a5,a3
    50205e30:	00074703          	lbu	a4,0(a4)
    50205e34:	00e78023          	sb	a4,0(a5)
    50205e38:	a839                	j	50205e56 <strtok+0x8a>
    50205e3a:	fec42783          	lw	a5,-20(s0)
    50205e3e:	fd843703          	ld	a4,-40(s0)
    50205e42:	97ba                	add	a5,a5,a4
    50205e44:	00078023          	sb	zero,0(a5)
    50205e48:	fec42783          	lw	a5,-20(s0)
    50205e4c:	0785                	addi	a5,a5,1
    50205e4e:	fd043703          	ld	a4,-48(s0)
    50205e52:	97ba                	add	a5,a5,a4
    50205e54:	a839                	j	50205e72 <strtok+0xa6>
    50205e56:	fec42783          	lw	a5,-20(s0)
    50205e5a:	2785                	addiw	a5,a5,1
    50205e5c:	fef42623          	sw	a5,-20(s0)
    50205e60:	fec42703          	lw	a4,-20(s0)
    50205e64:	fe842783          	lw	a5,-24(s0)
    50205e68:	2701                	sext.w	a4,a4
    50205e6a:	2781                	sext.w	a5,a5
    50205e6c:	f8f74be3          	blt	a4,a5,50205e02 <strtok+0x36>
    50205e70:	4781                	li	a5,0
    50205e72:	853e                	mv	a0,a5
    50205e74:	70e2                	ld	ra,56(sp)
    50205e76:	7442                	ld	s0,48(sp)
    50205e78:	6121                	addi	sp,sp,64
    50205e7a:	8082                	ret

0000000050205e7c <atoi>:
    50205e7c:	7179                	addi	sp,sp,-48
    50205e7e:	f406                	sd	ra,40(sp)
    50205e80:	f022                	sd	s0,32(sp)
    50205e82:	1800                	addi	s0,sp,48
    50205e84:	fca43c23          	sd	a0,-40(s0)
    50205e88:	fe042623          	sw	zero,-20(s0)
    50205e8c:	fe042423          	sw	zero,-24(s0)
    50205e90:	a081                	j	50205ed0 <atoi+0x54>
    50205e92:	fec42703          	lw	a4,-20(s0)
    50205e96:	87ba                	mv	a5,a4
    50205e98:	0027979b          	slliw	a5,a5,0x2
    50205e9c:	9fb9                	addw	a5,a5,a4
    50205e9e:	0017979b          	slliw	a5,a5,0x1
    50205ea2:	fef42623          	sw	a5,-20(s0)
    50205ea6:	fe842783          	lw	a5,-24(s0)
    50205eaa:	fd843703          	ld	a4,-40(s0)
    50205eae:	97ba                	add	a5,a5,a4
    50205eb0:	0007c783          	lbu	a5,0(a5)
    50205eb4:	2781                	sext.w	a5,a5
    50205eb6:	fd07879b          	addiw	a5,a5,-48
    50205eba:	2781                	sext.w	a5,a5
    50205ebc:	fec42703          	lw	a4,-20(s0)
    50205ec0:	9fb9                	addw	a5,a5,a4
    50205ec2:	fef42623          	sw	a5,-20(s0)
    50205ec6:	fe842783          	lw	a5,-24(s0)
    50205eca:	2785                	addiw	a5,a5,1
    50205ecc:	fef42423          	sw	a5,-24(s0)
    50205ed0:	fd843503          	ld	a0,-40(s0)
    50205ed4:	ca9ff0ef          	jal	ra,50205b7c <strlen>
    50205ed8:	87aa                	mv	a5,a0
    50205eda:	873e                	mv	a4,a5
    50205edc:	fe842783          	lw	a5,-24(s0)
    50205ee0:	2781                	sext.w	a5,a5
    50205ee2:	fae7c8e3          	blt	a5,a4,50205e92 <atoi+0x16>
    50205ee6:	fec42783          	lw	a5,-20(s0)
    50205eea:	853e                	mv	a0,a5
    50205eec:	70a2                	ld	ra,40(sp)
    50205eee:	7402                	ld	s0,32(sp)
    50205ef0:	6145                	addi	sp,sp,48
    50205ef2:	8082                	ret

0000000050205ef4 <mthread_spin_init>:
    50205ef4:	1101                	addi	sp,sp,-32
    50205ef6:	ec22                	sd	s0,24(sp)
    50205ef8:	1000                	addi	s0,sp,32
    50205efa:	fea43423          	sd	a0,-24(s0)
    50205efe:	0001                	nop
    50205f00:	853e                	mv	a0,a5
    50205f02:	6462                	ld	s0,24(sp)
    50205f04:	6105                	addi	sp,sp,32
    50205f06:	8082                	ret

0000000050205f08 <mthread_spin_destroy>:
    50205f08:	1101                	addi	sp,sp,-32
    50205f0a:	ec22                	sd	s0,24(sp)
    50205f0c:	1000                	addi	s0,sp,32
    50205f0e:	fea43423          	sd	a0,-24(s0)
    50205f12:	0001                	nop
    50205f14:	853e                	mv	a0,a5
    50205f16:	6462                	ld	s0,24(sp)
    50205f18:	6105                	addi	sp,sp,32
    50205f1a:	8082                	ret

0000000050205f1c <mthread_spin_trylock>:
    50205f1c:	1101                	addi	sp,sp,-32
    50205f1e:	ec22                	sd	s0,24(sp)
    50205f20:	1000                	addi	s0,sp,32
    50205f22:	fea43423          	sd	a0,-24(s0)
    50205f26:	0001                	nop
    50205f28:	853e                	mv	a0,a5
    50205f2a:	6462                	ld	s0,24(sp)
    50205f2c:	6105                	addi	sp,sp,32
    50205f2e:	8082                	ret

0000000050205f30 <mthread_spin_lock>:
    50205f30:	1101                	addi	sp,sp,-32
    50205f32:	ec22                	sd	s0,24(sp)
    50205f34:	1000                	addi	s0,sp,32
    50205f36:	fea43423          	sd	a0,-24(s0)
    50205f3a:	0001                	nop
    50205f3c:	853e                	mv	a0,a5
    50205f3e:	6462                	ld	s0,24(sp)
    50205f40:	6105                	addi	sp,sp,32
    50205f42:	8082                	ret

0000000050205f44 <mthread_spin_unlock>:
    50205f44:	1101                	addi	sp,sp,-32
    50205f46:	ec22                	sd	s0,24(sp)
    50205f48:	1000                	addi	s0,sp,32
    50205f4a:	fea43423          	sd	a0,-24(s0)
    50205f4e:	0001                	nop
    50205f50:	853e                	mv	a0,a5
    50205f52:	6462                	ld	s0,24(sp)
    50205f54:	6105                	addi	sp,sp,32
    50205f56:	8082                	ret

0000000050205f58 <mthread_mutex_init>:
    50205f58:	1101                	addi	sp,sp,-32
    50205f5a:	ec06                	sd	ra,24(sp)
    50205f5c:	e822                	sd	s0,16(sp)
    50205f5e:	1000                	addi	s0,sp,32
    50205f60:	fea43423          	sd	a0,-24(s0)
    50205f64:	82818793          	addi	a5,gp,-2008 # 50209578 <key_global>
    50205f68:	4398                	lw	a4,0(a5)
    50205f6a:	fe843783          	ld	a5,-24(s0)
    50205f6e:	c398                	sw	a4,0(a5)
    50205f70:	cacff0ef          	jal	ra,5020541c <rand>
    50205f74:	87aa                	mv	a5,a0
    50205f76:	873e                	mv	a4,a5
    50205f78:	4795                	li	a5,5
    50205f7a:	02f767bb          	remw	a5,a4,a5
    50205f7e:	2781                	sext.w	a5,a5
    50205f80:	2785                	addiw	a5,a5,1
    50205f82:	0007871b          	sext.w	a4,a5
    50205f86:	82818793          	addi	a5,gp,-2008 # 50209578 <key_global>
    50205f8a:	439c                	lw	a5,0(a5)
    50205f8c:	9fb9                	addw	a5,a5,a4
    50205f8e:	0007871b          	sext.w	a4,a5
    50205f92:	82818793          	addi	a5,gp,-2008 # 50209578 <key_global>
    50205f96:	c398                	sw	a4,0(a5)
    50205f98:	fe843783          	ld	a5,-24(s0)
    50205f9c:	439c                	lw	a5,0(a5)
    50205f9e:	853e                	mv	a0,a5
    50205fa0:	382000ef          	jal	ra,50206322 <binsemget>
    50205fa4:	87aa                	mv	a5,a0
    50205fa6:	873e                	mv	a4,a5
    50205fa8:	fe843783          	ld	a5,-24(s0)
    50205fac:	c3d8                	sw	a4,4(a5)
    50205fae:	0001                	nop
    50205fb0:	853e                	mv	a0,a5
    50205fb2:	60e2                	ld	ra,24(sp)
    50205fb4:	6442                	ld	s0,16(sp)
    50205fb6:	6105                	addi	sp,sp,32
    50205fb8:	8082                	ret

0000000050205fba <mthread_mutex_destroy>:
    50205fba:	1101                	addi	sp,sp,-32
    50205fbc:	ec22                	sd	s0,24(sp)
    50205fbe:	1000                	addi	s0,sp,32
    50205fc0:	fea43423          	sd	a0,-24(s0)
    50205fc4:	fe843783          	ld	a5,-24(s0)
    50205fc8:	577d                	li	a4,-1
    50205fca:	c398                	sw	a4,0(a5)
    50205fcc:	fe843783          	ld	a5,-24(s0)
    50205fd0:	577d                	li	a4,-1
    50205fd2:	c3d8                	sw	a4,4(a5)
    50205fd4:	0001                	nop
    50205fd6:	853e                	mv	a0,a5
    50205fd8:	6462                	ld	s0,24(sp)
    50205fda:	6105                	addi	sp,sp,32
    50205fdc:	8082                	ret

0000000050205fde <mthread_mutex_trylock>:
    50205fde:	1101                	addi	sp,sp,-32
    50205fe0:	ec22                	sd	s0,24(sp)
    50205fe2:	1000                	addi	s0,sp,32
    50205fe4:	fea43423          	sd	a0,-24(s0)
    50205fe8:	0001                	nop
    50205fea:	853e                	mv	a0,a5
    50205fec:	6462                	ld	s0,24(sp)
    50205fee:	6105                	addi	sp,sp,32
    50205ff0:	8082                	ret

0000000050205ff2 <mthread_mutex_lock>:
    50205ff2:	1101                	addi	sp,sp,-32
    50205ff4:	ec06                	sd	ra,24(sp)
    50205ff6:	e822                	sd	s0,16(sp)
    50205ff8:	1000                	addi	s0,sp,32
    50205ffa:	fea43423          	sd	a0,-24(s0)
    50205ffe:	fe843783          	ld	a5,-24(s0)
    50206002:	43dc                	lw	a5,4(a5)
    50206004:	4581                	li	a1,0
    50206006:	853e                	mv	a0,a5
    50206008:	348000ef          	jal	ra,50206350 <binsemop>
    5020600c:	0001                	nop
    5020600e:	853e                	mv	a0,a5
    50206010:	60e2                	ld	ra,24(sp)
    50206012:	6442                	ld	s0,16(sp)
    50206014:	6105                	addi	sp,sp,32
    50206016:	8082                	ret

0000000050206018 <mthread_mutex_unlock>:
    50206018:	1101                	addi	sp,sp,-32
    5020601a:	ec06                	sd	ra,24(sp)
    5020601c:	e822                	sd	s0,16(sp)
    5020601e:	1000                	addi	s0,sp,32
    50206020:	fea43423          	sd	a0,-24(s0)
    50206024:	fe843783          	ld	a5,-24(s0)
    50206028:	43dc                	lw	a5,4(a5)
    5020602a:	4585                	li	a1,1
    5020602c:	853e                	mv	a0,a5
    5020602e:	322000ef          	jal	ra,50206350 <binsemop>
    50206032:	0001                	nop
    50206034:	853e                	mv	a0,a5
    50206036:	60e2                	ld	ra,24(sp)
    50206038:	6442                	ld	s0,16(sp)
    5020603a:	6105                	addi	sp,sp,32
    5020603c:	8082                	ret

000000005020603e <mthread_barrier_init>:
    5020603e:	1101                	addi	sp,sp,-32
    50206040:	ec06                	sd	ra,24(sp)
    50206042:	e822                	sd	s0,16(sp)
    50206044:	1000                	addi	s0,sp,32
    50206046:	fea43423          	sd	a0,-24(s0)
    5020604a:	87ae                	mv	a5,a1
    5020604c:	fef42223          	sw	a5,-28(s0)
    50206050:	82818793          	addi	a5,gp,-2008 # 50209578 <key_global>
    50206054:	4398                	lw	a4,0(a5)
    50206056:	fe843783          	ld	a5,-24(s0)
    5020605a:	c398                	sw	a4,0(a5)
    5020605c:	bc0ff0ef          	jal	ra,5020541c <rand>
    50206060:	87aa                	mv	a5,a0
    50206062:	873e                	mv	a4,a5
    50206064:	4795                	li	a5,5
    50206066:	02f767bb          	remw	a5,a4,a5
    5020606a:	2781                	sext.w	a5,a5
    5020606c:	2785                	addiw	a5,a5,1
    5020606e:	0007871b          	sext.w	a4,a5
    50206072:	82818793          	addi	a5,gp,-2008 # 50209578 <key_global>
    50206076:	439c                	lw	a5,0(a5)
    50206078:	9fb9                	addw	a5,a5,a4
    5020607a:	0007871b          	sext.w	a4,a5
    5020607e:	82818793          	addi	a5,gp,-2008 # 50209578 <key_global>
    50206082:	c398                	sw	a4,0(a5)
    50206084:	fe843783          	ld	a5,-24(s0)
    50206088:	439c                	lw	a5,0(a5)
    5020608a:	853e                	mv	a0,a5
    5020608c:	296000ef          	jal	ra,50206322 <binsemget>
    50206090:	87aa                	mv	a5,a0
    50206092:	873e                	mv	a4,a5
    50206094:	fe843783          	ld	a5,-24(s0)
    50206098:	c3d8                	sw	a4,4(a5)
    5020609a:	fe442703          	lw	a4,-28(s0)
    5020609e:	fe843783          	ld	a5,-24(s0)
    502060a2:	c798                	sw	a4,8(a5)
    502060a4:	0001                	nop
    502060a6:	853e                	mv	a0,a5
    502060a8:	60e2                	ld	ra,24(sp)
    502060aa:	6442                	ld	s0,16(sp)
    502060ac:	6105                	addi	sp,sp,32
    502060ae:	8082                	ret

00000000502060b0 <mthread_barrier_wait>:
    502060b0:	1101                	addi	sp,sp,-32
    502060b2:	ec06                	sd	ra,24(sp)
    502060b4:	e822                	sd	s0,16(sp)
    502060b6:	1000                	addi	s0,sp,32
    502060b8:	fea43423          	sd	a0,-24(s0)
    502060bc:	fe843783          	ld	a5,-24(s0)
    502060c0:	43d8                	lw	a4,4(a5)
    502060c2:	fe843783          	ld	a5,-24(s0)
    502060c6:	479c                	lw	a5,8(a5)
    502060c8:	85be                	mv	a1,a5
    502060ca:	853a                	mv	a0,a4
    502060cc:	568000ef          	jal	ra,50206634 <barrier_wait>
    502060d0:	0001                	nop
    502060d2:	853e                	mv	a0,a5
    502060d4:	60e2                	ld	ra,24(sp)
    502060d6:	6442                	ld	s0,16(sp)
    502060d8:	6105                	addi	sp,sp,32
    502060da:	8082                	ret

00000000502060dc <mthread_barrier_destroy>:
    502060dc:	1101                	addi	sp,sp,-32
    502060de:	ec22                	sd	s0,24(sp)
    502060e0:	1000                	addi	s0,sp,32
    502060e2:	fea43423          	sd	a0,-24(s0)
    502060e6:	fe843783          	ld	a5,-24(s0)
    502060ea:	0007a023          	sw	zero,0(a5)
    502060ee:	fe843783          	ld	a5,-24(s0)
    502060f2:	0007a223          	sw	zero,4(a5)
    502060f6:	fe843783          	ld	a5,-24(s0)
    502060fa:	0007a423          	sw	zero,8(a5)
    502060fe:	0001                	nop
    50206100:	853e                	mv	a0,a5
    50206102:	6462                	ld	s0,24(sp)
    50206104:	6105                	addi	sp,sp,32
    50206106:	8082                	ret

0000000050206108 <mthread_cond_init>:
    50206108:	1101                	addi	sp,sp,-32
    5020610a:	ec06                	sd	ra,24(sp)
    5020610c:	e822                	sd	s0,16(sp)
    5020610e:	1000                	addi	s0,sp,32
    50206110:	fea43423          	sd	a0,-24(s0)
    50206114:	82818793          	addi	a5,gp,-2008 # 50209578 <key_global>
    50206118:	4398                	lw	a4,0(a5)
    5020611a:	fe843783          	ld	a5,-24(s0)
    5020611e:	c398                	sw	a4,0(a5)
    50206120:	afcff0ef          	jal	ra,5020541c <rand>
    50206124:	87aa                	mv	a5,a0
    50206126:	873e                	mv	a4,a5
    50206128:	4795                	li	a5,5
    5020612a:	02f767bb          	remw	a5,a4,a5
    5020612e:	2781                	sext.w	a5,a5
    50206130:	2785                	addiw	a5,a5,1
    50206132:	0007871b          	sext.w	a4,a5
    50206136:	82818793          	addi	a5,gp,-2008 # 50209578 <key_global>
    5020613a:	439c                	lw	a5,0(a5)
    5020613c:	9fb9                	addw	a5,a5,a4
    5020613e:	0007871b          	sext.w	a4,a5
    50206142:	82818793          	addi	a5,gp,-2008 # 50209578 <key_global>
    50206146:	c398                	sw	a4,0(a5)
    50206148:	fe843783          	ld	a5,-24(s0)
    5020614c:	439c                	lw	a5,0(a5)
    5020614e:	853e                	mv	a0,a5
    50206150:	1d2000ef          	jal	ra,50206322 <binsemget>
    50206154:	87aa                	mv	a5,a0
    50206156:	873e                	mv	a4,a5
    50206158:	fe843783          	ld	a5,-24(s0)
    5020615c:	c3d8                	sw	a4,4(a5)
    5020615e:	0001                	nop
    50206160:	853e                	mv	a0,a5
    50206162:	60e2                	ld	ra,24(sp)
    50206164:	6442                	ld	s0,16(sp)
    50206166:	6105                	addi	sp,sp,32
    50206168:	8082                	ret

000000005020616a <mthread_cond_destroy>:
    5020616a:	1101                	addi	sp,sp,-32
    5020616c:	ec22                	sd	s0,24(sp)
    5020616e:	1000                	addi	s0,sp,32
    50206170:	fea43423          	sd	a0,-24(s0)
    50206174:	fe843783          	ld	a5,-24(s0)
    50206178:	577d                	li	a4,-1
    5020617a:	c398                	sw	a4,0(a5)
    5020617c:	fe843783          	ld	a5,-24(s0)
    50206180:	577d                	li	a4,-1
    50206182:	c3d8                	sw	a4,4(a5)
    50206184:	0001                	nop
    50206186:	853e                	mv	a0,a5
    50206188:	6462                	ld	s0,24(sp)
    5020618a:	6105                	addi	sp,sp,32
    5020618c:	8082                	ret

000000005020618e <mthread_cond_wait>:
    5020618e:	1101                	addi	sp,sp,-32
    50206190:	ec06                	sd	ra,24(sp)
    50206192:	e822                	sd	s0,16(sp)
    50206194:	1000                	addi	s0,sp,32
    50206196:	fea43423          	sd	a0,-24(s0)
    5020619a:	feb43023          	sd	a1,-32(s0)
    5020619e:	fe843783          	ld	a5,-24(s0)
    502061a2:	43d8                	lw	a4,4(a5)
    502061a4:	fe043783          	ld	a5,-32(s0)
    502061a8:	43dc                	lw	a5,4(a5)
    502061aa:	85be                	mv	a1,a5
    502061ac:	853a                	mv	a0,a4
    502061ae:	424000ef          	jal	ra,502065d2 <sem_wait>
    502061b2:	0001                	nop
    502061b4:	853e                	mv	a0,a5
    502061b6:	60e2                	ld	ra,24(sp)
    502061b8:	6442                	ld	s0,16(sp)
    502061ba:	6105                	addi	sp,sp,32
    502061bc:	8082                	ret

00000000502061be <mthread_cond_signal>:
    502061be:	1101                	addi	sp,sp,-32
    502061c0:	ec06                	sd	ra,24(sp)
    502061c2:	e822                	sd	s0,16(sp)
    502061c4:	1000                	addi	s0,sp,32
    502061c6:	fea43423          	sd	a0,-24(s0)
    502061ca:	fe843783          	ld	a5,-24(s0)
    502061ce:	43dc                	lw	a5,4(a5)
    502061d0:	853e                	mv	a0,a5
    502061d2:	3d4000ef          	jal	ra,502065a6 <sem_signal>
    502061d6:	0001                	nop
    502061d8:	853e                	mv	a0,a5
    502061da:	60e2                	ld	ra,24(sp)
    502061dc:	6442                	ld	s0,16(sp)
    502061de:	6105                	addi	sp,sp,32
    502061e0:	8082                	ret

00000000502061e2 <mthread_cond_broadcast>:
    502061e2:	1101                	addi	sp,sp,-32
    502061e4:	ec06                	sd	ra,24(sp)
    502061e6:	e822                	sd	s0,16(sp)
    502061e8:	1000                	addi	s0,sp,32
    502061ea:	fea43423          	sd	a0,-24(s0)
    502061ee:	fe843783          	ld	a5,-24(s0)
    502061f2:	43dc                	lw	a5,4(a5)
    502061f4:	853e                	mv	a0,a5
    502061f6:	412000ef          	jal	ra,50206608 <sem_broadcast>
    502061fa:	0001                	nop
    502061fc:	853e                	mv	a0,a5
    502061fe:	60e2                	ld	ra,24(sp)
    50206200:	6442                	ld	s0,16(sp)
    50206202:	6105                	addi	sp,sp,32
    50206204:	8082                	ret

0000000050206206 <mthread_semaphore_init>:
    50206206:	1101                	addi	sp,sp,-32
    50206208:	ec22                	sd	s0,24(sp)
    5020620a:	1000                	addi	s0,sp,32
    5020620c:	fea43423          	sd	a0,-24(s0)
    50206210:	87ae                	mv	a5,a1
    50206212:	fef42223          	sw	a5,-28(s0)
    50206216:	0001                	nop
    50206218:	853e                	mv	a0,a5
    5020621a:	6462                	ld	s0,24(sp)
    5020621c:	6105                	addi	sp,sp,32
    5020621e:	8082                	ret

0000000050206220 <mthread_semaphore_up>:
    50206220:	1101                	addi	sp,sp,-32
    50206222:	ec22                	sd	s0,24(sp)
    50206224:	1000                	addi	s0,sp,32
    50206226:	fea43423          	sd	a0,-24(s0)
    5020622a:	0001                	nop
    5020622c:	853e                	mv	a0,a5
    5020622e:	6462                	ld	s0,24(sp)
    50206230:	6105                	addi	sp,sp,32
    50206232:	8082                	ret

0000000050206234 <mthread_semaphore_down>:
    50206234:	1101                	addi	sp,sp,-32
    50206236:	ec22                	sd	s0,24(sp)
    50206238:	1000                	addi	s0,sp,32
    5020623a:	fea43423          	sd	a0,-24(s0)
    5020623e:	0001                	nop
    50206240:	853e                	mv	a0,a5
    50206242:	6462                	ld	s0,24(sp)
    50206244:	6105                	addi	sp,sp,32
    50206246:	8082                	ret

0000000050206248 <mthread_semaphore_destroy>:
    50206248:	1101                	addi	sp,sp,-32
    5020624a:	ec22                	sd	s0,24(sp)
    5020624c:	1000                	addi	s0,sp,32
    5020624e:	fea43423          	sd	a0,-24(s0)
    50206252:	0001                	nop
    50206254:	853e                	mv	a0,a5
    50206256:	6462                	ld	s0,24(sp)
    50206258:	6105                	addi	sp,sp,32
    5020625a:	8082                	ret

000000005020625c <sys_sleep>:
    5020625c:	1101                	addi	sp,sp,-32
    5020625e:	ec06                	sd	ra,24(sp)
    50206260:	e822                	sd	s0,16(sp)
    50206262:	1000                	addi	s0,sp,32
    50206264:	87aa                	mv	a5,a0
    50206266:	fef42623          	sw	a5,-20(s0)
    5020626a:	fec46783          	lwu	a5,-20(s0)
    5020626e:	4701                	li	a4,0
    50206270:	4681                	li	a3,0
    50206272:	4601                	li	a2,0
    50206274:	85be                	mv	a1,a5
    50206276:	4509                	li	a0,2
    50206278:	51c000ef          	jal	ra,50206794 <invoke_syscall>
    5020627c:	0001                	nop
    5020627e:	60e2                	ld	ra,24(sp)
    50206280:	6442                	ld	s0,16(sp)
    50206282:	6105                	addi	sp,sp,32
    50206284:	8082                	ret

0000000050206286 <sys_scheduler>:
    50206286:	1141                	addi	sp,sp,-16
    50206288:	e406                	sd	ra,8(sp)
    5020628a:	e022                	sd	s0,0(sp)
    5020628c:	0800                	addi	s0,sp,16
    5020628e:	4701                	li	a4,0
    50206290:	4681                	li	a3,0
    50206292:	4601                	li	a2,0
    50206294:	4581                	li	a1,0
    50206296:	451d                	li	a0,7
    50206298:	4fc000ef          	jal	ra,50206794 <invoke_syscall>
    5020629c:	0001                	nop
    5020629e:	60a2                	ld	ra,8(sp)
    502062a0:	6402                	ld	s0,0(sp)
    502062a2:	0141                	addi	sp,sp,16
    502062a4:	8082                	ret

00000000502062a6 <sys_write>:
    502062a6:	1101                	addi	sp,sp,-32
    502062a8:	ec06                	sd	ra,24(sp)
    502062aa:	e822                	sd	s0,16(sp)
    502062ac:	1000                	addi	s0,sp,32
    502062ae:	fea43423          	sd	a0,-24(s0)
    502062b2:	fe843783          	ld	a5,-24(s0)
    502062b6:	4701                	li	a4,0
    502062b8:	4681                	li	a3,0
    502062ba:	4601                	li	a2,0
    502062bc:	85be                	mv	a1,a5
    502062be:	4551                	li	a0,20
    502062c0:	4d4000ef          	jal	ra,50206794 <invoke_syscall>
    502062c4:	0001                	nop
    502062c6:	60e2                	ld	ra,24(sp)
    502062c8:	6442                	ld	s0,16(sp)
    502062ca:	6105                	addi	sp,sp,32
    502062cc:	8082                	ret

00000000502062ce <sys_reflush>:
    502062ce:	1141                	addi	sp,sp,-16
    502062d0:	e406                	sd	ra,8(sp)
    502062d2:	e022                	sd	s0,0(sp)
    502062d4:	0800                	addi	s0,sp,16
    502062d6:	4701                	li	a4,0
    502062d8:	4681                	li	a3,0
    502062da:	4601                	li	a2,0
    502062dc:	4581                	li	a1,0
    502062de:	455d                	li	a0,23
    502062e0:	4b4000ef          	jal	ra,50206794 <invoke_syscall>
    502062e4:	0001                	nop
    502062e6:	60a2                	ld	ra,8(sp)
    502062e8:	6402                	ld	s0,0(sp)
    502062ea:	0141                	addi	sp,sp,16
    502062ec:	8082                	ret

00000000502062ee <sys_move_cursor>:
    502062ee:	1101                	addi	sp,sp,-32
    502062f0:	ec06                	sd	ra,24(sp)
    502062f2:	e822                	sd	s0,16(sp)
    502062f4:	1000                	addi	s0,sp,32
    502062f6:	87aa                	mv	a5,a0
    502062f8:	872e                	mv	a4,a1
    502062fa:	fef42623          	sw	a5,-20(s0)
    502062fe:	87ba                	mv	a5,a4
    50206300:	fef42423          	sw	a5,-24(s0)
    50206304:	fec42783          	lw	a5,-20(s0)
    50206308:	fe842603          	lw	a2,-24(s0)
    5020630c:	4701                	li	a4,0
    5020630e:	4681                	li	a3,0
    50206310:	85be                	mv	a1,a5
    50206312:	4559                	li	a0,22
    50206314:	480000ef          	jal	ra,50206794 <invoke_syscall>
    50206318:	0001                	nop
    5020631a:	60e2                	ld	ra,24(sp)
    5020631c:	6442                	ld	s0,16(sp)
    5020631e:	6105                	addi	sp,sp,32
    50206320:	8082                	ret

0000000050206322 <binsemget>:
    50206322:	1101                	addi	sp,sp,-32
    50206324:	ec06                	sd	ra,24(sp)
    50206326:	e822                	sd	s0,16(sp)
    50206328:	1000                	addi	s0,sp,32
    5020632a:	87aa                	mv	a5,a0
    5020632c:	fef42623          	sw	a5,-20(s0)
    50206330:	fec42783          	lw	a5,-20(s0)
    50206334:	4701                	li	a4,0
    50206336:	4681                	li	a3,0
    50206338:	4601                	li	a2,0
    5020633a:	85be                	mv	a1,a5
    5020633c:	4521                	li	a0,8
    5020633e:	456000ef          	jal	ra,50206794 <invoke_syscall>
    50206342:	87aa                	mv	a5,a0
    50206344:	2781                	sext.w	a5,a5
    50206346:	853e                	mv	a0,a5
    50206348:	60e2                	ld	ra,24(sp)
    5020634a:	6442                	ld	s0,16(sp)
    5020634c:	6105                	addi	sp,sp,32
    5020634e:	8082                	ret

0000000050206350 <binsemop>:
    50206350:	1101                	addi	sp,sp,-32
    50206352:	ec06                	sd	ra,24(sp)
    50206354:	e822                	sd	s0,16(sp)
    50206356:	1000                	addi	s0,sp,32
    50206358:	87aa                	mv	a5,a0
    5020635a:	872e                	mv	a4,a1
    5020635c:	fef42623          	sw	a5,-20(s0)
    50206360:	87ba                	mv	a5,a4
    50206362:	fef42423          	sw	a5,-24(s0)
    50206366:	fec42783          	lw	a5,-20(s0)
    5020636a:	fe842603          	lw	a2,-24(s0)
    5020636e:	4701                	li	a4,0
    50206370:	4681                	li	a3,0
    50206372:	85be                	mv	a1,a5
    50206374:	4525                	li	a0,9
    50206376:	41e000ef          	jal	ra,50206794 <invoke_syscall>
    5020637a:	87aa                	mv	a5,a0
    5020637c:	2781                	sext.w	a5,a5
    5020637e:	853e                	mv	a0,a5
    50206380:	60e2                	ld	ra,24(sp)
    50206382:	6442                	ld	s0,16(sp)
    50206384:	6105                	addi	sp,sp,32
    50206386:	8082                	ret

0000000050206388 <sys_get_timebase>:
    50206388:	1141                	addi	sp,sp,-16
    5020638a:	e406                	sd	ra,8(sp)
    5020638c:	e022                	sd	s0,0(sp)
    5020638e:	0800                	addi	s0,sp,16
    50206390:	4701                	li	a4,0
    50206392:	4681                	li	a3,0
    50206394:	4601                	li	a2,0
    50206396:	4581                	li	a1,0
    50206398:	4579                	li	a0,30
    5020639a:	3fa000ef          	jal	ra,50206794 <invoke_syscall>
    5020639e:	87aa                	mv	a5,a0
    502063a0:	853e                	mv	a0,a5
    502063a2:	60a2                	ld	ra,8(sp)
    502063a4:	6402                	ld	s0,0(sp)
    502063a6:	0141                	addi	sp,sp,16
    502063a8:	8082                	ret

00000000502063aa <sys_get_tick>:
    502063aa:	1141                	addi	sp,sp,-16
    502063ac:	e406                	sd	ra,8(sp)
    502063ae:	e022                	sd	s0,0(sp)
    502063b0:	0800                	addi	s0,sp,16
    502063b2:	4701                	li	a4,0
    502063b4:	4681                	li	a3,0
    502063b6:	4601                	li	a2,0
    502063b8:	4581                	li	a1,0
    502063ba:	457d                	li	a0,31
    502063bc:	3d8000ef          	jal	ra,50206794 <invoke_syscall>
    502063c0:	87aa                	mv	a5,a0
    502063c2:	853e                	mv	a0,a5
    502063c4:	60a2                	ld	ra,8(sp)
    502063c6:	6402                	ld	s0,0(sp)
    502063c8:	0141                	addi	sp,sp,16
    502063ca:	8082                	ret

00000000502063cc <sys_spawn>:
    502063cc:	7179                	addi	sp,sp,-48
    502063ce:	f406                	sd	ra,40(sp)
    502063d0:	f022                	sd	s0,32(sp)
    502063d2:	1800                	addi	s0,sp,48
    502063d4:	fea43423          	sd	a0,-24(s0)
    502063d8:	feb43023          	sd	a1,-32(s0)
    502063dc:	87b2                	mv	a5,a2
    502063de:	8736                	mv	a4,a3
    502063e0:	fcf42e23          	sw	a5,-36(s0)
    502063e4:	87ba                	mv	a5,a4
    502063e6:	fcf40da3          	sb	a5,-37(s0)
    502063ea:	fe843783          	ld	a5,-24(s0)
    502063ee:	fe043603          	ld	a2,-32(s0)
    502063f2:	fdc46683          	lwu	a3,-36(s0)
    502063f6:	fdb44703          	lbu	a4,-37(s0)
    502063fa:	85be                	mv	a1,a5
    502063fc:	4501                	li	a0,0
    502063fe:	396000ef          	jal	ra,50206794 <invoke_syscall>
    50206402:	87aa                	mv	a5,a0
    50206404:	2781                	sext.w	a5,a5
    50206406:	853e                	mv	a0,a5
    50206408:	70a2                	ld	ra,40(sp)
    5020640a:	7402                	ld	s0,32(sp)
    5020640c:	6145                	addi	sp,sp,48
    5020640e:	8082                	ret

0000000050206410 <sys_getpid>:
    50206410:	1141                	addi	sp,sp,-16
    50206412:	e406                	sd	ra,8(sp)
    50206414:	e022                	sd	s0,0(sp)
    50206416:	0800                	addi	s0,sp,16
    50206418:	4701                	li	a4,0
    5020641a:	4681                	li	a3,0
    5020641c:	4601                	li	a2,0
    5020641e:	4581                	li	a1,0
    50206420:	4519                	li	a0,6
    50206422:	372000ef          	jal	ra,50206794 <invoke_syscall>
    50206426:	87aa                	mv	a5,a0
    50206428:	2781                	sext.w	a5,a5
    5020642a:	853e                	mv	a0,a5
    5020642c:	60a2                	ld	ra,8(sp)
    5020642e:	6402                	ld	s0,0(sp)
    50206430:	0141                	addi	sp,sp,16
    50206432:	8082                	ret

0000000050206434 <sys_clear>:
    50206434:	1141                	addi	sp,sp,-16
    50206436:	e406                	sd	ra,8(sp)
    50206438:	e022                	sd	s0,0(sp)
    5020643a:	0800                	addi	s0,sp,16
    5020643c:	4701                	li	a4,0
    5020643e:	4681                	li	a3,0
    50206440:	4601                	li	a2,0
    50206442:	4581                	li	a1,0
    50206444:	456d                	li	a0,27
    50206446:	34e000ef          	jal	ra,50206794 <invoke_syscall>
    5020644a:	0001                	nop
    5020644c:	60a2                	ld	ra,8(sp)
    5020644e:	6402                	ld	s0,0(sp)
    50206450:	0141                	addi	sp,sp,16
    50206452:	8082                	ret

0000000050206454 <sys_ps>:
    50206454:	1141                	addi	sp,sp,-16
    50206456:	e406                	sd	ra,8(sp)
    50206458:	e022                	sd	s0,0(sp)
    5020645a:	0800                	addi	s0,sp,16
    5020645c:	4701                	li	a4,0
    5020645e:	4681                	li	a3,0
    50206460:	4601                	li	a2,0
    50206462:	4581                	li	a1,0
    50206464:	4515                	li	a0,5
    50206466:	32e000ef          	jal	ra,50206794 <invoke_syscall>
    5020646a:	0001                	nop
    5020646c:	60a2                	ld	ra,8(sp)
    5020646e:	6402                	ld	s0,0(sp)
    50206470:	0141                	addi	sp,sp,16
    50206472:	8082                	ret

0000000050206474 <sys_exit>:
    50206474:	1141                	addi	sp,sp,-16
    50206476:	e406                	sd	ra,8(sp)
    50206478:	e022                	sd	s0,0(sp)
    5020647a:	0800                	addi	s0,sp,16
    5020647c:	4701                	li	a4,0
    5020647e:	4681                	li	a3,0
    50206480:	4601                	li	a2,0
    50206482:	4581                	li	a1,0
    50206484:	4505                	li	a0,1
    50206486:	30e000ef          	jal	ra,50206794 <invoke_syscall>
    5020648a:	60a2                	ld	ra,8(sp)
    5020648c:	6402                	ld	s0,0(sp)
    5020648e:	0141                	addi	sp,sp,16
    50206490:	8082                	ret

0000000050206492 <sys_waitpid>:
    50206492:	1101                	addi	sp,sp,-32
    50206494:	ec06                	sd	ra,24(sp)
    50206496:	e822                	sd	s0,16(sp)
    50206498:	1000                	addi	s0,sp,32
    5020649a:	87aa                	mv	a5,a0
    5020649c:	fef42623          	sw	a5,-20(s0)
    502064a0:	fec42783          	lw	a5,-20(s0)
    502064a4:	4701                	li	a4,0
    502064a6:	4681                	li	a3,0
    502064a8:	4601                	li	a2,0
    502064aa:	85be                	mv	a1,a5
    502064ac:	4511                	li	a0,4
    502064ae:	2e6000ef          	jal	ra,50206794 <invoke_syscall>
    502064b2:	87aa                	mv	a5,a0
    502064b4:	2781                	sext.w	a5,a5
    502064b6:	853e                	mv	a0,a5
    502064b8:	60e2                	ld	ra,24(sp)
    502064ba:	6442                	ld	s0,16(sp)
    502064bc:	6105                	addi	sp,sp,32
    502064be:	8082                	ret

00000000502064c0 <sys_kill>:
    502064c0:	1101                	addi	sp,sp,-32
    502064c2:	ec06                	sd	ra,24(sp)
    502064c4:	e822                	sd	s0,16(sp)
    502064c6:	1000                	addi	s0,sp,32
    502064c8:	87aa                	mv	a5,a0
    502064ca:	fef42623          	sw	a5,-20(s0)
    502064ce:	fec42783          	lw	a5,-20(s0)
    502064d2:	4701                	li	a4,0
    502064d4:	4681                	li	a3,0
    502064d6:	4601                	li	a2,0
    502064d8:	85be                	mv	a1,a5
    502064da:	450d                	li	a0,3
    502064dc:	2b8000ef          	jal	ra,50206794 <invoke_syscall>
    502064e0:	87aa                	mv	a5,a0
    502064e2:	2781                	sext.w	a5,a5
    502064e4:	853e                	mv	a0,a5
    502064e6:	60e2                	ld	ra,24(sp)
    502064e8:	6442                	ld	s0,16(sp)
    502064ea:	6105                	addi	sp,sp,32
    502064ec:	8082                	ret

00000000502064ee <getchar>:
    502064ee:	1101                	addi	sp,sp,-32
    502064f0:	ec06                	sd	ra,24(sp)
    502064f2:	e822                	sd	s0,16(sp)
    502064f4:	1000                	addi	s0,sp,32
    502064f6:	4701                	li	a4,0
    502064f8:	4681                	li	a3,0
    502064fa:	4601                	li	a2,0
    502064fc:	4581                	li	a1,0
    502064fe:	4561                	li	a0,24
    50206500:	294000ef          	jal	ra,50206794 <invoke_syscall>
    50206504:	87aa                	mv	a5,a0
    50206506:	fef42623          	sw	a5,-20(s0)
    5020650a:	fec42783          	lw	a5,-20(s0)
    5020650e:	0007871b          	sext.w	a4,a5
    50206512:	57fd                	li	a5,-1
    50206514:	fef701e3          	beq	a4,a5,502064f6 <getchar+0x8>
    50206518:	fec42783          	lw	a5,-20(s0)
    5020651c:	853e                	mv	a0,a5
    5020651e:	60e2                	ld	ra,24(sp)
    50206520:	6442                	ld	s0,16(sp)
    50206522:	6105                	addi	sp,sp,32
    50206524:	8082                	ret

0000000050206526 <putchar>:
    50206526:	1101                	addi	sp,sp,-32
    50206528:	ec06                	sd	ra,24(sp)
    5020652a:	e822                	sd	s0,16(sp)
    5020652c:	1000                	addi	s0,sp,32
    5020652e:	87aa                	mv	a5,a0
    50206530:	fef42623          	sw	a5,-20(s0)
    50206534:	fec42783          	lw	a5,-20(s0)
    50206538:	4701                	li	a4,0
    5020653a:	4681                	li	a3,0
    5020653c:	4601                	li	a2,0
    5020653e:	85be                	mv	a1,a5
    50206540:	4565                	li	a0,25
    50206542:	252000ef          	jal	ra,50206794 <invoke_syscall>
    50206546:	0001                	nop
    50206548:	60e2                	ld	ra,24(sp)
    5020654a:	6442                	ld	s0,16(sp)
    5020654c:	6105                	addi	sp,sp,32
    5020654e:	8082                	ret

0000000050206550 <sys_block>:
    50206550:	1101                	addi	sp,sp,-32
    50206552:	ec06                	sd	ra,24(sp)
    50206554:	e822                	sd	s0,16(sp)
    50206556:	1000                	addi	s0,sp,32
    50206558:	fea43423          	sd	a0,-24(s0)
    5020655c:	feb43023          	sd	a1,-32(s0)
    50206560:	fe843783          	ld	a5,-24(s0)
    50206564:	fe043603          	ld	a2,-32(s0)
    50206568:	4701                	li	a4,0
    5020656a:	4681                	li	a3,0
    5020656c:	85be                	mv	a1,a5
    5020656e:	453d                	li	a0,15
    50206570:	224000ef          	jal	ra,50206794 <invoke_syscall>
    50206574:	0001                	nop
    50206576:	60e2                	ld	ra,24(sp)
    50206578:	6442                	ld	s0,16(sp)
    5020657a:	6105                	addi	sp,sp,32
    5020657c:	8082                	ret

000000005020657e <sys_unblock>:
    5020657e:	1101                	addi	sp,sp,-32
    50206580:	ec06                	sd	ra,24(sp)
    50206582:	e822                	sd	s0,16(sp)
    50206584:	1000                	addi	s0,sp,32
    50206586:	fea43423          	sd	a0,-24(s0)
    5020658a:	fe843783          	ld	a5,-24(s0)
    5020658e:	4701                	li	a4,0
    50206590:	4681                	li	a3,0
    50206592:	4601                	li	a2,0
    50206594:	85be                	mv	a1,a5
    50206596:	4541                	li	a0,16
    50206598:	1fc000ef          	jal	ra,50206794 <invoke_syscall>
    5020659c:	0001                	nop
    5020659e:	60e2                	ld	ra,24(sp)
    502065a0:	6442                	ld	s0,16(sp)
    502065a2:	6105                	addi	sp,sp,32
    502065a4:	8082                	ret

00000000502065a6 <sem_signal>:
    502065a6:	1101                	addi	sp,sp,-32
    502065a8:	ec06                	sd	ra,24(sp)
    502065aa:	e822                	sd	s0,16(sp)
    502065ac:	1000                	addi	s0,sp,32
    502065ae:	87aa                	mv	a5,a0
    502065b0:	fef42623          	sw	a5,-20(s0)
    502065b4:	fec42783          	lw	a5,-20(s0)
    502065b8:	4701                	li	a4,0
    502065ba:	4681                	li	a3,0
    502065bc:	4601                	li	a2,0
    502065be:	85be                	mv	a1,a5
    502065c0:	02900513          	li	a0,41
    502065c4:	1d0000ef          	jal	ra,50206794 <invoke_syscall>
    502065c8:	0001                	nop
    502065ca:	60e2                	ld	ra,24(sp)
    502065cc:	6442                	ld	s0,16(sp)
    502065ce:	6105                	addi	sp,sp,32
    502065d0:	8082                	ret

00000000502065d2 <sem_wait>:
    502065d2:	1101                	addi	sp,sp,-32
    502065d4:	ec06                	sd	ra,24(sp)
    502065d6:	e822                	sd	s0,16(sp)
    502065d8:	1000                	addi	s0,sp,32
    502065da:	87aa                	mv	a5,a0
    502065dc:	872e                	mv	a4,a1
    502065de:	fef42623          	sw	a5,-20(s0)
    502065e2:	87ba                	mv	a5,a4
    502065e4:	fef42423          	sw	a5,-24(s0)
    502065e8:	fec42783          	lw	a5,-20(s0)
    502065ec:	fe842603          	lw	a2,-24(s0)
    502065f0:	4701                	li	a4,0
    502065f2:	4681                	li	a3,0
    502065f4:	85be                	mv	a1,a5
    502065f6:	02800513          	li	a0,40
    502065fa:	19a000ef          	jal	ra,50206794 <invoke_syscall>
    502065fe:	0001                	nop
    50206600:	60e2                	ld	ra,24(sp)
    50206602:	6442                	ld	s0,16(sp)
    50206604:	6105                	addi	sp,sp,32
    50206606:	8082                	ret

0000000050206608 <sem_broadcast>:
    50206608:	1101                	addi	sp,sp,-32
    5020660a:	ec06                	sd	ra,24(sp)
    5020660c:	e822                	sd	s0,16(sp)
    5020660e:	1000                	addi	s0,sp,32
    50206610:	87aa                	mv	a5,a0
    50206612:	fef42623          	sw	a5,-20(s0)
    50206616:	fec42783          	lw	a5,-20(s0)
    5020661a:	4701                	li	a4,0
    5020661c:	4681                	li	a3,0
    5020661e:	4601                	li	a2,0
    50206620:	85be                	mv	a1,a5
    50206622:	02a00513          	li	a0,42
    50206626:	16e000ef          	jal	ra,50206794 <invoke_syscall>
    5020662a:	0001                	nop
    5020662c:	60e2                	ld	ra,24(sp)
    5020662e:	6442                	ld	s0,16(sp)
    50206630:	6105                	addi	sp,sp,32
    50206632:	8082                	ret

0000000050206634 <barrier_wait>:
    50206634:	1101                	addi	sp,sp,-32
    50206636:	ec06                	sd	ra,24(sp)
    50206638:	e822                	sd	s0,16(sp)
    5020663a:	1000                	addi	s0,sp,32
    5020663c:	87aa                	mv	a5,a0
    5020663e:	872e                	mv	a4,a1
    50206640:	fef42623          	sw	a5,-20(s0)
    50206644:	87ba                	mv	a5,a4
    50206646:	fef42423          	sw	a5,-24(s0)
    5020664a:	fec42783          	lw	a5,-20(s0)
    5020664e:	fe842603          	lw	a2,-24(s0)
    50206652:	4701                	li	a4,0
    50206654:	4681                	li	a3,0
    50206656:	85be                	mv	a1,a5
    50206658:	02b00513          	li	a0,43
    5020665c:	138000ef          	jal	ra,50206794 <invoke_syscall>
    50206660:	0001                	nop
    50206662:	60e2                	ld	ra,24(sp)
    50206664:	6442                	ld	s0,16(sp)
    50206666:	6105                	addi	sp,sp,32
    50206668:	8082                	ret

000000005020666a <sys_mbox_open>:
    5020666a:	1101                	addi	sp,sp,-32
    5020666c:	ec06                	sd	ra,24(sp)
    5020666e:	e822                	sd	s0,16(sp)
    50206670:	1000                	addi	s0,sp,32
    50206672:	fea43423          	sd	a0,-24(s0)
    50206676:	fe843783          	ld	a5,-24(s0)
    5020667a:	4701                	li	a4,0
    5020667c:	4681                	li	a3,0
    5020667e:	4601                	li	a2,0
    50206680:	85be                	mv	a1,a5
    50206682:	02c00513          	li	a0,44
    50206686:	10e000ef          	jal	ra,50206794 <invoke_syscall>
    5020668a:	87aa                	mv	a5,a0
    5020668c:	2781                	sext.w	a5,a5
    5020668e:	853e                	mv	a0,a5
    50206690:	60e2                	ld	ra,24(sp)
    50206692:	6442                	ld	s0,16(sp)
    50206694:	6105                	addi	sp,sp,32
    50206696:	8082                	ret

0000000050206698 <sys_mbox_close>:
    50206698:	1101                	addi	sp,sp,-32
    5020669a:	ec06                	sd	ra,24(sp)
    5020669c:	e822                	sd	s0,16(sp)
    5020669e:	1000                	addi	s0,sp,32
    502066a0:	87aa                	mv	a5,a0
    502066a2:	fef42623          	sw	a5,-20(s0)
    502066a6:	fec42783          	lw	a5,-20(s0)
    502066aa:	4701                	li	a4,0
    502066ac:	4681                	li	a3,0
    502066ae:	4601                	li	a2,0
    502066b0:	85be                	mv	a1,a5
    502066b2:	02d00513          	li	a0,45
    502066b6:	0de000ef          	jal	ra,50206794 <invoke_syscall>
    502066ba:	0001                	nop
    502066bc:	60e2                	ld	ra,24(sp)
    502066be:	6442                	ld	s0,16(sp)
    502066c0:	6105                	addi	sp,sp,32
    502066c2:	8082                	ret

00000000502066c4 <sys_mbox_send>:
    502066c4:	1101                	addi	sp,sp,-32
    502066c6:	ec06                	sd	ra,24(sp)
    502066c8:	e822                	sd	s0,16(sp)
    502066ca:	1000                	addi	s0,sp,32
    502066cc:	87aa                	mv	a5,a0
    502066ce:	feb43023          	sd	a1,-32(s0)
    502066d2:	8732                	mv	a4,a2
    502066d4:	fef42623          	sw	a5,-20(s0)
    502066d8:	87ba                	mv	a5,a4
    502066da:	fef42423          	sw	a5,-24(s0)
    502066de:	fec42783          	lw	a5,-20(s0)
    502066e2:	fe043603          	ld	a2,-32(s0)
    502066e6:	fe842683          	lw	a3,-24(s0)
    502066ea:	4701                	li	a4,0
    502066ec:	85be                	mv	a1,a5
    502066ee:	02e00513          	li	a0,46
    502066f2:	0a2000ef          	jal	ra,50206794 <invoke_syscall>
    502066f6:	0001                	nop
    502066f8:	60e2                	ld	ra,24(sp)
    502066fa:	6442                	ld	s0,16(sp)
    502066fc:	6105                	addi	sp,sp,32
    502066fe:	8082                	ret

0000000050206700 <sys_mbox_recv>:
    50206700:	1101                	addi	sp,sp,-32
    50206702:	ec06                	sd	ra,24(sp)
    50206704:	e822                	sd	s0,16(sp)
    50206706:	1000                	addi	s0,sp,32
    50206708:	87aa                	mv	a5,a0
    5020670a:	feb43023          	sd	a1,-32(s0)
    5020670e:	8732                	mv	a4,a2
    50206710:	fef42623          	sw	a5,-20(s0)
    50206714:	87ba                	mv	a5,a4
    50206716:	fef42423          	sw	a5,-24(s0)
    5020671a:	fec42783          	lw	a5,-20(s0)
    5020671e:	fe043603          	ld	a2,-32(s0)
    50206722:	fe842683          	lw	a3,-24(s0)
    50206726:	4701                	li	a4,0
    50206728:	85be                	mv	a1,a5
    5020672a:	02f00513          	li	a0,47
    5020672e:	066000ef          	jal	ra,50206794 <invoke_syscall>
    50206732:	0001                	nop
    50206734:	60e2                	ld	ra,24(sp)
    50206736:	6442                	ld	s0,16(sp)
    50206738:	6105                	addi	sp,sp,32
    5020673a:	8082                	ret

000000005020673c <sys_scroll>:
    5020673c:	1141                	addi	sp,sp,-16
    5020673e:	e406                	sd	ra,8(sp)
    50206740:	e022                	sd	s0,0(sp)
    50206742:	0800                	addi	s0,sp,16
    50206744:	4701                	li	a4,0
    50206746:	4681                	li	a3,0
    50206748:	4601                	li	a2,0
    5020674a:	4581                	li	a1,0
    5020674c:	03000513          	li	a0,48
    50206750:	044000ef          	jal	ra,50206794 <invoke_syscall>
    50206754:	0001                	nop
    50206756:	60a2                	ld	ra,8(sp)
    50206758:	6402                	ld	s0,0(sp)
    5020675a:	0141                	addi	sp,sp,16
    5020675c:	8082                	ret

000000005020675e <sys_taskset>:
    5020675e:	1101                	addi	sp,sp,-32
    50206760:	ec06                	sd	ra,24(sp)
    50206762:	e822                	sd	s0,16(sp)
    50206764:	1000                	addi	s0,sp,32
    50206766:	87aa                	mv	a5,a0
    50206768:	872e                	mv	a4,a1
    5020676a:	fef407a3          	sb	a5,-17(s0)
    5020676e:	87ba                	mv	a5,a4
    50206770:	fef42423          	sw	a5,-24(s0)
    50206774:	fef44783          	lbu	a5,-17(s0)
    50206778:	fe842603          	lw	a2,-24(s0)
    5020677c:	4701                	li	a4,0
    5020677e:	4681                	li	a3,0
    50206780:	85be                	mv	a1,a5
    50206782:	03100513          	li	a0,49
    50206786:	00e000ef          	jal	ra,50206794 <invoke_syscall>
    5020678a:	0001                	nop
    5020678c:	60e2                	ld	ra,24(sp)
    5020678e:	6442                	ld	s0,16(sp)
    50206790:	6105                	addi	sp,sp,32
    50206792:	8082                	ret

0000000050206794 <invoke_syscall>:
    50206794:	88aa                	mv	a7,a0
    50206796:	852e                	mv	a0,a1
    50206798:	85b2                	mv	a1,a2
    5020679a:	8636                	mv	a2,a3
    5020679c:	86ba                	mv	a3,a4
    5020679e:	00000073          	ecall
    502067a2:	8082                	ret
	...

00000000502067a6 <clock>:
    502067a6:	1141                	addi	sp,sp,-16
    502067a8:	e406                	sd	ra,8(sp)
    502067aa:	e022                	sd	s0,0(sp)
    502067ac:	0800                	addi	s0,sp,16
    502067ae:	bfdff0ef          	jal	ra,502063aa <sys_get_tick>
    502067b2:	87aa                	mv	a5,a0
    502067b4:	853e                	mv	a0,a5
    502067b6:	60a2                	ld	ra,8(sp)
    502067b8:	6402                	ld	s0,0(sp)
    502067ba:	0141                	addi	sp,sp,16
    502067bc:	8082                	ret

00000000502067be <shell_help>:
    502067be:	1101                	addi	sp,sp,-32
    502067c0:	ec06                	sd	ra,24(sp)
    502067c2:	e822                	sd	s0,16(sp)
    502067c4:	1000                	addi	s0,sp,32
    502067c6:	00002517          	auipc	a0,0x2
    502067ca:	ff250513          	addi	a0,a0,-14 # 502087b8 <__FUNCTION__.1480+0x360>
    502067ce:	b52ff0ef          	jal	ra,50205b20 <printf>
    502067d2:	4785                	li	a5,1
    502067d4:	fef42623          	sw	a5,-20(s0)
    502067d8:	a08d                	j	5020683a <shell_help+0x7c>
    502067da:	00003697          	auipc	a3,0x3
    502067de:	c5668693          	addi	a3,a3,-938 # 50209430 <cmd_table>
    502067e2:	fec42703          	lw	a4,-20(s0)
    502067e6:	87ba                	mv	a5,a4
    502067e8:	078a                	slli	a5,a5,0x2
    502067ea:	97ba                	add	a5,a5,a4
    502067ec:	078e                	slli	a5,a5,0x3
    502067ee:	97b6                	add	a5,a5,a3
    502067f0:	638c                	ld	a1,0(a5)
    502067f2:	00003697          	auipc	a3,0x3
    502067f6:	c3e68693          	addi	a3,a3,-962 # 50209430 <cmd_table>
    502067fa:	fec42703          	lw	a4,-20(s0)
    502067fe:	87ba                	mv	a5,a4
    50206800:	078a                	slli	a5,a5,0x2
    50206802:	97ba                	add	a5,a5,a4
    50206804:	078e                	slli	a5,a5,0x3
    50206806:	97b6                	add	a5,a5,a3
    50206808:	6b90                	ld	a2,16(a5)
    5020680a:	00003697          	auipc	a3,0x3
    5020680e:	c2668693          	addi	a3,a3,-986 # 50209430 <cmd_table>
    50206812:	fec42703          	lw	a4,-20(s0)
    50206816:	87ba                	mv	a5,a4
    50206818:	078a                	slli	a5,a5,0x2
    5020681a:	97ba                	add	a5,a5,a4
    5020681c:	078e                	slli	a5,a5,0x3
    5020681e:	97b6                	add	a5,a5,a3
    50206820:	679c                	ld	a5,8(a5)
    50206822:	86be                	mv	a3,a5
    50206824:	00002517          	auipc	a0,0x2
    50206828:	fdc50513          	addi	a0,a0,-36 # 50208800 <__FUNCTION__.1480+0x3a8>
    5020682c:	af4ff0ef          	jal	ra,50205b20 <printf>
    50206830:	fec42783          	lw	a5,-20(s0)
    50206834:	2785                	addiw	a5,a5,1
    50206836:	fef42623          	sw	a5,-20(s0)
    5020683a:	fec42783          	lw	a5,-20(s0)
    5020683e:	0007871b          	sext.w	a4,a5
    50206842:	4795                	li	a5,5
    50206844:	f8e7dbe3          	bge	a5,a4,502067da <shell_help+0x1c>
    50206848:	0001                	nop
    5020684a:	0001                	nop
    5020684c:	60e2                	ld	ra,24(sp)
    5020684e:	6442                	ld	s0,16(sp)
    50206850:	6105                	addi	sp,sp,32
    50206852:	8082                	ret

0000000050206854 <shell_exec>:
    50206854:	7179                	addi	sp,sp,-48
    50206856:	f406                	sd	ra,40(sp)
    50206858:	f022                	sd	s0,32(sp)
    5020685a:	1800                	addi	s0,sp,48
    5020685c:	fca43c23          	sd	a0,-40(s0)
    50206860:	fcb43823          	sd	a1,-48(s0)
    50206864:	fd843503          	ld	a0,-40(s0)
    50206868:	e14ff0ef          	jal	ra,50205e7c <atoi>
    5020686c:	87aa                	mv	a5,a0
    5020686e:	fef42623          	sw	a5,-20(s0)
    50206872:	fe842783          	lw	a5,-24(s0)
    50206876:	853e                	mv	a0,a5
    50206878:	e04ff0ef          	jal	ra,50205e7c <atoi>
    5020687c:	87aa                	mv	a5,a0
    5020687e:	fef42423          	sw	a5,-24(s0)
    50206882:	57fd                	li	a5,-1
    50206884:	fef42223          	sw	a5,-28(s0)
    50206888:	82c18793          	addi	a5,gp,-2004 # 5020957c <num_test_tasks>
    5020688c:	4398                	lw	a4,0(a5)
    5020688e:	fec42783          	lw	a5,-20(s0)
    50206892:	2781                	sext.w	a5,a5
    50206894:	00e7ca63          	blt	a5,a4,502068a8 <shell_exec+0x54>
    50206898:	00002517          	auipc	a0,0x2
    5020689c:	f7850513          	addi	a0,a0,-136 # 50208810 <__FUNCTION__.1480+0x3b8>
    502068a0:	a80ff0ef          	jal	ra,50205b20 <printf>
    502068a4:	0001                	nop
    502068a6:	a095                	j	5020690a <shell_exec+0xb6>
    502068a8:	fec42783          	lw	a5,-20(s0)
    502068ac:	85be                	mv	a1,a5
    502068ae:	00002517          	auipc	a0,0x2
    502068b2:	f7a50513          	addi	a0,a0,-134 # 50208828 <__FUNCTION__.1480+0x3d0>
    502068b6:	a6aff0ef          	jal	ra,50205b20 <printf>
    502068ba:	00003717          	auipc	a4,0x3
    502068be:	af670713          	addi	a4,a4,-1290 # 502093b0 <test_tasks>
    502068c2:	fec42783          	lw	a5,-20(s0)
    502068c6:	078e                	slli	a5,a5,0x3
    502068c8:	97ba                	add	a5,a5,a4
    502068ca:	639c                	ld	a5,0(a5)
    502068cc:	fe842703          	lw	a4,-24(s0)
    502068d0:	468d                	li	a3,3
    502068d2:	863a                	mv	a2,a4
    502068d4:	4581                	li	a1,0
    502068d6:	853e                	mv	a0,a5
    502068d8:	af5ff0ef          	jal	ra,502063cc <sys_spawn>
    502068dc:	87aa                	mv	a5,a0
    502068de:	fef42223          	sw	a5,-28(s0)
    502068e2:	fe442783          	lw	a5,-28(s0)
    502068e6:	2781                	sext.w	a5,a5
    502068e8:	cf99                	beqz	a5,50206906 <shell_exec+0xb2>
    502068ea:	fe842683          	lw	a3,-24(s0)
    502068ee:	fe442703          	lw	a4,-28(s0)
    502068f2:	fec42783          	lw	a5,-20(s0)
    502068f6:	863a                	mv	a2,a4
    502068f8:	85be                	mv	a1,a5
    502068fa:	00002517          	auipc	a0,0x2
    502068fe:	f3e50513          	addi	a0,a0,-194 # 50208838 <__FUNCTION__.1480+0x3e0>
    50206902:	a1eff0ef          	jal	ra,50205b20 <printf>
    50206906:	fe442783          	lw	a5,-28(s0)
    5020690a:	853e                	mv	a0,a5
    5020690c:	70a2                	ld	ra,40(sp)
    5020690e:	7402                	ld	s0,32(sp)
    50206910:	6145                	addi	sp,sp,48
    50206912:	8082                	ret

0000000050206914 <shell_taskset>:
    50206914:	7139                	addi	sp,sp,-64
    50206916:	fc06                	sd	ra,56(sp)
    50206918:	f822                	sd	s0,48(sp)
    5020691a:	0080                	addi	s0,sp,64
    5020691c:	fca43c23          	sd	a0,-40(s0)
    50206920:	fcb43823          	sd	a1,-48(s0)
    50206924:	fcc43423          	sd	a2,-56(s0)
    50206928:	fd843783          	ld	a5,-40(s0)
    5020692c:	0007c783          	lbu	a5,0(a5)
    50206930:	873e                	mv	a4,a5
    50206932:	02d00793          	li	a5,45
    50206936:	00f71c63          	bne	a4,a5,5020694e <shell_taskset+0x3a>
    5020693a:	fd843783          	ld	a5,-40(s0)
    5020693e:	0785                	addi	a5,a5,1
    50206940:	0007c783          	lbu	a5,0(a5)
    50206944:	873e                	mv	a4,a5
    50206946:	07000793          	li	a5,112
    5020694a:	0af70663          	beq	a4,a5,502069f6 <shell_taskset+0xe2>
    5020694e:	fd843503          	ld	a0,-40(s0)
    50206952:	d2aff0ef          	jal	ra,50205e7c <atoi>
    50206956:	87aa                	mv	a5,a0
    50206958:	fef406a3          	sb	a5,-19(s0)
    5020695c:	fd043503          	ld	a0,-48(s0)
    50206960:	d1cff0ef          	jal	ra,50205e7c <atoi>
    50206964:	87aa                	mv	a5,a0
    50206966:	fef40623          	sb	a5,-20(s0)
    5020696a:	fed44783          	lbu	a5,-19(s0)
    5020696e:	0ff7f713          	andi	a4,a5,255
    50206972:	4785                	li	a5,1
    50206974:	02f70763          	beq	a4,a5,502069a2 <shell_taskset+0x8e>
    50206978:	fed44783          	lbu	a5,-19(s0)
    5020697c:	0ff7f713          	andi	a4,a5,255
    50206980:	4789                	li	a5,2
    50206982:	02f70063          	beq	a4,a5,502069a2 <shell_taskset+0x8e>
    50206986:	fed44783          	lbu	a5,-19(s0)
    5020698a:	0ff7f713          	andi	a4,a5,255
    5020698e:	478d                	li	a5,3
    50206990:	00f70963          	beq	a4,a5,502069a2 <shell_taskset+0x8e>
    50206994:	00002517          	auipc	a0,0x2
    50206998:	edc50513          	addi	a0,a0,-292 # 50208870 <__FUNCTION__.1480+0x418>
    5020699c:	984ff0ef          	jal	ra,50205b20 <printf>
    502069a0:	a069                	j	50206a2a <shell_taskset+0x116>
    502069a2:	fec44783          	lbu	a5,-20(s0)
    502069a6:	2781                	sext.w	a5,a5
    502069a8:	00003717          	auipc	a4,0x3
    502069ac:	a0870713          	addi	a4,a4,-1528 # 502093b0 <test_tasks>
    502069b0:	078e                	slli	a5,a5,0x3
    502069b2:	97ba                	add	a5,a5,a4
    502069b4:	639c                	ld	a5,0(a5)
    502069b6:	fed44703          	lbu	a4,-19(s0)
    502069ba:	86ba                	mv	a3,a4
    502069bc:	4601                	li	a2,0
    502069be:	4581                	li	a1,0
    502069c0:	853e                	mv	a0,a5
    502069c2:	a0bff0ef          	jal	ra,502063cc <sys_spawn>
    502069c6:	87aa                	mv	a5,a0
    502069c8:	fef42423          	sw	a5,-24(s0)
    502069cc:	fe842783          	lw	a5,-24(s0)
    502069d0:	2781                	sext.w	a5,a5
    502069d2:	cbb9                	beqz	a5,50206a28 <shell_taskset+0x114>
    502069d4:	fec44783          	lbu	a5,-20(s0)
    502069d8:	2781                	sext.w	a5,a5
    502069da:	fed44703          	lbu	a4,-19(s0)
    502069de:	2701                	sext.w	a4,a4
    502069e0:	fe842603          	lw	a2,-24(s0)
    502069e4:	4681                	li	a3,0
    502069e6:	85be                	mv	a1,a5
    502069e8:	00002517          	auipc	a0,0x2
    502069ec:	eb050513          	addi	a0,a0,-336 # 50208898 <__FUNCTION__.1480+0x440>
    502069f0:	930ff0ef          	jal	ra,50205b20 <printf>
    502069f4:	a815                	j	50206a28 <shell_taskset+0x114>
    502069f6:	fd043503          	ld	a0,-48(s0)
    502069fa:	c82ff0ef          	jal	ra,50205e7c <atoi>
    502069fe:	87aa                	mv	a5,a0
    50206a00:	fef407a3          	sb	a5,-17(s0)
    50206a04:	fc843503          	ld	a0,-56(s0)
    50206a08:	c74ff0ef          	jal	ra,50205e7c <atoi>
    50206a0c:	87aa                	mv	a5,a0
    50206a0e:	fef40723          	sb	a5,-18(s0)
    50206a12:	fef44783          	lbu	a5,-17(s0)
    50206a16:	2781                	sext.w	a5,a5
    50206a18:	fee44703          	lbu	a4,-18(s0)
    50206a1c:	2701                	sext.w	a4,a4
    50206a1e:	85ba                	mv	a1,a4
    50206a20:	853e                	mv	a0,a5
    50206a22:	d3dff0ef          	jal	ra,5020675e <sys_taskset>
    50206a26:	a011                	j	50206a2a <shell_taskset+0x116>
    50206a28:	0001                	nop
    50206a2a:	70e2                	ld	ra,56(sp)
    50206a2c:	7442                	ld	s0,48(sp)
    50206a2e:	6121                	addi	sp,sp,64
    50206a30:	8082                	ret

0000000050206a32 <shell_kill>:
    50206a32:	7179                	addi	sp,sp,-48
    50206a34:	f406                	sd	ra,40(sp)
    50206a36:	f022                	sd	s0,32(sp)
    50206a38:	1800                	addi	s0,sp,48
    50206a3a:	fca43c23          	sd	a0,-40(s0)
    50206a3e:	fd843503          	ld	a0,-40(s0)
    50206a42:	c3aff0ef          	jal	ra,50205e7c <atoi>
    50206a46:	87aa                	mv	a5,a0
    50206a48:	fef42623          	sw	a5,-20(s0)
    50206a4c:	fec42783          	lw	a5,-20(s0)
    50206a50:	853e                	mv	a0,a5
    50206a52:	a6fff0ef          	jal	ra,502064c0 <sys_kill>
    50206a56:	87aa                	mv	a5,a0
    50206a58:	cb99                	beqz	a5,50206a6e <shell_kill+0x3c>
    50206a5a:	fec42783          	lw	a5,-20(s0)
    50206a5e:	85be                	mv	a1,a5
    50206a60:	00002517          	auipc	a0,0x2
    50206a64:	e8050513          	addi	a0,a0,-384 # 502088e0 <__FUNCTION__.1480+0x488>
    50206a68:	8b8ff0ef          	jal	ra,50205b20 <printf>
    50206a6c:	a811                	j	50206a80 <shell_kill+0x4e>
    50206a6e:	fec42783          	lw	a5,-20(s0)
    50206a72:	85be                	mv	a1,a5
    50206a74:	00002517          	auipc	a0,0x2
    50206a78:	e9450513          	addi	a0,a0,-364 # 50208908 <__FUNCTION__.1480+0x4b0>
    50206a7c:	8a4ff0ef          	jal	ra,50205b20 <printf>
    50206a80:	0001                	nop
    50206a82:	70a2                	ld	ra,40(sp)
    50206a84:	7402                	ld	s0,32(sp)
    50206a86:	6145                	addi	sp,sp,48
    50206a88:	8082                	ret

0000000050206a8a <shell_exit>:
    50206a8a:	1141                	addi	sp,sp,-16
    50206a8c:	e422                	sd	s0,8(sp)
    50206a8e:	0800                	addi	s0,sp,16
    50206a90:	0001                	nop
    50206a92:	6422                	ld	s0,8(sp)
    50206a94:	0141                	addi	sp,sp,16
    50206a96:	8082                	ret

0000000050206a98 <shell_ps>:
    50206a98:	1141                	addi	sp,sp,-16
    50206a9a:	e406                	sd	ra,8(sp)
    50206a9c:	e022                	sd	s0,0(sp)
    50206a9e:	0800                	addi	s0,sp,16
    50206aa0:	9b5ff0ef          	jal	ra,50206454 <sys_ps>
    50206aa4:	0001                	nop
    50206aa6:	60a2                	ld	ra,8(sp)
    50206aa8:	6402                	ld	s0,0(sp)
    50206aaa:	0141                	addi	sp,sp,16
    50206aac:	8082                	ret

0000000050206aae <shell_clear>:
    50206aae:	1141                	addi	sp,sp,-16
    50206ab0:	e406                	sd	ra,8(sp)
    50206ab2:	e022                	sd	s0,0(sp)
    50206ab4:	0800                	addi	s0,sp,16
    50206ab6:	00007797          	auipc	a5,0x7
    50206aba:	02678793          	addi	a5,a5,38 # 5020dadc <curr_linenum>
    50206abe:	0007a023          	sw	zero,0(a5)
    50206ac2:	973ff0ef          	jal	ra,50206434 <sys_clear>
    50206ac6:	45bd                	li	a1,15
    50206ac8:	4505                	li	a0,1
    50206aca:	825ff0ef          	jal	ra,502062ee <sys_move_cursor>
    50206ace:	00002517          	auipc	a0,0x2
    50206ad2:	e6250513          	addi	a0,a0,-414 # 50208930 <__FUNCTION__.1480+0x4d8>
    50206ad6:	84aff0ef          	jal	ra,50205b20 <printf>
    50206ada:	0001                	nop
    50206adc:	60a2                	ld	ra,8(sp)
    50206ade:	6402                	ld	s0,0(sp)
    50206ae0:	0141                	addi	sp,sp,16
    50206ae2:	8082                	ret

0000000050206ae4 <man_match>:
    50206ae4:	7179                	addi	sp,sp,-48
    50206ae6:	f406                	sd	ra,40(sp)
    50206ae8:	f022                	sd	s0,32(sp)
    50206aea:	1800                	addi	s0,sp,48
    50206aec:	fca43c23          	sd	a0,-40(s0)
    50206af0:	87ae                	mv	a5,a1
    50206af2:	fcf42a23          	sw	a5,-44(s0)
    50206af6:	fe042623          	sw	zero,-20(s0)
    50206afa:	a825                	j	50206b32 <man_match+0x4e>
    50206afc:	00003697          	auipc	a3,0x3
    50206b00:	93468693          	addi	a3,a3,-1740 # 50209430 <cmd_table>
    50206b04:	fec42703          	lw	a4,-20(s0)
    50206b08:	87ba                	mv	a5,a4
    50206b0a:	078a                	slli	a5,a5,0x2
    50206b0c:	97ba                	add	a5,a5,a4
    50206b0e:	078e                	slli	a5,a5,0x3
    50206b10:	97b6                	add	a5,a5,a3
    50206b12:	639c                	ld	a5,0(a5)
    50206b14:	85be                	mv	a1,a5
    50206b16:	fd843503          	ld	a0,-40(s0)
    50206b1a:	962ff0ef          	jal	ra,50205c7c <strcmp>
    50206b1e:	87aa                	mv	a5,a0
    50206b20:	e781                	bnez	a5,50206b28 <man_match+0x44>
    50206b22:	fec42783          	lw	a5,-20(s0)
    50206b26:	a831                	j	50206b42 <man_match+0x5e>
    50206b28:	fec42783          	lw	a5,-20(s0)
    50206b2c:	2785                	addiw	a5,a5,1
    50206b2e:	fef42623          	sw	a5,-20(s0)
    50206b32:	fec42783          	lw	a5,-20(s0)
    50206b36:	0007871b          	sext.w	a4,a5
    50206b3a:	4795                	li	a5,5
    50206b3c:	fce7d0e3          	bge	a5,a4,50206afc <man_match+0x18>
    50206b40:	57fd                	li	a5,-1
    50206b42:	853e                	mv	a0,a5
    50206b44:	70a2                	ld	ra,40(sp)
    50206b46:	7402                	ld	s0,32(sp)
    50206b48:	6145                	addi	sp,sp,48
    50206b4a:	8082                	ret

0000000050206b4c <test_shell>:
    50206b4c:	7135                	addi	sp,sp,-160
    50206b4e:	ed06                	sd	ra,152(sp)
    50206b50:	e922                	sd	s0,144(sp)
    50206b52:	1100                	addi	s0,sp,160
    50206b54:	8e1ff0ef          	jal	ra,50206434 <sys_clear>
    50206b58:	45bd                	li	a1,15
    50206b5a:	4505                	li	a0,1
    50206b5c:	f92ff0ef          	jal	ra,502062ee <sys_move_cursor>
    50206b60:	00002517          	auipc	a0,0x2
    50206b64:	dd050513          	addi	a0,a0,-560 # 50208930 <__FUNCTION__.1480+0x4d8>
    50206b68:	fb9fe0ef          	jal	ra,50205b20 <printf>
    50206b6c:	00002517          	auipc	a0,0x2
    50206b70:	e0c50513          	addi	a0,a0,-500 # 50208978 <__FUNCTION__.1480+0x520>
    50206b74:	fadfe0ef          	jal	ra,50205b20 <printf>
    50206b78:	f56ff0ef          	jal	ra,502062ce <sys_reflush>
    50206b7c:	fc042e23          	sw	zero,-36(s0)
    50206b80:	fe042423          	sw	zero,-24(s0)
    50206b84:	fe042423          	sw	zero,-24(s0)
    50206b88:	fc043423          	sd	zero,-56(s0)
    50206b8c:	fc041823          	sh	zero,-48(s0)
    50206b90:	f6043023          	sd	zero,-160(s0)
    50206b94:	f6043423          	sd	zero,-152(s0)
    50206b98:	f6043823          	sd	zero,-144(s0)
    50206b9c:	f6043c23          	sd	zero,-136(s0)
    50206ba0:	f8043023          	sd	zero,-128(s0)
    50206ba4:	f8043423          	sd	zero,-120(s0)
    50206ba8:	f8043823          	sd	zero,-112(s0)
    50206bac:	f8043c23          	sd	zero,-104(s0)
    50206bb0:	fa043023          	sd	zero,-96(s0)
    50206bb4:	fa043423          	sd	zero,-88(s0)
    50206bb8:	fa043823          	sd	zero,-80(s0)
    50206bbc:	fa043c23          	sd	zero,-72(s0)
    50206bc0:	fc042023          	sw	zero,-64(s0)
    50206bc4:	92bff0ef          	jal	ra,502064ee <getchar>
    50206bc8:	87aa                	mv	a5,a0
    50206bca:	fcf42e23          	sw	a5,-36(s0)
    50206bce:	fdc42783          	lw	a5,-36(s0)
    50206bd2:	0007871b          	sext.w	a4,a5
    50206bd6:	47b5                	li	a5,13
    50206bd8:	02f71563          	bne	a4,a5,50206c02 <test_shell+0xb6>
    50206bdc:	00002517          	auipc	a0,0x2
    50206be0:	db450513          	addi	a0,a0,-588 # 50208990 <__FUNCTION__.1480+0x538>
    50206be4:	f3dfe0ef          	jal	ra,50205b20 <printf>
    50206be8:	0001                	nop
    50206bea:	fe842783          	lw	a5,-24(s0)
    50206bee:	ff040713          	addi	a4,s0,-16
    50206bf2:	97ba                	add	a5,a5,a4
    50206bf4:	fc078c23          	sb	zero,-40(a5)
    50206bf8:	fe842783          	lw	a5,-24(s0)
    50206bfc:	2781                	sext.w	a5,a5
    50206bfe:	ebd1                	bnez	a5,50206c92 <test_shell+0x146>
    50206c00:	a041                	j	50206c80 <test_shell+0x134>
    50206c02:	fdc42783          	lw	a5,-36(s0)
    50206c06:	0007871b          	sext.w	a4,a5
    50206c0a:	47a1                	li	a5,8
    50206c0c:	00f70a63          	beq	a4,a5,50206c20 <test_shell+0xd4>
    50206c10:	fdc42783          	lw	a5,-36(s0)
    50206c14:	0007871b          	sext.w	a4,a5
    50206c18:	07f00793          	li	a5,127
    50206c1c:	02f71b63          	bne	a4,a5,50206c52 <test_shell+0x106>
    50206c20:	fe842783          	lw	a5,-24(s0)
    50206c24:	2781                	sext.w	a5,a5
    50206c26:	04f05c63          	blez	a5,50206c7e <test_shell+0x132>
    50206c2a:	fdc42783          	lw	a5,-36(s0)
    50206c2e:	853e                	mv	a0,a5
    50206c30:	8f7ff0ef          	jal	ra,50206526 <putchar>
    50206c34:	e9aff0ef          	jal	ra,502062ce <sys_reflush>
    50206c38:	fe842783          	lw	a5,-24(s0)
    50206c3c:	37fd                	addiw	a5,a5,-1
    50206c3e:	fef42423          	sw	a5,-24(s0)
    50206c42:	fe842783          	lw	a5,-24(s0)
    50206c46:	ff040713          	addi	a4,s0,-16
    50206c4a:	97ba                	add	a5,a5,a4
    50206c4c:	fc078c23          	sb	zero,-40(a5)
    50206c50:	a03d                	j	50206c7e <test_shell+0x132>
    50206c52:	fdc42783          	lw	a5,-36(s0)
    50206c56:	853e                	mv	a0,a5
    50206c58:	8cfff0ef          	jal	ra,50206526 <putchar>
    50206c5c:	e72ff0ef          	jal	ra,502062ce <sys_reflush>
    50206c60:	fe842783          	lw	a5,-24(s0)
    50206c64:	0017871b          	addiw	a4,a5,1
    50206c68:	fee42423          	sw	a4,-24(s0)
    50206c6c:	fdc42703          	lw	a4,-36(s0)
    50206c70:	0ff77713          	andi	a4,a4,255
    50206c74:	ff040693          	addi	a3,s0,-16
    50206c78:	97b6                	add	a5,a5,a3
    50206c7a:	fce78c23          	sb	a4,-40(a5)
    50206c7e:	b799                	j	50206bc4 <test_shell+0x78>
    50206c80:	00002517          	auipc	a0,0x2
    50206c84:	cf850513          	addi	a0,a0,-776 # 50208978 <__FUNCTION__.1480+0x520>
    50206c88:	e99fe0ef          	jal	ra,50205b20 <printf>
    50206c8c:	e42ff0ef          	jal	ra,502062ce <sys_reflush>
    50206c90:	aa85                	j	50206e00 <test_shell+0x2b4>
    50206c92:	fc840793          	addi	a5,s0,-56
    50206c96:	fef43023          	sd	a5,-32(s0)
    50206c9a:	fe042623          	sw	zero,-20(s0)
    50206c9e:	0001                	nop
    50206ca0:	fec42703          	lw	a4,-20(s0)
    50206ca4:	0017079b          	addiw	a5,a4,1
    50206ca8:	fef42623          	sw	a5,-20(s0)
    50206cac:	f6040693          	addi	a3,s0,-160
    50206cb0:	87ba                	mv	a5,a4
    50206cb2:	078a                	slli	a5,a5,0x2
    50206cb4:	97ba                	add	a5,a5,a4
    50206cb6:	0786                	slli	a5,a5,0x1
    50206cb8:	97b6                	add	a5,a5,a3
    50206cba:	02000613          	li	a2,32
    50206cbe:	fe043583          	ld	a1,-32(s0)
    50206cc2:	853e                	mv	a0,a5
    50206cc4:	908ff0ef          	jal	ra,50205dcc <strtok>
    50206cc8:	fea43023          	sd	a0,-32(s0)
    50206ccc:	fe043783          	ld	a5,-32(s0)
    50206cd0:	fbe1                	bnez	a5,50206ca0 <test_shell+0x154>
    50206cd2:	fec42703          	lw	a4,-20(s0)
    50206cd6:	f6040793          	addi	a5,s0,-160
    50206cda:	85ba                	mv	a1,a4
    50206cdc:	853e                	mv	a0,a5
    50206cde:	e07ff0ef          	jal	ra,50206ae4 <man_match>
    50206ce2:	87aa                	mv	a5,a0
    50206ce4:	fcf42c23          	sw	a5,-40(s0)
    50206ce8:	fd842783          	lw	a5,-40(s0)
    50206cec:	2781                	sext.w	a5,a5
    50206cee:	0207d463          	bgez	a5,50206d16 <test_shell+0x1ca>
    50206cf2:	f6040793          	addi	a5,s0,-160
    50206cf6:	85be                	mv	a1,a5
    50206cf8:	00002517          	auipc	a0,0x2
    50206cfc:	ca050513          	addi	a0,a0,-864 # 50208998 <__FUNCTION__.1480+0x540>
    50206d00:	e21fe0ef          	jal	ra,50205b20 <printf>
    50206d04:	00002517          	auipc	a0,0x2
    50206d08:	c7450513          	addi	a0,a0,-908 # 50208978 <__FUNCTION__.1480+0x520>
    50206d0c:	e15fe0ef          	jal	ra,50205b20 <printf>
    50206d10:	dbeff0ef          	jal	ra,502062ce <sys_reflush>
    50206d14:	a0f5                	j	50206e00 <test_shell+0x2b4>
    50206d16:	00002697          	auipc	a3,0x2
    50206d1a:	71a68693          	addi	a3,a3,1818 # 50209430 <cmd_table>
    50206d1e:	fd842703          	lw	a4,-40(s0)
    50206d22:	87ba                	mv	a5,a4
    50206d24:	078a                	slli	a5,a5,0x2
    50206d26:	97ba                	add	a5,a5,a4
    50206d28:	078e                	slli	a5,a5,0x3
    50206d2a:	97b6                	add	a5,a5,a3
    50206d2c:	5398                	lw	a4,32(a5)
    50206d2e:	fec42783          	lw	a5,-20(s0)
    50206d32:	2781                	sext.w	a5,a5
    50206d34:	08f74263          	blt	a4,a5,50206db8 <test_shell+0x26c>
    50206d38:	00002697          	auipc	a3,0x2
    50206d3c:	6f868693          	addi	a3,a3,1784 # 50209430 <cmd_table>
    50206d40:	fd842703          	lw	a4,-40(s0)
    50206d44:	87ba                	mv	a5,a4
    50206d46:	078a                	slli	a5,a5,0x2
    50206d48:	97ba                	add	a5,a5,a4
    50206d4a:	078e                	slli	a5,a5,0x3
    50206d4c:	97b6                	add	a5,a5,a3
    50206d4e:	6b9c                	ld	a5,16(a5)
    50206d50:	85be                	mv	a1,a5
    50206d52:	00002517          	auipc	a0,0x2
    50206d56:	c5e50513          	addi	a0,a0,-930 # 502089b0 <__FUNCTION__.1480+0x558>
    50206d5a:	dc7fe0ef          	jal	ra,50205b20 <printf>
    50206d5e:	fec42783          	lw	a5,-20(s0)
    50206d62:	37fd                	addiw	a5,a5,-1
    50206d64:	0007859b          	sext.w	a1,a5
    50206d68:	00002697          	auipc	a3,0x2
    50206d6c:	6c868693          	addi	a3,a3,1736 # 50209430 <cmd_table>
    50206d70:	fd842703          	lw	a4,-40(s0)
    50206d74:	87ba                	mv	a5,a4
    50206d76:	078a                	slli	a5,a5,0x2
    50206d78:	97ba                	add	a5,a5,a4
    50206d7a:	078e                	slli	a5,a5,0x3
    50206d7c:	97b6                	add	a5,a5,a3
    50206d7e:	6390                	ld	a2,0(a5)
    50206d80:	00002697          	auipc	a3,0x2
    50206d84:	6b068693          	addi	a3,a3,1712 # 50209430 <cmd_table>
    50206d88:	fd842703          	lw	a4,-40(s0)
    50206d8c:	87ba                	mv	a5,a4
    50206d8e:	078a                	slli	a5,a5,0x2
    50206d90:	97ba                	add	a5,a5,a4
    50206d92:	078e                	slli	a5,a5,0x3
    50206d94:	97b6                	add	a5,a5,a3
    50206d96:	539c                	lw	a5,32(a5)
    50206d98:	86be                	mv	a3,a5
    50206d9a:	00002517          	auipc	a0,0x2
    50206d9e:	c2650513          	addi	a0,a0,-986 # 502089c0 <__FUNCTION__.1480+0x568>
    50206da2:	d7ffe0ef          	jal	ra,50205b20 <printf>
    50206da6:	00002517          	auipc	a0,0x2
    50206daa:	bd250513          	addi	a0,a0,-1070 # 50208978 <__FUNCTION__.1480+0x520>
    50206dae:	d73fe0ef          	jal	ra,50205b20 <printf>
    50206db2:	d1cff0ef          	jal	ra,502062ce <sys_reflush>
    50206db6:	a0a9                	j	50206e00 <test_shell+0x2b4>
    50206db8:	00002697          	auipc	a3,0x2
    50206dbc:	67868693          	addi	a3,a3,1656 # 50209430 <cmd_table>
    50206dc0:	fd842703          	lw	a4,-40(s0)
    50206dc4:	87ba                	mv	a5,a4
    50206dc6:	078a                	slli	a5,a5,0x2
    50206dc8:	97ba                	add	a5,a5,a4
    50206dca:	078e                	slli	a5,a5,0x3
    50206dcc:	97b6                	add	a5,a5,a3
    50206dce:	0187b803          	ld	a6,24(a5)
    50206dd2:	f6040793          	addi	a5,s0,-160
    50206dd6:	01e78693          	addi	a3,a5,30
    50206dda:	f6040793          	addi	a5,s0,-160
    50206dde:	01478713          	addi	a4,a5,20
    50206de2:	f6040793          	addi	a5,s0,-160
    50206de6:	07a9                	addi	a5,a5,10
    50206de8:	8636                	mv	a2,a3
    50206dea:	85ba                	mv	a1,a4
    50206dec:	853e                	mv	a0,a5
    50206dee:	9802                	jalr	a6
    50206df0:	00002517          	auipc	a0,0x2
    50206df4:	b8850513          	addi	a0,a0,-1144 # 50208978 <__FUNCTION__.1480+0x520>
    50206df8:	d29fe0ef          	jal	ra,50205b20 <printf>
    50206dfc:	cd2ff0ef          	jal	ra,502062ce <sys_reflush>
    50206e00:	b351                	j	50206b84 <test_shell+0x38>

0000000050206e02 <waiting_task1>:
    50206e02:	1101                	addi	sp,sp,-32
    50206e04:	ec06                	sd	ra,24(sp)
    50206e06:	e822                	sd	s0,16(sp)
    50206e08:	1000                	addi	s0,sp,32
    50206e0a:	4785                	li	a5,1
    50206e0c:	fef42623          	sw	a5,-20(s0)
    50206e10:	fec42783          	lw	a5,-20(s0)
    50206e14:	85be                	mv	a1,a5
    50206e16:	4505                	li	a0,1
    50206e18:	cd6ff0ef          	jal	ra,502062ee <sys_move_cursor>
    50206e1c:	fec42783          	lw	a5,-20(s0)
    50206e20:	85be                	mv	a1,a5
    50206e22:	00002517          	auipc	a0,0x2
    50206e26:	bce50513          	addi	a0,a0,-1074 # 502089f0 <__FUNCTION__.1480+0x598>
    50206e2a:	cf7fe0ef          	jal	ra,50205b20 <printf>
    50206e2e:	450d                	li	a0,3
    50206e30:	e62ff0ef          	jal	ra,50206492 <sys_waitpid>
    50206e34:	fec42783          	lw	a5,-20(s0)
    50206e38:	85be                	mv	a1,a5
    50206e3a:	4505                	li	a0,1
    50206e3c:	cb2ff0ef          	jal	ra,502062ee <sys_move_cursor>
    50206e40:	00002517          	auipc	a0,0x2
    50206e44:	be050513          	addi	a0,a0,-1056 # 50208a20 <__FUNCTION__.1480+0x5c8>
    50206e48:	cd9fe0ef          	jal	ra,50205b20 <printf>
    50206e4c:	e28ff0ef          	jal	ra,50206474 <sys_exit>
    50206e50:	0001                	nop
    50206e52:	60e2                	ld	ra,24(sp)
    50206e54:	6442                	ld	s0,16(sp)
    50206e56:	6105                	addi	sp,sp,32
    50206e58:	8082                	ret

0000000050206e5a <waiting_task2>:
    50206e5a:	1101                	addi	sp,sp,-32
    50206e5c:	ec06                	sd	ra,24(sp)
    50206e5e:	e822                	sd	s0,16(sp)
    50206e60:	1000                	addi	s0,sp,32
    50206e62:	4789                	li	a5,2
    50206e64:	fef42623          	sw	a5,-20(s0)
    50206e68:	fec42783          	lw	a5,-20(s0)
    50206e6c:	85be                	mv	a1,a5
    50206e6e:	4505                	li	a0,1
    50206e70:	c7eff0ef          	jal	ra,502062ee <sys_move_cursor>
    50206e74:	fec42783          	lw	a5,-20(s0)
    50206e78:	85be                	mv	a1,a5
    50206e7a:	00002517          	auipc	a0,0x2
    50206e7e:	b7650513          	addi	a0,a0,-1162 # 502089f0 <__FUNCTION__.1480+0x598>
    50206e82:	c9ffe0ef          	jal	ra,50205b20 <printf>
    50206e86:	450d                	li	a0,3
    50206e88:	e0aff0ef          	jal	ra,50206492 <sys_waitpid>
    50206e8c:	fec42783          	lw	a5,-20(s0)
    50206e90:	85be                	mv	a1,a5
    50206e92:	4505                	li	a0,1
    50206e94:	c5aff0ef          	jal	ra,502062ee <sys_move_cursor>
    50206e98:	00002517          	auipc	a0,0x2
    50206e9c:	b8850513          	addi	a0,a0,-1144 # 50208a20 <__FUNCTION__.1480+0x5c8>
    50206ea0:	c81fe0ef          	jal	ra,50205b20 <printf>
    50206ea4:	dd0ff0ef          	jal	ra,50206474 <sys_exit>
    50206ea8:	0001                	nop
    50206eaa:	60e2                	ld	ra,24(sp)
    50206eac:	6442                	ld	s0,16(sp)
    50206eae:	6105                	addi	sp,sp,32
    50206eb0:	8082                	ret

0000000050206eb2 <waited_task>:
    50206eb2:	1101                	addi	sp,sp,-32
    50206eb4:	ec06                	sd	ra,24(sp)
    50206eb6:	e822                	sd	s0,16(sp)
    50206eb8:	1000                	addi	s0,sp,32
    50206eba:	478d                	li	a5,3
    50206ebc:	fef42623          	sw	a5,-20(s0)
    50206ec0:	fec42783          	lw	a5,-20(s0)
    50206ec4:	85be                	mv	a1,a5
    50206ec6:	4505                	li	a0,1
    50206ec8:	c26ff0ef          	jal	ra,502062ee <sys_move_cursor>
    50206ecc:	00002517          	auipc	a0,0x2
    50206ed0:	b9450513          	addi	a0,a0,-1132 # 50208a60 <__FUNCTION__.1480+0x608>
    50206ed4:	c4dfe0ef          	jal	ra,50205b20 <printf>
    50206ed8:	4515                	li	a0,5
    50206eda:	b82ff0ef          	jal	ra,5020625c <sys_sleep>
    50206ede:	d96ff0ef          	jal	ra,50206474 <sys_exit>
    50206ee2:	0001                	nop
    50206ee4:	60e2                	ld	ra,24(sp)
    50206ee6:	6442                	ld	s0,16(sp)
    50206ee8:	6105                	addi	sp,sp,32
    50206eea:	8082                	ret

0000000050206eec <semaphore_add_task1>:
    50206eec:	7139                	addi	sp,sp,-64
    50206eee:	fc06                	sd	ra,56(sp)
    50206ef0:	f822                	sd	s0,48(sp)
    50206ef2:	0080                	addi	s0,sp,64
    50206ef4:	4785                	li	a5,1
    50206ef6:	fef42423          	sw	a5,-24(s0)
    50206efa:	4585                	li	a1,1
    50206efc:	00004517          	auipc	a0,0x4
    50206f00:	5dc50513          	addi	a0,a0,1500 # 5020b4d8 <global_count>
    50206f04:	b02ff0ef          	jal	ra,50206206 <mthread_semaphore_init>
    50206f08:	00000797          	auipc	a5,0x0
    50206f0c:	0e278793          	addi	a5,a5,226 # 50206fea <semaphore_add_task2>
    50206f10:	fcf43c23          	sd	a5,-40(s0)
    50206f14:	4789                	li	a5,2
    50206f16:	fef42023          	sw	a5,-32(s0)
    50206f1a:	00000797          	auipc	a5,0x0
    50206f1e:	17078793          	addi	a5,a5,368 # 5020708a <semaphore_add_task3>
    50206f22:	fcf43423          	sd	a5,-56(s0)
    50206f26:	4789                	li	a5,2
    50206f28:	fcf42823          	sw	a5,-48(s0)
    50206f2c:	fd840793          	addi	a5,s0,-40
    50206f30:	468d                	li	a3,3
    50206f32:	4605                	li	a2,1
    50206f34:	4581                	li	a1,0
    50206f36:	853e                	mv	a0,a5
    50206f38:	c94ff0ef          	jal	ra,502063cc <sys_spawn>
    50206f3c:	fc840793          	addi	a5,s0,-56
    50206f40:	468d                	li	a3,3
    50206f42:	4605                	li	a2,1
    50206f44:	4581                	li	a1,0
    50206f46:	853e                	mv	a0,a5
    50206f48:	c84ff0ef          	jal	ra,502063cc <sys_spawn>
    50206f4c:	fe042623          	sw	zero,-20(s0)
    50206f50:	a88d                	j	50206fc2 <semaphore_add_task1+0xd6>
    50206f52:	00004517          	auipc	a0,0x4
    50206f56:	58650513          	addi	a0,a0,1414 # 5020b4d8 <global_count>
    50206f5a:	adaff0ef          	jal	ra,50206234 <mthread_semaphore_down>
    50206f5e:	00004797          	auipc	a5,0x4
    50206f62:	57a78793          	addi	a5,a5,1402 # 5020b4d8 <global_count>
    50206f66:	439c                	lw	a5,0(a5)
    50206f68:	2785                	addiw	a5,a5,1
    50206f6a:	0007871b          	sext.w	a4,a5
    50206f6e:	00004797          	auipc	a5,0x4
    50206f72:	56a78793          	addi	a5,a5,1386 # 5020b4d8 <global_count>
    50206f76:	c398                	sw	a4,0(a5)
    50206f78:	00004517          	auipc	a0,0x4
    50206f7c:	56050513          	addi	a0,a0,1376 # 5020b4d8 <global_count>
    50206f80:	aa0ff0ef          	jal	ra,50206220 <mthread_semaphore_up>
    50206f84:	fe842783          	lw	a5,-24(s0)
    50206f88:	85be                	mv	a1,a5
    50206f8a:	4505                	li	a0,1
    50206f8c:	b62ff0ef          	jal	ra,502062ee <sys_move_cursor>
    50206f90:	00004797          	auipc	a5,0x4
    50206f94:	54878793          	addi	a5,a5,1352 # 5020b4d8 <global_count>
    50206f98:	4398                	lw	a4,0(a5)
    50206f9a:	fec42783          	lw	a5,-20(s0)
    50206f9e:	2785                	addiw	a5,a5,1
    50206fa0:	2781                	sext.w	a5,a5
    50206fa2:	863e                	mv	a2,a5
    50206fa4:	85ba                	mv	a1,a4
    50206fa6:	00002517          	auipc	a0,0x2
    50206faa:	aea50513          	addi	a0,a0,-1302 # 50208a90 <__FUNCTION__.1480+0x638>
    50206fae:	b73fe0ef          	jal	ra,50205b20 <printf>
    50206fb2:	4505                	li	a0,1
    50206fb4:	aa8ff0ef          	jal	ra,5020625c <sys_sleep>
    50206fb8:	fec42783          	lw	a5,-20(s0)
    50206fbc:	2785                	addiw	a5,a5,1
    50206fbe:	fef42623          	sw	a5,-20(s0)
    50206fc2:	fec42783          	lw	a5,-20(s0)
    50206fc6:	0007871b          	sext.w	a4,a5
    50206fca:	47a5                	li	a5,9
    50206fcc:	f8e7d3e3          	bge	a5,a4,50206f52 <semaphore_add_task1+0x66>
    50206fd0:	00004517          	auipc	a0,0x4
    50206fd4:	50850513          	addi	a0,a0,1288 # 5020b4d8 <global_count>
    50206fd8:	a70ff0ef          	jal	ra,50206248 <mthread_semaphore_destroy>
    50206fdc:	c98ff0ef          	jal	ra,50206474 <sys_exit>
    50206fe0:	0001                	nop
    50206fe2:	70e2                	ld	ra,56(sp)
    50206fe4:	7442                	ld	s0,48(sp)
    50206fe6:	6121                	addi	sp,sp,64
    50206fe8:	8082                	ret

0000000050206fea <semaphore_add_task2>:
    50206fea:	1101                	addi	sp,sp,-32
    50206fec:	ec06                	sd	ra,24(sp)
    50206fee:	e822                	sd	s0,16(sp)
    50206ff0:	1000                	addi	s0,sp,32
    50206ff2:	4789                	li	a5,2
    50206ff4:	fef42423          	sw	a5,-24(s0)
    50206ff8:	fe042623          	sw	zero,-20(s0)
    50206ffc:	a88d                	j	5020706e <semaphore_add_task2+0x84>
    50206ffe:	00004517          	auipc	a0,0x4
    50207002:	4da50513          	addi	a0,a0,1242 # 5020b4d8 <global_count>
    50207006:	a2eff0ef          	jal	ra,50206234 <mthread_semaphore_down>
    5020700a:	00004797          	auipc	a5,0x4
    5020700e:	4ce78793          	addi	a5,a5,1230 # 5020b4d8 <global_count>
    50207012:	439c                	lw	a5,0(a5)
    50207014:	2785                	addiw	a5,a5,1
    50207016:	0007871b          	sext.w	a4,a5
    5020701a:	00004797          	auipc	a5,0x4
    5020701e:	4be78793          	addi	a5,a5,1214 # 5020b4d8 <global_count>
    50207022:	c398                	sw	a4,0(a5)
    50207024:	00004517          	auipc	a0,0x4
    50207028:	4b450513          	addi	a0,a0,1204 # 5020b4d8 <global_count>
    5020702c:	9f4ff0ef          	jal	ra,50206220 <mthread_semaphore_up>
    50207030:	fe842783          	lw	a5,-24(s0)
    50207034:	85be                	mv	a1,a5
    50207036:	4505                	li	a0,1
    50207038:	ab6ff0ef          	jal	ra,502062ee <sys_move_cursor>
    5020703c:	00004797          	auipc	a5,0x4
    50207040:	49c78793          	addi	a5,a5,1180 # 5020b4d8 <global_count>
    50207044:	4398                	lw	a4,0(a5)
    50207046:	fec42783          	lw	a5,-20(s0)
    5020704a:	2785                	addiw	a5,a5,1
    5020704c:	2781                	sext.w	a5,a5
    5020704e:	863e                	mv	a2,a5
    50207050:	85ba                	mv	a1,a4
    50207052:	00002517          	auipc	a0,0x2
    50207056:	a3e50513          	addi	a0,a0,-1474 # 50208a90 <__FUNCTION__.1480+0x638>
    5020705a:	ac7fe0ef          	jal	ra,50205b20 <printf>
    5020705e:	4505                	li	a0,1
    50207060:	9fcff0ef          	jal	ra,5020625c <sys_sleep>
    50207064:	fec42783          	lw	a5,-20(s0)
    50207068:	2785                	addiw	a5,a5,1
    5020706a:	fef42623          	sw	a5,-20(s0)
    5020706e:	fec42783          	lw	a5,-20(s0)
    50207072:	0007871b          	sext.w	a4,a5
    50207076:	47cd                	li	a5,19
    50207078:	f8e7d3e3          	bge	a5,a4,50206ffe <semaphore_add_task2+0x14>
    5020707c:	bf8ff0ef          	jal	ra,50206474 <sys_exit>
    50207080:	0001                	nop
    50207082:	60e2                	ld	ra,24(sp)
    50207084:	6442                	ld	s0,16(sp)
    50207086:	6105                	addi	sp,sp,32
    50207088:	8082                	ret

000000005020708a <semaphore_add_task3>:
    5020708a:	1101                	addi	sp,sp,-32
    5020708c:	ec06                	sd	ra,24(sp)
    5020708e:	e822                	sd	s0,16(sp)
    50207090:	1000                	addi	s0,sp,32
    50207092:	478d                	li	a5,3
    50207094:	fef42423          	sw	a5,-24(s0)
    50207098:	fe042623          	sw	zero,-20(s0)
    5020709c:	a88d                	j	5020710e <semaphore_add_task3+0x84>
    5020709e:	00004517          	auipc	a0,0x4
    502070a2:	43a50513          	addi	a0,a0,1082 # 5020b4d8 <global_count>
    502070a6:	98eff0ef          	jal	ra,50206234 <mthread_semaphore_down>
    502070aa:	00004797          	auipc	a5,0x4
    502070ae:	42e78793          	addi	a5,a5,1070 # 5020b4d8 <global_count>
    502070b2:	439c                	lw	a5,0(a5)
    502070b4:	2785                	addiw	a5,a5,1
    502070b6:	0007871b          	sext.w	a4,a5
    502070ba:	00004797          	auipc	a5,0x4
    502070be:	41e78793          	addi	a5,a5,1054 # 5020b4d8 <global_count>
    502070c2:	c398                	sw	a4,0(a5)
    502070c4:	00004517          	auipc	a0,0x4
    502070c8:	41450513          	addi	a0,a0,1044 # 5020b4d8 <global_count>
    502070cc:	954ff0ef          	jal	ra,50206220 <mthread_semaphore_up>
    502070d0:	fe842783          	lw	a5,-24(s0)
    502070d4:	85be                	mv	a1,a5
    502070d6:	4505                	li	a0,1
    502070d8:	a16ff0ef          	jal	ra,502062ee <sys_move_cursor>
    502070dc:	00004797          	auipc	a5,0x4
    502070e0:	3fc78793          	addi	a5,a5,1020 # 5020b4d8 <global_count>
    502070e4:	4398                	lw	a4,0(a5)
    502070e6:	fec42783          	lw	a5,-20(s0)
    502070ea:	2785                	addiw	a5,a5,1
    502070ec:	2781                	sext.w	a5,a5
    502070ee:	863e                	mv	a2,a5
    502070f0:	85ba                	mv	a1,a4
    502070f2:	00002517          	auipc	a0,0x2
    502070f6:	99e50513          	addi	a0,a0,-1634 # 50208a90 <__FUNCTION__.1480+0x638>
    502070fa:	a27fe0ef          	jal	ra,50205b20 <printf>
    502070fe:	4505                	li	a0,1
    50207100:	95cff0ef          	jal	ra,5020625c <sys_sleep>
    50207104:	fec42783          	lw	a5,-20(s0)
    50207108:	2785                	addiw	a5,a5,1
    5020710a:	fef42623          	sw	a5,-20(s0)
    5020710e:	fec42783          	lw	a5,-20(s0)
    50207112:	0007871b          	sext.w	a4,a5
    50207116:	47f5                	li	a5,29
    50207118:	f8e7d3e3          	bge	a5,a4,5020709e <semaphore_add_task3+0x14>
    5020711c:	b58ff0ef          	jal	ra,50206474 <sys_exit>
    50207120:	0001                	nop
    50207122:	60e2                	ld	ra,24(sp)
    50207124:	6442                	ld	s0,16(sp)
    50207126:	6105                	addi	sp,sp,32
    50207128:	8082                	ret

000000005020712a <SunQuan>:
    5020712a:	7179                	addi	sp,sp,-48
    5020712c:	f406                	sd	ra,40(sp)
    5020712e:	f022                	sd	s0,32(sp)
    50207130:	1800                	addi	s0,sp,48
    50207132:	00002517          	auipc	a0,0x2
    50207136:	98650513          	addi	a0,a0,-1658 # 50208ab8 <__FUNCTION__.1480+0x660>
    5020713a:	a0efe0ef          	jal	ra,50205348 <mbox_open>
    5020713e:	87aa                	mv	a5,a0
    50207140:	fef42423          	sw	a5,-24(s0)
    50207144:	accff0ef          	jal	ra,50206410 <sys_getpid>
    50207148:	87aa                	mv	a5,a0
    5020714a:	fef42023          	sw	a5,-32(s0)
    5020714e:	4585                	li	a1,1
    50207150:	4505                	li	a0,1
    50207152:	99cff0ef          	jal	ra,502062ee <sys_move_cursor>
    50207156:	fe040713          	addi	a4,s0,-32
    5020715a:	fe842783          	lw	a5,-24(s0)
    5020715e:	4611                	li	a2,4
    50207160:	85ba                	mv	a1,a4
    50207162:	853e                	mv	a0,a5
    50207164:	a26fe0ef          	jal	ra,5020538a <mbox_send>
    50207168:	fe040713          	addi	a4,s0,-32
    5020716c:	fe842783          	lw	a5,-24(s0)
    50207170:	4611                	li	a2,4
    50207172:	85ba                	mv	a1,a4
    50207174:	853e                	mv	a0,a5
    50207176:	a14fe0ef          	jal	ra,5020538a <mbox_send>
    5020717a:	00002517          	auipc	a0,0x2
    5020717e:	95650513          	addi	a0,a0,-1706 # 50208ad0 <__FUNCTION__.1480+0x678>
    50207182:	9c6fe0ef          	jal	ra,50205348 <mbox_open>
    50207186:	87aa                	mv	a5,a0
    50207188:	fef42223          	sw	a5,-28(s0)
    5020718c:	fe042623          	sw	zero,-20(s0)
    50207190:	4585                	li	a1,1
    50207192:	4505                	li	a0,1
    50207194:	95aff0ef          	jal	ra,502062ee <sys_move_cursor>
    50207198:	fe042703          	lw	a4,-32(s0)
    5020719c:	fec42783          	lw	a5,-20(s0)
    502071a0:	863a                	mv	a2,a4
    502071a2:	85be                	mv	a1,a5
    502071a4:	00002517          	auipc	a0,0x2
    502071a8:	94450513          	addi	a0,a0,-1724 # 50208ae8 <__FUNCTION__.1480+0x690>
    502071ac:	975fe0ef          	jal	ra,50205b20 <printf>
    502071b0:	fdc40713          	addi	a4,s0,-36
    502071b4:	fe442783          	lw	a5,-28(s0)
    502071b8:	4611                	li	a2,4
    502071ba:	85ba                	mv	a1,a4
    502071bc:	853e                	mv	a0,a5
    502071be:	a04fe0ef          	jal	ra,502053c2 <mbox_recv>
    502071c2:	4585                	li	a1,1
    502071c4:	4505                	li	a0,1
    502071c6:	928ff0ef          	jal	ra,502062ee <sys_move_cursor>
    502071ca:	fe042703          	lw	a4,-32(s0)
    502071ce:	fdc42683          	lw	a3,-36(s0)
    502071d2:	fec42783          	lw	a5,-20(s0)
    502071d6:	863a                	mv	a2,a4
    502071d8:	85be                	mv	a1,a5
    502071da:	00002517          	auipc	a0,0x2
    502071de:	94e50513          	addi	a0,a0,-1714 # 50208b28 <__FUNCTION__.1480+0x6d0>
    502071e2:	93ffe0ef          	jal	ra,50205b20 <printf>
    502071e6:	fdc42783          	lw	a5,-36(s0)
    502071ea:	853e                	mv	a0,a5
    502071ec:	aa6ff0ef          	jal	ra,50206492 <sys_waitpid>
    502071f0:	4585                	li	a1,1
    502071f2:	4505                	li	a0,1
    502071f4:	8faff0ef          	jal	ra,502062ee <sys_move_cursor>
    502071f8:	fe042703          	lw	a4,-32(s0)
    502071fc:	fec42783          	lw	a5,-20(s0)
    50207200:	863a                	mv	a2,a4
    50207202:	85be                	mv	a1,a5
    50207204:	00002517          	auipc	a0,0x2
    50207208:	96450513          	addi	a0,a0,-1692 # 50208b68 <__FUNCTION__.1480+0x710>
    5020720c:	915fe0ef          	jal	ra,50205b20 <printf>
    50207210:	4505                	li	a0,1
    50207212:	84aff0ef          	jal	ra,5020625c <sys_sleep>
    50207216:	468d                	li	a3,3
    50207218:	4601                	li	a2,0
    5020721a:	4581                	li	a1,0
    5020721c:	00002517          	auipc	a0,0x2
    50207220:	31450513          	addi	a0,a0,788 # 50209530 <lb_task>
    50207224:	9a8ff0ef          	jal	ra,502063cc <sys_spawn>
    50207228:	fe040713          	addi	a4,s0,-32
    5020722c:	fe842783          	lw	a5,-24(s0)
    50207230:	4611                	li	a2,4
    50207232:	85ba                	mv	a1,a4
    50207234:	853e                	mv	a0,a5
    50207236:	954fe0ef          	jal	ra,5020538a <mbox_send>
    5020723a:	fec42783          	lw	a5,-20(s0)
    5020723e:	2785                	addiw	a5,a5,1
    50207240:	fef42623          	sw	a5,-20(s0)
    50207244:	b7b1                	j	50207190 <SunQuan+0x66>

0000000050207246 <LiuBei>:
    50207246:	7179                	addi	sp,sp,-48
    50207248:	f406                	sd	ra,40(sp)
    5020724a:	f022                	sd	s0,32(sp)
    5020724c:	1800                	addi	s0,sp,48
    5020724e:	00002517          	auipc	a0,0x2
    50207252:	88250513          	addi	a0,a0,-1918 # 50208ad0 <__FUNCTION__.1480+0x678>
    50207256:	8f2fe0ef          	jal	ra,50205348 <mbox_open>
    5020725a:	87aa                	mv	a5,a0
    5020725c:	fef42423          	sw	a5,-24(s0)
    50207260:	9b0ff0ef          	jal	ra,50206410 <sys_getpid>
    50207264:	87aa                	mv	a5,a0
    50207266:	fef42023          	sw	a5,-32(s0)
    5020726a:	fe040713          	addi	a4,s0,-32
    5020726e:	fe842783          	lw	a5,-24(s0)
    50207272:	4611                	li	a2,4
    50207274:	85ba                	mv	a1,a4
    50207276:	853e                	mv	a0,a5
    50207278:	912fe0ef          	jal	ra,5020538a <mbox_send>
    5020727c:	fe040713          	addi	a4,s0,-32
    50207280:	fe842783          	lw	a5,-24(s0)
    50207284:	4611                	li	a2,4
    50207286:	85ba                	mv	a1,a4
    50207288:	853e                	mv	a0,a5
    5020728a:	900fe0ef          	jal	ra,5020538a <mbox_send>
    5020728e:	00002517          	auipc	a0,0x2
    50207292:	82a50513          	addi	a0,a0,-2006 # 50208ab8 <__FUNCTION__.1480+0x660>
    50207296:	8b2fe0ef          	jal	ra,50205348 <mbox_open>
    5020729a:	87aa                	mv	a5,a0
    5020729c:	fef42223          	sw	a5,-28(s0)
    502072a0:	fe042623          	sw	zero,-20(s0)
    502072a4:	4589                	li	a1,2
    502072a6:	4505                	li	a0,1
    502072a8:	846ff0ef          	jal	ra,502062ee <sys_move_cursor>
    502072ac:	fe042703          	lw	a4,-32(s0)
    502072b0:	fec42783          	lw	a5,-20(s0)
    502072b4:	863a                	mv	a2,a4
    502072b6:	85be                	mv	a1,a5
    502072b8:	00002517          	auipc	a0,0x2
    502072bc:	8e850513          	addi	a0,a0,-1816 # 50208ba0 <__FUNCTION__.1480+0x748>
    502072c0:	861fe0ef          	jal	ra,50205b20 <printf>
    502072c4:	fdc40713          	addi	a4,s0,-36
    502072c8:	fe442783          	lw	a5,-28(s0)
    502072cc:	4611                	li	a2,4
    502072ce:	85ba                	mv	a1,a4
    502072d0:	853e                	mv	a0,a5
    502072d2:	8f0fe0ef          	jal	ra,502053c2 <mbox_recv>
    502072d6:	4589                	li	a1,2
    502072d8:	4505                	li	a0,1
    502072da:	814ff0ef          	jal	ra,502062ee <sys_move_cursor>
    502072de:	fe042703          	lw	a4,-32(s0)
    502072e2:	fdc42683          	lw	a3,-36(s0)
    502072e6:	fec42783          	lw	a5,-20(s0)
    502072ea:	863a                	mv	a2,a4
    502072ec:	85be                	mv	a1,a5
    502072ee:	00002517          	auipc	a0,0x2
    502072f2:	8ea50513          	addi	a0,a0,-1814 # 50208bd8 <__FUNCTION__.1480+0x780>
    502072f6:	82bfe0ef          	jal	ra,50205b20 <printf>
    502072fa:	fdc42783          	lw	a5,-36(s0)
    502072fe:	853e                	mv	a0,a5
    50207300:	992ff0ef          	jal	ra,50206492 <sys_waitpid>
    50207304:	4589                	li	a1,2
    50207306:	4505                	li	a0,1
    50207308:	fe7fe0ef          	jal	ra,502062ee <sys_move_cursor>
    5020730c:	fe042703          	lw	a4,-32(s0)
    50207310:	fec42783          	lw	a5,-20(s0)
    50207314:	863a                	mv	a2,a4
    50207316:	85be                	mv	a1,a5
    50207318:	00002517          	auipc	a0,0x2
    5020731c:	8f850513          	addi	a0,a0,-1800 # 50208c10 <__FUNCTION__.1480+0x7b8>
    50207320:	801fe0ef          	jal	ra,50205b20 <printf>
    50207324:	4505                	li	a0,1
    50207326:	f37fe0ef          	jal	ra,5020625c <sys_sleep>
    5020732a:	468d                	li	a3,3
    5020732c:	4601                	li	a2,0
    5020732e:	4581                	li	a1,0
    50207330:	00002517          	auipc	a0,0x2
    50207334:	1f050513          	addi	a0,a0,496 # 50209520 <sq_task>
    50207338:	894ff0ef          	jal	ra,502063cc <sys_spawn>
    5020733c:	fe040713          	addi	a4,s0,-32
    50207340:	fe842783          	lw	a5,-24(s0)
    50207344:	4611                	li	a2,4
    50207346:	85ba                	mv	a1,a4
    50207348:	853e                	mv	a0,a5
    5020734a:	840fe0ef          	jal	ra,5020538a <mbox_send>
    5020734e:	fec42783          	lw	a5,-20(s0)
    50207352:	2785                	addiw	a5,a5,1
    50207354:	fef42623          	sw	a5,-20(s0)
    50207358:	b7b1                	j	502072a4 <LiuBei+0x5e>

000000005020735a <CaoCao>:
    5020735a:	7179                	addi	sp,sp,-48
    5020735c:	f406                	sd	ra,40(sp)
    5020735e:	f022                	sd	s0,32(sp)
    50207360:	1800                	addi	s0,sp,48
    50207362:	8aeff0ef          	jal	ra,50206410 <sys_getpid>
    50207366:	87aa                	mv	a5,a0
    50207368:	fef42423          	sw	a5,-24(s0)
    5020736c:	00001517          	auipc	a0,0x1
    50207370:	74c50513          	addi	a0,a0,1868 # 50208ab8 <__FUNCTION__.1480+0x660>
    50207374:	fd5fd0ef          	jal	ra,50205348 <mbox_open>
    50207378:	87aa                	mv	a5,a0
    5020737a:	fef42223          	sw	a5,-28(s0)
    5020737e:	00001517          	auipc	a0,0x1
    50207382:	75250513          	addi	a0,a0,1874 # 50208ad0 <__FUNCTION__.1480+0x678>
    50207386:	fc3fd0ef          	jal	ra,50205348 <mbox_open>
    5020738a:	87aa                	mv	a5,a0
    5020738c:	fef42023          	sw	a5,-32(s0)
    50207390:	fe842783          	lw	a5,-24(s0)
    50207394:	85be                	mv	a1,a5
    50207396:	00002517          	auipc	a0,0x2
    5020739a:	8b250513          	addi	a0,a0,-1870 # 50208c48 <__FUNCTION__.1480+0x7f0>
    5020739e:	f82fe0ef          	jal	ra,50205b20 <printf>
    502073a2:	fdc40713          	addi	a4,s0,-36
    502073a6:	fe442783          	lw	a5,-28(s0)
    502073aa:	4611                	li	a2,4
    502073ac:	85ba                	mv	a1,a4
    502073ae:	853e                	mv	a0,a5
    502073b0:	812fe0ef          	jal	ra,502053c2 <mbox_recv>
    502073b4:	fd840713          	addi	a4,s0,-40
    502073b8:	fe042783          	lw	a5,-32(s0)
    502073bc:	4611                	li	a2,4
    502073be:	85ba                	mv	a1,a4
    502073c0:	853e                	mv	a0,a5
    502073c2:	800fe0ef          	jal	ra,502053c2 <mbox_recv>
    502073c6:	fe042623          	sw	zero,-20(s0)
    502073ca:	458d                	li	a1,3
    502073cc:	4505                	li	a0,1
    502073ce:	f21fe0ef          	jal	ra,502062ee <sys_move_cursor>
    502073d2:	fe842703          	lw	a4,-24(s0)
    502073d6:	fec42783          	lw	a5,-20(s0)
    502073da:	863a                	mv	a2,a4
    502073dc:	85be                	mv	a1,a5
    502073de:	00002517          	auipc	a0,0x2
    502073e2:	89a50513          	addi	a0,a0,-1894 # 50208c78 <__FUNCTION__.1480+0x820>
    502073e6:	f3afe0ef          	jal	ra,50205b20 <printf>
    502073ea:	4505                	li	a0,1
    502073ec:	e71fe0ef          	jal	ra,5020625c <sys_sleep>
    502073f0:	4591                	li	a1,4
    502073f2:	4505                	li	a0,1
    502073f4:	efbfe0ef          	jal	ra,502062ee <sys_move_cursor>
    502073f8:	fe842703          	lw	a4,-24(s0)
    502073fc:	fec42783          	lw	a5,-20(s0)
    50207400:	863a                	mv	a2,a4
    50207402:	85be                	mv	a1,a5
    50207404:	00002517          	auipc	a0,0x2
    50207408:	8a450513          	addi	a0,a0,-1884 # 50208ca8 <__FUNCTION__.1480+0x850>
    5020740c:	f14fe0ef          	jal	ra,50205b20 <printf>
    50207410:	80cfe0ef          	jal	ra,5020541c <rand>
    50207414:	87aa                	mv	a5,a0
    50207416:	873e                	mv	a4,a5
    50207418:	41f7579b          	sraiw	a5,a4,0x1f
    5020741c:	01f7d79b          	srliw	a5,a5,0x1f
    50207420:	9f3d                	addw	a4,a4,a5
    50207422:	8b05                	andi	a4,a4,1
    50207424:	40f707bb          	subw	a5,a4,a5
    50207428:	2781                	sext.w	a5,a5
    5020742a:	c791                	beqz	a5,50207436 <CaoCao+0xdc>
    5020742c:	873e                	mv	a4,a5
    5020742e:	4785                	li	a5,1
    50207430:	08f70663          	beq	a4,a5,502074bc <CaoCao+0x162>
    50207434:	a239                	j	50207542 <CaoCao+0x1e8>
    50207436:	4595                	li	a1,5
    50207438:	4505                	li	a0,1
    5020743a:	eb5fe0ef          	jal	ra,502062ee <sys_move_cursor>
    5020743e:	fdc42683          	lw	a3,-36(s0)
    50207442:	fe842703          	lw	a4,-24(s0)
    50207446:	fec42783          	lw	a5,-20(s0)
    5020744a:	863a                	mv	a2,a4
    5020744c:	85be                	mv	a1,a5
    5020744e:	00002517          	auipc	a0,0x2
    50207452:	88250513          	addi	a0,a0,-1918 # 50208cd0 <__FUNCTION__.1480+0x878>
    50207456:	ecafe0ef          	jal	ra,50205b20 <printf>
    5020745a:	4505                	li	a0,1
    5020745c:	e01fe0ef          	jal	ra,5020625c <sys_sleep>
    50207460:	4599                	li	a1,6
    50207462:	4505                	li	a0,1
    50207464:	e8bfe0ef          	jal	ra,502062ee <sys_move_cursor>
    50207468:	fec42783          	lw	a5,-20(s0)
    5020746c:	85be                	mv	a1,a5
    5020746e:	00002517          	auipc	a0,0x2
    50207472:	89250513          	addi	a0,a0,-1902 # 50208d00 <__FUNCTION__.1480+0x8a8>
    50207476:	eaafe0ef          	jal	ra,50205b20 <printf>
    5020747a:	fdc42783          	lw	a5,-36(s0)
    5020747e:	853e                	mv	a0,a5
    50207480:	840ff0ef          	jal	ra,502064c0 <sys_kill>
    50207484:	fdc40713          	addi	a4,s0,-36
    50207488:	fe442783          	lw	a5,-28(s0)
    5020748c:	4611                	li	a2,4
    5020748e:	85ba                	mv	a1,a4
    50207490:	853e                	mv	a0,a5
    50207492:	f31fd0ef          	jal	ra,502053c2 <mbox_recv>
    50207496:	459d                	li	a1,7
    50207498:	4505                	li	a0,1
    5020749a:	e55fe0ef          	jal	ra,502062ee <sys_move_cursor>
    5020749e:	fdc42683          	lw	a3,-36(s0)
    502074a2:	fe842703          	lw	a4,-24(s0)
    502074a6:	fec42783          	lw	a5,-20(s0)
    502074aa:	863a                	mv	a2,a4
    502074ac:	85be                	mv	a1,a5
    502074ae:	00002517          	auipc	a0,0x2
    502074b2:	89250513          	addi	a0,a0,-1902 # 50208d40 <__FUNCTION__.1480+0x8e8>
    502074b6:	e6afe0ef          	jal	ra,50205b20 <printf>
    502074ba:	a061                	j	50207542 <CaoCao+0x1e8>
    502074bc:	4595                	li	a1,5
    502074be:	4505                	li	a0,1
    502074c0:	e2ffe0ef          	jal	ra,502062ee <sys_move_cursor>
    502074c4:	fd842683          	lw	a3,-40(s0)
    502074c8:	fe842703          	lw	a4,-24(s0)
    502074cc:	fec42783          	lw	a5,-20(s0)
    502074d0:	863a                	mv	a2,a4
    502074d2:	85be                	mv	a1,a5
    502074d4:	00002517          	auipc	a0,0x2
    502074d8:	8ac50513          	addi	a0,a0,-1876 # 50208d80 <__FUNCTION__.1480+0x928>
    502074dc:	e44fe0ef          	jal	ra,50205b20 <printf>
    502074e0:	4505                	li	a0,1
    502074e2:	d7bfe0ef          	jal	ra,5020625c <sys_sleep>
    502074e6:	4599                	li	a1,6
    502074e8:	4505                	li	a0,1
    502074ea:	e05fe0ef          	jal	ra,502062ee <sys_move_cursor>
    502074ee:	fec42783          	lw	a5,-20(s0)
    502074f2:	85be                	mv	a1,a5
    502074f4:	00002517          	auipc	a0,0x2
    502074f8:	8bc50513          	addi	a0,a0,-1860 # 50208db0 <__FUNCTION__.1480+0x958>
    502074fc:	e24fe0ef          	jal	ra,50205b20 <printf>
    50207500:	fd842783          	lw	a5,-40(s0)
    50207504:	853e                	mv	a0,a5
    50207506:	fbbfe0ef          	jal	ra,502064c0 <sys_kill>
    5020750a:	459d                	li	a1,7
    5020750c:	4505                	li	a0,1
    5020750e:	de1fe0ef          	jal	ra,502062ee <sys_move_cursor>
    50207512:	fd840713          	addi	a4,s0,-40
    50207516:	fe042783          	lw	a5,-32(s0)
    5020751a:	4611                	li	a2,4
    5020751c:	85ba                	mv	a1,a4
    5020751e:	853e                	mv	a0,a5
    50207520:	ea3fd0ef          	jal	ra,502053c2 <mbox_recv>
    50207524:	fd842683          	lw	a3,-40(s0)
    50207528:	fe842703          	lw	a4,-24(s0)
    5020752c:	fec42783          	lw	a5,-20(s0)
    50207530:	863a                	mv	a2,a4
    50207532:	85be                	mv	a1,a5
    50207534:	00002517          	auipc	a0,0x2
    50207538:	8bc50513          	addi	a0,a0,-1860 # 50208df0 <__FUNCTION__.1480+0x998>
    5020753c:	de4fe0ef          	jal	ra,50205b20 <printf>
    50207540:	0001                	nop
    50207542:	4505                	li	a0,1
    50207544:	d19fe0ef          	jal	ra,5020625c <sys_sleep>
    50207548:	fec42783          	lw	a5,-20(s0)
    5020754c:	2785                	addiw	a5,a5,1
    5020754e:	fef42623          	sw	a5,-20(s0)
    50207552:	bda5                	j	502073ca <CaoCao+0x70>

0000000050207554 <test_multicore>:
    50207554:	7131                	addi	sp,sp,-192
    50207556:	fd06                	sd	ra,184(sp)
    50207558:	f922                	sd	s0,176(sp)
    5020755a:	0180                	addi	s0,sp,192
    5020755c:	4585                	li	a1,1
    5020755e:	4505                	li	a0,1
    50207560:	d8ffe0ef          	jal	ra,502062ee <sys_move_cursor>
    50207564:	00002517          	auipc	a0,0x2
    50207568:	8c450513          	addi	a0,a0,-1852 # 50208e28 <__FUNCTION__.1480+0x9d0>
    5020756c:	db4fe0ef          	jal	ra,50205b20 <printf>
    50207570:	fa042623          	sw	zero,-84(s0)
    50207574:	00000797          	auipc	a5,0x0
    50207578:	26c78793          	addi	a5,a5,620 # 502077e0 <add_task>
    5020757c:	f8f43c23          	sd	a5,-104(s0)
    50207580:	4789                	li	a5,2
    50207582:	faf42023          	sw	a5,-96(s0)
    50207586:	4785                	li	a5,1
    50207588:	f8f42023          	sw	a5,-128(s0)
    5020758c:	f8042223          	sw	zero,-124(s0)
    50207590:	004c57b7          	lui	a5,0x4c5
    50207594:	b4078793          	addi	a5,a5,-1216 # 4c4b40 <_start-0x4fd3c4c0>
    50207598:	f8f42423          	sw	a5,-120(s0)
    5020759c:	fac40793          	addi	a5,s0,-84
    502075a0:	f8f43823          	sd	a5,-112(s0)
    502075a4:	a02ff0ef          	jal	ra,502067a6 <clock>
    502075a8:	fca43823          	sd	a0,-48(s0)
    502075ac:	f8040713          	addi	a4,s0,-128
    502075b0:	f9840793          	addi	a5,s0,-104
    502075b4:	468d                	li	a3,3
    502075b6:	4601                	li	a2,0
    502075b8:	85ba                	mv	a1,a4
    502075ba:	853e                	mv	a0,a5
    502075bc:	e11fe0ef          	jal	ra,502063cc <sys_spawn>
    502075c0:	87aa                	mv	a5,a0
    502075c2:	fcf42623          	sw	a5,-52(s0)
    502075c6:	fcc42783          	lw	a5,-52(s0)
    502075ca:	853e                	mv	a0,a5
    502075cc:	ec7fe0ef          	jal	ra,50206492 <sys_waitpid>
    502075d0:	9d6ff0ef          	jal	ra,502067a6 <clock>
    502075d4:	fca43023          	sd	a0,-64(s0)
    502075d8:	4599                	li	a1,6
    502075da:	4505                	li	a0,1
    502075dc:	d13fe0ef          	jal	ra,502062ee <sys_move_cursor>
    502075e0:	fc043703          	ld	a4,-64(s0)
    502075e4:	fd043783          	ld	a5,-48(s0)
    502075e8:	40f707b3          	sub	a5,a4,a5
    502075ec:	fac42703          	lw	a4,-84(s0)
    502075f0:	863a                	mv	a2,a4
    502075f2:	85be                	mv	a1,a5
    502075f4:	00002517          	auipc	a0,0x2
    502075f8:	85c50513          	addi	a0,a0,-1956 # 50208e50 <__FUNCTION__.1480+0x9f8>
    502075fc:	d24fe0ef          	jal	ra,50205b20 <printf>
    50207600:	f4043023          	sd	zero,-192(s0)
    50207604:	fe042623          	sw	zero,-20(s0)
    50207608:	a06d                	j	502076b2 <test_multicore+0x15e>
    5020760a:	fec42783          	lw	a5,-20(s0)
    5020760e:	2785                	addiw	a5,a5,1
    50207610:	0007869b          	sext.w	a3,a5
    50207614:	fec42703          	lw	a4,-20(s0)
    50207618:	87ba                	mv	a5,a4
    5020761a:	0786                	slli	a5,a5,0x1
    5020761c:	97ba                	add	a5,a5,a4
    5020761e:	078e                	slli	a5,a5,0x3
    50207620:	ff040713          	addi	a4,s0,-16
    50207624:	97ba                	add	a5,a5,a4
    50207626:	f6d7a023          	sw	a3,-160(a5)
    5020762a:	fec42703          	lw	a4,-20(s0)
    5020762e:	002627b7          	lui	a5,0x262
    50207632:	5a07879b          	addiw	a5,a5,1440
    50207636:	02f707bb          	mulw	a5,a4,a5
    5020763a:	0007869b          	sext.w	a3,a5
    5020763e:	fec42703          	lw	a4,-20(s0)
    50207642:	87ba                	mv	a5,a4
    50207644:	0786                	slli	a5,a5,0x1
    50207646:	97ba                	add	a5,a5,a4
    50207648:	078e                	slli	a5,a5,0x3
    5020764a:	ff040713          	addi	a4,s0,-16
    5020764e:	97ba                	add	a5,a5,a4
    50207650:	f6d7a223          	sw	a3,-156(a5) # 261f64 <_start-0x4ff9f09c>
    50207654:	fec42783          	lw	a5,-20(s0)
    50207658:	2785                	addiw	a5,a5,1
    5020765a:	0007871b          	sext.w	a4,a5
    5020765e:	002627b7          	lui	a5,0x262
    50207662:	5a07879b          	addiw	a5,a5,1440
    50207666:	02f707bb          	mulw	a5,a4,a5
    5020766a:	0007869b          	sext.w	a3,a5
    5020766e:	fec42703          	lw	a4,-20(s0)
    50207672:	87ba                	mv	a5,a4
    50207674:	0786                	slli	a5,a5,0x1
    50207676:	97ba                	add	a5,a5,a4
    50207678:	078e                	slli	a5,a5,0x3
    5020767a:	ff040713          	addi	a4,s0,-16
    5020767e:	97ba                	add	a5,a5,a4
    50207680:	f6d7a423          	sw	a3,-152(a5) # 261f68 <_start-0x4ff9f098>
    50207684:	f4040713          	addi	a4,s0,-192
    50207688:	fec42783          	lw	a5,-20(s0)
    5020768c:	078a                	slli	a5,a5,0x2
    5020768e:	00f706b3          	add	a3,a4,a5
    50207692:	fec42703          	lw	a4,-20(s0)
    50207696:	87ba                	mv	a5,a4
    50207698:	0786                	slli	a5,a5,0x1
    5020769a:	97ba                	add	a5,a5,a4
    5020769c:	078e                	slli	a5,a5,0x3
    5020769e:	ff040713          	addi	a4,s0,-16
    502076a2:	97ba                	add	a5,a5,a4
    502076a4:	f6d7b823          	sd	a3,-144(a5)
    502076a8:	fec42783          	lw	a5,-20(s0)
    502076ac:	2785                	addiw	a5,a5,1
    502076ae:	fef42623          	sw	a5,-20(s0)
    502076b2:	fec42783          	lw	a5,-20(s0)
    502076b6:	0007871b          	sext.w	a4,a5
    502076ba:	4785                	li	a5,1
    502076bc:	f4e7d7e3          	bge	a5,a4,5020760a <test_multicore+0xb6>
    502076c0:	8e6ff0ef          	jal	ra,502067a6 <clock>
    502076c4:	faa43c23          	sd	a0,-72(s0)
    502076c8:	fe042423          	sw	zero,-24(s0)
    502076cc:	a091                	j	50207710 <test_multicore+0x1bc>
    502076ce:	f5040693          	addi	a3,s0,-176
    502076d2:	fe842703          	lw	a4,-24(s0)
    502076d6:	87ba                	mv	a5,a4
    502076d8:	0786                	slli	a5,a5,0x1
    502076da:	97ba                	add	a5,a5,a4
    502076dc:	078e                	slli	a5,a5,0x3
    502076de:	00f68733          	add	a4,a3,a5
    502076e2:	f9840793          	addi	a5,s0,-104
    502076e6:	468d                	li	a3,3
    502076e8:	4601                	li	a2,0
    502076ea:	85ba                	mv	a1,a4
    502076ec:	853e                	mv	a0,a5
    502076ee:	cdffe0ef          	jal	ra,502063cc <sys_spawn>
    502076f2:	87aa                	mv	a5,a0
    502076f4:	873e                	mv	a4,a5
    502076f6:	fe842783          	lw	a5,-24(s0)
    502076fa:	078a                	slli	a5,a5,0x2
    502076fc:	ff040693          	addi	a3,s0,-16
    50207700:	97b6                	add	a5,a5,a3
    50207702:	f4e7ac23          	sw	a4,-168(a5)
    50207706:	fe842783          	lw	a5,-24(s0)
    5020770a:	2785                	addiw	a5,a5,1
    5020770c:	fef42423          	sw	a5,-24(s0)
    50207710:	fe842783          	lw	a5,-24(s0)
    50207714:	0007871b          	sext.w	a4,a5
    50207718:	4785                	li	a5,1
    5020771a:	fae7dae3          	bge	a5,a4,502076ce <test_multicore+0x17a>
    5020771e:	fe042223          	sw	zero,-28(s0)
    50207722:	a00d                	j	50207744 <test_multicore+0x1f0>
    50207724:	fe442783          	lw	a5,-28(s0)
    50207728:	078a                	slli	a5,a5,0x2
    5020772a:	ff040713          	addi	a4,s0,-16
    5020772e:	97ba                	add	a5,a5,a4
    50207730:	f587a783          	lw	a5,-168(a5)
    50207734:	853e                	mv	a0,a5
    50207736:	d5dfe0ef          	jal	ra,50206492 <sys_waitpid>
    5020773a:	fe442783          	lw	a5,-28(s0)
    5020773e:	2785                	addiw	a5,a5,1
    50207740:	fef42223          	sw	a5,-28(s0)
    50207744:	fe442783          	lw	a5,-28(s0)
    50207748:	0007871b          	sext.w	a4,a5
    5020774c:	4785                	li	a5,1
    5020774e:	fce7dbe3          	bge	a5,a4,50207724 <test_multicore+0x1d0>
    50207752:	fe042023          	sw	zero,-32(s0)
    50207756:	fc042e23          	sw	zero,-36(s0)
    5020775a:	a82d                	j	50207794 <test_multicore+0x240>
    5020775c:	fdc42783          	lw	a5,-36(s0)
    50207760:	078a                	slli	a5,a5,0x2
    50207762:	ff040713          	addi	a4,s0,-16
    50207766:	97ba                	add	a5,a5,a4
    50207768:	f507a783          	lw	a5,-176(a5)
    5020776c:	fe042703          	lw	a4,-32(s0)
    50207770:	9fb9                	addw	a5,a5,a4
    50207772:	fef42023          	sw	a5,-32(s0)
    50207776:	fe042703          	lw	a4,-32(s0)
    5020777a:	000f47b7          	lui	a5,0xf4
    5020777e:	2477879b          	addiw	a5,a5,583
    50207782:	02f767bb          	remw	a5,a4,a5
    50207786:	fef42023          	sw	a5,-32(s0)
    5020778a:	fdc42783          	lw	a5,-36(s0)
    5020778e:	2785                	addiw	a5,a5,1
    50207790:	fcf42e23          	sw	a5,-36(s0)
    50207794:	fdc42783          	lw	a5,-36(s0)
    50207798:	0007871b          	sext.w	a4,a5
    5020779c:	4785                	li	a5,1
    5020779e:	fae7dfe3          	bge	a5,a4,5020775c <test_multicore+0x208>
    502077a2:	804ff0ef          	jal	ra,502067a6 <clock>
    502077a6:	faa43823          	sd	a0,-80(s0)
    502077aa:	459d                	li	a1,7
    502077ac:	4505                	li	a0,1
    502077ae:	b41fe0ef          	jal	ra,502062ee <sys_move_cursor>
    502077b2:	fb043703          	ld	a4,-80(s0)
    502077b6:	fb843783          	ld	a5,-72(s0)
    502077ba:	40f707b3          	sub	a5,a4,a5
    502077be:	fe042703          	lw	a4,-32(s0)
    502077c2:	863a                	mv	a2,a4
    502077c4:	85be                	mv	a1,a5
    502077c6:	00001517          	auipc	a0,0x1
    502077ca:	6c250513          	addi	a0,a0,1730 # 50208e88 <__FUNCTION__.1480+0xa30>
    502077ce:	b52fe0ef          	jal	ra,50205b20 <printf>
    502077d2:	ca3fe0ef          	jal	ra,50206474 <sys_exit>
    502077d6:	0001                	nop
    502077d8:	70ea                	ld	ra,184(sp)
    502077da:	744a                	ld	s0,176(sp)
    502077dc:	6129                	addi	sp,sp,192
    502077de:	8082                	ret

00000000502077e0 <add_task>:
    502077e0:	7139                	addi	sp,sp,-64
    502077e2:	fc06                	sd	ra,56(sp)
    502077e4:	f822                	sd	s0,48(sp)
    502077e6:	0080                	addi	s0,sp,64
    502077e8:	fca43423          	sd	a0,-56(s0)
    502077ec:	fc843783          	ld	a5,-56(s0)
    502077f0:	439c                	lw	a5,0(a5)
    502077f2:	fef42223          	sw	a5,-28(s0)
    502077f6:	fc843783          	ld	a5,-56(s0)
    502077fa:	43dc                	lw	a5,4(a5)
    502077fc:	fef42023          	sw	a5,-32(s0)
    50207800:	fc843783          	ld	a5,-56(s0)
    50207804:	479c                	lw	a5,8(a5)
    50207806:	fcf42e23          	sw	a5,-36(s0)
    5020780a:	fe042623          	sw	zero,-20(s0)
    5020780e:	fe442783          	lw	a5,-28(s0)
    50207812:	85be                	mv	a1,a5
    50207814:	4505                	li	a0,1
    50207816:	ad9fe0ef          	jal	ra,502062ee <sys_move_cursor>
    5020781a:	fdc42703          	lw	a4,-36(s0)
    5020781e:	fe042783          	lw	a5,-32(s0)
    50207822:	863a                	mv	a2,a4
    50207824:	85be                	mv	a1,a5
    50207826:	00001517          	auipc	a0,0x1
    5020782a:	69a50513          	addi	a0,a0,1690 # 50208ec0 <__FUNCTION__.1480+0xa68>
    5020782e:	af2fe0ef          	jal	ra,50205b20 <printf>
    50207832:	fe042783          	lw	a5,-32(s0)
    50207836:	fef42423          	sw	a5,-24(s0)
    5020783a:	a02d                	j	50207864 <add_task+0x84>
    5020783c:	fec42703          	lw	a4,-20(s0)
    50207840:	fe842783          	lw	a5,-24(s0)
    50207844:	9fb9                	addw	a5,a5,a4
    50207846:	2781                	sext.w	a5,a5
    50207848:	873e                	mv	a4,a5
    5020784a:	000f47b7          	lui	a5,0xf4
    5020784e:	2477879b          	addiw	a5,a5,583
    50207852:	02f767bb          	remw	a5,a4,a5
    50207856:	fef42623          	sw	a5,-20(s0)
    5020785a:	fe842783          	lw	a5,-24(s0)
    5020785e:	2785                	addiw	a5,a5,1
    50207860:	fef42423          	sw	a5,-24(s0)
    50207864:	fe842703          	lw	a4,-24(s0)
    50207868:	fdc42783          	lw	a5,-36(s0)
    5020786c:	2701                	sext.w	a4,a4
    5020786e:	2781                	sext.w	a5,a5
    50207870:	fcf746e3          	blt	a4,a5,5020783c <add_task+0x5c>
    50207874:	00001517          	auipc	a0,0x1
    50207878:	67450513          	addi	a0,a0,1652 # 50208ee8 <__FUNCTION__.1480+0xa90>
    5020787c:	aa4fe0ef          	jal	ra,50205b20 <printf>
    50207880:	fc843783          	ld	a5,-56(s0)
    50207884:	6b9c                	ld	a5,16(a5)
    50207886:	fec42703          	lw	a4,-20(s0)
    5020788a:	c398                	sw	a4,0(a5)
    5020788c:	be9fe0ef          	jal	ra,50206474 <sys_exit>
    50207890:	0001                	nop
    50207892:	70e2                	ld	ra,56(sp)
    50207894:	7442                	ld	s0,48(sp)
    50207896:	6121                	addi	sp,sp,64
    50207898:	8082                	ret

000000005020789a <ready_to_exit_task>:
    5020789a:	1101                	addi	sp,sp,-32
    5020789c:	ec06                	sd	ra,24(sp)
    5020789e:	e822                	sd	s0,16(sp)
    502078a0:	1000                	addi	s0,sp,32
    502078a2:	fe042623          	sw	zero,-20(s0)
    502078a6:	4785                	li	a5,1
    502078a8:	fef42423          	sw	a5,-24(s0)
    502078ac:	00006517          	auipc	a0,0x6
    502078b0:	23450513          	addi	a0,a0,564 # 5020dae0 <lock1>
    502078b4:	f3efe0ef          	jal	ra,50205ff2 <mthread_mutex_lock>
    502078b8:	00006517          	auipc	a0,0x6
    502078bc:	23050513          	addi	a0,a0,560 # 5020dae8 <lock2>
    502078c0:	f32fe0ef          	jal	ra,50205ff2 <mthread_mutex_lock>
    502078c4:	fe042623          	sw	zero,-20(s0)
    502078c8:	a081                	j	50207908 <ready_to_exit_task+0x6e>
    502078ca:	fe842783          	lw	a5,-24(s0)
    502078ce:	85be                	mv	a1,a5
    502078d0:	4505                	li	a0,1
    502078d2:	a1dfe0ef          	jal	ra,502062ee <sys_move_cursor>
    502078d6:	b3bfe0ef          	jal	ra,50206410 <sys_getpid>
    502078da:	87aa                	mv	a5,a0
    502078dc:	86be                	mv	a3,a5
    502078de:	fec42783          	lw	a5,-20(s0)
    502078e2:	0017871b          	addiw	a4,a5,1
    502078e6:	fee42623          	sw	a4,-20(s0)
    502078ea:	863e                	mv	a2,a5
    502078ec:	85b6                	mv	a1,a3
    502078ee:	00001517          	auipc	a0,0x1
    502078f2:	60250513          	addi	a0,a0,1538 # 50208ef0 <__FUNCTION__.1480+0xa98>
    502078f6:	a2afe0ef          	jal	ra,50205b20 <printf>
    502078fa:	9d5fe0ef          	jal	ra,502062ce <sys_reflush>
    502078fe:	fec42783          	lw	a5,-20(s0)
    50207902:	2785                	addiw	a5,a5,1
    50207904:	fef42623          	sw	a5,-20(s0)
    50207908:	fec42783          	lw	a5,-20(s0)
    5020790c:	0007871b          	sext.w	a4,a5
    50207910:	1f300793          	li	a5,499
    50207914:	fae7dbe3          	bge	a5,a4,502078ca <ready_to_exit_task+0x30>
    50207918:	00006517          	auipc	a0,0x6
    5020791c:	1d050513          	addi	a0,a0,464 # 5020dae8 <lock2>
    50207920:	ef8fe0ef          	jal	ra,50206018 <mthread_mutex_unlock>
    50207924:	00006517          	auipc	a0,0x6
    50207928:	1bc50513          	addi	a0,a0,444 # 5020dae0 <lock1>
    5020792c:	eecfe0ef          	jal	ra,50206018 <mthread_mutex_unlock>
    50207930:	b45fe0ef          	jal	ra,50206474 <sys_exit>
    50207934:	0001                	nop
    50207936:	60e2                	ld	ra,24(sp)
    50207938:	6442                	ld	s0,16(sp)
    5020793a:	6105                	addi	sp,sp,32
    5020793c:	8082                	ret

000000005020793e <wait_lock_task>:
    5020793e:	7179                	addi	sp,sp,-48
    50207940:	f406                	sd	ra,40(sp)
    50207942:	f022                	sd	s0,32(sp)
    50207944:	1800                	addi	s0,sp,48
    50207946:	fca43c23          	sd	a0,-40(s0)
    5020794a:	4789                	li	a5,2
    5020794c:	fef42623          	sw	a5,-20(s0)
    50207950:	fec42783          	lw	a5,-20(s0)
    50207954:	85be                	mv	a1,a5
    50207956:	4505                	li	a0,1
    50207958:	997fe0ef          	jal	ra,502062ee <sys_move_cursor>
    5020795c:	fd843583          	ld	a1,-40(s0)
    50207960:	00001517          	auipc	a0,0x1
    50207964:	5d850513          	addi	a0,a0,1496 # 50208f38 <__FUNCTION__.1480+0xae0>
    50207968:	9b8fe0ef          	jal	ra,50205b20 <printf>
    5020796c:	00006517          	auipc	a0,0x6
    50207970:	17450513          	addi	a0,a0,372 # 5020dae0 <lock1>
    50207974:	e7efe0ef          	jal	ra,50205ff2 <mthread_mutex_lock>
    50207978:	fec42783          	lw	a5,-20(s0)
    5020797c:	85be                	mv	a1,a5
    5020797e:	4505                	li	a0,1
    50207980:	96ffe0ef          	jal	ra,502062ee <sys_move_cursor>
    50207984:	fd843583          	ld	a1,-40(s0)
    50207988:	00001517          	auipc	a0,0x1
    5020798c:	5f050513          	addi	a0,a0,1520 # 50208f78 <__FUNCTION__.1480+0xb20>
    50207990:	990fe0ef          	jal	ra,50205b20 <printf>
    50207994:	00006517          	auipc	a0,0x6
    50207998:	14c50513          	addi	a0,a0,332 # 5020dae0 <lock1>
    5020799c:	e7cfe0ef          	jal	ra,50206018 <mthread_mutex_unlock>
    502079a0:	ad5fe0ef          	jal	ra,50206474 <sys_exit>
    502079a4:	0001                	nop
    502079a6:	70a2                	ld	ra,40(sp)
    502079a8:	7402                	ld	s0,32(sp)
    502079aa:	6145                	addi	sp,sp,48
    502079ac:	8082                	ret

00000000502079ae <wait_exit_task>:
    502079ae:	7139                	addi	sp,sp,-64
    502079b0:	fc06                	sd	ra,56(sp)
    502079b2:	f822                	sd	s0,48(sp)
    502079b4:	0080                	addi	s0,sp,64
    502079b6:	00000797          	auipc	a5,0x0
    502079ba:	ee478793          	addi	a5,a5,-284 # 5020789a <ready_to_exit_task>
    502079be:	fcf43823          	sd	a5,-48(s0)
    502079c2:	4789                	li	a5,2
    502079c4:	fcf42c23          	sw	a5,-40(s0)
    502079c8:	00000797          	auipc	a5,0x0
    502079cc:	f7678793          	addi	a5,a5,-138 # 5020793e <wait_lock_task>
    502079d0:	fcf43023          	sd	a5,-64(s0)
    502079d4:	4789                	li	a5,2
    502079d6:	fcf42423          	sw	a5,-56(s0)
    502079da:	00006517          	auipc	a0,0x6
    502079de:	10650513          	addi	a0,a0,262 # 5020dae0 <lock1>
    502079e2:	d76fe0ef          	jal	ra,50205f58 <mthread_mutex_init>
    502079e6:	00006517          	auipc	a0,0x6
    502079ea:	10250513          	addi	a0,a0,258 # 5020dae8 <lock2>
    502079ee:	d6afe0ef          	jal	ra,50205f58 <mthread_mutex_init>
    502079f2:	fd040793          	addi	a5,s0,-48
    502079f6:	468d                	li	a3,3
    502079f8:	4601                	li	a2,0
    502079fa:	4581                	li	a1,0
    502079fc:	853e                	mv	a0,a5
    502079fe:	9cffe0ef          	jal	ra,502063cc <sys_spawn>
    50207a02:	87aa                	mv	a5,a0
    50207a04:	fef42623          	sw	a5,-20(s0)
    50207a08:	fec42783          	lw	a5,-20(s0)
    50207a0c:	873e                	mv	a4,a5
    50207a0e:	fc040793          	addi	a5,s0,-64
    50207a12:	468d                	li	a3,3
    50207a14:	4605                	li	a2,1
    50207a16:	85ba                	mv	a1,a4
    50207a18:	853e                	mv	a0,a5
    50207a1a:	9b3fe0ef          	jal	ra,502063cc <sys_spawn>
    50207a1e:	87aa                	mv	a5,a0
    50207a20:	fef42423          	sw	a5,-24(s0)
    50207a24:	478d                	li	a5,3
    50207a26:	fef42223          	sw	a5,-28(s0)
    50207a2a:	fe442783          	lw	a5,-28(s0)
    50207a2e:	85be                	mv	a1,a5
    50207a30:	4505                	li	a0,1
    50207a32:	8bdfe0ef          	jal	ra,502062ee <sys_move_cursor>
    50207a36:	fec42783          	lw	a5,-20(s0)
    50207a3a:	85be                	mv	a1,a5
    50207a3c:	00001517          	auipc	a0,0x1
    50207a40:	57c50513          	addi	a0,a0,1404 # 50208fb8 <__FUNCTION__.1480+0xb60>
    50207a44:	8dcfe0ef          	jal	ra,50205b20 <printf>
    50207a48:	887fe0ef          	jal	ra,502062ce <sys_reflush>
    50207a4c:	fec42783          	lw	a5,-20(s0)
    50207a50:	853e                	mv	a0,a5
    50207a52:	a41fe0ef          	jal	ra,50206492 <sys_waitpid>
    50207a56:	fe442783          	lw	a5,-28(s0)
    50207a5a:	85be                	mv	a1,a5
    50207a5c:	4505                	li	a0,1
    50207a5e:	891fe0ef          	jal	ra,502062ee <sys_move_cursor>
    50207a62:	fec42783          	lw	a5,-20(s0)
    50207a66:	85be                	mv	a1,a5
    50207a68:	00001517          	auipc	a0,0x1
    50207a6c:	58050513          	addi	a0,a0,1408 # 50208fe8 <__FUNCTION__.1480+0xb90>
    50207a70:	8b0fe0ef          	jal	ra,50205b20 <printf>
    50207a74:	a01fe0ef          	jal	ra,50206474 <sys_exit>
    50207a78:	0001                	nop
    50207a7a:	70e2                	ld	ra,56(sp)
    50207a7c:	7442                	ld	s0,48(sp)
    50207a7e:	6121                	addi	sp,sp,64
    50207a80:	8082                	ret

0000000050207a82 <test_condition>:
    50207a82:	715d                	addi	sp,sp,-80
    50207a84:	e486                	sd	ra,72(sp)
    50207a86:	e0a2                	sd	s0,64(sp)
    50207a88:	0880                	addi	s0,sp,80
    50207a8a:	d1dfe0ef          	jal	ra,502067a6 <clock>
    50207a8e:	87aa                	mv	a5,a0
    50207a90:	2781                	sext.w	a5,a5
    50207a92:	853e                	mv	a0,a5
    50207a94:	967fd0ef          	jal	ra,502053fa <srand>
    50207a98:	00004517          	auipc	a0,0x4
    50207a9c:	a4850513          	addi	a0,a0,-1464 # 5020b4e0 <mutex>
    50207aa0:	cb8fe0ef          	jal	ra,50205f58 <mthread_mutex_init>
    50207aa4:	00004517          	auipc	a0,0x4
    50207aa8:	a4450513          	addi	a0,a0,-1468 # 5020b4e8 <condition>
    50207aac:	e5cfe0ef          	jal	ra,50206108 <mthread_cond_init>
    50207ab0:	00000797          	auipc	a5,0x0
    50207ab4:	0e278793          	addi	a5,a5,226 # 50207b92 <producer_task>
    50207ab8:	fcf43c23          	sd	a5,-40(s0)
    50207abc:	4789                	li	a5,2
    50207abe:	fef42023          	sw	a5,-32(s0)
    50207ac2:	00000797          	auipc	a5,0x0
    50207ac6:	1bc78793          	addi	a5,a5,444 # 50207c7e <consumer_task>
    50207aca:	fcf43423          	sd	a5,-56(s0)
    50207ace:	4789                	li	a5,2
    50207ad0:	fcf42823          	sw	a5,-48(s0)
    50207ad4:	fd840793          	addi	a5,s0,-40
    50207ad8:	4681                	li	a3,0
    50207ada:	4601                	li	a2,0
    50207adc:	4581                	li	a1,0
    50207ade:	853e                	mv	a0,a5
    50207ae0:	8edfe0ef          	jal	ra,502063cc <sys_spawn>
    50207ae4:	87aa                	mv	a5,a0
    50207ae6:	faf42c23          	sw	a5,-72(s0)
    50207aea:	4785                	li	a5,1
    50207aec:	fef42623          	sw	a5,-20(s0)
    50207af0:	a82d                	j	50207b2a <test_condition+0xa8>
    50207af2:	fec42783          	lw	a5,-20(s0)
    50207af6:	2785                	addiw	a5,a5,1
    50207af8:	2781                	sext.w	a5,a5
    50207afa:	873e                	mv	a4,a5
    50207afc:	fc840793          	addi	a5,s0,-56
    50207b00:	4681                	li	a3,0
    50207b02:	4605                	li	a2,1
    50207b04:	85ba                	mv	a1,a4
    50207b06:	853e                	mv	a0,a5
    50207b08:	8c5fe0ef          	jal	ra,502063cc <sys_spawn>
    50207b0c:	87aa                	mv	a5,a0
    50207b0e:	873e                	mv	a4,a5
    50207b10:	fec42783          	lw	a5,-20(s0)
    50207b14:	078a                	slli	a5,a5,0x2
    50207b16:	ff040693          	addi	a3,s0,-16
    50207b1a:	97b6                	add	a5,a5,a3
    50207b1c:	fce7a423          	sw	a4,-56(a5)
    50207b20:	fec42783          	lw	a5,-20(s0)
    50207b24:	2785                	addiw	a5,a5,1
    50207b26:	fef42623          	sw	a5,-20(s0)
    50207b2a:	fec42783          	lw	a5,-20(s0)
    50207b2e:	0007871b          	sext.w	a4,a5
    50207b32:	478d                	li	a5,3
    50207b34:	fae7dfe3          	bge	a5,a4,50207af2 <test_condition+0x70>
    50207b38:	fe042423          	sw	zero,-24(s0)
    50207b3c:	a00d                	j	50207b5e <test_condition+0xdc>
    50207b3e:	fe842783          	lw	a5,-24(s0)
    50207b42:	078a                	slli	a5,a5,0x2
    50207b44:	ff040713          	addi	a4,s0,-16
    50207b48:	97ba                	add	a5,a5,a4
    50207b4a:	fc87a783          	lw	a5,-56(a5)
    50207b4e:	853e                	mv	a0,a5
    50207b50:	943fe0ef          	jal	ra,50206492 <sys_waitpid>
    50207b54:	fe842783          	lw	a5,-24(s0)
    50207b58:	2785                	addiw	a5,a5,1
    50207b5a:	fef42423          	sw	a5,-24(s0)
    50207b5e:	fe842783          	lw	a5,-24(s0)
    50207b62:	0007871b          	sext.w	a4,a5
    50207b66:	478d                	li	a5,3
    50207b68:	fce7dbe3          	bge	a5,a4,50207b3e <test_condition+0xbc>
    50207b6c:	00004517          	auipc	a0,0x4
    50207b70:	97c50513          	addi	a0,a0,-1668 # 5020b4e8 <condition>
    50207b74:	df6fe0ef          	jal	ra,5020616a <mthread_cond_destroy>
    50207b78:	00004517          	auipc	a0,0x4
    50207b7c:	96850513          	addi	a0,a0,-1688 # 5020b4e0 <mutex>
    50207b80:	c3afe0ef          	jal	ra,50205fba <mthread_mutex_destroy>
    50207b84:	8f1fe0ef          	jal	ra,50206474 <sys_exit>
    50207b88:	0001                	nop
    50207b8a:	60a6                	ld	ra,72(sp)
    50207b8c:	6406                	ld	s0,64(sp)
    50207b8e:	6161                	addi	sp,sp,80
    50207b90:	8082                	ret

0000000050207b92 <producer_task>:
    50207b92:	7179                	addi	sp,sp,-48
    50207b94:	f406                	sd	ra,40(sp)
    50207b96:	f022                	sd	s0,32(sp)
    50207b98:	1800                	addi	s0,sp,48
    50207b9a:	4785                	li	a5,1
    50207b9c:	fef42223          	sw	a5,-28(s0)
    50207ba0:	478d                	li	a5,3
    50207ba2:	fef42023          	sw	a5,-32(s0)
    50207ba6:	fe042423          	sw	zero,-24(s0)
    50207baa:	fe042623          	sw	zero,-20(s0)
    50207bae:	a871                	j	50207c4a <producer_task+0xb8>
    50207bb0:	00004517          	auipc	a0,0x4
    50207bb4:	93050513          	addi	a0,a0,-1744 # 5020b4e0 <mutex>
    50207bb8:	c3afe0ef          	jal	ra,50205ff2 <mthread_mutex_lock>
    50207bbc:	00004797          	auipc	a5,0x4
    50207bc0:	93478793          	addi	a5,a5,-1740 # 5020b4f0 <num_staff>
    50207bc4:	439c                	lw	a5,0(a5)
    50207bc6:	fe042703          	lw	a4,-32(s0)
    50207bca:	9fb9                	addw	a5,a5,a4
    50207bcc:	0007871b          	sext.w	a4,a5
    50207bd0:	00004797          	auipc	a5,0x4
    50207bd4:	92078793          	addi	a5,a5,-1760 # 5020b4f0 <num_staff>
    50207bd8:	c398                	sw	a4,0(a5)
    50207bda:	fe842703          	lw	a4,-24(s0)
    50207bde:	fe042783          	lw	a5,-32(s0)
    50207be2:	9fb9                	addw	a5,a5,a4
    50207be4:	fef42423          	sw	a5,-24(s0)
    50207be8:	00004517          	auipc	a0,0x4
    50207bec:	8f850513          	addi	a0,a0,-1800 # 5020b4e0 <mutex>
    50207bf0:	c28fe0ef          	jal	ra,50206018 <mthread_mutex_unlock>
    50207bf4:	fe442783          	lw	a5,-28(s0)
    50207bf8:	85be                	mv	a1,a5
    50207bfa:	4505                	li	a0,1
    50207bfc:	ef2fe0ef          	jal	ra,502062ee <sys_move_cursor>
    50207c00:	81dfd0ef          	jal	ra,5020541c <rand>
    50207c04:	87aa                	mv	a5,a0
    50207c06:	873e                	mv	a4,a5
    50207c08:	4795                	li	a5,5
    50207c0a:	02f767bb          	remw	a5,a4,a5
    50207c0e:	fcf42e23          	sw	a5,-36(s0)
    50207c12:	fdc42703          	lw	a4,-36(s0)
    50207c16:	fe842783          	lw	a5,-24(s0)
    50207c1a:	863a                	mv	a2,a4
    50207c1c:	85be                	mv	a1,a5
    50207c1e:	00001517          	auipc	a0,0x1
    50207c22:	40250513          	addi	a0,a0,1026 # 50209020 <__FUNCTION__.1480+0xbc8>
    50207c26:	efbfd0ef          	jal	ra,50205b20 <printf>
    50207c2a:	00004517          	auipc	a0,0x4
    50207c2e:	8be50513          	addi	a0,a0,-1858 # 5020b4e8 <condition>
    50207c32:	db0fe0ef          	jal	ra,502061e2 <mthread_cond_broadcast>
    50207c36:	fdc42783          	lw	a5,-36(s0)
    50207c3a:	853e                	mv	a0,a5
    50207c3c:	e20fe0ef          	jal	ra,5020625c <sys_sleep>
    50207c40:	fec42783          	lw	a5,-20(s0)
    50207c44:	2785                	addiw	a5,a5,1
    50207c46:	fef42623          	sw	a5,-20(s0)
    50207c4a:	fec42783          	lw	a5,-20(s0)
    50207c4e:	0007871b          	sext.w	a4,a5
    50207c52:	47b9                	li	a5,14
    50207c54:	f4e7dee3          	bge	a5,a4,50207bb0 <producer_task+0x1e>
    50207c58:	fe442783          	lw	a5,-28(s0)
    50207c5c:	85be                	mv	a1,a5
    50207c5e:	4505                	li	a0,1
    50207c60:	e8efe0ef          	jal	ra,502062ee <sys_move_cursor>
    50207c64:	00001517          	auipc	a0,0x1
    50207c68:	3fc50513          	addi	a0,a0,1020 # 50209060 <__FUNCTION__.1480+0xc08>
    50207c6c:	eb5fd0ef          	jal	ra,50205b20 <printf>
    50207c70:	805fe0ef          	jal	ra,50206474 <sys_exit>
    50207c74:	0001                	nop
    50207c76:	70a2                	ld	ra,40(sp)
    50207c78:	7402                	ld	s0,32(sp)
    50207c7a:	6145                	addi	sp,sp,48
    50207c7c:	8082                	ret

0000000050207c7e <consumer_task>:
    50207c7e:	7179                	addi	sp,sp,-48
    50207c80:	f406                	sd	ra,40(sp)
    50207c82:	f022                	sd	s0,32(sp)
    50207c84:	1800                	addi	s0,sp,48
    50207c86:	87aa                	mv	a5,a0
    50207c88:	fcf42e23          	sw	a5,-36(s0)
    50207c8c:	4785                	li	a5,1
    50207c8e:	fef42423          	sw	a5,-24(s0)
    50207c92:	fe042623          	sw	zero,-20(s0)
    50207c96:	00004517          	auipc	a0,0x4
    50207c9a:	84a50513          	addi	a0,a0,-1974 # 5020b4e0 <mutex>
    50207c9e:	b54fe0ef          	jal	ra,50205ff2 <mthread_mutex_lock>
    50207ca2:	a819                	j	50207cb8 <consumer_task+0x3a>
    50207ca4:	00004597          	auipc	a1,0x4
    50207ca8:	83c58593          	addi	a1,a1,-1988 # 5020b4e0 <mutex>
    50207cac:	00004517          	auipc	a0,0x4
    50207cb0:	83c50513          	addi	a0,a0,-1988 # 5020b4e8 <condition>
    50207cb4:	cdafe0ef          	jal	ra,5020618e <mthread_cond_wait>
    50207cb8:	00004797          	auipc	a5,0x4
    50207cbc:	83878793          	addi	a5,a5,-1992 # 5020b4f0 <num_staff>
    50207cc0:	439c                	lw	a5,0(a5)
    50207cc2:	d3ed                	beqz	a5,50207ca4 <consumer_task+0x26>
    50207cc4:	00004797          	auipc	a5,0x4
    50207cc8:	82c78793          	addi	a5,a5,-2004 # 5020b4f0 <num_staff>
    50207ccc:	4398                	lw	a4,0(a5)
    50207cce:	fe842783          	lw	a5,-24(s0)
    50207cd2:	40f707bb          	subw	a5,a4,a5
    50207cd6:	0007871b          	sext.w	a4,a5
    50207cda:	00004797          	auipc	a5,0x4
    50207cde:	81678793          	addi	a5,a5,-2026 # 5020b4f0 <num_staff>
    50207ce2:	c398                	sw	a4,0(a5)
    50207ce4:	fec42703          	lw	a4,-20(s0)
    50207ce8:	fe842783          	lw	a5,-24(s0)
    50207cec:	9fb9                	addw	a5,a5,a4
    50207cee:	fef42623          	sw	a5,-20(s0)
    50207cf2:	f2afd0ef          	jal	ra,5020541c <rand>
    50207cf6:	87aa                	mv	a5,a0
    50207cf8:	873e                	mv	a4,a5
    50207cfa:	478d                	li	a5,3
    50207cfc:	02f767bb          	remw	a5,a4,a5
    50207d00:	fef42223          	sw	a5,-28(s0)
    50207d04:	fdc42783          	lw	a5,-36(s0)
    50207d08:	85be                	mv	a1,a5
    50207d0a:	4505                	li	a0,1
    50207d0c:	de2fe0ef          	jal	ra,502062ee <sys_move_cursor>
    50207d10:	fe442703          	lw	a4,-28(s0)
    50207d14:	fec42783          	lw	a5,-20(s0)
    50207d18:	863a                	mv	a2,a4
    50207d1a:	85be                	mv	a1,a5
    50207d1c:	00001517          	auipc	a0,0x1
    50207d20:	38450513          	addi	a0,a0,900 # 502090a0 <__FUNCTION__.1480+0xc48>
    50207d24:	dfdfd0ef          	jal	ra,50205b20 <printf>
    50207d28:	00003517          	auipc	a0,0x3
    50207d2c:	7b850513          	addi	a0,a0,1976 # 5020b4e0 <mutex>
    50207d30:	ae8fe0ef          	jal	ra,50206018 <mthread_mutex_unlock>
    50207d34:	fe442783          	lw	a5,-28(s0)
    50207d38:	853e                	mv	a0,a5
    50207d3a:	d22fe0ef          	jal	ra,5020625c <sys_sleep>
    50207d3e:	bfa1                	j	50207c96 <consumer_task+0x18>

0000000050207d40 <test_affinity>:
    50207d40:	715d                	addi	sp,sp,-80
    50207d42:	e486                	sd	ra,72(sp)
    50207d44:	e0a2                	sd	s0,64(sp)
    50207d46:	0880                	addi	s0,sp,80
    50207d48:	02a00513          	li	a0,42
    50207d4c:	eaefd0ef          	jal	ra,502053fa <srand>
    50207d50:	4585                	li	a1,1
    50207d52:	4505                	li	a0,1
    50207d54:	d9afe0ef          	jal	ra,502062ee <sys_move_cursor>
    50207d58:	00001517          	auipc	a0,0x1
    50207d5c:	38050513          	addi	a0,a0,896 # 502090d8 <__FUNCTION__.1480+0xc80>
    50207d60:	dc1fd0ef          	jal	ra,50205b20 <printf>
    50207d64:	fe042223          	sw	zero,-28(s0)
    50207d68:	00000797          	auipc	a5,0x0
    50207d6c:	0d678793          	addi	a5,a5,214 # 50207e3e <integer_test_task>
    50207d70:	fcf43823          	sd	a5,-48(s0)
    50207d74:	4789                	li	a5,2
    50207d76:	fcf42c23          	sw	a5,-40(s0)
    50207d7a:	fa043c23          	sd	zero,-72(s0)
    50207d7e:	fc043023          	sd	zero,-64(s0)
    50207d82:	fc042423          	sw	zero,-56(s0)
    50207d86:	fe042623          	sw	zero,-20(s0)
    50207d8a:	a8a1                	j	50207de2 <test_affinity+0xa2>
    50207d8c:	fec42783          	lw	a5,-20(s0)
    50207d90:	2789                	addiw	a5,a5,2
    50207d92:	2781                	sext.w	a5,a5
    50207d94:	873e                	mv	a4,a5
    50207d96:	fd040793          	addi	a5,s0,-48
    50207d9a:	4681                	li	a3,0
    50207d9c:	4601                	li	a2,0
    50207d9e:	85ba                	mv	a1,a4
    50207da0:	853e                	mv	a0,a5
    50207da2:	e2afe0ef          	jal	ra,502063cc <sys_spawn>
    50207da6:	87aa                	mv	a5,a0
    50207da8:	873e                	mv	a4,a5
    50207daa:	fec42783          	lw	a5,-20(s0)
    50207dae:	078a                	slli	a5,a5,0x2
    50207db0:	ff040693          	addi	a3,s0,-16
    50207db4:	97b6                	add	a5,a5,a3
    50207db6:	fce7a423          	sw	a4,-56(a5)
    50207dba:	fec42783          	lw	a5,-20(s0)
    50207dbe:	078a                	slli	a5,a5,0x2
    50207dc0:	ff040713          	addi	a4,s0,-16
    50207dc4:	97ba                	add	a5,a5,a4
    50207dc6:	fc87a783          	lw	a5,-56(a5)
    50207dca:	85be                	mv	a1,a5
    50207dcc:	00001517          	auipc	a0,0x1
    50207dd0:	33450513          	addi	a0,a0,820 # 50209100 <__FUNCTION__.1480+0xca8>
    50207dd4:	d4dfd0ef          	jal	ra,50205b20 <printf>
    50207dd8:	fec42783          	lw	a5,-20(s0)
    50207ddc:	2785                	addiw	a5,a5,1
    50207dde:	fef42623          	sw	a5,-20(s0)
    50207de2:	fec42783          	lw	a5,-20(s0)
    50207de6:	0007871b          	sext.w	a4,a5
    50207dea:	4791                	li	a5,4
    50207dec:	fae7d0e3          	bge	a5,a4,50207d8c <test_affinity+0x4c>
    50207df0:	00001517          	auipc	a0,0x1
    50207df4:	31850513          	addi	a0,a0,792 # 50209108 <__FUNCTION__.1480+0xcb0>
    50207df8:	d29fd0ef          	jal	ra,50205b20 <printf>
    50207dfc:	fe042423          	sw	zero,-24(s0)
    50207e00:	a00d                	j	50207e22 <test_affinity+0xe2>
    50207e02:	fe842783          	lw	a5,-24(s0)
    50207e06:	078a                	slli	a5,a5,0x2
    50207e08:	ff040713          	addi	a4,s0,-16
    50207e0c:	97ba                	add	a5,a5,a4
    50207e0e:	fc87a783          	lw	a5,-56(a5)
    50207e12:	853e                	mv	a0,a5
    50207e14:	e7efe0ef          	jal	ra,50206492 <sys_waitpid>
    50207e18:	fe842783          	lw	a5,-24(s0)
    50207e1c:	2785                	addiw	a5,a5,1
    50207e1e:	fef42423          	sw	a5,-24(s0)
    50207e22:	fe842783          	lw	a5,-24(s0)
    50207e26:	0007871b          	sext.w	a4,a5
    50207e2a:	4791                	li	a5,4
    50207e2c:	fce7dbe3          	bge	a5,a4,50207e02 <test_affinity+0xc2>
    50207e30:	e44fe0ef          	jal	ra,50206474 <sys_exit>
    50207e34:	0001                	nop
    50207e36:	60a6                	ld	ra,72(sp)
    50207e38:	6406                	ld	s0,64(sp)
    50207e3a:	6161                	addi	sp,sp,80
    50207e3c:	8082                	ret

0000000050207e3e <integer_test_task>:
    50207e3e:	7139                	addi	sp,sp,-64
    50207e40:	fc06                	sd	ra,56(sp)
    50207e42:	f822                	sd	s0,48(sp)
    50207e44:	0080                	addi	s0,sp,64
    50207e46:	87aa                	mv	a5,a0
    50207e48:	fcf42623          	sw	a5,-52(s0)
    50207e4c:	dc4fe0ef          	jal	ra,50206410 <sys_getpid>
    50207e50:	87aa                	mv	a5,a0
    50207e52:	fcf42e23          	sw	a5,-36(s0)
    50207e56:	fe043423          	sd	zero,-24(s0)
    50207e5a:	fe042223          	sw	zero,-28(s0)
    50207e5e:	a0a5                	j	50207ec6 <integer_test_task+0x88>
    50207e60:	fe042023          	sw	zero,-32(s0)
    50207e64:	a839                	j	50207e82 <integer_test_task+0x44>
    50207e66:	db6fd0ef          	jal	ra,5020541c <rand>
    50207e6a:	87aa                	mv	a5,a0
    50207e6c:	873e                	mv	a4,a5
    50207e6e:	fe843783          	ld	a5,-24(s0)
    50207e72:	97ba                	add	a5,a5,a4
    50207e74:	fef43423          	sd	a5,-24(s0)
    50207e78:	fe042783          	lw	a5,-32(s0)
    50207e7c:	2785                	addiw	a5,a5,1
    50207e7e:	fef42023          	sw	a5,-32(s0)
    50207e82:	fe042783          	lw	a5,-32(s0)
    50207e86:	0007871b          	sext.w	a4,a5
    50207e8a:	67e1                	lui	a5,0x18
    50207e8c:	69f78793          	addi	a5,a5,1695 # 1869f <_start-0x501e8961>
    50207e90:	fce7dbe3          	bge	a5,a4,50207e66 <integer_test_task+0x28>
    50207e94:	fcc42783          	lw	a5,-52(s0)
    50207e98:	85be                	mv	a1,a5
    50207e9a:	4505                	li	a0,1
    50207e9c:	c52fe0ef          	jal	ra,502062ee <sys_move_cursor>
    50207ea0:	fe442603          	lw	a2,-28(s0)
    50207ea4:	fdc42703          	lw	a4,-36(s0)
    50207ea8:	6789                	lui	a5,0x2
    50207eaa:	71078693          	addi	a3,a5,1808 # 2710 <_start-0x501fe8f0>
    50207eae:	85ba                	mv	a1,a4
    50207eb0:	00001517          	auipc	a0,0x1
    50207eb4:	26050513          	addi	a0,a0,608 # 50209110 <__FUNCTION__.1480+0xcb8>
    50207eb8:	c69fd0ef          	jal	ra,50205b20 <printf>
    50207ebc:	fe442783          	lw	a5,-28(s0)
    50207ec0:	2785                	addiw	a5,a5,1
    50207ec2:	fef42223          	sw	a5,-28(s0)
    50207ec6:	fe442783          	lw	a5,-28(s0)
    50207eca:	0007871b          	sext.w	a4,a5
    50207ece:	6789                	lui	a5,0x2
    50207ed0:	70f78793          	addi	a5,a5,1807 # 270f <_start-0x501fe8f1>
    50207ed4:	f8e7d6e3          	bge	a5,a4,50207e60 <integer_test_task+0x22>
    50207ed8:	d9cfe0ef          	jal	ra,50206474 <sys_exit>
    50207edc:	0001                	nop
    50207ede:	70e2                	ld	ra,56(sp)
    50207ee0:	7442                	ld	s0,48(sp)
    50207ee2:	6121                	addi	sp,sp,64
    50207ee4:	8082                	ret

0000000050207ee6 <test_barrier>:
    50207ee6:	7139                	addi	sp,sp,-64
    50207ee8:	fc06                	sd	ra,56(sp)
    50207eea:	f822                	sd	s0,48(sp)
    50207eec:	0080                	addi	s0,sp,64
    50207eee:	8b9fe0ef          	jal	ra,502067a6 <clock>
    50207ef2:	87aa                	mv	a5,a0
    50207ef4:	2781                	sext.w	a5,a5
    50207ef6:	853e                	mv	a0,a5
    50207ef8:	d02fd0ef          	jal	ra,502053fa <srand>
    50207efc:	458d                	li	a1,3
    50207efe:	00003517          	auipc	a0,0x3
    50207f02:	5fa50513          	addi	a0,a0,1530 # 5020b4f8 <barrier>
    50207f06:	938fe0ef          	jal	ra,5020603e <mthread_barrier_init>
    50207f0a:	00000797          	auipc	a5,0x0
    50207f0e:	0ac78793          	addi	a5,a5,172 # 50207fb6 <barrier_task>
    50207f12:	fcf43c23          	sd	a5,-40(s0)
    50207f16:	4789                	li	a5,2
    50207f18:	fef42023          	sw	a5,-32(s0)
    50207f1c:	fe042623          	sw	zero,-20(s0)
    50207f20:	a82d                	j	50207f5a <test_barrier+0x74>
    50207f22:	fec42783          	lw	a5,-20(s0)
    50207f26:	2785                	addiw	a5,a5,1
    50207f28:	2781                	sext.w	a5,a5
    50207f2a:	873e                	mv	a4,a5
    50207f2c:	fd840793          	addi	a5,s0,-40
    50207f30:	4681                	li	a3,0
    50207f32:	4601                	li	a2,0
    50207f34:	85ba                	mv	a1,a4
    50207f36:	853e                	mv	a0,a5
    50207f38:	c94fe0ef          	jal	ra,502063cc <sys_spawn>
    50207f3c:	87aa                	mv	a5,a0
    50207f3e:	873e                	mv	a4,a5
    50207f40:	fec42783          	lw	a5,-20(s0)
    50207f44:	078a                	slli	a5,a5,0x2
    50207f46:	ff040693          	addi	a3,s0,-16
    50207f4a:	97b6                	add	a5,a5,a3
    50207f4c:	fce7ac23          	sw	a4,-40(a5)
    50207f50:	fec42783          	lw	a5,-20(s0)
    50207f54:	2785                	addiw	a5,a5,1
    50207f56:	fef42623          	sw	a5,-20(s0)
    50207f5a:	fec42783          	lw	a5,-20(s0)
    50207f5e:	0007871b          	sext.w	a4,a5
    50207f62:	4789                	li	a5,2
    50207f64:	fae7dfe3          	bge	a5,a4,50207f22 <test_barrier+0x3c>
    50207f68:	fe042423          	sw	zero,-24(s0)
    50207f6c:	a00d                	j	50207f8e <test_barrier+0xa8>
    50207f6e:	fe842783          	lw	a5,-24(s0)
    50207f72:	078a                	slli	a5,a5,0x2
    50207f74:	ff040713          	addi	a4,s0,-16
    50207f78:	97ba                	add	a5,a5,a4
    50207f7a:	fd87a783          	lw	a5,-40(a5)
    50207f7e:	853e                	mv	a0,a5
    50207f80:	d12fe0ef          	jal	ra,50206492 <sys_waitpid>
    50207f84:	fe842783          	lw	a5,-24(s0)
    50207f88:	2785                	addiw	a5,a5,1
    50207f8a:	fef42423          	sw	a5,-24(s0)
    50207f8e:	fe842783          	lw	a5,-24(s0)
    50207f92:	0007871b          	sext.w	a4,a5
    50207f96:	4789                	li	a5,2
    50207f98:	fce7dbe3          	bge	a5,a4,50207f6e <test_barrier+0x88>
    50207f9c:	00003517          	auipc	a0,0x3
    50207fa0:	55c50513          	addi	a0,a0,1372 # 5020b4f8 <barrier>
    50207fa4:	938fe0ef          	jal	ra,502060dc <mthread_barrier_destroy>
    50207fa8:	cccfe0ef          	jal	ra,50206474 <sys_exit>
    50207fac:	0001                	nop
    50207fae:	70e2                	ld	ra,56(sp)
    50207fb0:	7442                	ld	s0,48(sp)
    50207fb2:	6121                	addi	sp,sp,64
    50207fb4:	8082                	ret

0000000050207fb6 <barrier_task>:
    50207fb6:	7179                	addi	sp,sp,-48
    50207fb8:	f406                	sd	ra,40(sp)
    50207fba:	f022                	sd	s0,32(sp)
    50207fbc:	1800                	addi	s0,sp,48
    50207fbe:	87aa                	mv	a5,a0
    50207fc0:	fcf42e23          	sw	a5,-36(s0)
    50207fc4:	fe042623          	sw	zero,-20(s0)
    50207fc8:	a8ad                	j	50208042 <barrier_task+0x8c>
    50207fca:	c52fd0ef          	jal	ra,5020541c <rand>
    50207fce:	87aa                	mv	a5,a0
    50207fd0:	873e                	mv	a4,a5
    50207fd2:	478d                	li	a5,3
    50207fd4:	02f767bb          	remw	a5,a4,a5
    50207fd8:	2781                	sext.w	a5,a5
    50207fda:	2785                	addiw	a5,a5,1
    50207fdc:	fef42423          	sw	a5,-24(s0)
    50207fe0:	fdc42783          	lw	a5,-36(s0)
    50207fe4:	85be                	mv	a1,a5
    50207fe6:	4505                	li	a0,1
    50207fe8:	b06fe0ef          	jal	ra,502062ee <sys_move_cursor>
    50207fec:	fec42783          	lw	a5,-20(s0)
    50207ff0:	85be                	mv	a1,a5
    50207ff2:	00001517          	auipc	a0,0x1
    50207ff6:	13e50513          	addi	a0,a0,318 # 50209130 <__FUNCTION__.1480+0xcd8>
    50207ffa:	b27fd0ef          	jal	ra,50205b20 <printf>
    50207ffe:	00003517          	auipc	a0,0x3
    50208002:	4fa50513          	addi	a0,a0,1274 # 5020b4f8 <barrier>
    50208006:	8aafe0ef          	jal	ra,502060b0 <mthread_barrier_wait>
    5020800a:	fdc42783          	lw	a5,-36(s0)
    5020800e:	85be                	mv	a1,a5
    50208010:	4505                	li	a0,1
    50208012:	adcfe0ef          	jal	ra,502062ee <sys_move_cursor>
    50208016:	fe842703          	lw	a4,-24(s0)
    5020801a:	fec42783          	lw	a5,-20(s0)
    5020801e:	863a                	mv	a2,a4
    50208020:	85be                	mv	a1,a5
    50208022:	00001517          	auipc	a0,0x1
    50208026:	13e50513          	addi	a0,a0,318 # 50209160 <__FUNCTION__.1480+0xd08>
    5020802a:	af7fd0ef          	jal	ra,50205b20 <printf>
    5020802e:	fe842783          	lw	a5,-24(s0)
    50208032:	853e                	mv	a0,a5
    50208034:	a28fe0ef          	jal	ra,5020625c <sys_sleep>
    50208038:	fec42783          	lw	a5,-20(s0)
    5020803c:	2785                	addiw	a5,a5,1
    5020803e:	fef42623          	sw	a5,-20(s0)
    50208042:	fec42783          	lw	a5,-20(s0)
    50208046:	0007871b          	sext.w	a4,a5
    5020804a:	47a5                	li	a5,9
    5020804c:	f6e7dfe3          	bge	a5,a4,50207fca <barrier_task+0x14>
    50208050:	c24fe0ef          	jal	ra,50206474 <sys_exit>
    50208054:	0001                	nop
    50208056:	70a2                	ld	ra,40(sp)
    50208058:	7402                	ld	s0,32(sp)
    5020805a:	6145                	addi	sp,sp,48
    5020805c:	8082                	ret
