
main:     file format elf64-littleriscv


Disassembly of section .text:

ffffffc050400000 <_start>:
ffffffc050400000:	10401073          	csrw	sie,zero
ffffffc050400004:	14401073          	csrw	sip,zero
ffffffc050400008:	6299                	lui	t0,0x6
ffffffc05040000a:	1002b073          	csrc	sstatus,t0
ffffffc05040000e:	00045197          	auipc	gp,0x45
ffffffc050400012:	9da18193          	addi	gp,gp,-1574 # ffffffc0504449e8 <__global_pointer$>
ffffffc050400016:	f14022f3          	csrr	t0,mhartid
ffffffc05040001a:	00029b63          	bnez	t0,ffffffc050400030 <setup_core1>

ffffffc05040001e <setup_core0>:
ffffffc05040001e:	00007217          	auipc	tp,0x7
ffffffc050400022:	a4a20213          	addi	tp,tp,-1462 # ffffffc050406a68 <pid0_pcb_core0>
ffffffc050400026:	00044117          	auipc	sp,0x44
ffffffc05040002a:	1c213103          	ld	sp,450(sp) # ffffffc0504441e8 <pid0_stack_0>
ffffffc05040002e:	a809                	j	ffffffc050400040 <setup_finish>

ffffffc050400030 <setup_core1>:
ffffffc050400030:	00007217          	auipc	tp,0x7
ffffffc050400034:	b1020213          	addi	tp,tp,-1264 # ffffffc050406b40 <pid0_pcb_core1>
ffffffc050400038:	00044117          	auipc	sp,0x44
ffffffc05040003c:	1b813103          	ld	sp,440(sp) # ffffffc0504441f0 <pid0_stack_1>

ffffffc050400040 <setup_finish>:
ffffffc050400040:	4f8010ef          	jal	ra,ffffffc050401538 <main>

ffffffc050400044 <loop>:
ffffffc050400044:	10500073          	wfi
ffffffc050400048:	bff5                	j	ffffffc050400044 <loop>
	...

ffffffc05040004c <setup_exception>:
ffffffc05040004c:	00000417          	auipc	s0,0x0
ffffffc050400050:	15840413          	addi	s0,s0,344 # ffffffc0504001a4 <exception_handler_entry>
ffffffc050400054:	10541073          	csrw	stvec,s0
ffffffc050400058:	f14022f3          	csrr	t0,mhartid
ffffffc05040005c:	00029463          	bnez	t0,ffffffc050400064 <cond>
ffffffc050400060:	14401073          	csrw	sip,zero

ffffffc050400064 <cond>:
ffffffc050400064:	22200413          	li	s0,546
ffffffc050400068:	10441073          	csrw	sie,s0
ffffffc05040006c:	000402b7          	lui	t0,0x40
ffffffc050400070:	1002a073          	csrs	sstatus,t0
ffffffc050400074:	8082                	ret
	...

ffffffc050400078 <enable_preempt>:
ffffffc050400078:	f14022f3          	csrr	t0,mhartid
ffffffc05040007c:	00029763          	bnez	t0,ffffffc05040008a <enable_core1>
ffffffc050400080:	00046317          	auipc	t1,0x46
ffffffc050400084:	19033303          	ld	t1,400(t1) # ffffffc050446210 <current_running_core0>
ffffffc050400088:	a029                	j	ffffffc050400092 <enable_pre>

ffffffc05040008a <enable_core1>:
ffffffc05040008a:	00046317          	auipc	t1,0x46
ffffffc05040008e:	17e33303          	ld	t1,382(t1) # ffffffc050446208 <current_running_core1>

ffffffc050400092 <enable_pre>:
ffffffc050400092:	01033283          	ld	t0,16(t1)
ffffffc050400096:	00028863          	beqz	t0,ffffffc0504000a6 <do_enable>
ffffffc05040009a:	12fd                	addi	t0,t0,-1
ffffffc05040009c:	00533823          	sd	t0,16(t1)
ffffffc0504000a0:	00028363          	beqz	t0,ffffffc0504000a6 <do_enable>
ffffffc0504000a4:	8082                	ret

ffffffc0504000a6 <do_enable>:
ffffffc0504000a6:	fff04293          	not	t0,zero
ffffffc0504000aa:	1042a073          	csrs	sie,t0
ffffffc0504000ae:	8082                	ret

ffffffc0504000b0 <disable_preempt>:
ffffffc0504000b0:	10401073          	csrw	sie,zero
ffffffc0504000b4:	f14022f3          	csrr	t0,mhartid
ffffffc0504000b8:	00029763          	bnez	t0,ffffffc0504000c6 <disable_core1>
ffffffc0504000bc:	00046317          	auipc	t1,0x46
ffffffc0504000c0:	15433303          	ld	t1,340(t1) # ffffffc050446210 <current_running_core0>
ffffffc0504000c4:	a029                	j	ffffffc0504000ce <disable_pre>

ffffffc0504000c6 <disable_core1>:
ffffffc0504000c6:	00046317          	auipc	t1,0x46
ffffffc0504000ca:	14233303          	ld	t1,322(t1) # ffffffc050446208 <current_running_core1>

ffffffc0504000ce <disable_pre>:
ffffffc0504000ce:	01033283          	ld	t0,16(t1)
ffffffc0504000d2:	0285                	addi	t0,t0,1
ffffffc0504000d4:	00533823          	sd	t0,16(t1)
ffffffc0504000d8:	8082                	ret
ffffffc0504000da:	0001                	nop

ffffffc0504000dc <enable_interrupt>:
ffffffc0504000dc:	4289                	li	t0,2
ffffffc0504000de:	1002a073          	csrs	sstatus,t0
ffffffc0504000e2:	8082                	ret

ffffffc0504000e4 <disable_interrupt>:
ffffffc0504000e4:	4289                	li	t0,2
ffffffc0504000e6:	1002b073          	csrc	sstatus,t0
ffffffc0504000ea:	8082                	ret

ffffffc0504000ec <switch_to>:
ffffffc0504000ec:	00053283          	ld	t0,0(a0)
ffffffc0504000f0:	0022b423          	sd	sp,8(t0) # 40008 <_start-0xffffffc0503bfff8>
ffffffc0504000f4:	00053103          	ld	sp,0(a0)
ffffffc0504000f8:	e006                	sd	ra,0(sp)
ffffffc0504000fa:	e822                	sd	s0,16(sp)
ffffffc0504000fc:	ec26                	sd	s1,24(sp)
ffffffc0504000fe:	f04a                	sd	s2,32(sp)
ffffffc050400100:	f44e                	sd	s3,40(sp)
ffffffc050400102:	f852                	sd	s4,48(sp)
ffffffc050400104:	fc56                	sd	s5,56(sp)
ffffffc050400106:	e0da                	sd	s6,64(sp)
ffffffc050400108:	e4de                	sd	s7,72(sp)
ffffffc05040010a:	e8e2                	sd	s8,80(sp)
ffffffc05040010c:	ece6                	sd	s9,88(sp)
ffffffc05040010e:	f0ea                	sd	s10,96(sp)
ffffffc050400110:	f4ee                	sd	s11,104(sp)
ffffffc050400112:	0005b103          	ld	sp,0(a1)
ffffffc050400116:	6082                	ld	ra,0(sp)
ffffffc050400118:	6442                	ld	s0,16(sp)
ffffffc05040011a:	64e2                	ld	s1,24(sp)
ffffffc05040011c:	7902                	ld	s2,32(sp)
ffffffc05040011e:	79a2                	ld	s3,40(sp)
ffffffc050400120:	7a42                	ld	s4,48(sp)
ffffffc050400122:	7ae2                	ld	s5,56(sp)
ffffffc050400124:	6b06                	ld	s6,64(sp)
ffffffc050400126:	6ba6                	ld	s7,72(sp)
ffffffc050400128:	6c46                	ld	s8,80(sp)
ffffffc05040012a:	6ce6                	ld	s9,88(sp)
ffffffc05040012c:	7d06                	ld	s10,96(sp)
ffffffc05040012e:	7da6                	ld	s11,104(sp)
ffffffc050400130:	6122                	ld	sp,8(sp)
ffffffc050400132:	822e                	mv	tp,a1
ffffffc050400134:	8082                	ret
ffffffc050400136:	0001                	nop

ffffffc050400138 <ret_from_exception>:
ffffffc050400138:	00046517          	auipc	a0,0x46
ffffffc05040013c:	1e050513          	addi	a0,a0,480 # ffffffc050446318 <kernel_lock>
ffffffc050400140:	32d020ef          	jal	ra,ffffffc050402c6c <spin_lock_release>
ffffffc050400144:	00023103          	ld	sp,0(tp) # 0 <_start-0xffffffc050400000>
ffffffc050400148:	6165                	addi	sp,sp,112
ffffffc05040014a:	6412                	ld	s0,256(sp)
ffffffc05040014c:	64b2                	ld	s1,264(sp)
ffffffc05040014e:	6952                	ld	s2,272(sp)
ffffffc050400150:	69f2                	ld	s3,280(sp)
ffffffc050400152:	10041073          	csrw	sstatus,s0
ffffffc050400156:	14149073          	csrw	sepc,s1
ffffffc05040015a:	14391073          	csrw	stval,s2
ffffffc05040015e:	14299073          	csrw	scause,s3
ffffffc050400162:	60a2                	ld	ra,8(sp)
ffffffc050400164:	61e2                	ld	gp,24(sp)
ffffffc050400166:	7202                	ld	tp,32(sp)
ffffffc050400168:	72a2                	ld	t0,40(sp)
ffffffc05040016a:	7342                	ld	t1,48(sp)
ffffffc05040016c:	73e2                	ld	t2,56(sp)
ffffffc05040016e:	6406                	ld	s0,64(sp)
ffffffc050400170:	64a6                	ld	s1,72(sp)
ffffffc050400172:	6546                	ld	a0,80(sp)
ffffffc050400174:	65e6                	ld	a1,88(sp)
ffffffc050400176:	7606                	ld	a2,96(sp)
ffffffc050400178:	76a6                	ld	a3,104(sp)
ffffffc05040017a:	7746                	ld	a4,112(sp)
ffffffc05040017c:	77e6                	ld	a5,120(sp)
ffffffc05040017e:	680a                	ld	a6,128(sp)
ffffffc050400180:	68aa                	ld	a7,136(sp)
ffffffc050400182:	694a                	ld	s2,144(sp)
ffffffc050400184:	69ea                	ld	s3,152(sp)
ffffffc050400186:	7a0a                	ld	s4,160(sp)
ffffffc050400188:	7aaa                	ld	s5,168(sp)
ffffffc05040018a:	7b4a                	ld	s6,176(sp)
ffffffc05040018c:	7bea                	ld	s7,184(sp)
ffffffc05040018e:	6c0e                	ld	s8,192(sp)
ffffffc050400190:	6cae                	ld	s9,200(sp)
ffffffc050400192:	6d4e                	ld	s10,208(sp)
ffffffc050400194:	6dee                	ld	s11,216(sp)
ffffffc050400196:	7e0e                	ld	t3,224(sp)
ffffffc050400198:	7eae                	ld	t4,232(sp)
ffffffc05040019a:	7f4e                	ld	t5,240(sp)
ffffffc05040019c:	7fee                	ld	t6,248(sp)
ffffffc05040019e:	6142                	ld	sp,16(sp)
ffffffc0504001a0:	10200073          	sret

ffffffc0504001a4 <exception_handler_entry>:
ffffffc0504001a4:	00223423          	sd	sp,8(tp) # 8 <_start-0xffffffc0503ffff8>
ffffffc0504001a8:	00023103          	ld	sp,0(tp) # 0 <_start-0xffffffc050400000>
ffffffc0504001ac:	6165                	addi	sp,sp,112
ffffffc0504001ae:	e406                	sd	ra,8(sp)
ffffffc0504001b0:	ec0e                	sd	gp,24(sp)
ffffffc0504001b2:	f012                	sd	tp,32(sp)
ffffffc0504001b4:	f416                	sd	t0,40(sp)
ffffffc0504001b6:	f81a                	sd	t1,48(sp)
ffffffc0504001b8:	fc1e                	sd	t2,56(sp)
ffffffc0504001ba:	e0a2                	sd	s0,64(sp)
ffffffc0504001bc:	e4a6                	sd	s1,72(sp)
ffffffc0504001be:	e8aa                	sd	a0,80(sp)
ffffffc0504001c0:	ecae                	sd	a1,88(sp)
ffffffc0504001c2:	f0b2                	sd	a2,96(sp)
ffffffc0504001c4:	f4b6                	sd	a3,104(sp)
ffffffc0504001c6:	f8ba                	sd	a4,112(sp)
ffffffc0504001c8:	fcbe                	sd	a5,120(sp)
ffffffc0504001ca:	e142                	sd	a6,128(sp)
ffffffc0504001cc:	e546                	sd	a7,136(sp)
ffffffc0504001ce:	e94a                	sd	s2,144(sp)
ffffffc0504001d0:	ed4e                	sd	s3,152(sp)
ffffffc0504001d2:	f152                	sd	s4,160(sp)
ffffffc0504001d4:	f556                	sd	s5,168(sp)
ffffffc0504001d6:	f95a                	sd	s6,176(sp)
ffffffc0504001d8:	fd5e                	sd	s7,184(sp)
ffffffc0504001da:	e1e2                	sd	s8,192(sp)
ffffffc0504001dc:	e5e6                	sd	s9,200(sp)
ffffffc0504001de:	e9ea                	sd	s10,208(sp)
ffffffc0504001e0:	edee                	sd	s11,216(sp)
ffffffc0504001e2:	f1f2                	sd	t3,224(sp)
ffffffc0504001e4:	f5f6                	sd	t4,232(sp)
ffffffc0504001e6:	f9fa                	sd	t5,240(sp)
ffffffc0504001e8:	fdfe                	sd	t6,248(sp)
ffffffc0504001ea:	00823403          	ld	s0,8(tp) # 8 <_start-0xffffffc0503ffff8>
ffffffc0504001ee:	e822                	sd	s0,16(sp)
ffffffc0504001f0:	6299                	lui	t0,0x6
ffffffc0504001f2:	1002b4f3          	csrrc	s1,sstatus,t0
ffffffc0504001f6:	e226                	sd	s1,256(sp)
ffffffc0504001f8:	14302473          	csrr	s0,stval
ffffffc0504001fc:	141024f3          	csrr	s1,sepc
ffffffc050400200:	14202973          	csrr	s2,scause
ffffffc050400204:	ea22                	sd	s0,272(sp)
ffffffc050400206:	e626                	sd	s1,264(sp)
ffffffc050400208:	ee4a                	sd	s2,280(sp)
ffffffc05040020a:	7159                	addi	sp,sp,-112
ffffffc05040020c:	00046517          	auipc	a0,0x46
ffffffc050400210:	10c50513          	addi	a0,a0,268 # ffffffc050446318 <kernel_lock>
ffffffc050400214:	22d020ef          	jal	ra,ffffffc050402c40 <spin_lock_acquire>
ffffffc050400218:	14001073          	csrw	sscratch,zero
ffffffc05040021c:	00044197          	auipc	gp,0x44
ffffffc050400220:	7cc18193          	addi	gp,gp,1996 # ffffffc0504449e8 <__global_pointer$>
ffffffc050400224:	00023503          	ld	a0,0(tp) # 0 <_start-0xffffffc050400000>
ffffffc050400228:	07050513          	addi	a0,a0,112
ffffffc05040022c:	143025f3          	csrr	a1,stval
ffffffc050400230:	14202673          	csrr	a2,scause
ffffffc050400234:	2af010ef          	jal	ra,ffffffc050401ce2 <interrupt_helper>
ffffffc050400238:	00000097          	auipc	ra,0x0
ffffffc05040023c:	f0008093          	addi	ra,ra,-256 # ffffffc050400138 <ret_from_exception>
ffffffc050400240:	8082                	ret

ffffffc050400242 <sbi_console_putchar>:
ffffffc050400242:	1101                	addi	sp,sp,-32
ffffffc050400244:	ec22                	sd	s0,24(sp)
ffffffc050400246:	1000                	addi	s0,sp,32
ffffffc050400248:	87aa                	mv	a5,a0
ffffffc05040024a:	fef42623          	sw	a5,-20(s0)
ffffffc05040024e:	fec42783          	lw	a5,-20(s0)
ffffffc050400252:	853e                	mv	a0,a5
ffffffc050400254:	4581                	li	a1,0
ffffffc050400256:	4601                	li	a2,0
ffffffc050400258:	4885                	li	a7,1
ffffffc05040025a:	00000073          	ecall
ffffffc05040025e:	0001                	nop
ffffffc050400260:	6462                	ld	s0,24(sp)
ffffffc050400262:	6105                	addi	sp,sp,32
ffffffc050400264:	8082                	ret

ffffffc050400266 <port_write_ch>:
ffffffc050400266:	1101                	addi	sp,sp,-32
ffffffc050400268:	ec06                	sd	ra,24(sp)
ffffffc05040026a:	e822                	sd	s0,16(sp)
ffffffc05040026c:	1000                	addi	s0,sp,32
ffffffc05040026e:	87aa                	mv	a5,a0
ffffffc050400270:	fef407a3          	sb	a5,-17(s0)
ffffffc050400274:	fef44783          	lbu	a5,-17(s0)
ffffffc050400278:	2781                	sext.w	a5,a5
ffffffc05040027a:	853e                	mv	a0,a5
ffffffc05040027c:	fc7ff0ef          	jal	ra,ffffffc050400242 <sbi_console_putchar>
ffffffc050400280:	0001                	nop
ffffffc050400282:	60e2                	ld	ra,24(sp)
ffffffc050400284:	6442                	ld	s0,16(sp)
ffffffc050400286:	6105                	addi	sp,sp,32
ffffffc050400288:	8082                	ret

ffffffc05040028a <port_write>:
ffffffc05040028a:	1101                	addi	sp,sp,-32
ffffffc05040028c:	ec06                	sd	ra,24(sp)
ffffffc05040028e:	e822                	sd	s0,16(sp)
ffffffc050400290:	1000                	addi	s0,sp,32
ffffffc050400292:	fea43423          	sd	a0,-24(s0)
ffffffc050400296:	a831                	j	ffffffc0504002b2 <port_write+0x28>
ffffffc050400298:	fe843783          	ld	a5,-24(s0)
ffffffc05040029c:	0007c783          	lbu	a5,0(a5)
ffffffc0504002a0:	2781                	sext.w	a5,a5
ffffffc0504002a2:	853e                	mv	a0,a5
ffffffc0504002a4:	f9fff0ef          	jal	ra,ffffffc050400242 <sbi_console_putchar>
ffffffc0504002a8:	fe843783          	ld	a5,-24(s0)
ffffffc0504002ac:	0785                	addi	a5,a5,1
ffffffc0504002ae:	fef43423          	sd	a5,-24(s0)
ffffffc0504002b2:	fe843783          	ld	a5,-24(s0)
ffffffc0504002b6:	0007c783          	lbu	a5,0(a5)
ffffffc0504002ba:	fff9                	bnez	a5,ffffffc050400298 <port_write+0xe>
ffffffc0504002bc:	0001                	nop
ffffffc0504002be:	0001                	nop
ffffffc0504002c0:	60e2                	ld	ra,24(sp)
ffffffc0504002c2:	6442                	ld	s0,16(sp)
ffffffc0504002c4:	6105                	addi	sp,sp,32
ffffffc0504002c6:	8082                	ret

ffffffc0504002c8 <get_current_cpu_id>:
ffffffc0504002c8:	f1402573          	csrr	a0,mhartid
ffffffc0504002cc:	8082                	ret

ffffffc0504002ce <init_list_head>:
ffffffc0504002ce:	1101                	addi	sp,sp,-32
ffffffc0504002d0:	ec22                	sd	s0,24(sp)
ffffffc0504002d2:	1000                	addi	s0,sp,32
ffffffc0504002d4:	fea43423          	sd	a0,-24(s0)
ffffffc0504002d8:	fe843783          	ld	a5,-24(s0)
ffffffc0504002dc:	fe843703          	ld	a4,-24(s0)
ffffffc0504002e0:	e398                	sd	a4,0(a5)
ffffffc0504002e2:	fe843783          	ld	a5,-24(s0)
ffffffc0504002e6:	fe843703          	ld	a4,-24(s0)
ffffffc0504002ea:	e798                	sd	a4,8(a5)
ffffffc0504002ec:	0001                	nop
ffffffc0504002ee:	6462                	ld	s0,24(sp)
ffffffc0504002f0:	6105                	addi	sp,sp,32
ffffffc0504002f2:	8082                	ret

ffffffc0504002f4 <_list_add>:
ffffffc0504002f4:	7179                	addi	sp,sp,-48
ffffffc0504002f6:	f422                	sd	s0,40(sp)
ffffffc0504002f8:	1800                	addi	s0,sp,48
ffffffc0504002fa:	fea43423          	sd	a0,-24(s0)
ffffffc0504002fe:	feb43023          	sd	a1,-32(s0)
ffffffc050400302:	fcc43c23          	sd	a2,-40(s0)
ffffffc050400306:	fd843783          	ld	a5,-40(s0)
ffffffc05040030a:	fe843703          	ld	a4,-24(s0)
ffffffc05040030e:	e798                	sd	a4,8(a5)
ffffffc050400310:	fe843783          	ld	a5,-24(s0)
ffffffc050400314:	fd843703          	ld	a4,-40(s0)
ffffffc050400318:	e398                	sd	a4,0(a5)
ffffffc05040031a:	fe843783          	ld	a5,-24(s0)
ffffffc05040031e:	fe043703          	ld	a4,-32(s0)
ffffffc050400322:	e798                	sd	a4,8(a5)
ffffffc050400324:	fe043783          	ld	a5,-32(s0)
ffffffc050400328:	fe843703          	ld	a4,-24(s0)
ffffffc05040032c:	e398                	sd	a4,0(a5)
ffffffc05040032e:	0001                	nop
ffffffc050400330:	7422                	ld	s0,40(sp)
ffffffc050400332:	6145                	addi	sp,sp,48
ffffffc050400334:	8082                	ret

ffffffc050400336 <list_add_tail>:
ffffffc050400336:	1101                	addi	sp,sp,-32
ffffffc050400338:	ec06                	sd	ra,24(sp)
ffffffc05040033a:	e822                	sd	s0,16(sp)
ffffffc05040033c:	1000                	addi	s0,sp,32
ffffffc05040033e:	fea43423          	sd	a0,-24(s0)
ffffffc050400342:	feb43023          	sd	a1,-32(s0)
ffffffc050400346:	fe043783          	ld	a5,-32(s0)
ffffffc05040034a:	679c                	ld	a5,8(a5)
ffffffc05040034c:	fe043603          	ld	a2,-32(s0)
ffffffc050400350:	85be                	mv	a1,a5
ffffffc050400352:	fe843503          	ld	a0,-24(s0)
ffffffc050400356:	f9fff0ef          	jal	ra,ffffffc0504002f4 <_list_add>
ffffffc05040035a:	0001                	nop
ffffffc05040035c:	60e2                	ld	ra,24(sp)
ffffffc05040035e:	6442                	ld	s0,16(sp)
ffffffc050400360:	6105                	addi	sp,sp,32
ffffffc050400362:	8082                	ret

ffffffc050400364 <sbi_set_timer>:
ffffffc050400364:	1101                	addi	sp,sp,-32
ffffffc050400366:	ec22                	sd	s0,24(sp)
ffffffc050400368:	1000                	addi	s0,sp,32
ffffffc05040036a:	fea43423          	sd	a0,-24(s0)
ffffffc05040036e:	fe843503          	ld	a0,-24(s0)
ffffffc050400372:	4581                	li	a1,0
ffffffc050400374:	4601                	li	a2,0
ffffffc050400376:	4881                	li	a7,0
ffffffc050400378:	00000073          	ecall
ffffffc05040037c:	0001                	nop
ffffffc05040037e:	6462                	ld	s0,24(sp)
ffffffc050400380:	6105                	addi	sp,sp,32
ffffffc050400382:	8082                	ret

ffffffc050400384 <sbi_send_ipi>:
ffffffc050400384:	1101                	addi	sp,sp,-32
ffffffc050400386:	ec22                	sd	s0,24(sp)
ffffffc050400388:	1000                	addi	s0,sp,32
ffffffc05040038a:	fea43423          	sd	a0,-24(s0)
ffffffc05040038e:	fe843783          	ld	a5,-24(s0)
ffffffc050400392:	853e                	mv	a0,a5
ffffffc050400394:	4581                	li	a1,0
ffffffc050400396:	4601                	li	a2,0
ffffffc050400398:	4891                	li	a7,4
ffffffc05040039a:	00000073          	ecall
ffffffc05040039e:	0001                	nop
ffffffc0504003a0:	6462                	ld	s0,24(sp)
ffffffc0504003a2:	6105                	addi	sp,sp,32
ffffffc0504003a4:	8082                	ret

ffffffc0504003a6 <sbi_read_fdt>:
ffffffc0504003a6:	1101                	addi	sp,sp,-32
ffffffc0504003a8:	ec22                	sd	s0,24(sp)
ffffffc0504003aa:	1000                	addi	s0,sp,32
ffffffc0504003ac:	87aa                	mv	a5,a0
ffffffc0504003ae:	fef42623          	sw	a5,-20(s0)
ffffffc0504003b2:	fec42783          	lw	a5,-20(s0)
ffffffc0504003b6:	853e                	mv	a0,a5
ffffffc0504003b8:	4581                	li	a1,0
ffffffc0504003ba:	4601                	li	a2,0
ffffffc0504003bc:	48b1                	li	a7,12
ffffffc0504003be:	00000073          	ecall
ffffffc0504003c2:	87aa                	mv	a5,a0
ffffffc0504003c4:	2781                	sext.w	a5,a5
ffffffc0504003c6:	853e                	mv	a0,a5
ffffffc0504003c8:	6462                	ld	s0,24(sp)
ffffffc0504003ca:	6105                	addi	sp,sp,32
ffffffc0504003cc:	8082                	ret

ffffffc0504003ce <local_flush_tlb_all>:
ffffffc0504003ce:	1141                	addi	sp,sp,-16
ffffffc0504003d0:	e422                	sd	s0,8(sp)
ffffffc0504003d2:	0800                	addi	s0,sp,16
ffffffc0504003d4:	12000073          	sfence.vma
ffffffc0504003d8:	0001                	nop
ffffffc0504003da:	6422                	ld	s0,8(sp)
ffffffc0504003dc:	0141                	addi	sp,sp,16
ffffffc0504003de:	8082                	ret

ffffffc0504003e0 <kva2pa>:
ffffffc0504003e0:	1101                	addi	sp,sp,-32
ffffffc0504003e2:	ec22                	sd	s0,24(sp)
ffffffc0504003e4:	1000                	addi	s0,sp,32
ffffffc0504003e6:	fea43423          	sd	a0,-24(s0)
ffffffc0504003ea:	fe843703          	ld	a4,-24(s0)
ffffffc0504003ee:	4785                	li	a5,1
ffffffc0504003f0:	179a                	slli	a5,a5,0x26
ffffffc0504003f2:	97ba                	add	a5,a5,a4
ffffffc0504003f4:	853e                	mv	a0,a5
ffffffc0504003f6:	6462                	ld	s0,24(sp)
ffffffc0504003f8:	6105                	addi	sp,sp,32
ffffffc0504003fa:	8082                	ret

ffffffc0504003fc <pa2kva>:
ffffffc0504003fc:	1101                	addi	sp,sp,-32
ffffffc0504003fe:	ec22                	sd	s0,24(sp)
ffffffc050400400:	1000                	addi	s0,sp,32
ffffffc050400402:	fea43423          	sd	a0,-24(s0)
ffffffc050400406:	fe843703          	ld	a4,-24(s0)
ffffffc05040040a:	57fd                	li	a5,-1
ffffffc05040040c:	179a                	slli	a5,a5,0x26
ffffffc05040040e:	97ba                	add	a5,a5,a4
ffffffc050400410:	853e                	mv	a0,a5
ffffffc050400412:	6462                	ld	s0,24(sp)
ffffffc050400414:	6105                	addi	sp,sp,32
ffffffc050400416:	8082                	ret

ffffffc050400418 <get_pa>:
ffffffc050400418:	7179                	addi	sp,sp,-48
ffffffc05040041a:	f422                	sd	s0,40(sp)
ffffffc05040041c:	1800                	addi	s0,sp,48
ffffffc05040041e:	fca43c23          	sd	a0,-40(s0)
ffffffc050400422:	57fd                	li	a5,-1
ffffffc050400424:	fef43423          	sd	a5,-24(s0)
ffffffc050400428:	fd843703          	ld	a4,-40(s0)
ffffffc05040042c:	fe843783          	ld	a5,-24(s0)
ffffffc050400430:	8ff9                	and	a5,a5,a4
ffffffc050400432:	83a9                	srli	a5,a5,0xa
ffffffc050400434:	07b2                	slli	a5,a5,0xc
ffffffc050400436:	853e                	mv	a0,a5
ffffffc050400438:	7422                	ld	s0,40(sp)
ffffffc05040043a:	6145                	addi	sp,sp,48
ffffffc05040043c:	8082                	ret

ffffffc05040043e <load_elf>:
ffffffc05040043e:	7159                	addi	sp,sp,-112
ffffffc050400440:	f486                	sd	ra,104(sp)
ffffffc050400442:	f0a2                	sd	s0,96(sp)
ffffffc050400444:	1880                	addi	s0,sp,112
ffffffc050400446:	faa43423          	sd	a0,-88(s0)
ffffffc05040044a:	87ae                	mv	a5,a1
ffffffc05040044c:	f8c43c23          	sd	a2,-104(s0)
ffffffc050400450:	f8d43823          	sd	a3,-112(s0)
ffffffc050400454:	faf42223          	sw	a5,-92(s0)
ffffffc050400458:	fa843783          	ld	a5,-88(s0)
ffffffc05040045c:	fcf43823          	sd	a5,-48(s0)
ffffffc050400460:	fc043423          	sd	zero,-56(s0)
ffffffc050400464:	fe043423          	sd	zero,-24(s0)
ffffffc050400468:	fe042023          	sw	zero,-32(s0)
ffffffc05040046c:	fd043783          	ld	a5,-48(s0)
ffffffc050400470:	739c                	ld	a5,32(a5)
ffffffc050400472:	fa843703          	ld	a4,-88(s0)
ffffffc050400476:	97ba                	add	a5,a5,a4
ffffffc050400478:	fef43423          	sd	a5,-24(s0)
ffffffc05040047c:	fd043783          	ld	a5,-48(s0)
ffffffc050400480:	0387d783          	lhu	a5,56(a5)
ffffffc050400484:	fef41323          	sh	a5,-26(s0)
ffffffc050400488:	fd043783          	ld	a5,-48(s0)
ffffffc05040048c:	0367d783          	lhu	a5,54(a5)
ffffffc050400490:	fcf41323          	sh	a5,-58(s0)
ffffffc050400494:	a299                	j	ffffffc0504005da <load_elf+0x19c>
ffffffc050400496:	fe843783          	ld	a5,-24(s0)
ffffffc05040049a:	fcf43423          	sd	a5,-56(s0)
ffffffc05040049e:	fc843783          	ld	a5,-56(s0)
ffffffc0504004a2:	439c                	lw	a5,0(a5)
ffffffc0504004a4:	873e                	mv	a4,a5
ffffffc0504004a6:	4785                	li	a5,1
ffffffc0504004a8:	12f71263          	bne	a4,a5,ffffffc0504005cc <load_elf+0x18e>
ffffffc0504004ac:	fe042023          	sw	zero,-32(s0)
ffffffc0504004b0:	a239                	j	ffffffc0504005be <load_elf+0x180>
ffffffc0504004b2:	fe042703          	lw	a4,-32(s0)
ffffffc0504004b6:	fc843783          	ld	a5,-56(s0)
ffffffc0504004ba:	739c                	ld	a5,32(a5)
ffffffc0504004bc:	0af77463          	bgeu	a4,a5,ffffffc050400564 <load_elf+0x126>
ffffffc0504004c0:	fc843783          	ld	a5,-56(s0)
ffffffc0504004c4:	6b98                	ld	a4,16(a5)
ffffffc0504004c6:	fe042783          	lw	a5,-32(s0)
ffffffc0504004ca:	97ba                	add	a5,a5,a4
ffffffc0504004cc:	f9043703          	ld	a4,-112(s0)
ffffffc0504004d0:	f9843583          	ld	a1,-104(s0)
ffffffc0504004d4:	853e                	mv	a0,a5
ffffffc0504004d6:	9702                	jalr	a4
ffffffc0504004d8:	87aa                	mv	a5,a0
ffffffc0504004da:	faf43823          	sd	a5,-80(s0)
ffffffc0504004de:	fc843783          	ld	a5,-56(s0)
ffffffc0504004e2:	6798                	ld	a4,8(a5)
ffffffc0504004e4:	fe042783          	lw	a5,-32(s0)
ffffffc0504004e8:	97ba                	add	a5,a5,a4
ffffffc0504004ea:	fa843703          	ld	a4,-88(s0)
ffffffc0504004ee:	00f706b3          	add	a3,a4,a5
ffffffc0504004f2:	fc843783          	ld	a5,-56(s0)
ffffffc0504004f6:	7398                	ld	a4,32(a5)
ffffffc0504004f8:	fe042783          	lw	a5,-32(s0)
ffffffc0504004fc:	40f707b3          	sub	a5,a4,a5
ffffffc050400500:	6705                	lui	a4,0x1
ffffffc050400502:	00f77363          	bgeu	a4,a5,ffffffc050400508 <load_elf+0xca>
ffffffc050400506:	6785                	lui	a5,0x1
ffffffc050400508:	2781                	sext.w	a5,a5
ffffffc05040050a:	863e                	mv	a2,a5
ffffffc05040050c:	85b6                	mv	a1,a3
ffffffc05040050e:	fb043503          	ld	a0,-80(s0)
ffffffc050400512:	30e050ef          	jal	ra,ffffffc050405820 <kmemcpy>
ffffffc050400516:	fc843783          	ld	a5,-56(s0)
ffffffc05040051a:	7398                	ld	a4,32(a5)
ffffffc05040051c:	fe042783          	lw	a5,-32(s0)
ffffffc050400520:	8f1d                	sub	a4,a4,a5
ffffffc050400522:	6785                	lui	a5,0x1
ffffffc050400524:	08f77663          	bgeu	a4,a5,ffffffc0504005b0 <load_elf+0x172>
ffffffc050400528:	fc843783          	ld	a5,-56(s0)
ffffffc05040052c:	739c                	ld	a5,32(a5)
ffffffc05040052e:	0007871b          	sext.w	a4,a5
ffffffc050400532:	6785                	lui	a5,0x1
ffffffc050400534:	17fd                	addi	a5,a5,-1
ffffffc050400536:	8ff9                	and	a5,a5,a4
ffffffc050400538:	fcf42e23          	sw	a5,-36(s0)
ffffffc05040053c:	a829                	j	ffffffc050400556 <load_elf+0x118>
ffffffc05040053e:	fdc42783          	lw	a5,-36(s0)
ffffffc050400542:	fb043703          	ld	a4,-80(s0)
ffffffc050400546:	97ba                	add	a5,a5,a4
ffffffc050400548:	00078023          	sb	zero,0(a5) # 1000 <_start-0xffffffc0503ff000>
ffffffc05040054c:	fdc42783          	lw	a5,-36(s0)
ffffffc050400550:	2785                	addiw	a5,a5,1
ffffffc050400552:	fcf42e23          	sw	a5,-36(s0)
ffffffc050400556:	fdc42783          	lw	a5,-36(s0)
ffffffc05040055a:	873e                	mv	a4,a5
ffffffc05040055c:	6785                	lui	a5,0x1
ffffffc05040055e:	fef760e3          	bltu	a4,a5,ffffffc05040053e <load_elf+0x100>
ffffffc050400562:	a0b9                	j	ffffffc0504005b0 <load_elf+0x172>
ffffffc050400564:	fc843783          	ld	a5,-56(s0)
ffffffc050400568:	6b98                	ld	a4,16(a5)
ffffffc05040056a:	fe042783          	lw	a5,-32(s0)
ffffffc05040056e:	97ba                	add	a5,a5,a4
ffffffc050400570:	f9043703          	ld	a4,-112(s0)
ffffffc050400574:	f9843583          	ld	a1,-104(s0)
ffffffc050400578:	853e                	mv	a0,a5
ffffffc05040057a:	9702                	jalr	a4
ffffffc05040057c:	87aa                	mv	a5,a0
ffffffc05040057e:	faf43c23          	sd	a5,-72(s0)
ffffffc050400582:	fc042c23          	sw	zero,-40(s0)
ffffffc050400586:	a831                	j	ffffffc0504005a2 <load_elf+0x164>
ffffffc050400588:	fd842783          	lw	a5,-40(s0)
ffffffc05040058c:	078e                	slli	a5,a5,0x3
ffffffc05040058e:	fb843703          	ld	a4,-72(s0)
ffffffc050400592:	97ba                	add	a5,a5,a4
ffffffc050400594:	0007b023          	sd	zero,0(a5) # 1000 <_start-0xffffffc0503ff000>
ffffffc050400598:	fd842783          	lw	a5,-40(s0)
ffffffc05040059c:	2785                	addiw	a5,a5,1
ffffffc05040059e:	fcf42c23          	sw	a5,-40(s0)
ffffffc0504005a2:	fd842783          	lw	a5,-40(s0)
ffffffc0504005a6:	873e                	mv	a4,a5
ffffffc0504005a8:	1ff00793          	li	a5,511
ffffffc0504005ac:	fce7fee3          	bgeu	a5,a4,ffffffc050400588 <load_elf+0x14a>
ffffffc0504005b0:	fe042703          	lw	a4,-32(s0)
ffffffc0504005b4:	6785                	lui	a5,0x1
ffffffc0504005b6:	9fb9                	addw	a5,a5,a4
ffffffc0504005b8:	2781                	sext.w	a5,a5
ffffffc0504005ba:	fef42023          	sw	a5,-32(s0)
ffffffc0504005be:	fe042703          	lw	a4,-32(s0)
ffffffc0504005c2:	fc843783          	ld	a5,-56(s0)
ffffffc0504005c6:	779c                	ld	a5,40(a5)
ffffffc0504005c8:	eef765e3          	bltu	a4,a5,ffffffc0504004b2 <load_elf+0x74>
ffffffc0504005cc:	fc645783          	lhu	a5,-58(s0)
ffffffc0504005d0:	fe843703          	ld	a4,-24(s0)
ffffffc0504005d4:	97ba                	add	a5,a5,a4
ffffffc0504005d6:	fef43423          	sd	a5,-24(s0)
ffffffc0504005da:	fe645783          	lhu	a5,-26(s0)
ffffffc0504005de:	fff7871b          	addiw	a4,a5,-1
ffffffc0504005e2:	fee41323          	sh	a4,-26(s0)
ffffffc0504005e6:	ea0798e3          	bnez	a5,ffffffc050400496 <load_elf+0x58>
ffffffc0504005ea:	fd043783          	ld	a5,-48(s0)
ffffffc0504005ee:	6f9c                	ld	a5,24(a5)
ffffffc0504005f0:	853e                	mv	a0,a5
ffffffc0504005f2:	70a6                	ld	ra,104(sp)
ffffffc0504005f4:	7406                	ld	s0,96(sp)
ffffffc0504005f6:	6165                	addi	sp,sp,112
ffffffc0504005f8:	8082                	ret

ffffffc0504005fa <init_pcb_stack>:
ffffffc0504005fa:	711d                	addi	sp,sp,-96
ffffffc0504005fc:	eca2                	sd	s0,88(sp)
ffffffc0504005fe:	1080                	addi	s0,sp,96
ffffffc050400600:	fca43423          	sd	a0,-56(s0)
ffffffc050400604:	fcb43023          	sd	a1,-64(s0)
ffffffc050400608:	fac43c23          	sd	a2,-72(s0)
ffffffc05040060c:	fad43823          	sd	a3,-80(s0)
ffffffc050400610:	faf43023          	sd	a5,-96(s0)
ffffffc050400614:	87ba                	mv	a5,a4
ffffffc050400616:	faf42623          	sw	a5,-84(s0)
ffffffc05040061a:	fc843783          	ld	a5,-56(s0)
ffffffc05040061e:	ee078793          	addi	a5,a5,-288 # ee0 <_start-0xffffffc0503ff120>
ffffffc050400622:	fef43023          	sd	a5,-32(s0)
ffffffc050400626:	fe043423          	sd	zero,-24(s0)
ffffffc05040062a:	a831                	j	ffffffc050400646 <init_pcb_stack+0x4c>
ffffffc05040062c:	fe043703          	ld	a4,-32(s0)
ffffffc050400630:	fe843783          	ld	a5,-24(s0)
ffffffc050400634:	078e                	slli	a5,a5,0x3
ffffffc050400636:	97ba                	add	a5,a5,a4
ffffffc050400638:	0007b023          	sd	zero,0(a5)
ffffffc05040063c:	fe843783          	ld	a5,-24(s0)
ffffffc050400640:	0785                	addi	a5,a5,1
ffffffc050400642:	fef43423          	sd	a5,-24(s0)
ffffffc050400646:	fe843703          	ld	a4,-24(s0)
ffffffc05040064a:	47fd                	li	a5,31
ffffffc05040064c:	fee7f0e3          	bgeu	a5,a4,ffffffc05040062c <init_pcb_stack+0x32>
ffffffc050400650:	fb043783          	ld	a5,-80(s0)
ffffffc050400654:	57dc                	lw	a5,44(a5)
ffffffc050400656:	873e                	mv	a4,a5
ffffffc050400658:	4789                	li	a5,2
ffffffc05040065a:	00f70963          	beq	a4,a5,ffffffc05040066c <init_pcb_stack+0x72>
ffffffc05040065e:	fb043783          	ld	a5,-80(s0)
ffffffc050400662:	57dc                	lw	a5,44(a5)
ffffffc050400664:	873e                	mv	a4,a5
ffffffc050400666:	478d                	li	a5,3
ffffffc050400668:	04f71863          	bne	a4,a5,ffffffc0504006b8 <init_pcb_stack+0xbe>
ffffffc05040066c:	fe043783          	ld	a5,-32(s0)
ffffffc050400670:	3c000737          	lui	a4,0x3c000
ffffffc050400674:	3fd70713          	addi	a4,a4,1021 # 3c0003fd <_start-0xffffffc0143ffc03>
ffffffc050400678:	071a                	slli	a4,a4,0x6
ffffffc05040067a:	eb98                	sd	a4,16(a5)
ffffffc05040067c:	00018713          	mv	a4,gp
ffffffc050400680:	fe043783          	ld	a5,-32(s0)
ffffffc050400684:	ef98                	sd	a4,24(a5)
ffffffc050400686:	fb043703          	ld	a4,-80(s0)
ffffffc05040068a:	fe043783          	ld	a5,-32(s0)
ffffffc05040068e:	f398                	sd	a4,32(a5)
ffffffc050400690:	fe043783          	ld	a5,-32(s0)
ffffffc050400694:	fb843703          	ld	a4,-72(s0)
ffffffc050400698:	10e7b423          	sd	a4,264(a5)
ffffffc05040069c:	fe043783          	ld	a5,-32(s0)
ffffffc0504006a0:	00040737          	lui	a4,0x40
ffffffc0504006a4:	10e7b023          	sd	a4,256(a5)
ffffffc0504006a8:	fe043783          	ld	a5,-32(s0)
ffffffc0504006ac:	1007bc23          	sd	zero,280(a5)
ffffffc0504006b0:	fe043783          	ld	a5,-32(s0)
ffffffc0504006b4:	1007b823          	sd	zero,272(a5)
ffffffc0504006b8:	fac42703          	lw	a4,-84(s0)
ffffffc0504006bc:	fe043783          	ld	a5,-32(s0)
ffffffc0504006c0:	ebb8                	sd	a4,80(a5)
ffffffc0504006c2:	fa043703          	ld	a4,-96(s0)
ffffffc0504006c6:	fe043783          	ld	a5,-32(s0)
ffffffc0504006ca:	efb8                	sd	a4,88(a5)
ffffffc0504006cc:	fc843783          	ld	a5,-56(s0)
ffffffc0504006d0:	e7078713          	addi	a4,a5,-400
ffffffc0504006d4:	fb043783          	ld	a5,-80(s0)
ffffffc0504006d8:	e398                	sd	a4,0(a5)
ffffffc0504006da:	fb043783          	ld	a5,-80(s0)
ffffffc0504006de:	639c                	ld	a5,0(a5)
ffffffc0504006e0:	fcf43c23          	sd	a5,-40(s0)
ffffffc0504006e4:	fb043783          	ld	a5,-80(s0)
ffffffc0504006e8:	fc043703          	ld	a4,-64(s0)
ffffffc0504006ec:	e798                	sd	a4,8(a5)
ffffffc0504006ee:	fb043783          	ld	a5,-80(s0)
ffffffc0504006f2:	57dc                	lw	a5,44(a5)
ffffffc0504006f4:	873e                	mv	a4,a5
ffffffc0504006f6:	4789                	li	a5,2
ffffffc0504006f8:	00f70963          	beq	a4,a5,ffffffc05040070a <init_pcb_stack+0x110>
ffffffc0504006fc:	fb043783          	ld	a5,-80(s0)
ffffffc050400700:	57dc                	lw	a5,44(a5)
ffffffc050400702:	873e                	mv	a4,a5
ffffffc050400704:	478d                	li	a5,3
ffffffc050400706:	00f71a63          	bne	a4,a5,ffffffc05040071a <init_pcb_stack+0x120>
ffffffc05040070a:	00000717          	auipc	a4,0x0
ffffffc05040070e:	a2e70713          	addi	a4,a4,-1490 # ffffffc050400138 <ret_from_exception>
ffffffc050400712:	fd843783          	ld	a5,-40(s0)
ffffffc050400716:	e398                	sd	a4,0(a5)
ffffffc050400718:	a031                	j	ffffffc050400724 <init_pcb_stack+0x12a>
ffffffc05040071a:	fd843783          	ld	a5,-40(s0)
ffffffc05040071e:	fb843703          	ld	a4,-72(s0)
ffffffc050400722:	e398                	sd	a4,0(a5)
ffffffc050400724:	fd843783          	ld	a5,-40(s0)
ffffffc050400728:	fc043703          	ld	a4,-64(s0)
ffffffc05040072c:	e798                	sd	a4,8(a5)
ffffffc05040072e:	4789                	li	a5,2
ffffffc050400730:	fef43423          	sd	a5,-24(s0)
ffffffc050400734:	a831                	j	ffffffc050400750 <init_pcb_stack+0x156>
ffffffc050400736:	fd843703          	ld	a4,-40(s0)
ffffffc05040073a:	fe843783          	ld	a5,-24(s0)
ffffffc05040073e:	078e                	slli	a5,a5,0x3
ffffffc050400740:	97ba                	add	a5,a5,a4
ffffffc050400742:	0007b023          	sd	zero,0(a5)
ffffffc050400746:	fe843783          	ld	a5,-24(s0)
ffffffc05040074a:	0785                	addi	a5,a5,1
ffffffc05040074c:	fef43423          	sd	a5,-24(s0)
ffffffc050400750:	fe843703          	ld	a4,-24(s0)
ffffffc050400754:	47b5                	li	a5,13
ffffffc050400756:	fee7f0e3          	bgeu	a5,a4,ffffffc050400736 <init_pcb_stack+0x13c>
ffffffc05040075a:	0001                	nop
ffffffc05040075c:	0001                	nop
ffffffc05040075e:	6466                	ld	s0,88(sp)
ffffffc050400760:	6125                	addi	sp,sp,96
ffffffc050400762:	8082                	ret

ffffffc050400764 <alloc_page_helper_user>:
ffffffc050400764:	1101                	addi	sp,sp,-32
ffffffc050400766:	ec06                	sd	ra,24(sp)
ffffffc050400768:	e822                	sd	s0,16(sp)
ffffffc05040076a:	1000                	addi	s0,sp,32
ffffffc05040076c:	fea43423          	sd	a0,-24(s0)
ffffffc050400770:	feb43023          	sd	a1,-32(s0)
ffffffc050400774:	4605                	li	a2,1
ffffffc050400776:	fe043583          	ld	a1,-32(s0)
ffffffc05040077a:	fe843503          	ld	a0,-24(s0)
ffffffc05040077e:	4e9040ef          	jal	ra,ffffffc050405466 <alloc_page_helper>
ffffffc050400782:	87aa                	mv	a5,a0
ffffffc050400784:	853e                	mv	a0,a5
ffffffc050400786:	60e2                	ld	ra,24(sp)
ffffffc050400788:	6442                	ld	s0,16(sp)
ffffffc05040078a:	6105                	addi	sp,sp,32
ffffffc05040078c:	8082                	ret

ffffffc05040078e <init_shell>:
ffffffc05040078e:	7139                	addi	sp,sp,-64
ffffffc050400790:	fc06                	sd	ra,56(sp)
ffffffc050400792:	f822                	sd	s0,48(sp)
ffffffc050400794:	f426                	sd	s1,40(sp)
ffffffc050400796:	0080                	addi	s0,sp,64
ffffffc050400798:	b31ff0ef          	jal	ra,ffffffc0504002c8 <get_current_cpu_id>
ffffffc05040079c:	87aa                	mv	a5,a0
ffffffc05040079e:	e791                	bnez	a5,ffffffc0504007aa <init_shell+0x1c>
ffffffc0504007a0:	00046797          	auipc	a5,0x46
ffffffc0504007a4:	a7078793          	addi	a5,a5,-1424 # ffffffc050446210 <current_running_core0>
ffffffc0504007a8:	a029                	j	ffffffc0504007b2 <init_shell+0x24>
ffffffc0504007aa:	00046797          	auipc	a5,0x46
ffffffc0504007ae:	a5e78793          	addi	a5,a5,-1442 # ffffffc050446208 <current_running_core1>
ffffffc0504007b2:	00047717          	auipc	a4,0x47
ffffffc0504007b6:	21670713          	addi	a4,a4,534 # ffffffc0504479c8 <current_running>
ffffffc0504007ba:	e31c                	sd	a5,0(a4)
ffffffc0504007bc:	00006517          	auipc	a0,0x6
ffffffc0504007c0:	45c50513          	addi	a0,a0,1116 # ffffffc050406c18 <ready_queue>
ffffffc0504007c4:	b0bff0ef          	jal	ra,ffffffc0504002ce <init_list_head>
ffffffc0504007c8:	00006517          	auipc	a0,0x6
ffffffc0504007cc:	47050513          	addi	a0,a0,1136 # ffffffc050406c38 <sleep_queue>
ffffffc0504007d0:	affff0ef          	jal	ra,ffffffc0504002ce <init_list_head>
ffffffc0504007d4:	00047797          	auipc	a5,0x47
ffffffc0504007d8:	1fc78793          	addi	a5,a5,508 # ffffffc0504479d0 <pcb>
ffffffc0504007dc:	4705                	li	a4,1
ffffffc0504007de:	d798                	sw	a4,40(a5)
ffffffc0504007e0:	00047797          	auipc	a5,0x47
ffffffc0504007e4:	1f078793          	addi	a5,a5,496 # ffffffc0504479d0 <pcb>
ffffffc0504007e8:	4709                	li	a4,2
ffffffc0504007ea:	db98                	sw	a4,48(a5)
ffffffc0504007ec:	00047797          	auipc	a5,0x47
ffffffc0504007f0:	1e478793          	addi	a5,a5,484 # ffffffc0504479d0 <pcb>
ffffffc0504007f4:	4709                	li	a4,2
ffffffc0504007f6:	d7d8                	sw	a4,44(a5)
ffffffc0504007f8:	fc043c23          	sd	zero,-40(s0)
ffffffc0504007fc:	602040ef          	jal	ra,ffffffc050404dfe <allocPage>
ffffffc050400800:	87aa                	mv	a5,a0
ffffffc050400802:	873e                	mv	a4,a5
ffffffc050400804:	00047797          	auipc	a5,0x47
ffffffc050400808:	1cc78793          	addi	a5,a5,460 # ffffffc0504479d0 <pcb>
ffffffc05040080c:	ffd8                	sd	a4,184(a5)
ffffffc05040080e:	00047797          	auipc	a5,0x47
ffffffc050400812:	1c278793          	addi	a5,a5,450 # ffffffc0504479d0 <pcb>
ffffffc050400816:	7fc4                	ld	s1,184(a5)
ffffffc050400818:	5e000537          	lui	a0,0x5e000
ffffffc05040081c:	be1ff0ef          	jal	ra,ffffffc0504003fc <pa2kva>
ffffffc050400820:	87aa                	mv	a5,a0
ffffffc050400822:	6605                	lui	a2,0x1
ffffffc050400824:	85be                	mv	a1,a5
ffffffc050400826:	8526                	mv	a0,s1
ffffffc050400828:	7f9040ef          	jal	ra,ffffffc050405820 <kmemcpy>
ffffffc05040082c:	00047797          	auipc	a5,0x47
ffffffc050400830:	1a478793          	addi	a5,a5,420 # ffffffc0504479d0 <pcb>
ffffffc050400834:	7fdc                	ld	a5,184(a5)
ffffffc050400836:	4601                	li	a2,0
ffffffc050400838:	85be                	mv	a1,a5
ffffffc05040083a:	fc0007b7          	lui	a5,0xfc000
ffffffc05040083e:	17fd                	addi	a5,a5,-1
ffffffc050400840:	00c79513          	slli	a0,a5,0xc
ffffffc050400844:	423040ef          	jal	ra,ffffffc050405466 <alloc_page_helper>
ffffffc050400848:	872a                	mv	a4,a0
ffffffc05040084a:	6785                	lui	a5,0x1
ffffffc05040084c:	f8078793          	addi	a5,a5,-128 # f80 <_start-0xffffffc0503ff080>
ffffffc050400850:	97ba                	add	a5,a5,a4
ffffffc050400852:	fcf43823          	sd	a5,-48(s0)
ffffffc050400856:	00047797          	auipc	a5,0x47
ffffffc05040085a:	17a78793          	addi	a5,a5,378 # ffffffc0504479d0 <pcb>
ffffffc05040085e:	7fdc                	ld	a5,184(a5)
ffffffc050400860:	4605                	li	a2,1
ffffffc050400862:	85be                	mv	a1,a5
ffffffc050400864:	00f007b7          	lui	a5,0xf00
ffffffc050400868:	07bd                	addi	a5,a5,15
ffffffc05040086a:	00c79513          	slli	a0,a5,0xc
ffffffc05040086e:	3f9040ef          	jal	ra,ffffffc050405466 <alloc_page_helper>
ffffffc050400872:	872a                	mv	a4,a0
ffffffc050400874:	6785                	lui	a5,0x1
ffffffc050400876:	f8078793          	addi	a5,a5,-128 # f80 <_start-0xffffffc0503ff080>
ffffffc05040087a:	97ba                	add	a5,a5,a4
ffffffc05040087c:	fcf43423          	sd	a5,-56(s0)
ffffffc050400880:	00047797          	auipc	a5,0x47
ffffffc050400884:	15078793          	addi	a5,a5,336 # ffffffc0504479d0 <pcb>
ffffffc050400888:	470d                	li	a4,3
ffffffc05040088a:	0ae78823          	sb	a4,176(a5)
ffffffc05040088e:	82818793          	addi	a5,gp,-2008 # ffffffc050444210 <_length___test_test_shell_elf>
ffffffc050400892:	439c                	lw	a5,0(a5)
ffffffc050400894:	0007871b          	sext.w	a4,a5
ffffffc050400898:	00047797          	auipc	a5,0x47
ffffffc05040089c:	13878793          	addi	a5,a5,312 # ffffffc0504479d0 <pcb>
ffffffc0504008a0:	7fdc                	ld	a5,184(a5)
ffffffc0504008a2:	00000697          	auipc	a3,0x0
ffffffc0504008a6:	ec268693          	addi	a3,a3,-318 # ffffffc050400764 <alloc_page_helper_user>
ffffffc0504008aa:	863e                	mv	a2,a5
ffffffc0504008ac:	85ba                	mv	a1,a4
ffffffc0504008ae:	00006517          	auipc	a0,0x6
ffffffc0504008b2:	3aa50513          	addi	a0,a0,938 # ffffffc050406c58 <_elf___test_test_shell_elf>
ffffffc0504008b6:	b89ff0ef          	jal	ra,ffffffc05040043e <load_elf>
ffffffc0504008ba:	fca43023          	sd	a0,-64(s0)
ffffffc0504008be:	4781                	li	a5,0
ffffffc0504008c0:	4701                	li	a4,0
ffffffc0504008c2:	00047697          	auipc	a3,0x47
ffffffc0504008c6:	10e68693          	addi	a3,a3,270 # ffffffc0504479d0 <pcb>
ffffffc0504008ca:	fc043603          	ld	a2,-64(s0)
ffffffc0504008ce:	fc843583          	ld	a1,-56(s0)
ffffffc0504008d2:	fd043503          	ld	a0,-48(s0)
ffffffc0504008d6:	d25ff0ef          	jal	ra,ffffffc0504005fa <init_pcb_stack>
ffffffc0504008da:	00047797          	auipc	a5,0x47
ffffffc0504008de:	0f678793          	addi	a5,a5,246 # ffffffc0504479d0 <pcb>
ffffffc0504008e2:	1e000737          	lui	a4,0x1e000
ffffffc0504008e6:	1ff70713          	addi	a4,a4,511 # 1e0001ff <_start-0xffffffc0323ffe01>
ffffffc0504008ea:	071e                	slli	a4,a4,0x7
ffffffc0504008ec:	e798                	sd	a4,8(a5)
ffffffc0504008ee:	00047797          	auipc	a5,0x47
ffffffc0504008f2:	0e278793          	addi	a5,a5,226 # ffffffc0504479d0 <pcb>
ffffffc0504008f6:	7fdc                	ld	a5,184(a5)
ffffffc0504008f8:	853e                	mv	a0,a5
ffffffc0504008fa:	ae7ff0ef          	jal	ra,ffffffc0504003e0 <kva2pa>
ffffffc0504008fe:	87aa                	mv	a5,a0
ffffffc050400900:	873e                	mv	a4,a5
ffffffc050400902:	00047797          	auipc	a5,0x47
ffffffc050400906:	0ce78793          	addi	a5,a5,206 # ffffffc0504479d0 <pcb>
ffffffc05040090a:	ffd8                	sd	a4,184(a5)
ffffffc05040090c:	00047597          	auipc	a1,0x47
ffffffc050400910:	0c458593          	addi	a1,a1,196 # ffffffc0504479d0 <pcb>
ffffffc050400914:	00006517          	auipc	a0,0x6
ffffffc050400918:	30450513          	addi	a0,a0,772 # ffffffc050406c18 <ready_queue>
ffffffc05040091c:	65f030ef          	jal	ra,ffffffc05040477a <enqueue>
ffffffc050400920:	0001                	nop
ffffffc050400922:	70e2                	ld	ra,56(sp)
ffffffc050400924:	7442                	ld	s0,48(sp)
ffffffc050400926:	74a2                	ld	s1,40(sp)
ffffffc050400928:	6121                	addi	sp,sp,64
ffffffc05040092a:	8082                	ret

ffffffc05040092c <findpid>:
ffffffc05040092c:	1101                	addi	sp,sp,-32
ffffffc05040092e:	ec22                	sd	s0,24(sp)
ffffffc050400930:	1000                	addi	s0,sp,32
ffffffc050400932:	4785                	li	a5,1
ffffffc050400934:	fef42623          	sw	a5,-20(s0)
ffffffc050400938:	a035                	j	ffffffc050400964 <findpid+0x38>
ffffffc05040093a:	00047717          	auipc	a4,0x47
ffffffc05040093e:	09670713          	addi	a4,a4,150 # ffffffc0504479d0 <pcb>
ffffffc050400942:	fec42683          	lw	a3,-20(s0)
ffffffc050400946:	0d800793          	li	a5,216
ffffffc05040094a:	02f687b3          	mul	a5,a3,a5
ffffffc05040094e:	97ba                	add	a5,a5,a4
ffffffc050400950:	579c                	lw	a5,40(a5)
ffffffc050400952:	e781                	bnez	a5,ffffffc05040095a <findpid+0x2e>
ffffffc050400954:	fec42783          	lw	a5,-20(s0)
ffffffc050400958:	a831                	j	ffffffc050400974 <findpid+0x48>
ffffffc05040095a:	fec42783          	lw	a5,-20(s0)
ffffffc05040095e:	2785                	addiw	a5,a5,1
ffffffc050400960:	fef42623          	sw	a5,-20(s0)
ffffffc050400964:	fec42783          	lw	a5,-20(s0)
ffffffc050400968:	0007871b          	sext.w	a4,a5
ffffffc05040096c:	47bd                	li	a5,15
ffffffc05040096e:	fce7d6e3          	bge	a5,a4,ffffffc05040093a <findpid+0xe>
ffffffc050400972:	57fd                	li	a5,-1
ffffffc050400974:	853e                	mv	a0,a5
ffffffc050400976:	6462                	ld	s0,24(sp)
ffffffc050400978:	6105                	addi	sp,sp,32
ffffffc05040097a:	8082                	ret

ffffffc05040097c <init_pcb>:
ffffffc05040097c:	7139                	addi	sp,sp,-64
ffffffc05040097e:	fc06                	sd	ra,56(sp)
ffffffc050400980:	f822                	sd	s0,48(sp)
ffffffc050400982:	0080                	addi	s0,sp,64
ffffffc050400984:	fca43c23          	sd	a0,-40(s0)
ffffffc050400988:	fcb43823          	sd	a1,-48(s0)
ffffffc05040098c:	87b2                	mv	a5,a2
ffffffc05040098e:	8736                	mv	a4,a3
ffffffc050400990:	fcf42623          	sw	a5,-52(s0)
ffffffc050400994:	87ba                	mv	a5,a4
ffffffc050400996:	fcf405a3          	sb	a5,-53(s0)
ffffffc05040099a:	92fff0ef          	jal	ra,ffffffc0504002c8 <get_current_cpu_id>
ffffffc05040099e:	87aa                	mv	a5,a0
ffffffc0504009a0:	e791                	bnez	a5,ffffffc0504009ac <init_pcb+0x30>
ffffffc0504009a2:	00046797          	auipc	a5,0x46
ffffffc0504009a6:	86e78793          	addi	a5,a5,-1938 # ffffffc050446210 <current_running_core0>
ffffffc0504009aa:	a029                	j	ffffffc0504009b4 <init_pcb+0x38>
ffffffc0504009ac:	00046797          	auipc	a5,0x46
ffffffc0504009b0:	85c78793          	addi	a5,a5,-1956 # ffffffc050446208 <current_running_core1>
ffffffc0504009b4:	00047717          	auipc	a4,0x47
ffffffc0504009b8:	01470713          	addi	a4,a4,20 # ffffffc0504479c8 <current_running>
ffffffc0504009bc:	e31c                	sd	a5,0(a4)
ffffffc0504009be:	f6fff0ef          	jal	ra,ffffffc05040092c <findpid>
ffffffc0504009c2:	87aa                	mv	a5,a0
ffffffc0504009c4:	fef42623          	sw	a5,-20(s0)
ffffffc0504009c8:	fec42783          	lw	a5,-20(s0)
ffffffc0504009cc:	2781                	sext.w	a5,a5
ffffffc0504009ce:	00f04963          	bgtz	a5,ffffffc0504009e0 <init_pcb+0x64>
ffffffc0504009d2:	00006517          	auipc	a0,0x6
ffffffc0504009d6:	a5e50513          	addi	a0,a0,-1442 # ffffffc050406430 <get_elf_file+0xa6>
ffffffc0504009da:	0cd050ef          	jal	ra,ffffffc0504062a6 <printk>
ffffffc0504009de:	a001                	j	ffffffc0504009de <init_pcb+0x62>
ffffffc0504009e0:	00047717          	auipc	a4,0x47
ffffffc0504009e4:	ff070713          	addi	a4,a4,-16 # ffffffc0504479d0 <pcb>
ffffffc0504009e8:	fec42683          	lw	a3,-20(s0)
ffffffc0504009ec:	0d800793          	li	a5,216
ffffffc0504009f0:	02f687b3          	mul	a5,a3,a5
ffffffc0504009f4:	97ba                	add	a5,a5,a4
ffffffc0504009f6:	4709                	li	a4,2
ffffffc0504009f8:	db98                	sw	a4,48(a5)
ffffffc0504009fa:	fec42783          	lw	a5,-20(s0)
ffffffc0504009fe:	2785                	addiw	a5,a5,1
ffffffc050400a00:	0007871b          	sext.w	a4,a5
ffffffc050400a04:	00047697          	auipc	a3,0x47
ffffffc050400a08:	fcc68693          	addi	a3,a3,-52 # ffffffc0504479d0 <pcb>
ffffffc050400a0c:	fec42603          	lw	a2,-20(s0)
ffffffc050400a10:	0d800793          	li	a5,216
ffffffc050400a14:	02f607b3          	mul	a5,a2,a5
ffffffc050400a18:	97b6                	add	a5,a5,a3
ffffffc050400a1a:	d798                	sw	a4,40(a5)
ffffffc050400a1c:	00047717          	auipc	a4,0x47
ffffffc050400a20:	fb470713          	addi	a4,a4,-76 # ffffffc0504479d0 <pcb>
ffffffc050400a24:	fec42683          	lw	a3,-20(s0)
ffffffc050400a28:	0d800793          	li	a5,216
ffffffc050400a2c:	02f687b3          	mul	a5,a3,a5
ffffffc050400a30:	97ba                	add	a5,a5,a4
ffffffc050400a32:	fcc42703          	lw	a4,-52(s0)
ffffffc050400a36:	dbd8                	sw	a4,52(a5)
ffffffc050400a38:	fd843783          	ld	a5,-40(s0)
ffffffc050400a3c:	4798                	lw	a4,8(a5)
ffffffc050400a3e:	00047697          	auipc	a3,0x47
ffffffc050400a42:	f9268693          	addi	a3,a3,-110 # ffffffc0504479d0 <pcb>
ffffffc050400a46:	fec42603          	lw	a2,-20(s0)
ffffffc050400a4a:	0d800793          	li	a5,216
ffffffc050400a4e:	02f607b3          	mul	a5,a2,a5
ffffffc050400a52:	97b6                	add	a5,a5,a3
ffffffc050400a54:	d7d8                	sw	a4,44(a5)
ffffffc050400a56:	00045717          	auipc	a4,0x45
ffffffc050400a5a:	7c270713          	addi	a4,a4,1986 # ffffffc050446218 <kernel_stack>
ffffffc050400a5e:	fec42783          	lw	a5,-20(s0)
ffffffc050400a62:	078e                	slli	a5,a5,0x3
ffffffc050400a64:	97ba                	add	a5,a5,a4
ffffffc050400a66:	6398                	ld	a4,0(a5)
ffffffc050400a68:	00047697          	auipc	a3,0x47
ffffffc050400a6c:	f6868693          	addi	a3,a3,-152 # ffffffc0504479d0 <pcb>
ffffffc050400a70:	fec42603          	lw	a2,-20(s0)
ffffffc050400a74:	0d800793          	li	a5,216
ffffffc050400a78:	02f607b3          	mul	a5,a2,a5
ffffffc050400a7c:	97b6                	add	a5,a5,a3
ffffffc050400a7e:	e398                	sd	a4,0(a5)
ffffffc050400a80:	00045717          	auipc	a4,0x45
ffffffc050400a84:	70070713          	addi	a4,a4,1792 # ffffffc050446180 <user_stack>
ffffffc050400a88:	fec42783          	lw	a5,-20(s0)
ffffffc050400a8c:	078e                	slli	a5,a5,0x3
ffffffc050400a8e:	97ba                	add	a5,a5,a4
ffffffc050400a90:	6398                	ld	a4,0(a5)
ffffffc050400a92:	00047697          	auipc	a3,0x47
ffffffc050400a96:	f3e68693          	addi	a3,a3,-194 # ffffffc0504479d0 <pcb>
ffffffc050400a9a:	fec42603          	lw	a2,-20(s0)
ffffffc050400a9e:	0d800793          	li	a5,216
ffffffc050400aa2:	02f607b3          	mul	a5,a2,a5
ffffffc050400aa6:	97b6                	add	a5,a5,a3
ffffffc050400aa8:	e798                	sd	a4,8(a5)
ffffffc050400aaa:	fcb44783          	lbu	a5,-53(s0)
ffffffc050400aae:	0ff7f793          	andi	a5,a5,255
ffffffc050400ab2:	eb99                	bnez	a5,ffffffc050400ac8 <init_pcb+0x14c>
ffffffc050400ab4:	00047797          	auipc	a5,0x47
ffffffc050400ab8:	f1478793          	addi	a5,a5,-236 # ffffffc0504479c8 <current_running>
ffffffc050400abc:	639c                	ld	a5,0(a5)
ffffffc050400abe:	639c                	ld	a5,0(a5)
ffffffc050400ac0:	0b07c783          	lbu	a5,176(a5)
ffffffc050400ac4:	fcf405a3          	sb	a5,-53(s0)
ffffffc050400ac8:	00047717          	auipc	a4,0x47
ffffffc050400acc:	f0870713          	addi	a4,a4,-248 # ffffffc0504479d0 <pcb>
ffffffc050400ad0:	fec42683          	lw	a3,-20(s0)
ffffffc050400ad4:	0d800793          	li	a5,216
ffffffc050400ad8:	02f687b3          	mul	a5,a3,a5
ffffffc050400adc:	97ba                	add	a5,a5,a4
ffffffc050400ade:	fcb44703          	lbu	a4,-53(s0)
ffffffc050400ae2:	0ae78823          	sb	a4,176(a5)
ffffffc050400ae6:	00047717          	auipc	a4,0x47
ffffffc050400aea:	eea70713          	addi	a4,a4,-278 # ffffffc0504479d0 <pcb>
ffffffc050400aee:	fec42683          	lw	a3,-20(s0)
ffffffc050400af2:	0d800793          	li	a5,216
ffffffc050400af6:	02f687b3          	mul	a5,a3,a5
ffffffc050400afa:	97ba                	add	a5,a5,a4
ffffffc050400afc:	6388                	ld	a0,0(a5)
ffffffc050400afe:	00047717          	auipc	a4,0x47
ffffffc050400b02:	ed270713          	addi	a4,a4,-302 # ffffffc0504479d0 <pcb>
ffffffc050400b06:	fec42683          	lw	a3,-20(s0)
ffffffc050400b0a:	0d800793          	li	a5,216
ffffffc050400b0e:	02f687b3          	mul	a5,a3,a5
ffffffc050400b12:	97ba                	add	a5,a5,a4
ffffffc050400b14:	678c                	ld	a1,8(a5)
ffffffc050400b16:	fd843783          	ld	a5,-40(s0)
ffffffc050400b1a:	6390                	ld	a2,0(a5)
ffffffc050400b1c:	fec42703          	lw	a4,-20(s0)
ffffffc050400b20:	0d800793          	li	a5,216
ffffffc050400b24:	02f70733          	mul	a4,a4,a5
ffffffc050400b28:	00047797          	auipc	a5,0x47
ffffffc050400b2c:	ea878793          	addi	a5,a5,-344 # ffffffc0504479d0 <pcb>
ffffffc050400b30:	00f706b3          	add	a3,a4,a5
ffffffc050400b34:	fd043783          	ld	a5,-48(s0)
ffffffc050400b38:	0007871b          	sext.w	a4,a5
ffffffc050400b3c:	4781                	li	a5,0
ffffffc050400b3e:	abdff0ef          	jal	ra,ffffffc0504005fa <init_pcb_stack>
ffffffc050400b42:	fec42703          	lw	a4,-20(s0)
ffffffc050400b46:	0d800793          	li	a5,216
ffffffc050400b4a:	02f70733          	mul	a4,a4,a5
ffffffc050400b4e:	00047797          	auipc	a5,0x47
ffffffc050400b52:	e8278793          	addi	a5,a5,-382 # ffffffc0504479d0 <pcb>
ffffffc050400b56:	97ba                	add	a5,a5,a4
ffffffc050400b58:	85be                	mv	a1,a5
ffffffc050400b5a:	00006517          	auipc	a0,0x6
ffffffc050400b5e:	0be50513          	addi	a0,a0,190 # ffffffc050406c18 <ready_queue>
ffffffc050400b62:	419030ef          	jal	ra,ffffffc05040477a <enqueue>
ffffffc050400b66:	fec42783          	lw	a5,-20(s0)
ffffffc050400b6a:	2785                	addiw	a5,a5,1
ffffffc050400b6c:	2781                	sext.w	a5,a5
ffffffc050400b6e:	853e                	mv	a0,a5
ffffffc050400b70:	70e2                	ld	ra,56(sp)
ffffffc050400b72:	7442                	ld	s0,48(sp)
ffffffc050400b74:	6121                	addi	sp,sp,64
ffffffc050400b76:	8082                	ret

ffffffc050400b78 <init_all_stack>:
ffffffc050400b78:	1101                	addi	sp,sp,-32
ffffffc050400b7a:	ec06                	sd	ra,24(sp)
ffffffc050400b7c:	e822                	sd	s0,16(sp)
ffffffc050400b7e:	1000                	addi	s0,sp,32
ffffffc050400b80:	fe042623          	sw	zero,-20(s0)
ffffffc050400b84:	a081                	j	ffffffc050400bc4 <init_all_stack+0x4c>
ffffffc050400b86:	4505                	li	a0,1
ffffffc050400b88:	276040ef          	jal	ra,ffffffc050404dfe <allocPage>
ffffffc050400b8c:	86aa                	mv	a3,a0
ffffffc050400b8e:	00045717          	auipc	a4,0x45
ffffffc050400b92:	68a70713          	addi	a4,a4,1674 # ffffffc050446218 <kernel_stack>
ffffffc050400b96:	fec42783          	lw	a5,-20(s0)
ffffffc050400b9a:	078e                	slli	a5,a5,0x3
ffffffc050400b9c:	97ba                	add	a5,a5,a4
ffffffc050400b9e:	e394                	sd	a3,0(a5)
ffffffc050400ba0:	4505                	li	a0,1
ffffffc050400ba2:	25c040ef          	jal	ra,ffffffc050404dfe <allocPage>
ffffffc050400ba6:	86aa                	mv	a3,a0
ffffffc050400ba8:	00045717          	auipc	a4,0x45
ffffffc050400bac:	5d870713          	addi	a4,a4,1496 # ffffffc050446180 <user_stack>
ffffffc050400bb0:	fec42783          	lw	a5,-20(s0)
ffffffc050400bb4:	078e                	slli	a5,a5,0x3
ffffffc050400bb6:	97ba                	add	a5,a5,a4
ffffffc050400bb8:	e394                	sd	a3,0(a5)
ffffffc050400bba:	fec42783          	lw	a5,-20(s0)
ffffffc050400bbe:	2785                	addiw	a5,a5,1
ffffffc050400bc0:	fef42623          	sw	a5,-20(s0)
ffffffc050400bc4:	fec42783          	lw	a5,-20(s0)
ffffffc050400bc8:	0007871b          	sext.w	a4,a5
ffffffc050400bcc:	47bd                	li	a5,15
ffffffc050400bce:	fae7dce3          	bge	a5,a4,ffffffc050400b86 <init_all_stack+0xe>
ffffffc050400bd2:	0001                	nop
ffffffc050400bd4:	0001                	nop
ffffffc050400bd6:	60e2                	ld	ra,24(sp)
ffffffc050400bd8:	6442                	ld	s0,16(sp)
ffffffc050400bda:	6105                	addi	sp,sp,32
ffffffc050400bdc:	8082                	ret

ffffffc050400bde <error_syscall>:
ffffffc050400bde:	1141                	addi	sp,sp,-16
ffffffc050400be0:	e406                	sd	ra,8(sp)
ffffffc050400be2:	e022                	sd	s0,0(sp)
ffffffc050400be4:	0800                	addi	s0,sp,16
ffffffc050400be6:	00006517          	auipc	a0,0x6
ffffffc050400bea:	85a50513          	addi	a0,a0,-1958 # ffffffc050406440 <get_elf_file+0xb6>
ffffffc050400bee:	6b8050ef          	jal	ra,ffffffc0504062a6 <printk>
ffffffc050400bf2:	00006517          	auipc	a0,0x6
ffffffc050400bf6:	86e50513          	addi	a0,a0,-1938 # ffffffc050406460 <get_elf_file+0xd6>
ffffffc050400bfa:	6ac050ef          	jal	ra,ffffffc0504062a6 <printk>
ffffffc050400bfe:	a001                	j	ffffffc050400bfe <error_syscall+0x20>

ffffffc050400c00 <kernel_taskset>:
ffffffc050400c00:	1101                	addi	sp,sp,-32
ffffffc050400c02:	ec06                	sd	ra,24(sp)
ffffffc050400c04:	e822                	sd	s0,16(sp)
ffffffc050400c06:	1000                	addi	s0,sp,32
ffffffc050400c08:	87aa                	mv	a5,a0
ffffffc050400c0a:	872e                	mv	a4,a1
ffffffc050400c0c:	fef407a3          	sb	a5,-17(s0)
ffffffc050400c10:	87ba                	mv	a5,a4
ffffffc050400c12:	fef42423          	sw	a5,-24(s0)
ffffffc050400c16:	fe842783          	lw	a5,-24(s0)
ffffffc050400c1a:	37fd                	addiw	a5,a5,-1
ffffffc050400c1c:	0007869b          	sext.w	a3,a5
ffffffc050400c20:	00047717          	auipc	a4,0x47
ffffffc050400c24:	db070713          	addi	a4,a4,-592 # ffffffc0504479d0 <pcb>
ffffffc050400c28:	0d800793          	li	a5,216
ffffffc050400c2c:	02f687b3          	mul	a5,a3,a5
ffffffc050400c30:	97ba                	add	a5,a5,a4
ffffffc050400c32:	579c                	lw	a5,40(a5)
ffffffc050400c34:	eb99                	bnez	a5,ffffffc050400c4a <kernel_taskset+0x4a>
ffffffc050400c36:	fe842783          	lw	a5,-24(s0)
ffffffc050400c3a:	85be                	mv	a1,a5
ffffffc050400c3c:	00006517          	auipc	a0,0x6
ffffffc050400c40:	83450513          	addi	a0,a0,-1996 # ffffffc050406470 <get_elf_file+0xe6>
ffffffc050400c44:	6ea050ef          	jal	ra,ffffffc05040632e <prints>
ffffffc050400c48:	a01d                	j	ffffffc050400c6e <kernel_taskset+0x6e>
ffffffc050400c4a:	fe842783          	lw	a5,-24(s0)
ffffffc050400c4e:	37fd                	addiw	a5,a5,-1
ffffffc050400c50:	0007869b          	sext.w	a3,a5
ffffffc050400c54:	00047717          	auipc	a4,0x47
ffffffc050400c58:	d7c70713          	addi	a4,a4,-644 # ffffffc0504479d0 <pcb>
ffffffc050400c5c:	0d800793          	li	a5,216
ffffffc050400c60:	02f687b3          	mul	a5,a3,a5
ffffffc050400c64:	97ba                	add	a5,a5,a4
ffffffc050400c66:	fef44703          	lbu	a4,-17(s0)
ffffffc050400c6a:	0ae78823          	sb	a4,176(a5)
ffffffc050400c6e:	60e2                	ld	ra,24(sp)
ffffffc050400c70:	6442                	ld	s0,16(sp)
ffffffc050400c72:	6105                	addi	sp,sp,32
ffffffc050400c74:	8082                	ret

ffffffc050400c76 <match_elf>:
ffffffc050400c76:	7179                	addi	sp,sp,-48
ffffffc050400c78:	f406                	sd	ra,40(sp)
ffffffc050400c7a:	f022                	sd	s0,32(sp)
ffffffc050400c7c:	1800                	addi	s0,sp,48
ffffffc050400c7e:	fca43c23          	sd	a0,-40(s0)
ffffffc050400c82:	4785                	li	a5,1
ffffffc050400c84:	fef42623          	sw	a5,-20(s0)
ffffffc050400c88:	a825                	j	ffffffc050400cc0 <match_elf+0x4a>
ffffffc050400c8a:	00043697          	auipc	a3,0x43
ffffffc050400c8e:	4e668693          	addi	a3,a3,1254 # ffffffc050444170 <elf_files>
ffffffc050400c92:	fec42703          	lw	a4,-20(s0)
ffffffc050400c96:	87ba                	mv	a5,a4
ffffffc050400c98:	0786                	slli	a5,a5,0x1
ffffffc050400c9a:	97ba                	add	a5,a5,a4
ffffffc050400c9c:	078e                	slli	a5,a5,0x3
ffffffc050400c9e:	97b6                	add	a5,a5,a3
ffffffc050400ca0:	639c                	ld	a5,0(a5)
ffffffc050400ca2:	85be                	mv	a1,a5
ffffffc050400ca4:	fd843503          	ld	a0,-40(s0)
ffffffc050400ca8:	49b040ef          	jal	ra,ffffffc050405942 <kstrcmp>
ffffffc050400cac:	87aa                	mv	a5,a0
ffffffc050400cae:	e781                	bnez	a5,ffffffc050400cb6 <match_elf+0x40>
ffffffc050400cb0:	fec42783          	lw	a5,-20(s0)
ffffffc050400cb4:	a831                	j	ffffffc050400cd0 <match_elf+0x5a>
ffffffc050400cb6:	fec42783          	lw	a5,-20(s0)
ffffffc050400cba:	2785                	addiw	a5,a5,1
ffffffc050400cbc:	fef42623          	sw	a5,-20(s0)
ffffffc050400cc0:	fec42783          	lw	a5,-20(s0)
ffffffc050400cc4:	0007871b          	sext.w	a4,a5
ffffffc050400cc8:	4791                	li	a5,4
ffffffc050400cca:	fce7d0e3          	bge	a5,a4,ffffffc050400c8a <match_elf+0x14>
ffffffc050400cce:	57fd                	li	a5,-1
ffffffc050400cd0:	853e                	mv	a0,a5
ffffffc050400cd2:	70a2                	ld	ra,40(sp)
ffffffc050400cd4:	7402                	ld	s0,32(sp)
ffffffc050400cd6:	6145                	addi	sp,sp,48
ffffffc050400cd8:	8082                	ret

ffffffc050400cda <do_show_exec>:
ffffffc050400cda:	1101                	addi	sp,sp,-32
ffffffc050400cdc:	ec06                	sd	ra,24(sp)
ffffffc050400cde:	e822                	sd	s0,16(sp)
ffffffc050400ce0:	1000                	addi	s0,sp,32
ffffffc050400ce2:	4785                	li	a5,1
ffffffc050400ce4:	fef42623          	sw	a5,-20(s0)
ffffffc050400ce8:	a80d                	j	ffffffc050400d1a <do_show_exec+0x40>
ffffffc050400cea:	00043697          	auipc	a3,0x43
ffffffc050400cee:	48668693          	addi	a3,a3,1158 # ffffffc050444170 <elf_files>
ffffffc050400cf2:	fec42703          	lw	a4,-20(s0)
ffffffc050400cf6:	87ba                	mv	a5,a4
ffffffc050400cf8:	0786                	slli	a5,a5,0x1
ffffffc050400cfa:	97ba                	add	a5,a5,a4
ffffffc050400cfc:	078e                	slli	a5,a5,0x3
ffffffc050400cfe:	97b6                	add	a5,a5,a3
ffffffc050400d00:	639c                	ld	a5,0(a5)
ffffffc050400d02:	85be                	mv	a1,a5
ffffffc050400d04:	00005517          	auipc	a0,0x5
ffffffc050400d08:	78c50513          	addi	a0,a0,1932 # ffffffc050406490 <get_elf_file+0x106>
ffffffc050400d0c:	622050ef          	jal	ra,ffffffc05040632e <prints>
ffffffc050400d10:	fec42783          	lw	a5,-20(s0)
ffffffc050400d14:	2785                	addiw	a5,a5,1
ffffffc050400d16:	fef42623          	sw	a5,-20(s0)
ffffffc050400d1a:	fec42783          	lw	a5,-20(s0)
ffffffc050400d1e:	0007871b          	sext.w	a4,a5
ffffffc050400d22:	4791                	li	a5,4
ffffffc050400d24:	fce7d3e3          	bge	a5,a4,ffffffc050400cea <do_show_exec+0x10>
ffffffc050400d28:	00005517          	auipc	a0,0x5
ffffffc050400d2c:	77050513          	addi	a0,a0,1904 # ffffffc050406498 <get_elf_file+0x10e>
ffffffc050400d30:	5fe050ef          	jal	ra,ffffffc05040632e <prints>
ffffffc050400d34:	0001                	nop
ffffffc050400d36:	60e2                	ld	ra,24(sp)
ffffffc050400d38:	6442                	ld	s0,16(sp)
ffffffc050400d3a:	6105                	addi	sp,sp,32
ffffffc050400d3c:	8082                	ret

ffffffc050400d3e <do_exec>:
ffffffc050400d3e:	7175                	addi	sp,sp,-144
ffffffc050400d40:	e506                	sd	ra,136(sp)
ffffffc050400d42:	e122                	sd	s0,128(sp)
ffffffc050400d44:	fca6                	sd	s1,120(sp)
ffffffc050400d46:	0900                	addi	s0,sp,144
ffffffc050400d48:	f8a43423          	sd	a0,-120(s0)
ffffffc050400d4c:	87ae                	mv	a5,a1
ffffffc050400d4e:	f6c43c23          	sd	a2,-136(s0)
ffffffc050400d52:	8736                	mv	a4,a3
ffffffc050400d54:	f8f42223          	sw	a5,-124(s0)
ffffffc050400d58:	87ba                	mv	a5,a4
ffffffc050400d5a:	f8f42023          	sw	a5,-128(s0)
ffffffc050400d5e:	f8843503          	ld	a0,-120(s0)
ffffffc050400d62:	f15ff0ef          	jal	ra,ffffffc050400c76 <match_elf>
ffffffc050400d66:	87aa                	mv	a5,a0
ffffffc050400d68:	fcf42c23          	sw	a5,-40(s0)
ffffffc050400d6c:	fd842783          	lw	a5,-40(s0)
ffffffc050400d70:	0007871b          	sext.w	a4,a5
ffffffc050400d74:	57fd                	li	a5,-1
ffffffc050400d76:	00f71c63          	bne	a4,a5,ffffffc050400d8e <do_exec+0x50>
ffffffc050400d7a:	f8843583          	ld	a1,-120(s0)
ffffffc050400d7e:	00005517          	auipc	a0,0x5
ffffffc050400d82:	72250513          	addi	a0,a0,1826 # ffffffc0504064a0 <get_elf_file+0x116>
ffffffc050400d86:	5a8050ef          	jal	ra,ffffffc05040632e <prints>
ffffffc050400d8a:	57fd                	li	a5,-1
ffffffc050400d8c:	a989                	j	ffffffc0504011de <do_exec+0x4a0>
ffffffc050400d8e:	d3aff0ef          	jal	ra,ffffffc0504002c8 <get_current_cpu_id>
ffffffc050400d92:	87aa                	mv	a5,a0
ffffffc050400d94:	e791                	bnez	a5,ffffffc050400da0 <do_exec+0x62>
ffffffc050400d96:	00045797          	auipc	a5,0x45
ffffffc050400d9a:	47a78793          	addi	a5,a5,1146 # ffffffc050446210 <current_running_core0>
ffffffc050400d9e:	a029                	j	ffffffc050400da8 <do_exec+0x6a>
ffffffc050400da0:	00045797          	auipc	a5,0x45
ffffffc050400da4:	46878793          	addi	a5,a5,1128 # ffffffc050446208 <current_running_core1>
ffffffc050400da8:	00047717          	auipc	a4,0x47
ffffffc050400dac:	c2070713          	addi	a4,a4,-992 # ffffffc0504479c8 <current_running>
ffffffc050400db0:	e31c                	sd	a5,0(a4)
ffffffc050400db2:	b7bff0ef          	jal	ra,ffffffc05040092c <findpid>
ffffffc050400db6:	87aa                	mv	a5,a0
ffffffc050400db8:	fcf42a23          	sw	a5,-44(s0)
ffffffc050400dbc:	fd442783          	lw	a5,-44(s0)
ffffffc050400dc0:	2781                	sext.w	a5,a5
ffffffc050400dc2:	00f04963          	bgtz	a5,ffffffc050400dd4 <do_exec+0x96>
ffffffc050400dc6:	00005517          	auipc	a0,0x5
ffffffc050400dca:	66a50513          	addi	a0,a0,1642 # ffffffc050406430 <get_elf_file+0xa6>
ffffffc050400dce:	560050ef          	jal	ra,ffffffc05040632e <prints>
ffffffc050400dd2:	a001                	j	ffffffc050400dd2 <do_exec+0x94>
ffffffc050400dd4:	00047717          	auipc	a4,0x47
ffffffc050400dd8:	bfc70713          	addi	a4,a4,-1028 # ffffffc0504479d0 <pcb>
ffffffc050400ddc:	fd442683          	lw	a3,-44(s0)
ffffffc050400de0:	0d800793          	li	a5,216
ffffffc050400de4:	02f687b3          	mul	a5,a3,a5
ffffffc050400de8:	97ba                	add	a5,a5,a4
ffffffc050400dea:	4709                	li	a4,2
ffffffc050400dec:	db98                	sw	a4,48(a5)
ffffffc050400dee:	00047717          	auipc	a4,0x47
ffffffc050400df2:	be270713          	addi	a4,a4,-1054 # ffffffc0504479d0 <pcb>
ffffffc050400df6:	fd442683          	lw	a3,-44(s0)
ffffffc050400dfa:	0d800793          	li	a5,216
ffffffc050400dfe:	02f687b3          	mul	a5,a3,a5
ffffffc050400e02:	97ba                	add	a5,a5,a4
ffffffc050400e04:	4709                	li	a4,2
ffffffc050400e06:	d7d8                	sw	a4,44(a5)
ffffffc050400e08:	fd442783          	lw	a5,-44(s0)
ffffffc050400e0c:	2785                	addiw	a5,a5,1
ffffffc050400e0e:	0007871b          	sext.w	a4,a5
ffffffc050400e12:	00047697          	auipc	a3,0x47
ffffffc050400e16:	bbe68693          	addi	a3,a3,-1090 # ffffffc0504479d0 <pcb>
ffffffc050400e1a:	fd442603          	lw	a2,-44(s0)
ffffffc050400e1e:	0d800793          	li	a5,216
ffffffc050400e22:	02f607b3          	mul	a5,a2,a5
ffffffc050400e26:	97b6                	add	a5,a5,a3
ffffffc050400e28:	d798                	sw	a4,40(a5)
ffffffc050400e2a:	00047717          	auipc	a4,0x47
ffffffc050400e2e:	ba670713          	addi	a4,a4,-1114 # ffffffc0504479d0 <pcb>
ffffffc050400e32:	fd442683          	lw	a3,-44(s0)
ffffffc050400e36:	0d800793          	li	a5,216
ffffffc050400e3a:	02f687b3          	mul	a5,a3,a5
ffffffc050400e3e:	97ba                	add	a5,a5,a4
ffffffc050400e40:	f8042703          	lw	a4,-128(s0)
ffffffc050400e44:	dbd8                	sw	a4,52(a5)
ffffffc050400e46:	00047797          	auipc	a5,0x47
ffffffc050400e4a:	b8278793          	addi	a5,a5,-1150 # ffffffc0504479c8 <current_running>
ffffffc050400e4e:	639c                	ld	a5,0(a5)
ffffffc050400e50:	639c                	ld	a5,0(a5)
ffffffc050400e52:	0b07c703          	lbu	a4,176(a5)
ffffffc050400e56:	00047697          	auipc	a3,0x47
ffffffc050400e5a:	b7a68693          	addi	a3,a3,-1158 # ffffffc0504479d0 <pcb>
ffffffc050400e5e:	fd442603          	lw	a2,-44(s0)
ffffffc050400e62:	0d800793          	li	a5,216
ffffffc050400e66:	02f607b3          	mul	a5,a2,a5
ffffffc050400e6a:	97b6                	add	a5,a5,a3
ffffffc050400e6c:	0ae78823          	sb	a4,176(a5)
ffffffc050400e70:	00047717          	auipc	a4,0x47
ffffffc050400e74:	b6070713          	addi	a4,a4,-1184 # ffffffc0504479d0 <pcb>
ffffffc050400e78:	fd442683          	lw	a3,-44(s0)
ffffffc050400e7c:	0d800793          	li	a5,216
ffffffc050400e80:	02f687b3          	mul	a5,a3,a5
ffffffc050400e84:	97ba                	add	a5,a5,a4
ffffffc050400e86:	4709                	li	a4,2
ffffffc050400e88:	0ce7a823          	sw	a4,208(a5)
ffffffc050400e8c:	773030ef          	jal	ra,ffffffc050404dfe <allocPage>
ffffffc050400e90:	87aa                	mv	a5,a0
ffffffc050400e92:	863e                	mv	a2,a5
ffffffc050400e94:	00047717          	auipc	a4,0x47
ffffffc050400e98:	b3c70713          	addi	a4,a4,-1220 # ffffffc0504479d0 <pcb>
ffffffc050400e9c:	fd442683          	lw	a3,-44(s0)
ffffffc050400ea0:	0d800793          	li	a5,216
ffffffc050400ea4:	02f687b3          	mul	a5,a3,a5
ffffffc050400ea8:	97ba                	add	a5,a5,a4
ffffffc050400eaa:	ffd0                	sd	a2,184(a5)
ffffffc050400eac:	00047717          	auipc	a4,0x47
ffffffc050400eb0:	b2470713          	addi	a4,a4,-1244 # ffffffc0504479d0 <pcb>
ffffffc050400eb4:	fd442683          	lw	a3,-44(s0)
ffffffc050400eb8:	0d800793          	li	a5,216
ffffffc050400ebc:	02f687b3          	mul	a5,a3,a5
ffffffc050400ec0:	97ba                	add	a5,a5,a4
ffffffc050400ec2:	7fc4                	ld	s1,184(a5)
ffffffc050400ec4:	5e000537          	lui	a0,0x5e000
ffffffc050400ec8:	d34ff0ef          	jal	ra,ffffffc0504003fc <pa2kva>
ffffffc050400ecc:	87aa                	mv	a5,a0
ffffffc050400ece:	6605                	lui	a2,0x1
ffffffc050400ed0:	85be                	mv	a1,a5
ffffffc050400ed2:	8526                	mv	a0,s1
ffffffc050400ed4:	14d040ef          	jal	ra,ffffffc050405820 <kmemcpy>
ffffffc050400ed8:	00047717          	auipc	a4,0x47
ffffffc050400edc:	af870713          	addi	a4,a4,-1288 # ffffffc0504479d0 <pcb>
ffffffc050400ee0:	fd442683          	lw	a3,-44(s0)
ffffffc050400ee4:	0d800793          	li	a5,216
ffffffc050400ee8:	02f687b3          	mul	a5,a3,a5
ffffffc050400eec:	97ba                	add	a5,a5,a4
ffffffc050400eee:	7fdc                	ld	a5,184(a5)
ffffffc050400ef0:	4601                	li	a2,0
ffffffc050400ef2:	85be                	mv	a1,a5
ffffffc050400ef4:	fc0007b7          	lui	a5,0xfc000
ffffffc050400ef8:	17fd                	addi	a5,a5,-1
ffffffc050400efa:	00c79513          	slli	a0,a5,0xc
ffffffc050400efe:	568040ef          	jal	ra,ffffffc050405466 <alloc_page_helper>
ffffffc050400f02:	872a                	mv	a4,a0
ffffffc050400f04:	6785                	lui	a5,0x1
ffffffc050400f06:	97ba                	add	a5,a5,a4
ffffffc050400f08:	fcf43423          	sd	a5,-56(s0)
ffffffc050400f0c:	00047717          	auipc	a4,0x47
ffffffc050400f10:	ac470713          	addi	a4,a4,-1340 # ffffffc0504479d0 <pcb>
ffffffc050400f14:	fd442683          	lw	a3,-44(s0)
ffffffc050400f18:	0d800793          	li	a5,216
ffffffc050400f1c:	02f687b3          	mul	a5,a3,a5
ffffffc050400f20:	97ba                	add	a5,a5,a4
ffffffc050400f22:	7fdc                	ld	a5,184(a5)
ffffffc050400f24:	4605                	li	a2,1
ffffffc050400f26:	85be                	mv	a1,a5
ffffffc050400f28:	00f007b7          	lui	a5,0xf00
ffffffc050400f2c:	07bd                	addi	a5,a5,15
ffffffc050400f2e:	00c79513          	slli	a0,a5,0xc
ffffffc050400f32:	534040ef          	jal	ra,ffffffc050405466 <alloc_page_helper>
ffffffc050400f36:	872a                	mv	a4,a0
ffffffc050400f38:	6785                	lui	a5,0x1
ffffffc050400f3a:	f4078793          	addi	a5,a5,-192 # f40 <_start-0xffffffc0503ff0c0>
ffffffc050400f3e:	97ba                	add	a5,a5,a4
ffffffc050400f40:	fcf43023          	sd	a5,-64(s0)
ffffffc050400f44:	fd442703          	lw	a4,-44(s0)
ffffffc050400f48:	0d800793          	li	a5,216
ffffffc050400f4c:	02f707b3          	mul	a5,a4,a5
ffffffc050400f50:	0c078713          	addi	a4,a5,192
ffffffc050400f54:	00047797          	auipc	a5,0x47
ffffffc050400f58:	a7c78793          	addi	a5,a5,-1412 # ffffffc0504479d0 <pcb>
ffffffc050400f5c:	97ba                	add	a5,a5,a4
ffffffc050400f5e:	853e                	mv	a0,a5
ffffffc050400f60:	b6eff0ef          	jal	ra,ffffffc0504002ce <init_list_head>
ffffffc050400f64:	03000513          	li	a0,48
ffffffc050400f68:	71f030ef          	jal	ra,ffffffc050404e86 <kmalloc>
ffffffc050400f6c:	faa43c23          	sd	a0,-72(s0)
ffffffc050400f70:	03000513          	li	a0,48
ffffffc050400f74:	713030ef          	jal	ra,ffffffc050404e86 <kmalloc>
ffffffc050400f78:	faa43823          	sd	a0,-80(s0)
ffffffc050400f7c:	fc843703          	ld	a4,-56(s0)
ffffffc050400f80:	77fd                	lui	a5,0xfffff
ffffffc050400f82:	97ba                	add	a5,a5,a4
ffffffc050400f84:	853e                	mv	a0,a5
ffffffc050400f86:	c5aff0ef          	jal	ra,ffffffc0504003e0 <kva2pa>
ffffffc050400f8a:	872a                	mv	a4,a0
ffffffc050400f8c:	fb843783          	ld	a5,-72(s0)
ffffffc050400f90:	e398                	sd	a4,0(a5)
ffffffc050400f92:	fb843783          	ld	a5,-72(s0)
ffffffc050400f96:	fc000737          	lui	a4,0xfc000
ffffffc050400f9a:	177d                	addi	a4,a4,-1
ffffffc050400f9c:	0732                	slli	a4,a4,0xc
ffffffc050400f9e:	e798                	sd	a4,8(a5)
ffffffc050400fa0:	fb843783          	ld	a5,-72(s0)
ffffffc050400fa4:	4705                	li	a4,1
ffffffc050400fa6:	cb98                	sw	a4,16(a5)
ffffffc050400fa8:	fc043703          	ld	a4,-64(s0)
ffffffc050400fac:	77fd                	lui	a5,0xfffff
ffffffc050400fae:	0c078793          	addi	a5,a5,192 # fffffffffffff0c0 <__BSS_END__+0x3fafbb5e68>
ffffffc050400fb2:	97ba                	add	a5,a5,a4
ffffffc050400fb4:	853e                	mv	a0,a5
ffffffc050400fb6:	c2aff0ef          	jal	ra,ffffffc0504003e0 <kva2pa>
ffffffc050400fba:	872a                	mv	a4,a0
ffffffc050400fbc:	fb043783          	ld	a5,-80(s0)
ffffffc050400fc0:	e398                	sd	a4,0(a5)
ffffffc050400fc2:	fb043783          	ld	a5,-80(s0)
ffffffc050400fc6:	00f00737          	lui	a4,0xf00
ffffffc050400fca:	073d                	addi	a4,a4,15
ffffffc050400fcc:	0732                	slli	a4,a4,0xc
ffffffc050400fce:	e798                	sd	a4,8(a5)
ffffffc050400fd0:	fb043783          	ld	a5,-80(s0)
ffffffc050400fd4:	4705                	li	a4,1
ffffffc050400fd6:	cb98                	sw	a4,16(a5)
ffffffc050400fd8:	fb843783          	ld	a5,-72(s0)
ffffffc050400fdc:	02078693          	addi	a3,a5,32
ffffffc050400fe0:	fd442703          	lw	a4,-44(s0)
ffffffc050400fe4:	0d800793          	li	a5,216
ffffffc050400fe8:	02f707b3          	mul	a5,a4,a5
ffffffc050400fec:	0c078713          	addi	a4,a5,192
ffffffc050400ff0:	00047797          	auipc	a5,0x47
ffffffc050400ff4:	9e078793          	addi	a5,a5,-1568 # ffffffc0504479d0 <pcb>
ffffffc050400ff8:	97ba                	add	a5,a5,a4
ffffffc050400ffa:	85be                	mv	a1,a5
ffffffc050400ffc:	8536                	mv	a0,a3
ffffffc050400ffe:	b38ff0ef          	jal	ra,ffffffc050400336 <list_add_tail>
ffffffc050401002:	fb043783          	ld	a5,-80(s0)
ffffffc050401006:	02078693          	addi	a3,a5,32
ffffffc05040100a:	fd442703          	lw	a4,-44(s0)
ffffffc05040100e:	0d800793          	li	a5,216
ffffffc050401012:	02f707b3          	mul	a5,a4,a5
ffffffc050401016:	0c078713          	addi	a4,a5,192
ffffffc05040101a:	00047797          	auipc	a5,0x47
ffffffc05040101e:	9b678793          	addi	a5,a5,-1610 # ffffffc0504479d0 <pcb>
ffffffc050401022:	97ba                	add	a5,a5,a4
ffffffc050401024:	85be                	mv	a1,a5
ffffffc050401026:	8536                	mv	a0,a3
ffffffc050401028:	b0eff0ef          	jal	ra,ffffffc050400336 <list_add_tail>
ffffffc05040102c:	00043697          	auipc	a3,0x43
ffffffc050401030:	14468693          	addi	a3,a3,324 # ffffffc050444170 <elf_files>
ffffffc050401034:	fd842703          	lw	a4,-40(s0)
ffffffc050401038:	87ba                	mv	a5,a4
ffffffc05040103a:	0786                	slli	a5,a5,0x1
ffffffc05040103c:	97ba                	add	a5,a5,a4
ffffffc05040103e:	078e                	slli	a5,a5,0x3
ffffffc050401040:	97b6                	add	a5,a5,a3
ffffffc050401042:	6788                	ld	a0,8(a5)
ffffffc050401044:	00043697          	auipc	a3,0x43
ffffffc050401048:	12c68693          	addi	a3,a3,300 # ffffffc050444170 <elf_files>
ffffffc05040104c:	fd842703          	lw	a4,-40(s0)
ffffffc050401050:	87ba                	mv	a5,a4
ffffffc050401052:	0786                	slli	a5,a5,0x1
ffffffc050401054:	97ba                	add	a5,a5,a4
ffffffc050401056:	078e                	slli	a5,a5,0x3
ffffffc050401058:	97b6                	add	a5,a5,a3
ffffffc05040105a:	6b9c                	ld	a5,16(a5)
ffffffc05040105c:	439c                	lw	a5,0(a5)
ffffffc05040105e:	0007859b          	sext.w	a1,a5
ffffffc050401062:	00047717          	auipc	a4,0x47
ffffffc050401066:	96e70713          	addi	a4,a4,-1682 # ffffffc0504479d0 <pcb>
ffffffc05040106a:	fd442683          	lw	a3,-44(s0)
ffffffc05040106e:	0d800793          	li	a5,216
ffffffc050401072:	02f687b3          	mul	a5,a3,a5
ffffffc050401076:	97ba                	add	a5,a5,a4
ffffffc050401078:	7fdc                	ld	a5,184(a5)
ffffffc05040107a:	fffff697          	auipc	a3,0xfffff
ffffffc05040107e:	6ea68693          	addi	a3,a3,1770 # ffffffc050400764 <alloc_page_helper_user>
ffffffc050401082:	863e                	mv	a2,a5
ffffffc050401084:	bbaff0ef          	jal	ra,ffffffc05040043e <load_elf>
ffffffc050401088:	faa43423          	sd	a0,-88(s0)
ffffffc05040108c:	3c0007b7          	lui	a5,0x3c000
ffffffc050401090:	3fd78793          	addi	a5,a5,1021 # 3c0003fd <_start-0xffffffc0143ffc03>
ffffffc050401094:	079a                	slli	a5,a5,0x6
ffffffc050401096:	faf43023          	sd	a5,-96(s0)
ffffffc05040109a:	fc043783          	ld	a5,-64(s0)
ffffffc05040109e:	f8f43c23          	sd	a5,-104(s0)
ffffffc0504010a2:	fc042e23          	sw	zero,-36(s0)
ffffffc0504010a6:	a885                	j	ffffffc050401116 <do_exec+0x3d8>
ffffffc0504010a8:	fdc42783          	lw	a5,-36(s0)
ffffffc0504010ac:	2785                	addiw	a5,a5,1
ffffffc0504010ae:	2781                	sext.w	a5,a5
ffffffc0504010b0:	0047979b          	slliw	a5,a5,0x4
ffffffc0504010b4:	2781                	sext.w	a5,a5
ffffffc0504010b6:	86be                	mv	a3,a5
ffffffc0504010b8:	fdc42783          	lw	a5,-36(s0)
ffffffc0504010bc:	078e                	slli	a5,a5,0x3
ffffffc0504010be:	f9843703          	ld	a4,-104(s0)
ffffffc0504010c2:	97ba                	add	a5,a5,a4
ffffffc0504010c4:	fa043703          	ld	a4,-96(s0)
ffffffc0504010c8:	9736                	add	a4,a4,a3
ffffffc0504010ca:	e398                	sd	a4,0(a5)
ffffffc0504010cc:	fdc42783          	lw	a5,-36(s0)
ffffffc0504010d0:	2785                	addiw	a5,a5,1
ffffffc0504010d2:	2781                	sext.w	a5,a5
ffffffc0504010d4:	0047979b          	slliw	a5,a5,0x4
ffffffc0504010d8:	2781                	sext.w	a5,a5
ffffffc0504010da:	873e                	mv	a4,a5
ffffffc0504010dc:	fc043783          	ld	a5,-64(s0)
ffffffc0504010e0:	97ba                	add	a5,a5,a4
ffffffc0504010e2:	86be                	mv	a3,a5
ffffffc0504010e4:	fdc42783          	lw	a5,-36(s0)
ffffffc0504010e8:	078e                	slli	a5,a5,0x3
ffffffc0504010ea:	f7843703          	ld	a4,-136(s0)
ffffffc0504010ee:	97ba                	add	a5,a5,a4
ffffffc0504010f0:	6398                	ld	a4,0(a5)
ffffffc0504010f2:	fdc42783          	lw	a5,-36(s0)
ffffffc0504010f6:	2785                	addiw	a5,a5,1
ffffffc0504010f8:	2781                	sext.w	a5,a5
ffffffc0504010fa:	0047979b          	slliw	a5,a5,0x4
ffffffc0504010fe:	2781                	sext.w	a5,a5
ffffffc050401100:	2781                	sext.w	a5,a5
ffffffc050401102:	863e                	mv	a2,a5
ffffffc050401104:	85ba                	mv	a1,a4
ffffffc050401106:	8536                	mv	a0,a3
ffffffc050401108:	718040ef          	jal	ra,ffffffc050405820 <kmemcpy>
ffffffc05040110c:	fdc42783          	lw	a5,-36(s0)
ffffffc050401110:	2785                	addiw	a5,a5,1
ffffffc050401112:	fcf42e23          	sw	a5,-36(s0)
ffffffc050401116:	fdc42703          	lw	a4,-36(s0)
ffffffc05040111a:	f8442783          	lw	a5,-124(s0)
ffffffc05040111e:	2701                	sext.w	a4,a4
ffffffc050401120:	2781                	sext.w	a5,a5
ffffffc050401122:	f8f743e3          	blt	a4,a5,ffffffc0504010a8 <do_exec+0x36a>
ffffffc050401126:	fd442703          	lw	a4,-44(s0)
ffffffc05040112a:	0d800793          	li	a5,216
ffffffc05040112e:	02f70733          	mul	a4,a4,a5
ffffffc050401132:	00047797          	auipc	a5,0x47
ffffffc050401136:	89e78793          	addi	a5,a5,-1890 # ffffffc0504479d0 <pcb>
ffffffc05040113a:	00f706b3          	add	a3,a4,a5
ffffffc05040113e:	fa043783          	ld	a5,-96(s0)
ffffffc050401142:	f8442703          	lw	a4,-124(s0)
ffffffc050401146:	fa843603          	ld	a2,-88(s0)
ffffffc05040114a:	fc043583          	ld	a1,-64(s0)
ffffffc05040114e:	fc843503          	ld	a0,-56(s0)
ffffffc050401152:	ca8ff0ef          	jal	ra,ffffffc0504005fa <init_pcb_stack>
ffffffc050401156:	00047717          	auipc	a4,0x47
ffffffc05040115a:	87a70713          	addi	a4,a4,-1926 # ffffffc0504479d0 <pcb>
ffffffc05040115e:	fd442683          	lw	a3,-44(s0)
ffffffc050401162:	0d800793          	li	a5,216
ffffffc050401166:	02f687b3          	mul	a5,a3,a5
ffffffc05040116a:	97ba                	add	a5,a5,a4
ffffffc05040116c:	3c000737          	lui	a4,0x3c000
ffffffc050401170:	3fd70713          	addi	a4,a4,1021 # 3c0003fd <_start-0xffffffc0143ffc03>
ffffffc050401174:	071a                	slli	a4,a4,0x6
ffffffc050401176:	e798                	sd	a4,8(a5)
ffffffc050401178:	00047717          	auipc	a4,0x47
ffffffc05040117c:	85870713          	addi	a4,a4,-1960 # ffffffc0504479d0 <pcb>
ffffffc050401180:	fd442683          	lw	a3,-44(s0)
ffffffc050401184:	0d800793          	li	a5,216
ffffffc050401188:	02f687b3          	mul	a5,a3,a5
ffffffc05040118c:	97ba                	add	a5,a5,a4
ffffffc05040118e:	7fdc                	ld	a5,184(a5)
ffffffc050401190:	853e                	mv	a0,a5
ffffffc050401192:	a4eff0ef          	jal	ra,ffffffc0504003e0 <kva2pa>
ffffffc050401196:	87aa                	mv	a5,a0
ffffffc050401198:	863e                	mv	a2,a5
ffffffc05040119a:	00047717          	auipc	a4,0x47
ffffffc05040119e:	83670713          	addi	a4,a4,-1994 # ffffffc0504479d0 <pcb>
ffffffc0504011a2:	fd442683          	lw	a3,-44(s0)
ffffffc0504011a6:	0d800793          	li	a5,216
ffffffc0504011aa:	02f687b3          	mul	a5,a3,a5
ffffffc0504011ae:	97ba                	add	a5,a5,a4
ffffffc0504011b0:	ffd0                	sd	a2,184(a5)
ffffffc0504011b2:	fd442703          	lw	a4,-44(s0)
ffffffc0504011b6:	0d800793          	li	a5,216
ffffffc0504011ba:	02f70733          	mul	a4,a4,a5
ffffffc0504011be:	00047797          	auipc	a5,0x47
ffffffc0504011c2:	81278793          	addi	a5,a5,-2030 # ffffffc0504479d0 <pcb>
ffffffc0504011c6:	97ba                	add	a5,a5,a4
ffffffc0504011c8:	85be                	mv	a1,a5
ffffffc0504011ca:	00006517          	auipc	a0,0x6
ffffffc0504011ce:	a4e50513          	addi	a0,a0,-1458 # ffffffc050406c18 <ready_queue>
ffffffc0504011d2:	5a8030ef          	jal	ra,ffffffc05040477a <enqueue>
ffffffc0504011d6:	fd442783          	lw	a5,-44(s0)
ffffffc0504011da:	2785                	addiw	a5,a5,1
ffffffc0504011dc:	2781                	sext.w	a5,a5
ffffffc0504011de:	853e                	mv	a0,a5
ffffffc0504011e0:	60aa                	ld	ra,136(sp)
ffffffc0504011e2:	640a                	ld	s0,128(sp)
ffffffc0504011e4:	74e6                	ld	s1,120(sp)
ffffffc0504011e6:	6149                	addi	sp,sp,144
ffffffc0504011e8:	8082                	ret

ffffffc0504011ea <init_syscall>:
ffffffc0504011ea:	1101                	addi	sp,sp,-32
ffffffc0504011ec:	ec22                	sd	s0,24(sp)
ffffffc0504011ee:	1000                	addi	s0,sp,32
ffffffc0504011f0:	fe042623          	sw	zero,-20(s0)
ffffffc0504011f4:	a01d                	j	ffffffc05040121a <init_syscall+0x30>
ffffffc0504011f6:	00048717          	auipc	a4,0x48
ffffffc0504011fa:	e5a70713          	addi	a4,a4,-422 # ffffffc050449050 <syscall>
ffffffc0504011fe:	fec42783          	lw	a5,-20(s0)
ffffffc050401202:	078e                	slli	a5,a5,0x3
ffffffc050401204:	97ba                	add	a5,a5,a4
ffffffc050401206:	00000717          	auipc	a4,0x0
ffffffc05040120a:	9d870713          	addi	a4,a4,-1576 # ffffffc050400bde <error_syscall>
ffffffc05040120e:	e398                	sd	a4,0(a5)
ffffffc050401210:	fec42783          	lw	a5,-20(s0)
ffffffc050401214:	2785                	addiw	a5,a5,1
ffffffc050401216:	fef42623          	sw	a5,-20(s0)
ffffffc05040121a:	fec42783          	lw	a5,-20(s0)
ffffffc05040121e:	0007871b          	sext.w	a4,a5
ffffffc050401222:	03f00793          	li	a5,63
ffffffc050401226:	fce7d8e3          	bge	a5,a4,ffffffc0504011f6 <init_syscall+0xc>
ffffffc05040122a:	00048797          	auipc	a5,0x48
ffffffc05040122e:	e2678793          	addi	a5,a5,-474 # ffffffc050449050 <syscall>
ffffffc050401232:	00003717          	auipc	a4,0x3
ffffffc050401236:	44a70713          	addi	a4,a4,1098 # ffffffc05040467c <do_sleep>
ffffffc05040123a:	eb98                	sd	a4,16(a5)
ffffffc05040123c:	00048797          	auipc	a5,0x48
ffffffc050401240:	e1478793          	addi	a5,a5,-492 # ffffffc050449050 <syscall>
ffffffc050401244:	00002717          	auipc	a4,0x2
ffffffc050401248:	b3a70713          	addi	a4,a4,-1222 # ffffffc050402d7e <kernel_semget>
ffffffc05040124c:	e3b8                	sd	a4,64(a5)
ffffffc05040124e:	00048797          	auipc	a5,0x48
ffffffc050401252:	e0278793          	addi	a5,a5,-510 # ffffffc050449050 <syscall>
ffffffc050401256:	00002717          	auipc	a4,0x2
ffffffc05040125a:	c2070713          	addi	a4,a4,-992 # ffffffc050402e76 <kernel_binsemop>
ffffffc05040125e:	e7b8                	sd	a4,72(a5)
ffffffc050401260:	00048797          	auipc	a5,0x48
ffffffc050401264:	df078793          	addi	a5,a5,-528 # ffffffc050449050 <syscall>
ffffffc050401268:	00001717          	auipc	a4,0x1
ffffffc05040126c:	4ac70713          	addi	a4,a4,1196 # ffffffc050402714 <screen_write>
ffffffc050401270:	f3d8                	sd	a4,160(a5)
ffffffc050401272:	00048797          	auipc	a5,0x48
ffffffc050401276:	dde78793          	addi	a5,a5,-546 # ffffffc050449050 <syscall>
ffffffc05040127a:	00001717          	auipc	a4,0x1
ffffffc05040127e:	43270713          	addi	a4,a4,1074 # ffffffc0504026ac <screen_move_cursor>
ffffffc050401282:	fbd8                	sd	a4,176(a5)
ffffffc050401284:	00048797          	auipc	a5,0x48
ffffffc050401288:	dcc78793          	addi	a5,a5,-564 # ffffffc050449050 <syscall>
ffffffc05040128c:	00001717          	auipc	a4,0x1
ffffffc050401290:	52070713          	addi	a4,a4,1312 # ffffffc0504027ac <screen_reflush>
ffffffc050401294:	ffd8                	sd	a4,184(a5)
ffffffc050401296:	00048797          	auipc	a5,0x48
ffffffc05040129a:	dba78793          	addi	a5,a5,-582 # ffffffc050449050 <syscall>
ffffffc05040129e:	00003717          	auipc	a4,0x3
ffffffc0504012a2:	d5070713          	addi	a4,a4,-688 # ffffffc050403fee <do_scheduler>
ffffffc0504012a6:	ff98                	sd	a4,56(a5)
ffffffc0504012a8:	00048797          	auipc	a5,0x48
ffffffc0504012ac:	da878793          	addi	a5,a5,-600 # ffffffc050449050 <syscall>
ffffffc0504012b0:	00004717          	auipc	a4,0x4
ffffffc0504012b4:	99070713          	addi	a4,a4,-1648 # ffffffc050404c40 <get_time_base>
ffffffc0504012b8:	fbf8                	sd	a4,240(a5)
ffffffc0504012ba:	00048797          	auipc	a5,0x48
ffffffc0504012be:	d9678793          	addi	a5,a5,-618 # ffffffc050449050 <syscall>
ffffffc0504012c2:	00004717          	auipc	a4,0x4
ffffffc0504012c6:	93a70713          	addi	a4,a4,-1734 # ffffffc050404bfc <get_ticks>
ffffffc0504012ca:	fff8                	sd	a4,248(a5)
ffffffc0504012cc:	00048797          	auipc	a5,0x48
ffffffc0504012d0:	d8478793          	addi	a5,a5,-636 # ffffffc050449050 <syscall>
ffffffc0504012d4:	00001717          	auipc	a4,0x1
ffffffc0504012d8:	49e70713          	addi	a4,a4,1182 # ffffffc050402772 <serial_getchar>
ffffffc0504012dc:	e3f8                	sd	a4,192(a5)
ffffffc0504012de:	00048797          	auipc	a5,0x48
ffffffc0504012e2:	d7278793          	addi	a5,a5,-654 # ffffffc050449050 <syscall>
ffffffc0504012e6:	00001717          	auipc	a4,0x1
ffffffc0504012ea:	1a270713          	addi	a4,a4,418 # ffffffc050402488 <screen_write_ch>
ffffffc0504012ee:	e7f8                	sd	a4,200(a5)
ffffffc0504012f0:	00048797          	auipc	a5,0x48
ffffffc0504012f4:	d6078793          	addi	a5,a5,-672 # ffffffc050449050 <syscall>
ffffffc0504012f8:	00001717          	auipc	a4,0x1
ffffffc0504012fc:	2ee70713          	addi	a4,a4,750 # ffffffc0504025e6 <screen_clear>
ffffffc050401300:	eff8                	sd	a4,216(a5)
ffffffc050401302:	00048797          	auipc	a5,0x48
ffffffc050401306:	d4e78793          	addi	a5,a5,-690 # ffffffc050449050 <syscall>
ffffffc05040130a:	fffff717          	auipc	a4,0xfffff
ffffffc05040130e:	67270713          	addi	a4,a4,1650 # ffffffc05040097c <init_pcb>
ffffffc050401312:	e398                	sd	a4,0(a5)
ffffffc050401314:	00048797          	auipc	a5,0x48
ffffffc050401318:	d3c78793          	addi	a5,a5,-708 # ffffffc050449050 <syscall>
ffffffc05040131c:	00003717          	auipc	a4,0x3
ffffffc050401320:	e9470713          	addi	a4,a4,-364 # ffffffc0504041b0 <do_kill>
ffffffc050401324:	ef98                	sd	a4,24(a5)
ffffffc050401326:	00048797          	auipc	a5,0x48
ffffffc05040132a:	d2a78793          	addi	a5,a5,-726 # ffffffc050449050 <syscall>
ffffffc05040132e:	00003717          	auipc	a4,0x3
ffffffc050401332:	f9470713          	addi	a4,a4,-108 # ffffffc0504042c2 <do_process_show>
ffffffc050401336:	f798                	sd	a4,40(a5)
ffffffc050401338:	00048797          	auipc	a5,0x48
ffffffc05040133c:	d1878793          	addi	a5,a5,-744 # ffffffc050449050 <syscall>
ffffffc050401340:	00003717          	auipc	a4,0x3
ffffffc050401344:	2f870713          	addi	a4,a4,760 # ffffffc050404638 <do_getpid>
ffffffc050401348:	fb98                	sd	a4,48(a5)
ffffffc05040134a:	00048797          	auipc	a5,0x48
ffffffc05040134e:	d0678793          	addi	a5,a5,-762 # ffffffc050449050 <syscall>
ffffffc050401352:	00003717          	auipc	a4,0x3
ffffffc050401356:	52c70713          	addi	a4,a4,1324 # ffffffc05040487e <do_exit>
ffffffc05040135a:	e798                	sd	a4,8(a5)
ffffffc05040135c:	00048797          	auipc	a5,0x48
ffffffc050401360:	cf478793          	addi	a5,a5,-780 # ffffffc050449050 <syscall>
ffffffc050401364:	00003717          	auipc	a4,0x3
ffffffc050401368:	5d470713          	addi	a4,a4,1492 # ffffffc050404938 <do_waitpid>
ffffffc05040136c:	f398                	sd	a4,32(a5)
ffffffc05040136e:	00048797          	auipc	a5,0x48
ffffffc050401372:	ce278793          	addi	a5,a5,-798 # ffffffc050449050 <syscall>
ffffffc050401376:	00003717          	auipc	a4,0x3
ffffffc05040137a:	3a670713          	addi	a4,a4,934 # ffffffc05040471c <do_block>
ffffffc05040137e:	ffb8                	sd	a4,120(a5)
ffffffc050401380:	00048797          	auipc	a5,0x48
ffffffc050401384:	cd078793          	addi	a5,a5,-816 # ffffffc050449050 <syscall>
ffffffc050401388:	00003717          	auipc	a4,0x3
ffffffc05040138c:	46470713          	addi	a4,a4,1124 # ffffffc0504047ec <do_unblock>
ffffffc050401390:	e3d8                	sd	a4,128(a5)
ffffffc050401392:	00048797          	auipc	a5,0x48
ffffffc050401396:	cbe78793          	addi	a5,a5,-834 # ffffffc050449050 <syscall>
ffffffc05040139a:	00002717          	auipc	a4,0x2
ffffffc05040139e:	cbe70713          	addi	a4,a4,-834 # ffffffc050403058 <kernel_sem_wait>
ffffffc0504013a2:	14e7b023          	sd	a4,320(a5)
ffffffc0504013a6:	00048797          	auipc	a5,0x48
ffffffc0504013aa:	caa78793          	addi	a5,a5,-854 # ffffffc050449050 <syscall>
ffffffc0504013ae:	00002717          	auipc	a4,0x2
ffffffc0504013b2:	d6e70713          	addi	a4,a4,-658 # ffffffc05040311c <kernel_sem_signal>
ffffffc0504013b6:	14e7b423          	sd	a4,328(a5)
ffffffc0504013ba:	00048797          	auipc	a5,0x48
ffffffc0504013be:	c9678793          	addi	a5,a5,-874 # ffffffc050449050 <syscall>
ffffffc0504013c2:	00002717          	auipc	a4,0x2
ffffffc0504013c6:	db270713          	addi	a4,a4,-590 # ffffffc050403174 <kernel_sem_broadcast>
ffffffc0504013ca:	14e7b823          	sd	a4,336(a5)
ffffffc0504013ce:	00048797          	auipc	a5,0x48
ffffffc0504013d2:	c8278793          	addi	a5,a5,-894 # ffffffc050449050 <syscall>
ffffffc0504013d6:	00002717          	auipc	a4,0x2
ffffffc0504013da:	e0a70713          	addi	a4,a4,-502 # ffffffc0504031e0 <kernel_barrier_wait>
ffffffc0504013de:	14e7bc23          	sd	a4,344(a5)
ffffffc0504013e2:	00048797          	auipc	a5,0x48
ffffffc0504013e6:	c6e78793          	addi	a5,a5,-914 # ffffffc050449050 <syscall>
ffffffc0504013ea:	00002717          	auipc	a4,0x2
ffffffc0504013ee:	f2a70713          	addi	a4,a4,-214 # ffffffc050403314 <kernel_mbox_open>
ffffffc0504013f2:	16e7b023          	sd	a4,352(a5)
ffffffc0504013f6:	00048797          	auipc	a5,0x48
ffffffc0504013fa:	c5a78793          	addi	a5,a5,-934 # ffffffc050449050 <syscall>
ffffffc0504013fe:	00002717          	auipc	a4,0x2
ffffffc050401402:	11c70713          	addi	a4,a4,284 # ffffffc05040351a <kernel_mbox_close>
ffffffc050401406:	16e7b423          	sd	a4,360(a5)
ffffffc05040140a:	00048797          	auipc	a5,0x48
ffffffc05040140e:	c4678793          	addi	a5,a5,-954 # ffffffc050449050 <syscall>
ffffffc050401412:	00002717          	auipc	a4,0x2
ffffffc050401416:	13070713          	addi	a4,a4,304 # ffffffc050403542 <kernel_mbox_send>
ffffffc05040141a:	16e7b823          	sd	a4,368(a5)
ffffffc05040141e:	00048797          	auipc	a5,0x48
ffffffc050401422:	c3278793          	addi	a5,a5,-974 # ffffffc050449050 <syscall>
ffffffc050401426:	00002717          	auipc	a4,0x2
ffffffc05040142a:	2b870713          	addi	a4,a4,696 # ffffffc0504036de <kernel_mbox_recv>
ffffffc05040142e:	16e7bc23          	sd	a4,376(a5)
ffffffc050401432:	00048797          	auipc	a5,0x48
ffffffc050401436:	c1e78793          	addi	a5,a5,-994 # ffffffc050449050 <syscall>
ffffffc05040143a:	00001717          	auipc	a4,0x1
ffffffc05040143e:	6e670713          	addi	a4,a4,1766 # ffffffc050402b20 <kernel_screen_scroll_check>
ffffffc050401442:	18e7b023          	sd	a4,384(a5)
ffffffc050401446:	00048797          	auipc	a5,0x48
ffffffc05040144a:	c0a78793          	addi	a5,a5,-1014 # ffffffc050449050 <syscall>
ffffffc05040144e:	fffff717          	auipc	a4,0xfffff
ffffffc050401452:	7b270713          	addi	a4,a4,1970 # ffffffc050400c00 <kernel_taskset>
ffffffc050401456:	18e7b423          	sd	a4,392(a5)
ffffffc05040145a:	00048797          	auipc	a5,0x48
ffffffc05040145e:	bf678793          	addi	a5,a5,-1034 # ffffffc050449050 <syscall>
ffffffc050401462:	00000717          	auipc	a4,0x0
ffffffc050401466:	8dc70713          	addi	a4,a4,-1828 # ffffffc050400d3e <do_exec>
ffffffc05040146a:	18e7b823          	sd	a4,400(a5)
ffffffc05040146e:	00048797          	auipc	a5,0x48
ffffffc050401472:	be278793          	addi	a5,a5,-1054 # ffffffc050449050 <syscall>
ffffffc050401476:	00000717          	auipc	a4,0x0
ffffffc05040147a:	86470713          	addi	a4,a4,-1948 # ffffffc050400cda <do_show_exec>
ffffffc05040147e:	18e7bc23          	sd	a4,408(a5)
ffffffc050401482:	00048797          	auipc	a5,0x48
ffffffc050401486:	bce78793          	addi	a5,a5,-1074 # ffffffc050449050 <syscall>
ffffffc05040148a:	00004717          	auipc	a4,0x4
ffffffc05040148e:	a3070713          	addi	a4,a4,-1488 # ffffffc050404eba <shm_page_get>
ffffffc050401492:	e7d8                	sd	a4,136(a5)
ffffffc050401494:	00048797          	auipc	a5,0x48
ffffffc050401498:	bbc78793          	addi	a5,a5,-1092 # ffffffc050449050 <syscall>
ffffffc05040149c:	00004717          	auipc	a4,0x4
ffffffc0504014a0:	ccc70713          	addi	a4,a4,-820 # ffffffc050405168 <shm_page_dt>
ffffffc0504014a4:	ebd8                	sd	a4,144(a5)
ffffffc0504014a6:	0001                	nop
ffffffc0504014a8:	6462                	ld	s0,24(sp)
ffffffc0504014aa:	6105                	addi	sp,sp,32
ffffffc0504014ac:	8082                	ret

ffffffc0504014ae <cancel_id_mapping>:
ffffffc0504014ae:	715d                	addi	sp,sp,-80
ffffffc0504014b0:	e486                	sd	ra,72(sp)
ffffffc0504014b2:	e0a2                	sd	s0,64(sp)
ffffffc0504014b4:	fc26                	sd	s1,56(sp)
ffffffc0504014b6:	0880                	addi	s0,sp,80
ffffffc0504014b8:	502007b7          	lui	a5,0x50200
ffffffc0504014bc:	fcf43c23          	sd	a5,-40(s0)
ffffffc0504014c0:	fe02f7b7          	lui	a5,0xfe02f
ffffffc0504014c4:	07b6                	slli	a5,a5,0xd
ffffffc0504014c6:	fcf43823          	sd	a5,-48(s0)
ffffffc0504014ca:	fd843783          	ld	a5,-40(s0)
ffffffc0504014ce:	83f9                	srli	a5,a5,0x1e
ffffffc0504014d0:	1ff7f793          	andi	a5,a5,511
ffffffc0504014d4:	fcf43423          	sd	a5,-56(s0)
ffffffc0504014d8:	fd843783          	ld	a5,-40(s0)
ffffffc0504014dc:	83d5                	srli	a5,a5,0x15
ffffffc0504014de:	1ff7f793          	andi	a5,a5,511
ffffffc0504014e2:	fcf43023          	sd	a5,-64(s0)
ffffffc0504014e6:	fc843783          	ld	a5,-56(s0)
ffffffc0504014ea:	00379713          	slli	a4,a5,0x3
ffffffc0504014ee:	fd043783          	ld	a5,-48(s0)
ffffffc0504014f2:	97ba                	add	a5,a5,a4
ffffffc0504014f4:	faf43c23          	sd	a5,-72(s0)
ffffffc0504014f8:	fc043783          	ld	a5,-64(s0)
ffffffc0504014fc:	00379493          	slli	s1,a5,0x3
ffffffc050401500:	fb843783          	ld	a5,-72(s0)
ffffffc050401504:	639c                	ld	a5,0(a5)
ffffffc050401506:	853e                	mv	a0,a5
ffffffc050401508:	f11fe0ef          	jal	ra,ffffffc050400418 <get_pa>
ffffffc05040150c:	87aa                	mv	a5,a0
ffffffc05040150e:	853e                	mv	a0,a5
ffffffc050401510:	eedfe0ef          	jal	ra,ffffffc0504003fc <pa2kva>
ffffffc050401514:	87aa                	mv	a5,a0
ffffffc050401516:	97a6                	add	a5,a5,s1
ffffffc050401518:	faf43823          	sd	a5,-80(s0)
ffffffc05040151c:	fb843783          	ld	a5,-72(s0)
ffffffc050401520:	0007b023          	sd	zero,0(a5) # fffffffffe02f000 <__BSS_END__+0x3fadbe5da8>
ffffffc050401524:	fb043783          	ld	a5,-80(s0)
ffffffc050401528:	0007b023          	sd	zero,0(a5)
ffffffc05040152c:	0001                	nop
ffffffc05040152e:	60a6                	ld	ra,72(sp)
ffffffc050401530:	6406                	ld	s0,64(sp)
ffffffc050401532:	74e2                	ld	s1,56(sp)
ffffffc050401534:	6161                	addi	sp,sp,80
ffffffc050401536:	8082                	ret

ffffffc050401538 <main>:
ffffffc050401538:	1141                	addi	sp,sp,-16
ffffffc05040153a:	e406                	sd	ra,8(sp)
ffffffc05040153c:	e022                	sd	s0,0(sp)
ffffffc05040153e:	0800                	addi	s0,sp,16
ffffffc050401540:	cabff0ef          	jal	ra,ffffffc0504011ea <init_syscall>
ffffffc050401544:	d85fe0ef          	jal	ra,ffffffc0504002c8 <get_current_cpu_id>
ffffffc050401548:	87aa                	mv	a5,a0
ffffffc05040154a:	efb1                	bnez	a5,ffffffc0504015a6 <main+0x6e>
ffffffc05040154c:	00045517          	auipc	a0,0x45
ffffffc050401550:	dcc50513          	addi	a0,a0,-564 # ffffffc050446318 <kernel_lock>
ffffffc050401554:	6ac010ef          	jal	ra,ffffffc050402c00 <spin_lock_init>
ffffffc050401558:	00045517          	auipc	a0,0x45
ffffffc05040155c:	dc050513          	addi	a0,a0,-576 # ffffffc050446318 <kernel_lock>
ffffffc050401560:	6e0010ef          	jal	ra,ffffffc050402c40 <spin_lock_acquire>
ffffffc050401564:	00046797          	auipc	a5,0x46
ffffffc050401568:	46478793          	addi	a5,a5,1124 # ffffffc0504479c8 <current_running>
ffffffc05040156c:	00045717          	auipc	a4,0x45
ffffffc050401570:	ca470713          	addi	a4,a4,-860 # ffffffc050446210 <current_running_core0>
ffffffc050401574:	e398                	sd	a4,0(a5)
ffffffc050401576:	00046797          	auipc	a5,0x46
ffffffc05040157a:	45278793          	addi	a5,a5,1106 # ffffffc0504479c8 <current_running>
ffffffc05040157e:	639c                	ld	a5,0(a5)
ffffffc050401580:	00005717          	auipc	a4,0x5
ffffffc050401584:	4e870713          	addi	a4,a4,1256 # ffffffc050406a68 <pid0_pcb_core0>
ffffffc050401588:	e398                	sd	a4,0(a5)
ffffffc05040158a:	e45fe0ef          	jal	ra,ffffffc0504003ce <local_flush_tlb_all>
ffffffc05040158e:	a00ff0ef          	jal	ra,ffffffc05040078e <init_shell>
ffffffc050401592:	00005517          	auipc	a0,0x5
ffffffc050401596:	f2e50513          	addi	a0,a0,-210 # ffffffc0504064c0 <get_elf_file+0x136>
ffffffc05040159a:	50d040ef          	jal	ra,ffffffc0504062a6 <printk>
ffffffc05040159e:	4501                	li	a0,0
ffffffc0504015a0:	de5fe0ef          	jal	ra,ffffffc050400384 <sbi_send_ipi>
ffffffc0504015a4:	a815                	j	ffffffc0504015d8 <main+0xa0>
ffffffc0504015a6:	00046797          	auipc	a5,0x46
ffffffc0504015aa:	42278793          	addi	a5,a5,1058 # ffffffc0504479c8 <current_running>
ffffffc0504015ae:	00045717          	auipc	a4,0x45
ffffffc0504015b2:	c5a70713          	addi	a4,a4,-934 # ffffffc050446208 <current_running_core1>
ffffffc0504015b6:	e398                	sd	a4,0(a5)
ffffffc0504015b8:	00046797          	auipc	a5,0x46
ffffffc0504015bc:	41078793          	addi	a5,a5,1040 # ffffffc0504479c8 <current_running>
ffffffc0504015c0:	639c                	ld	a5,0(a5)
ffffffc0504015c2:	00005717          	auipc	a4,0x5
ffffffc0504015c6:	57e70713          	addi	a4,a4,1406 # ffffffc050406b40 <pid0_pcb_core1>
ffffffc0504015ca:	e398                	sd	a4,0(a5)
ffffffc0504015cc:	00005517          	auipc	a0,0x5
ffffffc0504015d0:	f0c50513          	addi	a0,a0,-244 # ffffffc0504064d8 <get_elf_file+0x14e>
ffffffc0504015d4:	4d3040ef          	jal	ra,ffffffc0504062a6 <printk>
ffffffc0504015d8:	4501                	li	a0,0
ffffffc0504015da:	dcdfe0ef          	jal	ra,ffffffc0504003a6 <sbi_read_fdt>
ffffffc0504015de:	87aa                	mv	a5,a0
ffffffc0504015e0:	0007871b          	sext.w	a4,a5
ffffffc0504015e4:	85018793          	addi	a5,gp,-1968 # ffffffc050444238 <time_base>
ffffffc0504015e8:	c398                	sw	a4,0(a5)
ffffffc0504015ea:	315000ef          	jal	ra,ffffffc0504020fe <init_exception>
ffffffc0504015ee:	84018793          	addi	a5,gp,-1984 # ffffffc050444228 <cancel_map_flag>
ffffffc0504015f2:	0007c783          	lbu	a5,0(a5)
ffffffc0504015f6:	e399                	bnez	a5,ffffffc0504015fc <main+0xc4>
ffffffc0504015f8:	eb7ff0ef          	jal	ra,ffffffc0504014ae <cancel_id_mapping>
ffffffc0504015fc:	ccdfe0ef          	jal	ra,ffffffc0504002c8 <get_current_cpu_id>
ffffffc050401600:	87aa                	mv	a5,a0
ffffffc050401602:	e399                	bnez	a5,ffffffc050401608 <main+0xd0>
ffffffc050401604:	7c9000ef          	jal	ra,ffffffc0504025cc <init_screen>
ffffffc050401608:	5f4030ef          	jal	ra,ffffffc050404bfc <get_ticks>
ffffffc05040160c:	872a                	mv	a4,a0
ffffffc05040160e:	85018793          	addi	a5,gp,-1968 # ffffffc050444238 <time_base>
ffffffc050401612:	439c                	lw	a5,0(a5)
ffffffc050401614:	86be                	mv	a3,a5
ffffffc050401616:	06400793          	li	a5,100
ffffffc05040161a:	02f6d7bb          	divuw	a5,a3,a5
ffffffc05040161e:	2781                	sext.w	a5,a5
ffffffc050401620:	1782                	slli	a5,a5,0x20
ffffffc050401622:	9381                	srli	a5,a5,0x20
ffffffc050401624:	97ba                	add	a5,a5,a4
ffffffc050401626:	853e                	mv	a0,a5
ffffffc050401628:	d3dfe0ef          	jal	ra,ffffffc050400364 <sbi_set_timer>
ffffffc05040162c:	00045517          	auipc	a0,0x45
ffffffc050401630:	cec50513          	addi	a0,a0,-788 # ffffffc050446318 <kernel_lock>
ffffffc050401634:	638010ef          	jal	ra,ffffffc050402c6c <spin_lock_release>
ffffffc050401638:	aa5fe0ef          	jal	ra,ffffffc0504000dc <enable_interrupt>
ffffffc05040163c:	10500073          	wfi
ffffffc050401640:	bfe5                	j	ffffffc050401638 <main+0x100>

ffffffc050401642 <_list_add>:
ffffffc050401642:	7179                	addi	sp,sp,-48
ffffffc050401644:	f422                	sd	s0,40(sp)
ffffffc050401646:	1800                	addi	s0,sp,48
ffffffc050401648:	fea43423          	sd	a0,-24(s0)
ffffffc05040164c:	feb43023          	sd	a1,-32(s0)
ffffffc050401650:	fcc43c23          	sd	a2,-40(s0)
ffffffc050401654:	fd843783          	ld	a5,-40(s0)
ffffffc050401658:	fe843703          	ld	a4,-24(s0)
ffffffc05040165c:	e798                	sd	a4,8(a5)
ffffffc05040165e:	fe843783          	ld	a5,-24(s0)
ffffffc050401662:	fd843703          	ld	a4,-40(s0)
ffffffc050401666:	e398                	sd	a4,0(a5)
ffffffc050401668:	fe843783          	ld	a5,-24(s0)
ffffffc05040166c:	fe043703          	ld	a4,-32(s0)
ffffffc050401670:	e798                	sd	a4,8(a5)
ffffffc050401672:	fe043783          	ld	a5,-32(s0)
ffffffc050401676:	fe843703          	ld	a4,-24(s0)
ffffffc05040167a:	e398                	sd	a4,0(a5)
ffffffc05040167c:	0001                	nop
ffffffc05040167e:	7422                	ld	s0,40(sp)
ffffffc050401680:	6145                	addi	sp,sp,48
ffffffc050401682:	8082                	ret

ffffffc050401684 <list_add_tail>:
ffffffc050401684:	1101                	addi	sp,sp,-32
ffffffc050401686:	ec06                	sd	ra,24(sp)
ffffffc050401688:	e822                	sd	s0,16(sp)
ffffffc05040168a:	1000                	addi	s0,sp,32
ffffffc05040168c:	fea43423          	sd	a0,-24(s0)
ffffffc050401690:	feb43023          	sd	a1,-32(s0)
ffffffc050401694:	fe043783          	ld	a5,-32(s0)
ffffffc050401698:	679c                	ld	a5,8(a5)
ffffffc05040169a:	fe043603          	ld	a2,-32(s0)
ffffffc05040169e:	85be                	mv	a1,a5
ffffffc0504016a0:	fe843503          	ld	a0,-24(s0)
ffffffc0504016a4:	f9fff0ef          	jal	ra,ffffffc050401642 <_list_add>
ffffffc0504016a8:	0001                	nop
ffffffc0504016aa:	60e2                	ld	ra,24(sp)
ffffffc0504016ac:	6442                	ld	s0,16(sp)
ffffffc0504016ae:	6105                	addi	sp,sp,32
ffffffc0504016b0:	8082                	ret

ffffffc0504016b2 <_panic>:
ffffffc0504016b2:	7179                	addi	sp,sp,-48
ffffffc0504016b4:	f406                	sd	ra,40(sp)
ffffffc0504016b6:	f022                	sd	s0,32(sp)
ffffffc0504016b8:	1800                	addi	s0,sp,48
ffffffc0504016ba:	fea43423          	sd	a0,-24(s0)
ffffffc0504016be:	87ae                	mv	a5,a1
ffffffc0504016c0:	fcc43c23          	sd	a2,-40(s0)
ffffffc0504016c4:	fef42223          	sw	a5,-28(s0)
ffffffc0504016c8:	fe442783          	lw	a5,-28(s0)
ffffffc0504016cc:	86be                	mv	a3,a5
ffffffc0504016ce:	fe843603          	ld	a2,-24(s0)
ffffffc0504016d2:	fd843583          	ld	a1,-40(s0)
ffffffc0504016d6:	00005517          	auipc	a0,0x5
ffffffc0504016da:	f1a50513          	addi	a0,a0,-230 # ffffffc0504065f0 <get_elf_file+0x266>
ffffffc0504016de:	3c9040ef          	jal	ra,ffffffc0504062a6 <printk>
ffffffc0504016e2:	a001                	j	ffffffc0504016e2 <_panic+0x30>

ffffffc0504016e4 <sbi_sd_write>:
ffffffc0504016e4:	1101                	addi	sp,sp,-32
ffffffc0504016e6:	ec22                	sd	s0,24(sp)
ffffffc0504016e8:	1000                	addi	s0,sp,32
ffffffc0504016ea:	87aa                	mv	a5,a0
ffffffc0504016ec:	86ae                	mv	a3,a1
ffffffc0504016ee:	8732                	mv	a4,a2
ffffffc0504016f0:	fef42623          	sw	a5,-20(s0)
ffffffc0504016f4:	87b6                	mv	a5,a3
ffffffc0504016f6:	fef42423          	sw	a5,-24(s0)
ffffffc0504016fa:	87ba                	mv	a5,a4
ffffffc0504016fc:	fef42223          	sw	a5,-28(s0)
ffffffc050401700:	fec46783          	lwu	a5,-20(s0)
ffffffc050401704:	853e                	mv	a0,a5
ffffffc050401706:	fe846783          	lwu	a5,-24(s0)
ffffffc05040170a:	85be                	mv	a1,a5
ffffffc05040170c:	fe446783          	lwu	a5,-28(s0)
ffffffc050401710:	863e                	mv	a2,a5
ffffffc050401712:	48a9                	li	a7,10
ffffffc050401714:	00000073          	ecall
ffffffc050401718:	87aa                	mv	a5,a0
ffffffc05040171a:	853e                	mv	a0,a5
ffffffc05040171c:	6462                	ld	s0,24(sp)
ffffffc05040171e:	6105                	addi	sp,sp,32
ffffffc050401720:	8082                	ret

ffffffc050401722 <sbi_sd_read>:
ffffffc050401722:	1101                	addi	sp,sp,-32
ffffffc050401724:	ec22                	sd	s0,24(sp)
ffffffc050401726:	1000                	addi	s0,sp,32
ffffffc050401728:	87aa                	mv	a5,a0
ffffffc05040172a:	86ae                	mv	a3,a1
ffffffc05040172c:	8732                	mv	a4,a2
ffffffc05040172e:	fef42623          	sw	a5,-20(s0)
ffffffc050401732:	87b6                	mv	a5,a3
ffffffc050401734:	fef42423          	sw	a5,-24(s0)
ffffffc050401738:	87ba                	mv	a5,a4
ffffffc05040173a:	fef42223          	sw	a5,-28(s0)
ffffffc05040173e:	fec46783          	lwu	a5,-20(s0)
ffffffc050401742:	853e                	mv	a0,a5
ffffffc050401744:	fe846783          	lwu	a5,-24(s0)
ffffffc050401748:	85be                	mv	a1,a5
ffffffc05040174a:	fe446783          	lwu	a5,-28(s0)
ffffffc05040174e:	863e                	mv	a2,a5
ffffffc050401750:	48ad                	li	a7,11
ffffffc050401752:	00000073          	ecall
ffffffc050401756:	87aa                	mv	a5,a0
ffffffc050401758:	853e                	mv	a0,a5
ffffffc05040175a:	6462                	ld	s0,24(sp)
ffffffc05040175c:	6105                	addi	sp,sp,32
ffffffc05040175e:	8082                	ret

ffffffc050401760 <sbi_set_timer>:
ffffffc050401760:	1101                	addi	sp,sp,-32
ffffffc050401762:	ec22                	sd	s0,24(sp)
ffffffc050401764:	1000                	addi	s0,sp,32
ffffffc050401766:	fea43423          	sd	a0,-24(s0)
ffffffc05040176a:	fe843503          	ld	a0,-24(s0)
ffffffc05040176e:	4581                	li	a1,0
ffffffc050401770:	4601                	li	a2,0
ffffffc050401772:	4881                	li	a7,0
ffffffc050401774:	00000073          	ecall
ffffffc050401778:	0001                	nop
ffffffc05040177a:	6462                	ld	s0,24(sp)
ffffffc05040177c:	6105                	addi	sp,sp,32
ffffffc05040177e:	8082                	ret

ffffffc050401780 <local_flush_tlb_all>:
ffffffc050401780:	1141                	addi	sp,sp,-16
ffffffc050401782:	e422                	sd	s0,8(sp)
ffffffc050401784:	0800                	addi	s0,sp,16
ffffffc050401786:	12000073          	sfence.vma
ffffffc05040178a:	0001                	nop
ffffffc05040178c:	6422                	ld	s0,8(sp)
ffffffc05040178e:	0141                	addi	sp,sp,16
ffffffc050401790:	8082                	ret

ffffffc050401792 <kva2pa>:
ffffffc050401792:	1101                	addi	sp,sp,-32
ffffffc050401794:	ec22                	sd	s0,24(sp)
ffffffc050401796:	1000                	addi	s0,sp,32
ffffffc050401798:	fea43423          	sd	a0,-24(s0)
ffffffc05040179c:	fe843703          	ld	a4,-24(s0)
ffffffc0504017a0:	4785                	li	a5,1
ffffffc0504017a2:	179a                	slli	a5,a5,0x26
ffffffc0504017a4:	97ba                	add	a5,a5,a4
ffffffc0504017a6:	853e                	mv	a0,a5
ffffffc0504017a8:	6462                	ld	s0,24(sp)
ffffffc0504017aa:	6105                	addi	sp,sp,32
ffffffc0504017ac:	8082                	ret

ffffffc0504017ae <pa2kva>:
ffffffc0504017ae:	1101                	addi	sp,sp,-32
ffffffc0504017b0:	ec22                	sd	s0,24(sp)
ffffffc0504017b2:	1000                	addi	s0,sp,32
ffffffc0504017b4:	fea43423          	sd	a0,-24(s0)
ffffffc0504017b8:	fe843703          	ld	a4,-24(s0)
ffffffc0504017bc:	57fd                	li	a5,-1
ffffffc0504017be:	179a                	slli	a5,a5,0x26
ffffffc0504017c0:	97ba                	add	a5,a5,a4
ffffffc0504017c2:	853e                	mv	a0,a5
ffffffc0504017c4:	6462                	ld	s0,24(sp)
ffffffc0504017c6:	6105                	addi	sp,sp,32
ffffffc0504017c8:	8082                	ret

ffffffc0504017ca <set_attribute>:
ffffffc0504017ca:	1101                	addi	sp,sp,-32
ffffffc0504017cc:	ec22                	sd	s0,24(sp)
ffffffc0504017ce:	1000                	addi	s0,sp,32
ffffffc0504017d0:	fea43423          	sd	a0,-24(s0)
ffffffc0504017d4:	feb43023          	sd	a1,-32(s0)
ffffffc0504017d8:	fe843783          	ld	a5,-24(s0)
ffffffc0504017dc:	6398                	ld	a4,0(a5)
ffffffc0504017de:	fe043783          	ld	a5,-32(s0)
ffffffc0504017e2:	8f5d                	or	a4,a4,a5
ffffffc0504017e4:	fe843783          	ld	a5,-24(s0)
ffffffc0504017e8:	e398                	sd	a4,0(a5)
ffffffc0504017ea:	0001                	nop
ffffffc0504017ec:	6462                	ld	s0,24(sp)
ffffffc0504017ee:	6105                	addi	sp,sp,32
ffffffc0504017f0:	8082                	ret

ffffffc0504017f2 <disk2mem>:
ffffffc0504017f2:	7179                	addi	sp,sp,-48
ffffffc0504017f4:	f406                	sd	ra,40(sp)
ffffffc0504017f6:	f022                	sd	s0,32(sp)
ffffffc0504017f8:	1800                	addi	s0,sp,48
ffffffc0504017fa:	87aa                	mv	a5,a0
ffffffc0504017fc:	872e                	mv	a4,a1
ffffffc0504017fe:	fec43023          	sd	a2,-32(s0)
ffffffc050401802:	fcd43c23          	sd	a3,-40(s0)
ffffffc050401806:	fef42623          	sw	a5,-20(s0)
ffffffc05040180a:	87ba                	mv	a5,a4
ffffffc05040180c:	fef42423          	sw	a5,-24(s0)
ffffffc050401810:	fe043783          	ld	a5,-32(s0)
ffffffc050401814:	2781                	sext.w	a5,a5
ffffffc050401816:	fe842703          	lw	a4,-24(s0)
ffffffc05040181a:	fec42683          	lw	a3,-20(s0)
ffffffc05040181e:	8636                	mv	a2,a3
ffffffc050401820:	85ba                	mv	a1,a4
ffffffc050401822:	853e                	mv	a0,a5
ffffffc050401824:	effff0ef          	jal	ra,ffffffc050401722 <sbi_sd_read>
ffffffc050401828:	fe842703          	lw	a4,-24(s0)
ffffffc05040182c:	fec42783          	lw	a5,-20(s0)
ffffffc050401830:	fd843683          	ld	a3,-40(s0)
ffffffc050401834:	fe043603          	ld	a2,-32(s0)
ffffffc050401838:	85be                	mv	a1,a5
ffffffc05040183a:	00005517          	auipc	a0,0x5
ffffffc05040183e:	dde50513          	addi	a0,a0,-546 # ffffffc050406618 <get_elf_file+0x28e>
ffffffc050401842:	2ed040ef          	jal	ra,ffffffc05040632e <prints>
ffffffc050401846:	767000ef          	jal	ra,ffffffc0504027ac <screen_reflush>
ffffffc05040184a:	0001                	nop
ffffffc05040184c:	70a2                	ld	ra,40(sp)
ffffffc05040184e:	7402                	ld	s0,32(sp)
ffffffc050401850:	6145                	addi	sp,sp,48
ffffffc050401852:	8082                	ret

ffffffc050401854 <mem2disk>:
ffffffc050401854:	7179                	addi	sp,sp,-48
ffffffc050401856:	f406                	sd	ra,40(sp)
ffffffc050401858:	f022                	sd	s0,32(sp)
ffffffc05040185a:	1800                	addi	s0,sp,48
ffffffc05040185c:	87aa                	mv	a5,a0
ffffffc05040185e:	872e                	mv	a4,a1
ffffffc050401860:	fec43023          	sd	a2,-32(s0)
ffffffc050401864:	fcd43c23          	sd	a3,-40(s0)
ffffffc050401868:	fef42623          	sw	a5,-20(s0)
ffffffc05040186c:	87ba                	mv	a5,a4
ffffffc05040186e:	fef42423          	sw	a5,-24(s0)
ffffffc050401872:	fe043783          	ld	a5,-32(s0)
ffffffc050401876:	2781                	sext.w	a5,a5
ffffffc050401878:	fe842703          	lw	a4,-24(s0)
ffffffc05040187c:	fec42683          	lw	a3,-20(s0)
ffffffc050401880:	8636                	mv	a2,a3
ffffffc050401882:	85ba                	mv	a1,a4
ffffffc050401884:	853e                	mv	a0,a5
ffffffc050401886:	e5fff0ef          	jal	ra,ffffffc0504016e4 <sbi_sd_write>
ffffffc05040188a:	fe842703          	lw	a4,-24(s0)
ffffffc05040188e:	fec42783          	lw	a5,-20(s0)
ffffffc050401892:	86be                	mv	a3,a5
ffffffc050401894:	fd843603          	ld	a2,-40(s0)
ffffffc050401898:	fe043583          	ld	a1,-32(s0)
ffffffc05040189c:	00005517          	auipc	a0,0x5
ffffffc0504018a0:	dbc50513          	addi	a0,a0,-580 # ffffffc050406658 <get_elf_file+0x2ce>
ffffffc0504018a4:	28b040ef          	jal	ra,ffffffc05040632e <prints>
ffffffc0504018a8:	705000ef          	jal	ra,ffffffc0504027ac <screen_reflush>
ffffffc0504018ac:	0001                	nop
ffffffc0504018ae:	70a2                	ld	ra,40(sp)
ffffffc0504018b0:	7402                	ld	s0,32(sp)
ffffffc0504018b2:	6145                	addi	sp,sp,48
ffffffc0504018b4:	8082                	ret

ffffffc0504018b6 <clock_unblock>:
ffffffc0504018b6:	7139                	addi	sp,sp,-64
ffffffc0504018b8:	fc06                	sd	ra,56(sp)
ffffffc0504018ba:	f822                	sd	s0,48(sp)
ffffffc0504018bc:	0080                	addi	s0,sp,64
ffffffc0504018be:	fca43423          	sd	a0,-56(s0)
ffffffc0504018c2:	fcb43023          	sd	a1,-64(s0)
ffffffc0504018c6:	fc843783          	ld	a5,-56(s0)
ffffffc0504018ca:	63fc                	ld	a5,192(a5)
ffffffc0504018cc:	fef43423          	sd	a5,-24(s0)
ffffffc0504018d0:	fe043023          	sd	zero,-32(s0)
ffffffc0504018d4:	a061                	j	ffffffc05040195c <clock_unblock+0xa6>
ffffffc0504018d6:	fe843783          	ld	a5,-24(s0)
ffffffc0504018da:	fcf43c23          	sd	a5,-40(s0)
ffffffc0504018de:	fd843783          	ld	a5,-40(s0)
ffffffc0504018e2:	1781                	addi	a5,a5,-32
ffffffc0504018e4:	fef43023          	sd	a5,-32(s0)
ffffffc0504018e8:	fe043783          	ld	a5,-32(s0)
ffffffc0504018ec:	679c                	ld	a5,8(a5)
ffffffc0504018ee:	fc043703          	ld	a4,-64(s0)
ffffffc0504018f2:	06f71063          	bne	a4,a5,ffffffc050401952 <clock_unblock+0x9c>
ffffffc0504018f6:	fc843783          	ld	a5,-56(s0)
ffffffc0504018fa:	0d07a783          	lw	a5,208(a5)
ffffffc0504018fe:	2785                	addiw	a5,a5,1
ffffffc050401900:	0007871b          	sext.w	a4,a5
ffffffc050401904:	fc843783          	ld	a5,-56(s0)
ffffffc050401908:	0ce7a823          	sw	a4,208(a5)
ffffffc05040190c:	fe043783          	ld	a5,-32(s0)
ffffffc050401910:	4bd8                	lw	a4,20(a5)
ffffffc050401912:	fe043783          	ld	a5,-32(s0)
ffffffc050401916:	6390                	ld	a2,0(a5)
ffffffc050401918:	fe043783          	ld	a5,-32(s0)
ffffffc05040191c:	679c                	ld	a5,8(a5)
ffffffc05040191e:	86be                	mv	a3,a5
ffffffc050401920:	45a1                	li	a1,8
ffffffc050401922:	853a                	mv	a0,a4
ffffffc050401924:	ecfff0ef          	jal	ra,ffffffc0504017f2 <disk2mem>
ffffffc050401928:	fe043783          	ld	a5,-32(s0)
ffffffc05040192c:	6f9c                	ld	a5,24(a5)
ffffffc05040192e:	fcf43823          	sd	a5,-48(s0)
ffffffc050401932:	0c100593          	li	a1,193
ffffffc050401936:	fd043503          	ld	a0,-48(s0)
ffffffc05040193a:	e91ff0ef          	jal	ra,ffffffc0504017ca <set_attribute>
ffffffc05040193e:	fe043783          	ld	a5,-32(s0)
ffffffc050401942:	0007a823          	sw	zero,16(a5)
ffffffc050401946:	fe043783          	ld	a5,-32(s0)
ffffffc05040194a:	0007aa23          	sw	zero,20(a5)
ffffffc05040194e:	4785                	li	a5,1
ffffffc050401950:	a839                	j	ffffffc05040196e <clock_unblock+0xb8>
ffffffc050401952:	fe843783          	ld	a5,-24(s0)
ffffffc050401956:	639c                	ld	a5,0(a5)
ffffffc050401958:	fef43423          	sd	a5,-24(s0)
ffffffc05040195c:	fc843783          	ld	a5,-56(s0)
ffffffc050401960:	0c078793          	addi	a5,a5,192
ffffffc050401964:	fe843703          	ld	a4,-24(s0)
ffffffc050401968:	f6f717e3          	bne	a4,a5,ffffffc0504018d6 <clock_unblock+0x20>
ffffffc05040196c:	4781                	li	a5,0
ffffffc05040196e:	853e                	mv	a0,a5
ffffffc050401970:	70e2                	ld	ra,56(sp)
ffffffc050401972:	7442                	ld	s0,48(sp)
ffffffc050401974:	6121                	addi	sp,sp,64
ffffffc050401976:	8082                	ret

ffffffc050401978 <clock_block>:
ffffffc050401978:	7159                	addi	sp,sp,-112
ffffffc05040197a:	f486                	sd	ra,104(sp)
ffffffc05040197c:	f0a2                	sd	s0,96(sp)
ffffffc05040197e:	eca6                	sd	s1,88(sp)
ffffffc050401980:	1880                	addi	s0,sp,112
ffffffc050401982:	f8a43c23          	sd	a0,-104(s0)
ffffffc050401986:	f9843783          	ld	a5,-104(s0)
ffffffc05040198a:	63fc                	ld	a5,192(a5)
ffffffc05040198c:	fcf43c23          	sd	a5,-40(s0)
ffffffc050401990:	fc043823          	sd	zero,-48(s0)
ffffffc050401994:	a8f5                	j	ffffffc050401a90 <clock_block+0x118>
ffffffc050401996:	fd843783          	ld	a5,-40(s0)
ffffffc05040199a:	faf43423          	sd	a5,-88(s0)
ffffffc05040199e:	fa843783          	ld	a5,-88(s0)
ffffffc0504019a2:	1781                	addi	a5,a5,-32
ffffffc0504019a4:	fcf43823          	sd	a5,-48(s0)
ffffffc0504019a8:	fd043783          	ld	a5,-48(s0)
ffffffc0504019ac:	4b9c                	lw	a5,16(a5)
ffffffc0504019ae:	efe1                	bnez	a5,ffffffc050401a86 <clock_block+0x10e>
ffffffc0504019b0:	fd043783          	ld	a5,-48(s0)
ffffffc0504019b4:	6784                	ld	s1,8(a5)
ffffffc0504019b6:	f9843783          	ld	a5,-104(s0)
ffffffc0504019ba:	7fdc                	ld	a5,184(a5)
ffffffc0504019bc:	853e                	mv	a0,a5
ffffffc0504019be:	df1ff0ef          	jal	ra,ffffffc0504017ae <pa2kva>
ffffffc0504019c2:	87aa                	mv	a5,a0
ffffffc0504019c4:	85be                	mv	a1,a5
ffffffc0504019c6:	8526                	mv	a0,s1
ffffffc0504019c8:	4eb030ef          	jal	ra,ffffffc0504056b2 <check_page_helper>
ffffffc0504019cc:	87aa                	mv	a5,a0
ffffffc0504019ce:	faf43023          	sd	a5,-96(s0)
ffffffc0504019d2:	fd043783          	ld	a5,-48(s0)
ffffffc0504019d6:	4b9c                	lw	a5,16(a5)
ffffffc0504019d8:	efd9                	bnez	a5,ffffffc050401a76 <clock_block+0xfe>
ffffffc0504019da:	fa043783          	ld	a5,-96(s0)
ffffffc0504019de:	639c                	ld	a5,0(a5)
ffffffc0504019e0:	0407f793          	andi	a5,a5,64
ffffffc0504019e4:	ebc9                	bnez	a5,ffffffc050401a76 <clock_block+0xfe>
ffffffc0504019e6:	fa043783          	ld	a5,-96(s0)
ffffffc0504019ea:	639c                	ld	a5,0(a5)
ffffffc0504019ec:	0807f793          	andi	a5,a5,128
ffffffc0504019f0:	e3d9                	bnez	a5,ffffffc050401a76 <clock_block+0xfe>
ffffffc0504019f2:	00043797          	auipc	a5,0x43
ffffffc0504019f6:	80678793          	addi	a5,a5,-2042 # ffffffc0504441f8 <bid>
ffffffc0504019fa:	4398                	lw	a4,0(a5)
ffffffc0504019fc:	fd043783          	ld	a5,-48(s0)
ffffffc050401a00:	6390                	ld	a2,0(a5)
ffffffc050401a02:	fd043783          	ld	a5,-48(s0)
ffffffc050401a06:	679c                	ld	a5,8(a5)
ffffffc050401a08:	86be                	mv	a3,a5
ffffffc050401a0a:	45a1                	li	a1,8
ffffffc050401a0c:	853a                	mv	a0,a4
ffffffc050401a0e:	e47ff0ef          	jal	ra,ffffffc050401854 <mem2disk>
ffffffc050401a12:	fd043783          	ld	a5,-48(s0)
ffffffc050401a16:	4705                	li	a4,1
ffffffc050401a18:	cb98                	sw	a4,16(a5)
ffffffc050401a1a:	00042797          	auipc	a5,0x42
ffffffc050401a1e:	7de78793          	addi	a5,a5,2014 # ffffffc0504441f8 <bid>
ffffffc050401a22:	4398                	lw	a4,0(a5)
ffffffc050401a24:	fd043783          	ld	a5,-48(s0)
ffffffc050401a28:	cbd8                	sw	a4,20(a5)
ffffffc050401a2a:	fa043703          	ld	a4,-96(s0)
ffffffc050401a2e:	fd043783          	ld	a5,-48(s0)
ffffffc050401a32:	ef98                	sd	a4,24(a5)
ffffffc050401a34:	00042797          	auipc	a5,0x42
ffffffc050401a38:	7c478793          	addi	a5,a5,1988 # ffffffc0504441f8 <bid>
ffffffc050401a3c:	439c                	lw	a5,0(a5)
ffffffc050401a3e:	27a1                	addiw	a5,a5,8
ffffffc050401a40:	0007871b          	sext.w	a4,a5
ffffffc050401a44:	00042797          	auipc	a5,0x42
ffffffc050401a48:	7b478793          	addi	a5,a5,1972 # ffffffc0504441f8 <bid>
ffffffc050401a4c:	c398                	sw	a4,0(a5)
ffffffc050401a4e:	fa043783          	ld	a5,-96(s0)
ffffffc050401a52:	639c                	ld	a5,0(a5)
ffffffc050401a54:	ffe7f713          	andi	a4,a5,-2
ffffffc050401a58:	fa043783          	ld	a5,-96(s0)
ffffffc050401a5c:	e398                	sd	a4,0(a5)
ffffffc050401a5e:	f9843783          	ld	a5,-104(s0)
ffffffc050401a62:	0d07a783          	lw	a5,208(a5)
ffffffc050401a66:	37fd                	addiw	a5,a5,-1
ffffffc050401a68:	0007871b          	sext.w	a4,a5
ffffffc050401a6c:	f9843783          	ld	a5,-104(s0)
ffffffc050401a70:	0ce7a823          	sw	a4,208(a5)
ffffffc050401a74:	ac05                	j	ffffffc050401ca4 <clock_block+0x32c>
ffffffc050401a76:	fa043783          	ld	a5,-96(s0)
ffffffc050401a7a:	639c                	ld	a5,0(a5)
ffffffc050401a7c:	fbf7f713          	andi	a4,a5,-65
ffffffc050401a80:	fa043783          	ld	a5,-96(s0)
ffffffc050401a84:	e398                	sd	a4,0(a5)
ffffffc050401a86:	fd843783          	ld	a5,-40(s0)
ffffffc050401a8a:	639c                	ld	a5,0(a5)
ffffffc050401a8c:	fcf43c23          	sd	a5,-40(s0)
ffffffc050401a90:	f9843783          	ld	a5,-104(s0)
ffffffc050401a94:	0c078793          	addi	a5,a5,192
ffffffc050401a98:	fd843703          	ld	a4,-40(s0)
ffffffc050401a9c:	eef71de3          	bne	a4,a5,ffffffc050401996 <clock_block+0x1e>
ffffffc050401aa0:	f9843783          	ld	a5,-104(s0)
ffffffc050401aa4:	63fc                	ld	a5,192(a5)
ffffffc050401aa6:	fcf43c23          	sd	a5,-40(s0)
ffffffc050401aaa:	a8c5                	j	ffffffc050401b9a <clock_block+0x222>
ffffffc050401aac:	fd843783          	ld	a5,-40(s0)
ffffffc050401ab0:	faf43c23          	sd	a5,-72(s0)
ffffffc050401ab4:	fb843783          	ld	a5,-72(s0)
ffffffc050401ab8:	1781                	addi	a5,a5,-32
ffffffc050401aba:	fcf43823          	sd	a5,-48(s0)
ffffffc050401abe:	fd043783          	ld	a5,-48(s0)
ffffffc050401ac2:	4b9c                	lw	a5,16(a5)
ffffffc050401ac4:	e7f1                	bnez	a5,ffffffc050401b90 <clock_block+0x218>
ffffffc050401ac6:	fd043783          	ld	a5,-48(s0)
ffffffc050401aca:	6784                	ld	s1,8(a5)
ffffffc050401acc:	f9843783          	ld	a5,-104(s0)
ffffffc050401ad0:	7fdc                	ld	a5,184(a5)
ffffffc050401ad2:	853e                	mv	a0,a5
ffffffc050401ad4:	cdbff0ef          	jal	ra,ffffffc0504017ae <pa2kva>
ffffffc050401ad8:	87aa                	mv	a5,a0
ffffffc050401ada:	85be                	mv	a1,a5
ffffffc050401adc:	8526                	mv	a0,s1
ffffffc050401ade:	3d5030ef          	jal	ra,ffffffc0504056b2 <check_page_helper>
ffffffc050401ae2:	87aa                	mv	a5,a0
ffffffc050401ae4:	faf43823          	sd	a5,-80(s0)
ffffffc050401ae8:	fd043783          	ld	a5,-48(s0)
ffffffc050401aec:	4b9c                	lw	a5,16(a5)
ffffffc050401aee:	ebc9                	bnez	a5,ffffffc050401b80 <clock_block+0x208>
ffffffc050401af0:	fb043783          	ld	a5,-80(s0)
ffffffc050401af4:	639c                	ld	a5,0(a5)
ffffffc050401af6:	0807f793          	andi	a5,a5,128
ffffffc050401afa:	e3d9                	bnez	a5,ffffffc050401b80 <clock_block+0x208>
ffffffc050401afc:	00042797          	auipc	a5,0x42
ffffffc050401b00:	6fc78793          	addi	a5,a5,1788 # ffffffc0504441f8 <bid>
ffffffc050401b04:	4398                	lw	a4,0(a5)
ffffffc050401b06:	fd043783          	ld	a5,-48(s0)
ffffffc050401b0a:	6390                	ld	a2,0(a5)
ffffffc050401b0c:	fd043783          	ld	a5,-48(s0)
ffffffc050401b10:	679c                	ld	a5,8(a5)
ffffffc050401b12:	86be                	mv	a3,a5
ffffffc050401b14:	45a1                	li	a1,8
ffffffc050401b16:	853a                	mv	a0,a4
ffffffc050401b18:	d3dff0ef          	jal	ra,ffffffc050401854 <mem2disk>
ffffffc050401b1c:	fd043783          	ld	a5,-48(s0)
ffffffc050401b20:	4705                	li	a4,1
ffffffc050401b22:	cb98                	sw	a4,16(a5)
ffffffc050401b24:	00042797          	auipc	a5,0x42
ffffffc050401b28:	6d478793          	addi	a5,a5,1748 # ffffffc0504441f8 <bid>
ffffffc050401b2c:	4398                	lw	a4,0(a5)
ffffffc050401b2e:	fd043783          	ld	a5,-48(s0)
ffffffc050401b32:	cbd8                	sw	a4,20(a5)
ffffffc050401b34:	fb043703          	ld	a4,-80(s0)
ffffffc050401b38:	fd043783          	ld	a5,-48(s0)
ffffffc050401b3c:	ef98                	sd	a4,24(a5)
ffffffc050401b3e:	00042797          	auipc	a5,0x42
ffffffc050401b42:	6ba78793          	addi	a5,a5,1722 # ffffffc0504441f8 <bid>
ffffffc050401b46:	439c                	lw	a5,0(a5)
ffffffc050401b48:	27a1                	addiw	a5,a5,8
ffffffc050401b4a:	0007871b          	sext.w	a4,a5
ffffffc050401b4e:	00042797          	auipc	a5,0x42
ffffffc050401b52:	6aa78793          	addi	a5,a5,1706 # ffffffc0504441f8 <bid>
ffffffc050401b56:	c398                	sw	a4,0(a5)
ffffffc050401b58:	fb043783          	ld	a5,-80(s0)
ffffffc050401b5c:	639c                	ld	a5,0(a5)
ffffffc050401b5e:	ffe7f713          	andi	a4,a5,-2
ffffffc050401b62:	fb043783          	ld	a5,-80(s0)
ffffffc050401b66:	e398                	sd	a4,0(a5)
ffffffc050401b68:	f9843783          	ld	a5,-104(s0)
ffffffc050401b6c:	0d07a783          	lw	a5,208(a5)
ffffffc050401b70:	37fd                	addiw	a5,a5,-1
ffffffc050401b72:	0007871b          	sext.w	a4,a5
ffffffc050401b76:	f9843783          	ld	a5,-104(s0)
ffffffc050401b7a:	0ce7a823          	sw	a4,208(a5)
ffffffc050401b7e:	a21d                	j	ffffffc050401ca4 <clock_block+0x32c>
ffffffc050401b80:	fb043783          	ld	a5,-80(s0)
ffffffc050401b84:	639c                	ld	a5,0(a5)
ffffffc050401b86:	f7f7f713          	andi	a4,a5,-129
ffffffc050401b8a:	fb043783          	ld	a5,-80(s0)
ffffffc050401b8e:	e398                	sd	a4,0(a5)
ffffffc050401b90:	fd843783          	ld	a5,-40(s0)
ffffffc050401b94:	639c                	ld	a5,0(a5)
ffffffc050401b96:	fcf43c23          	sd	a5,-40(s0)
ffffffc050401b9a:	f9843783          	ld	a5,-104(s0)
ffffffc050401b9e:	0c078793          	addi	a5,a5,192
ffffffc050401ba2:	fd843703          	ld	a4,-40(s0)
ffffffc050401ba6:	f0f713e3          	bne	a4,a5,ffffffc050401aac <clock_block+0x134>
ffffffc050401baa:	f9843783          	ld	a5,-104(s0)
ffffffc050401bae:	67fc                	ld	a5,200(a5)
ffffffc050401bb0:	fcf43c23          	sd	a5,-40(s0)
ffffffc050401bb4:	a0c5                	j	ffffffc050401c94 <clock_block+0x31c>
ffffffc050401bb6:	fd843783          	ld	a5,-40(s0)
ffffffc050401bba:	fcf43423          	sd	a5,-56(s0)
ffffffc050401bbe:	fc843783          	ld	a5,-56(s0)
ffffffc050401bc2:	1781                	addi	a5,a5,-32
ffffffc050401bc4:	fcf43823          	sd	a5,-48(s0)
ffffffc050401bc8:	fd043783          	ld	a5,-48(s0)
ffffffc050401bcc:	4b9c                	lw	a5,16(a5)
ffffffc050401bce:	efd5                	bnez	a5,ffffffc050401c8a <clock_block+0x312>
ffffffc050401bd0:	fd043783          	ld	a5,-48(s0)
ffffffc050401bd4:	6784                	ld	s1,8(a5)
ffffffc050401bd6:	f9843783          	ld	a5,-104(s0)
ffffffc050401bda:	7fdc                	ld	a5,184(a5)
ffffffc050401bdc:	853e                	mv	a0,a5
ffffffc050401bde:	bd1ff0ef          	jal	ra,ffffffc0504017ae <pa2kva>
ffffffc050401be2:	87aa                	mv	a5,a0
ffffffc050401be4:	85be                	mv	a1,a5
ffffffc050401be6:	8526                	mv	a0,s1
ffffffc050401be8:	2cb030ef          	jal	ra,ffffffc0504056b2 <check_page_helper>
ffffffc050401bec:	87aa                	mv	a5,a0
ffffffc050401bee:	fcf43023          	sd	a5,-64(s0)
ffffffc050401bf2:	fd043783          	ld	a5,-48(s0)
ffffffc050401bf6:	4b9c                	lw	a5,16(a5)
ffffffc050401bf8:	ebc9                	bnez	a5,ffffffc050401c8a <clock_block+0x312>
ffffffc050401bfa:	fc043783          	ld	a5,-64(s0)
ffffffc050401bfe:	639c                	ld	a5,0(a5)
ffffffc050401c00:	0807f793          	andi	a5,a5,128
ffffffc050401c04:	e3d9                	bnez	a5,ffffffc050401c8a <clock_block+0x312>
ffffffc050401c06:	00042797          	auipc	a5,0x42
ffffffc050401c0a:	5f278793          	addi	a5,a5,1522 # ffffffc0504441f8 <bid>
ffffffc050401c0e:	4398                	lw	a4,0(a5)
ffffffc050401c10:	fd043783          	ld	a5,-48(s0)
ffffffc050401c14:	6390                	ld	a2,0(a5)
ffffffc050401c16:	fd043783          	ld	a5,-48(s0)
ffffffc050401c1a:	679c                	ld	a5,8(a5)
ffffffc050401c1c:	86be                	mv	a3,a5
ffffffc050401c1e:	45a1                	li	a1,8
ffffffc050401c20:	853a                	mv	a0,a4
ffffffc050401c22:	c33ff0ef          	jal	ra,ffffffc050401854 <mem2disk>
ffffffc050401c26:	fd043783          	ld	a5,-48(s0)
ffffffc050401c2a:	4705                	li	a4,1
ffffffc050401c2c:	cb98                	sw	a4,16(a5)
ffffffc050401c2e:	00042797          	auipc	a5,0x42
ffffffc050401c32:	5ca78793          	addi	a5,a5,1482 # ffffffc0504441f8 <bid>
ffffffc050401c36:	4398                	lw	a4,0(a5)
ffffffc050401c38:	fd043783          	ld	a5,-48(s0)
ffffffc050401c3c:	cbd8                	sw	a4,20(a5)
ffffffc050401c3e:	fc043703          	ld	a4,-64(s0)
ffffffc050401c42:	fd043783          	ld	a5,-48(s0)
ffffffc050401c46:	ef98                	sd	a4,24(a5)
ffffffc050401c48:	00042797          	auipc	a5,0x42
ffffffc050401c4c:	5b078793          	addi	a5,a5,1456 # ffffffc0504441f8 <bid>
ffffffc050401c50:	439c                	lw	a5,0(a5)
ffffffc050401c52:	27a1                	addiw	a5,a5,8
ffffffc050401c54:	0007871b          	sext.w	a4,a5
ffffffc050401c58:	00042797          	auipc	a5,0x42
ffffffc050401c5c:	5a078793          	addi	a5,a5,1440 # ffffffc0504441f8 <bid>
ffffffc050401c60:	c398                	sw	a4,0(a5)
ffffffc050401c62:	fc043783          	ld	a5,-64(s0)
ffffffc050401c66:	639c                	ld	a5,0(a5)
ffffffc050401c68:	ffe7f713          	andi	a4,a5,-2
ffffffc050401c6c:	fc043783          	ld	a5,-64(s0)
ffffffc050401c70:	e398                	sd	a4,0(a5)
ffffffc050401c72:	f9843783          	ld	a5,-104(s0)
ffffffc050401c76:	0d07a783          	lw	a5,208(a5)
ffffffc050401c7a:	37fd                	addiw	a5,a5,-1
ffffffc050401c7c:	0007871b          	sext.w	a4,a5
ffffffc050401c80:	f9843783          	ld	a5,-104(s0)
ffffffc050401c84:	0ce7a823          	sw	a4,208(a5)
ffffffc050401c88:	a831                	j	ffffffc050401ca4 <clock_block+0x32c>
ffffffc050401c8a:	fd843783          	ld	a5,-40(s0)
ffffffc050401c8e:	679c                	ld	a5,8(a5)
ffffffc050401c90:	fcf43c23          	sd	a5,-40(s0)
ffffffc050401c94:	f9843783          	ld	a5,-104(s0)
ffffffc050401c98:	0c078793          	addi	a5,a5,192
ffffffc050401c9c:	fd843703          	ld	a4,-40(s0)
ffffffc050401ca0:	f0f71be3          	bne	a4,a5,ffffffc050401bb6 <clock_block+0x23e>
ffffffc050401ca4:	70a6                	ld	ra,104(sp)
ffffffc050401ca6:	7406                	ld	s0,96(sp)
ffffffc050401ca8:	64e6                	ld	s1,88(sp)
ffffffc050401caa:	6165                	addi	sp,sp,112
ffffffc050401cac:	8082                	ret

ffffffc050401cae <reset_irq_timer>:
ffffffc050401cae:	1141                	addi	sp,sp,-16
ffffffc050401cb0:	e406                	sd	ra,8(sp)
ffffffc050401cb2:	e022                	sd	s0,0(sp)
ffffffc050401cb4:	0800                	addi	s0,sp,16
ffffffc050401cb6:	2f7000ef          	jal	ra,ffffffc0504027ac <screen_reflush>
ffffffc050401cba:	6af020ef          	jal	ra,ffffffc050404b68 <timer_check>
ffffffc050401cbe:	73f020ef          	jal	ra,ffffffc050404bfc <get_ticks>
ffffffc050401cc2:	872a                	mv	a4,a0
ffffffc050401cc4:	000257b7          	lui	a5,0x25
ffffffc050401cc8:	9f078793          	addi	a5,a5,-1552 # 249f0 <_start-0xffffffc0503db610>
ffffffc050401ccc:	97ba                	add	a5,a5,a4
ffffffc050401cce:	853e                	mv	a0,a5
ffffffc050401cd0:	a91ff0ef          	jal	ra,ffffffc050401760 <sbi_set_timer>
ffffffc050401cd4:	31a020ef          	jal	ra,ffffffc050403fee <do_scheduler>
ffffffc050401cd8:	0001                	nop
ffffffc050401cda:	60a2                	ld	ra,8(sp)
ffffffc050401cdc:	6402                	ld	s0,0(sp)
ffffffc050401cde:	0141                	addi	sp,sp,16
ffffffc050401ce0:	8082                	ret

ffffffc050401ce2 <interrupt_helper>:
ffffffc050401ce2:	7139                	addi	sp,sp,-64
ffffffc050401ce4:	fc06                	sd	ra,56(sp)
ffffffc050401ce6:	f822                	sd	s0,48(sp)
ffffffc050401ce8:	0080                	addi	s0,sp,64
ffffffc050401cea:	fca43c23          	sd	a0,-40(s0)
ffffffc050401cee:	fcb43823          	sd	a1,-48(s0)
ffffffc050401cf2:	fcc43423          	sd	a2,-56(s0)
ffffffc050401cf6:	fc843783          	ld	a5,-56(s0)
ffffffc050401cfa:	0007d763          	bgez	a5,ffffffc050401d08 <interrupt_helper+0x26>
ffffffc050401cfe:	00044797          	auipc	a5,0x44
ffffffc050401d02:	62a78793          	addi	a5,a5,1578 # ffffffc050446328 <irq_table>
ffffffc050401d06:	a029                	j	ffffffc050401d10 <interrupt_helper+0x2e>
ffffffc050401d08:	00044797          	auipc	a5,0x44
ffffffc050401d0c:	59078793          	addi	a5,a5,1424 # ffffffc050446298 <exc_table>
ffffffc050401d10:	fef43423          	sd	a5,-24(s0)
ffffffc050401d14:	fc843703          	ld	a4,-56(s0)
ffffffc050401d18:	57fd                	li	a5,-1
ffffffc050401d1a:	8385                	srli	a5,a5,0x1
ffffffc050401d1c:	8ff9                	and	a5,a5,a4
ffffffc050401d1e:	fef43023          	sd	a5,-32(s0)
ffffffc050401d22:	fe043783          	ld	a5,-32(s0)
ffffffc050401d26:	078e                	slli	a5,a5,0x3
ffffffc050401d28:	fe843703          	ld	a4,-24(s0)
ffffffc050401d2c:	97ba                	add	a5,a5,a4
ffffffc050401d2e:	639c                	ld	a5,0(a5)
ffffffc050401d30:	fc843603          	ld	a2,-56(s0)
ffffffc050401d34:	fd043583          	ld	a1,-48(s0)
ffffffc050401d38:	fd843503          	ld	a0,-40(s0)
ffffffc050401d3c:	9782                	jalr	a5
ffffffc050401d3e:	0001                	nop
ffffffc050401d40:	70e2                	ld	ra,56(sp)
ffffffc050401d42:	7442                	ld	s0,48(sp)
ffffffc050401d44:	6121                	addi	sp,sp,64
ffffffc050401d46:	8082                	ret

ffffffc050401d48 <handle_int>:
ffffffc050401d48:	7179                	addi	sp,sp,-48
ffffffc050401d4a:	f406                	sd	ra,40(sp)
ffffffc050401d4c:	f022                	sd	s0,32(sp)
ffffffc050401d4e:	1800                	addi	s0,sp,48
ffffffc050401d50:	fea43423          	sd	a0,-24(s0)
ffffffc050401d54:	feb43023          	sd	a1,-32(s0)
ffffffc050401d58:	fcc43c23          	sd	a2,-40(s0)
ffffffc050401d5c:	f53ff0ef          	jal	ra,ffffffc050401cae <reset_irq_timer>
ffffffc050401d60:	0001                	nop
ffffffc050401d62:	70a2                	ld	ra,40(sp)
ffffffc050401d64:	7402                	ld	s0,32(sp)
ffffffc050401d66:	6145                	addi	sp,sp,48
ffffffc050401d68:	8082                	ret

ffffffc050401d6a <handle_inst_pagefault>:
ffffffc050401d6a:	7139                	addi	sp,sp,-64
ffffffc050401d6c:	fc06                	sd	ra,56(sp)
ffffffc050401d6e:	f822                	sd	s0,48(sp)
ffffffc050401d70:	0080                	addi	s0,sp,64
ffffffc050401d72:	fca43c23          	sd	a0,-40(s0)
ffffffc050401d76:	fcb43823          	sd	a1,-48(s0)
ffffffc050401d7a:	fcc43423          	sd	a2,-56(s0)
ffffffc050401d7e:	d4afe0ef          	jal	ra,ffffffc0504002c8 <get_current_cpu_id>
ffffffc050401d82:	87aa                	mv	a5,a0
ffffffc050401d84:	e791                	bnez	a5,ffffffc050401d90 <handle_inst_pagefault+0x26>
ffffffc050401d86:	00044797          	auipc	a5,0x44
ffffffc050401d8a:	48a78793          	addi	a5,a5,1162 # ffffffc050446210 <current_running_core0>
ffffffc050401d8e:	a029                	j	ffffffc050401d98 <handle_inst_pagefault+0x2e>
ffffffc050401d90:	00044797          	auipc	a5,0x44
ffffffc050401d94:	47878793          	addi	a5,a5,1144 # ffffffc050446208 <current_running_core1>
ffffffc050401d98:	00046717          	auipc	a4,0x46
ffffffc050401d9c:	c3070713          	addi	a4,a4,-976 # ffffffc0504479c8 <current_running>
ffffffc050401da0:	e31c                	sd	a5,0(a4)
ffffffc050401da2:	00046797          	auipc	a5,0x46
ffffffc050401da6:	c2678793          	addi	a5,a5,-986 # ffffffc0504479c8 <current_running>
ffffffc050401daa:	639c                	ld	a5,0(a5)
ffffffc050401dac:	639c                	ld	a5,0(a5)
ffffffc050401dae:	7fdc                	ld	a5,184(a5)
ffffffc050401db0:	853e                	mv	a0,a5
ffffffc050401db2:	9fdff0ef          	jal	ra,ffffffc0504017ae <pa2kva>
ffffffc050401db6:	87aa                	mv	a5,a0
ffffffc050401db8:	85be                	mv	a1,a5
ffffffc050401dba:	fd043503          	ld	a0,-48(s0)
ffffffc050401dbe:	0f5030ef          	jal	ra,ffffffc0504056b2 <check_page_helper>
ffffffc050401dc2:	fea43423          	sd	a0,-24(s0)
ffffffc050401dc6:	fe843783          	ld	a5,-24(s0)
ffffffc050401dca:	cb99                	beqz	a5,ffffffc050401de0 <handle_inst_pagefault+0x76>
ffffffc050401dcc:	fe843783          	ld	a5,-24(s0)
ffffffc050401dd0:	0c000593          	li	a1,192
ffffffc050401dd4:	853e                	mv	a0,a5
ffffffc050401dd6:	9f5ff0ef          	jal	ra,ffffffc0504017ca <set_attribute>
ffffffc050401dda:	9a7ff0ef          	jal	ra,ffffffc050401780 <local_flush_tlb_all>
ffffffc050401dde:	a801                	j	ffffffc050401dee <handle_inst_pagefault+0x84>
ffffffc050401de0:	00005517          	auipc	a0,0x5
ffffffc050401de4:	8b850513          	addi	a0,a0,-1864 # ffffffc050406698 <get_elf_file+0x30e>
ffffffc050401de8:	4be040ef          	jal	ra,ffffffc0504062a6 <printk>
ffffffc050401dec:	a001                	j	ffffffc050401dec <handle_inst_pagefault+0x82>
ffffffc050401dee:	70e2                	ld	ra,56(sp)
ffffffc050401df0:	7442                	ld	s0,48(sp)
ffffffc050401df2:	6121                	addi	sp,sp,64
ffffffc050401df4:	8082                	ret

ffffffc050401df6 <handle_load_pagefault>:
ffffffc050401df6:	7139                	addi	sp,sp,-64
ffffffc050401df8:	fc06                	sd	ra,56(sp)
ffffffc050401dfa:	f822                	sd	s0,48(sp)
ffffffc050401dfc:	0080                	addi	s0,sp,64
ffffffc050401dfe:	fca43c23          	sd	a0,-40(s0)
ffffffc050401e02:	fcb43823          	sd	a1,-48(s0)
ffffffc050401e06:	fcc43423          	sd	a2,-56(s0)
ffffffc050401e0a:	cbefe0ef          	jal	ra,ffffffc0504002c8 <get_current_cpu_id>
ffffffc050401e0e:	87aa                	mv	a5,a0
ffffffc050401e10:	e791                	bnez	a5,ffffffc050401e1c <handle_load_pagefault+0x26>
ffffffc050401e12:	00044797          	auipc	a5,0x44
ffffffc050401e16:	3fe78793          	addi	a5,a5,1022 # ffffffc050446210 <current_running_core0>
ffffffc050401e1a:	a029                	j	ffffffc050401e24 <handle_load_pagefault+0x2e>
ffffffc050401e1c:	00044797          	auipc	a5,0x44
ffffffc050401e20:	3ec78793          	addi	a5,a5,1004 # ffffffc050446208 <current_running_core1>
ffffffc050401e24:	00046717          	auipc	a4,0x46
ffffffc050401e28:	ba470713          	addi	a4,a4,-1116 # ffffffc0504479c8 <current_running>
ffffffc050401e2c:	e31c                	sd	a5,0(a4)
ffffffc050401e2e:	00046797          	auipc	a5,0x46
ffffffc050401e32:	b9a78793          	addi	a5,a5,-1126 # ffffffc0504479c8 <current_running>
ffffffc050401e36:	639c                	ld	a5,0(a5)
ffffffc050401e38:	639c                	ld	a5,0(a5)
ffffffc050401e3a:	7fdc                	ld	a5,184(a5)
ffffffc050401e3c:	853e                	mv	a0,a5
ffffffc050401e3e:	971ff0ef          	jal	ra,ffffffc0504017ae <pa2kva>
ffffffc050401e42:	87aa                	mv	a5,a0
ffffffc050401e44:	85be                	mv	a1,a5
ffffffc050401e46:	fd043503          	ld	a0,-48(s0)
ffffffc050401e4a:	069030ef          	jal	ra,ffffffc0504056b2 <check_page_helper>
ffffffc050401e4e:	fea43423          	sd	a0,-24(s0)
ffffffc050401e52:	fe843783          	ld	a5,-24(s0)
ffffffc050401e56:	cb99                	beqz	a5,ffffffc050401e6c <handle_load_pagefault+0x76>
ffffffc050401e58:	fe843783          	ld	a5,-24(s0)
ffffffc050401e5c:	04000593          	li	a1,64
ffffffc050401e60:	853e                	mv	a0,a5
ffffffc050401e62:	969ff0ef          	jal	ra,ffffffc0504017ca <set_attribute>
ffffffc050401e66:	91bff0ef          	jal	ra,ffffffc050401780 <local_flush_tlb_all>
ffffffc050401e6a:	a221                	j	ffffffc050401f72 <handle_load_pagefault+0x17c>
ffffffc050401e6c:	00046797          	auipc	a5,0x46
ffffffc050401e70:	b5c78793          	addi	a5,a5,-1188 # ffffffc0504479c8 <current_running>
ffffffc050401e74:	639c                	ld	a5,0(a5)
ffffffc050401e76:	6394                	ld	a3,0(a5)
ffffffc050401e78:	fd043703          	ld	a4,-48(s0)
ffffffc050401e7c:	77fd                	lui	a5,0xfffff
ffffffc050401e7e:	8ff9                	and	a5,a5,a4
ffffffc050401e80:	85be                	mv	a1,a5
ffffffc050401e82:	8536                	mv	a0,a3
ffffffc050401e84:	a33ff0ef          	jal	ra,ffffffc0504018b6 <clock_unblock>
ffffffc050401e88:	87aa                	mv	a5,a0
ffffffc050401e8a:	cb8d                	beqz	a5,ffffffc050401ebc <handle_load_pagefault+0xc6>
ffffffc050401e8c:	00046797          	auipc	a5,0x46
ffffffc050401e90:	b3c78793          	addi	a5,a5,-1220 # ffffffc0504479c8 <current_running>
ffffffc050401e94:	639c                	ld	a5,0(a5)
ffffffc050401e96:	639c                	ld	a5,0(a5)
ffffffc050401e98:	0d07a783          	lw	a5,208(a5)
ffffffc050401e9c:	873e                	mv	a4,a5
ffffffc050401e9e:	478d                	li	a5,3
ffffffc050401ea0:	00e7db63          	bge	a5,a4,ffffffc050401eb6 <handle_load_pagefault+0xc0>
ffffffc050401ea4:	00046797          	auipc	a5,0x46
ffffffc050401ea8:	b2478793          	addi	a5,a5,-1244 # ffffffc0504479c8 <current_running>
ffffffc050401eac:	639c                	ld	a5,0(a5)
ffffffc050401eae:	639c                	ld	a5,0(a5)
ffffffc050401eb0:	853e                	mv	a0,a5
ffffffc050401eb2:	ac7ff0ef          	jal	ra,ffffffc050401978 <clock_block>
ffffffc050401eb6:	8cbff0ef          	jal	ra,ffffffc050401780 <local_flush_tlb_all>
ffffffc050401eba:	a865                	j	ffffffc050401f72 <handle_load_pagefault+0x17c>
ffffffc050401ebc:	00046797          	auipc	a5,0x46
ffffffc050401ec0:	b0c78793          	addi	a5,a5,-1268 # ffffffc0504479c8 <current_running>
ffffffc050401ec4:	639c                	ld	a5,0(a5)
ffffffc050401ec6:	639c                	ld	a5,0(a5)
ffffffc050401ec8:	0d07a783          	lw	a5,208(a5)
ffffffc050401ecc:	873e                	mv	a4,a5
ffffffc050401ece:	478d                	li	a5,3
ffffffc050401ed0:	00e7db63          	bge	a5,a4,ffffffc050401ee6 <handle_load_pagefault+0xf0>
ffffffc050401ed4:	00046797          	auipc	a5,0x46
ffffffc050401ed8:	af478793          	addi	a5,a5,-1292 # ffffffc0504479c8 <current_running>
ffffffc050401edc:	639c                	ld	a5,0(a5)
ffffffc050401ede:	639c                	ld	a5,0(a5)
ffffffc050401ee0:	853e                	mv	a0,a5
ffffffc050401ee2:	a97ff0ef          	jal	ra,ffffffc050401978 <clock_block>
ffffffc050401ee6:	00046797          	auipc	a5,0x46
ffffffc050401eea:	ae278793          	addi	a5,a5,-1310 # ffffffc0504479c8 <current_running>
ffffffc050401eee:	639c                	ld	a5,0(a5)
ffffffc050401ef0:	639c                	ld	a5,0(a5)
ffffffc050401ef2:	7fdc                	ld	a5,184(a5)
ffffffc050401ef4:	853e                	mv	a0,a5
ffffffc050401ef6:	8b9ff0ef          	jal	ra,ffffffc0504017ae <pa2kva>
ffffffc050401efa:	87aa                	mv	a5,a0
ffffffc050401efc:	4605                	li	a2,1
ffffffc050401efe:	85be                	mv	a1,a5
ffffffc050401f00:	fd043503          	ld	a0,-48(s0)
ffffffc050401f04:	562030ef          	jal	ra,ffffffc050405466 <alloc_page_helper>
ffffffc050401f08:	fea43423          	sd	a0,-24(s0)
ffffffc050401f0c:	00046797          	auipc	a5,0x46
ffffffc050401f10:	abc78793          	addi	a5,a5,-1348 # ffffffc0504479c8 <current_running>
ffffffc050401f14:	639c                	ld	a5,0(a5)
ffffffc050401f16:	639c                	ld	a5,0(a5)
ffffffc050401f18:	0d07a703          	lw	a4,208(a5)
ffffffc050401f1c:	2705                	addiw	a4,a4,1
ffffffc050401f1e:	2701                	sext.w	a4,a4
ffffffc050401f20:	0ce7a823          	sw	a4,208(a5)
ffffffc050401f24:	03000513          	li	a0,48
ffffffc050401f28:	75f020ef          	jal	ra,ffffffc050404e86 <kmalloc>
ffffffc050401f2c:	fea43023          	sd	a0,-32(s0)
ffffffc050401f30:	fe843503          	ld	a0,-24(s0)
ffffffc050401f34:	85fff0ef          	jal	ra,ffffffc050401792 <kva2pa>
ffffffc050401f38:	872a                	mv	a4,a0
ffffffc050401f3a:	fe043783          	ld	a5,-32(s0)
ffffffc050401f3e:	e398                	sd	a4,0(a5)
ffffffc050401f40:	fd043703          	ld	a4,-48(s0)
ffffffc050401f44:	77fd                	lui	a5,0xfffff
ffffffc050401f46:	8f7d                	and	a4,a4,a5
ffffffc050401f48:	fe043783          	ld	a5,-32(s0)
ffffffc050401f4c:	e798                	sd	a4,8(a5)
ffffffc050401f4e:	fe043783          	ld	a5,-32(s0)
ffffffc050401f52:	02078713          	addi	a4,a5,32 # fffffffffffff020 <__BSS_END__+0x3fafbb5dc8>
ffffffc050401f56:	00046797          	auipc	a5,0x46
ffffffc050401f5a:	a7278793          	addi	a5,a5,-1422 # ffffffc0504479c8 <current_running>
ffffffc050401f5e:	639c                	ld	a5,0(a5)
ffffffc050401f60:	639c                	ld	a5,0(a5)
ffffffc050401f62:	0c078793          	addi	a5,a5,192
ffffffc050401f66:	85be                	mv	a1,a5
ffffffc050401f68:	853a                	mv	a0,a4
ffffffc050401f6a:	f1aff0ef          	jal	ra,ffffffc050401684 <list_add_tail>
ffffffc050401f6e:	813ff0ef          	jal	ra,ffffffc050401780 <local_flush_tlb_all>
ffffffc050401f72:	70e2                	ld	ra,56(sp)
ffffffc050401f74:	7442                	ld	s0,48(sp)
ffffffc050401f76:	6121                	addi	sp,sp,64
ffffffc050401f78:	8082                	ret

ffffffc050401f7a <handle_store_pagefault>:
ffffffc050401f7a:	7139                	addi	sp,sp,-64
ffffffc050401f7c:	fc06                	sd	ra,56(sp)
ffffffc050401f7e:	f822                	sd	s0,48(sp)
ffffffc050401f80:	0080                	addi	s0,sp,64
ffffffc050401f82:	fca43c23          	sd	a0,-40(s0)
ffffffc050401f86:	fcb43823          	sd	a1,-48(s0)
ffffffc050401f8a:	fcc43423          	sd	a2,-56(s0)
ffffffc050401f8e:	b3afe0ef          	jal	ra,ffffffc0504002c8 <get_current_cpu_id>
ffffffc050401f92:	87aa                	mv	a5,a0
ffffffc050401f94:	e791                	bnez	a5,ffffffc050401fa0 <handle_store_pagefault+0x26>
ffffffc050401f96:	00044797          	auipc	a5,0x44
ffffffc050401f9a:	27a78793          	addi	a5,a5,634 # ffffffc050446210 <current_running_core0>
ffffffc050401f9e:	a029                	j	ffffffc050401fa8 <handle_store_pagefault+0x2e>
ffffffc050401fa0:	00044797          	auipc	a5,0x44
ffffffc050401fa4:	26878793          	addi	a5,a5,616 # ffffffc050446208 <current_running_core1>
ffffffc050401fa8:	00046717          	auipc	a4,0x46
ffffffc050401fac:	a2070713          	addi	a4,a4,-1504 # ffffffc0504479c8 <current_running>
ffffffc050401fb0:	e31c                	sd	a5,0(a4)
ffffffc050401fb2:	00046797          	auipc	a5,0x46
ffffffc050401fb6:	a1678793          	addi	a5,a5,-1514 # ffffffc0504479c8 <current_running>
ffffffc050401fba:	639c                	ld	a5,0(a5)
ffffffc050401fbc:	639c                	ld	a5,0(a5)
ffffffc050401fbe:	7fdc                	ld	a5,184(a5)
ffffffc050401fc0:	853e                	mv	a0,a5
ffffffc050401fc2:	fecff0ef          	jal	ra,ffffffc0504017ae <pa2kva>
ffffffc050401fc6:	87aa                	mv	a5,a0
ffffffc050401fc8:	85be                	mv	a1,a5
ffffffc050401fca:	fd043503          	ld	a0,-48(s0)
ffffffc050401fce:	6e4030ef          	jal	ra,ffffffc0504056b2 <check_page_helper>
ffffffc050401fd2:	fea43423          	sd	a0,-24(s0)
ffffffc050401fd6:	fe843783          	ld	a5,-24(s0)
ffffffc050401fda:	cb99                	beqz	a5,ffffffc050401ff0 <handle_store_pagefault+0x76>
ffffffc050401fdc:	fe843783          	ld	a5,-24(s0)
ffffffc050401fe0:	0c000593          	li	a1,192
ffffffc050401fe4:	853e                	mv	a0,a5
ffffffc050401fe6:	fe4ff0ef          	jal	ra,ffffffc0504017ca <set_attribute>
ffffffc050401fea:	f96ff0ef          	jal	ra,ffffffc050401780 <local_flush_tlb_all>
ffffffc050401fee:	a221                	j	ffffffc0504020f6 <handle_store_pagefault+0x17c>
ffffffc050401ff0:	00046797          	auipc	a5,0x46
ffffffc050401ff4:	9d878793          	addi	a5,a5,-1576 # ffffffc0504479c8 <current_running>
ffffffc050401ff8:	639c                	ld	a5,0(a5)
ffffffc050401ffa:	6394                	ld	a3,0(a5)
ffffffc050401ffc:	fd043703          	ld	a4,-48(s0)
ffffffc050402000:	77fd                	lui	a5,0xfffff
ffffffc050402002:	8ff9                	and	a5,a5,a4
ffffffc050402004:	85be                	mv	a1,a5
ffffffc050402006:	8536                	mv	a0,a3
ffffffc050402008:	8afff0ef          	jal	ra,ffffffc0504018b6 <clock_unblock>
ffffffc05040200c:	87aa                	mv	a5,a0
ffffffc05040200e:	cb8d                	beqz	a5,ffffffc050402040 <handle_store_pagefault+0xc6>
ffffffc050402010:	00046797          	auipc	a5,0x46
ffffffc050402014:	9b878793          	addi	a5,a5,-1608 # ffffffc0504479c8 <current_running>
ffffffc050402018:	639c                	ld	a5,0(a5)
ffffffc05040201a:	639c                	ld	a5,0(a5)
ffffffc05040201c:	0d07a783          	lw	a5,208(a5)
ffffffc050402020:	873e                	mv	a4,a5
ffffffc050402022:	478d                	li	a5,3
ffffffc050402024:	00e7db63          	bge	a5,a4,ffffffc05040203a <handle_store_pagefault+0xc0>
ffffffc050402028:	00046797          	auipc	a5,0x46
ffffffc05040202c:	9a078793          	addi	a5,a5,-1632 # ffffffc0504479c8 <current_running>
ffffffc050402030:	639c                	ld	a5,0(a5)
ffffffc050402032:	639c                	ld	a5,0(a5)
ffffffc050402034:	853e                	mv	a0,a5
ffffffc050402036:	943ff0ef          	jal	ra,ffffffc050401978 <clock_block>
ffffffc05040203a:	f46ff0ef          	jal	ra,ffffffc050401780 <local_flush_tlb_all>
ffffffc05040203e:	a865                	j	ffffffc0504020f6 <handle_store_pagefault+0x17c>
ffffffc050402040:	00046797          	auipc	a5,0x46
ffffffc050402044:	98878793          	addi	a5,a5,-1656 # ffffffc0504479c8 <current_running>
ffffffc050402048:	639c                	ld	a5,0(a5)
ffffffc05040204a:	639c                	ld	a5,0(a5)
ffffffc05040204c:	0d07a783          	lw	a5,208(a5)
ffffffc050402050:	873e                	mv	a4,a5
ffffffc050402052:	478d                	li	a5,3
ffffffc050402054:	00e7db63          	bge	a5,a4,ffffffc05040206a <handle_store_pagefault+0xf0>
ffffffc050402058:	00046797          	auipc	a5,0x46
ffffffc05040205c:	97078793          	addi	a5,a5,-1680 # ffffffc0504479c8 <current_running>
ffffffc050402060:	639c                	ld	a5,0(a5)
ffffffc050402062:	639c                	ld	a5,0(a5)
ffffffc050402064:	853e                	mv	a0,a5
ffffffc050402066:	913ff0ef          	jal	ra,ffffffc050401978 <clock_block>
ffffffc05040206a:	00046797          	auipc	a5,0x46
ffffffc05040206e:	95e78793          	addi	a5,a5,-1698 # ffffffc0504479c8 <current_running>
ffffffc050402072:	639c                	ld	a5,0(a5)
ffffffc050402074:	639c                	ld	a5,0(a5)
ffffffc050402076:	7fdc                	ld	a5,184(a5)
ffffffc050402078:	853e                	mv	a0,a5
ffffffc05040207a:	f34ff0ef          	jal	ra,ffffffc0504017ae <pa2kva>
ffffffc05040207e:	87aa                	mv	a5,a0
ffffffc050402080:	4605                	li	a2,1
ffffffc050402082:	85be                	mv	a1,a5
ffffffc050402084:	fd043503          	ld	a0,-48(s0)
ffffffc050402088:	3de030ef          	jal	ra,ffffffc050405466 <alloc_page_helper>
ffffffc05040208c:	fea43423          	sd	a0,-24(s0)
ffffffc050402090:	00046797          	auipc	a5,0x46
ffffffc050402094:	93878793          	addi	a5,a5,-1736 # ffffffc0504479c8 <current_running>
ffffffc050402098:	639c                	ld	a5,0(a5)
ffffffc05040209a:	639c                	ld	a5,0(a5)
ffffffc05040209c:	0d07a703          	lw	a4,208(a5)
ffffffc0504020a0:	2705                	addiw	a4,a4,1
ffffffc0504020a2:	2701                	sext.w	a4,a4
ffffffc0504020a4:	0ce7a823          	sw	a4,208(a5)
ffffffc0504020a8:	03000513          	li	a0,48
ffffffc0504020ac:	5db020ef          	jal	ra,ffffffc050404e86 <kmalloc>
ffffffc0504020b0:	fea43023          	sd	a0,-32(s0)
ffffffc0504020b4:	fe843503          	ld	a0,-24(s0)
ffffffc0504020b8:	edaff0ef          	jal	ra,ffffffc050401792 <kva2pa>
ffffffc0504020bc:	872a                	mv	a4,a0
ffffffc0504020be:	fe043783          	ld	a5,-32(s0)
ffffffc0504020c2:	e398                	sd	a4,0(a5)
ffffffc0504020c4:	fd043703          	ld	a4,-48(s0)
ffffffc0504020c8:	77fd                	lui	a5,0xfffff
ffffffc0504020ca:	8f7d                	and	a4,a4,a5
ffffffc0504020cc:	fe043783          	ld	a5,-32(s0)
ffffffc0504020d0:	e798                	sd	a4,8(a5)
ffffffc0504020d2:	fe043783          	ld	a5,-32(s0)
ffffffc0504020d6:	02078713          	addi	a4,a5,32 # fffffffffffff020 <__BSS_END__+0x3fafbb5dc8>
ffffffc0504020da:	00046797          	auipc	a5,0x46
ffffffc0504020de:	8ee78793          	addi	a5,a5,-1810 # ffffffc0504479c8 <current_running>
ffffffc0504020e2:	639c                	ld	a5,0(a5)
ffffffc0504020e4:	639c                	ld	a5,0(a5)
ffffffc0504020e6:	0c078793          	addi	a5,a5,192
ffffffc0504020ea:	85be                	mv	a1,a5
ffffffc0504020ec:	853a                	mv	a0,a4
ffffffc0504020ee:	d96ff0ef          	jal	ra,ffffffc050401684 <list_add_tail>
ffffffc0504020f2:	e8eff0ef          	jal	ra,ffffffc050401780 <local_flush_tlb_all>
ffffffc0504020f6:	70e2                	ld	ra,56(sp)
ffffffc0504020f8:	7442                	ld	s0,48(sp)
ffffffc0504020fa:	6121                	addi	sp,sp,64
ffffffc0504020fc:	8082                	ret

ffffffc0504020fe <init_exception>:
ffffffc0504020fe:	1101                	addi	sp,sp,-32
ffffffc050402100:	ec06                	sd	ra,24(sp)
ffffffc050402102:	e822                	sd	s0,16(sp)
ffffffc050402104:	1000                	addi	s0,sp,32
ffffffc050402106:	fe042623          	sw	zero,-20(s0)
ffffffc05040210a:	a01d                	j	ffffffc050402130 <init_exception+0x32>
ffffffc05040210c:	00044717          	auipc	a4,0x44
ffffffc050402110:	21c70713          	addi	a4,a4,540 # ffffffc050446328 <irq_table>
ffffffc050402114:	fec42783          	lw	a5,-20(s0)
ffffffc050402118:	078e                	slli	a5,a5,0x3
ffffffc05040211a:	97ba                	add	a5,a5,a4
ffffffc05040211c:	00000717          	auipc	a4,0x0
ffffffc050402120:	c2c70713          	addi	a4,a4,-980 # ffffffc050401d48 <handle_int>
ffffffc050402124:	e398                	sd	a4,0(a5)
ffffffc050402126:	fec42783          	lw	a5,-20(s0)
ffffffc05040212a:	2785                	addiw	a5,a5,1
ffffffc05040212c:	fef42623          	sw	a5,-20(s0)
ffffffc050402130:	fec42783          	lw	a5,-20(s0)
ffffffc050402134:	0007871b          	sext.w	a4,a5
ffffffc050402138:	47ad                	li	a5,11
ffffffc05040213a:	fce7d9e3          	bge	a5,a4,ffffffc05040210c <init_exception+0xe>
ffffffc05040213e:	fe042623          	sw	zero,-20(s0)
ffffffc050402142:	a01d                	j	ffffffc050402168 <init_exception+0x6a>
ffffffc050402144:	00044717          	auipc	a4,0x44
ffffffc050402148:	15470713          	addi	a4,a4,340 # ffffffc050446298 <exc_table>
ffffffc05040214c:	fec42783          	lw	a5,-20(s0)
ffffffc050402150:	078e                	slli	a5,a5,0x3
ffffffc050402152:	97ba                	add	a5,a5,a4
ffffffc050402154:	00000717          	auipc	a4,0x0
ffffffc050402158:	07870713          	addi	a4,a4,120 # ffffffc0504021cc <handle_other>
ffffffc05040215c:	e398                	sd	a4,0(a5)
ffffffc05040215e:	fec42783          	lw	a5,-20(s0)
ffffffc050402162:	2785                	addiw	a5,a5,1
ffffffc050402164:	fef42623          	sw	a5,-20(s0)
ffffffc050402168:	fec42783          	lw	a5,-20(s0)
ffffffc05040216c:	0007871b          	sext.w	a4,a5
ffffffc050402170:	47bd                	li	a5,15
ffffffc050402172:	fce7d9e3          	bge	a5,a4,ffffffc050402144 <init_exception+0x46>
ffffffc050402176:	00044797          	auipc	a5,0x44
ffffffc05040217a:	12278793          	addi	a5,a5,290 # ffffffc050446298 <exc_table>
ffffffc05040217e:	00003717          	auipc	a4,0x3
ffffffc050402182:	5fc70713          	addi	a4,a4,1532 # ffffffc05040577a <handle_syscall>
ffffffc050402186:	e3b8                	sd	a4,64(a5)
ffffffc050402188:	00044797          	auipc	a5,0x44
ffffffc05040218c:	11078793          	addi	a5,a5,272 # ffffffc050446298 <exc_table>
ffffffc050402190:	00000717          	auipc	a4,0x0
ffffffc050402194:	bda70713          	addi	a4,a4,-1062 # ffffffc050401d6a <handle_inst_pagefault>
ffffffc050402198:	f3b8                	sd	a4,96(a5)
ffffffc05040219a:	00044797          	auipc	a5,0x44
ffffffc05040219e:	0fe78793          	addi	a5,a5,254 # ffffffc050446298 <exc_table>
ffffffc0504021a2:	00000717          	auipc	a4,0x0
ffffffc0504021a6:	c5470713          	addi	a4,a4,-940 # ffffffc050401df6 <handle_load_pagefault>
ffffffc0504021aa:	f7b8                	sd	a4,104(a5)
ffffffc0504021ac:	00044797          	auipc	a5,0x44
ffffffc0504021b0:	0ec78793          	addi	a5,a5,236 # ffffffc050446298 <exc_table>
ffffffc0504021b4:	00000717          	auipc	a4,0x0
ffffffc0504021b8:	dc670713          	addi	a4,a4,-570 # ffffffc050401f7a <handle_store_pagefault>
ffffffc0504021bc:	ffb8                	sd	a4,120(a5)
ffffffc0504021be:	e8ffd0ef          	jal	ra,ffffffc05040004c <setup_exception>
ffffffc0504021c2:	0001                	nop
ffffffc0504021c4:	60e2                	ld	ra,24(sp)
ffffffc0504021c6:	6442                	ld	s0,16(sp)
ffffffc0504021c8:	6105                	addi	sp,sp,32
ffffffc0504021ca:	8082                	ret

ffffffc0504021cc <handle_other>:
ffffffc0504021cc:	710d                	addi	sp,sp,-352
ffffffc0504021ce:	ee86                	sd	ra,344(sp)
ffffffc0504021d0:	eaa2                	sd	s0,336(sp)
ffffffc0504021d2:	1280                	addi	s0,sp,352
ffffffc0504021d4:	eaa43c23          	sd	a0,-328(s0)
ffffffc0504021d8:	eab43823          	sd	a1,-336(s0)
ffffffc0504021dc:	eac43423          	sd	a2,-344(s0)
ffffffc0504021e0:	00004717          	auipc	a4,0x4
ffffffc0504021e4:	57870713          	addi	a4,a4,1400 # ffffffc050406758 <get_elf_file+0x3ce>
ffffffc0504021e8:	ec840793          	addi	a5,s0,-312
ffffffc0504021ec:	86ba                	mv	a3,a4
ffffffc0504021ee:	10000713          	li	a4,256
ffffffc0504021f2:	863a                	mv	a2,a4
ffffffc0504021f4:	85b6                	mv	a1,a3
ffffffc0504021f6:	853e                	mv	a0,a5
ffffffc0504021f8:	67a030ef          	jal	ra,ffffffc050405872 <memcpy>
ffffffc0504021fc:	fe042623          	sw	zero,-20(s0)
ffffffc050402200:	a061                	j	ffffffc050402288 <handle_other+0xbc>
ffffffc050402202:	fe042423          	sw	zero,-24(s0)
ffffffc050402206:	a0a9                	j	ffffffc050402250 <handle_other+0x84>
ffffffc050402208:	fec42703          	lw	a4,-20(s0)
ffffffc05040220c:	fe842783          	lw	a5,-24(s0)
ffffffc050402210:	9fb9                	addw	a5,a5,a4
ffffffc050402212:	2781                	sext.w	a5,a5
ffffffc050402214:	078e                	slli	a5,a5,0x3
ffffffc050402216:	ff040713          	addi	a4,s0,-16
ffffffc05040221a:	97ba                	add	a5,a5,a4
ffffffc05040221c:	ed87b683          	ld	a3,-296(a5)
ffffffc050402220:	fec42703          	lw	a4,-20(s0)
ffffffc050402224:	fe842783          	lw	a5,-24(s0)
ffffffc050402228:	9fb9                	addw	a5,a5,a4
ffffffc05040222a:	2781                	sext.w	a5,a5
ffffffc05040222c:	eb843703          	ld	a4,-328(s0)
ffffffc050402230:	078e                	slli	a5,a5,0x3
ffffffc050402232:	97ba                	add	a5,a5,a4
ffffffc050402234:	639c                	ld	a5,0(a5)
ffffffc050402236:	863e                	mv	a2,a5
ffffffc050402238:	85b6                	mv	a1,a3
ffffffc05040223a:	00004517          	auipc	a0,0x4
ffffffc05040223e:	47e50513          	addi	a0,a0,1150 # ffffffc0504066b8 <get_elf_file+0x32e>
ffffffc050402242:	064040ef          	jal	ra,ffffffc0504062a6 <printk>
ffffffc050402246:	fe842783          	lw	a5,-24(s0)
ffffffc05040224a:	2785                	addiw	a5,a5,1
ffffffc05040224c:	fef42423          	sw	a5,-24(s0)
ffffffc050402250:	fe842783          	lw	a5,-24(s0)
ffffffc050402254:	0007871b          	sext.w	a4,a5
ffffffc050402258:	4789                	li	a5,2
ffffffc05040225a:	00e7cc63          	blt	a5,a4,ffffffc050402272 <handle_other+0xa6>
ffffffc05040225e:	fec42703          	lw	a4,-20(s0)
ffffffc050402262:	fe842783          	lw	a5,-24(s0)
ffffffc050402266:	9fb9                	addw	a5,a5,a4
ffffffc050402268:	2781                	sext.w	a5,a5
ffffffc05040226a:	873e                	mv	a4,a5
ffffffc05040226c:	47fd                	li	a5,31
ffffffc05040226e:	f8e7dde3          	bge	a5,a4,ffffffc050402208 <handle_other+0x3c>
ffffffc050402272:	00004517          	auipc	a0,0x4
ffffffc050402276:	45650513          	addi	a0,a0,1110 # ffffffc0504066c8 <get_elf_file+0x33e>
ffffffc05040227a:	02c040ef          	jal	ra,ffffffc0504062a6 <printk>
ffffffc05040227e:	fec42783          	lw	a5,-20(s0)
ffffffc050402282:	278d                	addiw	a5,a5,3
ffffffc050402284:	fef42623          	sw	a5,-20(s0)
ffffffc050402288:	fec42783          	lw	a5,-20(s0)
ffffffc05040228c:	0007871b          	sext.w	a4,a5
ffffffc050402290:	47fd                	li	a5,31
ffffffc050402292:	f6e7d8e3          	bge	a5,a4,ffffffc050402202 <handle_other+0x36>
ffffffc050402296:	eb843783          	ld	a5,-328(s0)
ffffffc05040229a:	1007b703          	ld	a4,256(a5)
ffffffc05040229e:	eb843783          	ld	a5,-328(s0)
ffffffc0504022a2:	1107b603          	ld	a2,272(a5)
ffffffc0504022a6:	eb843783          	ld	a5,-328(s0)
ffffffc0504022aa:	1187b783          	ld	a5,280(a5)
ffffffc0504022ae:	86be                	mv	a3,a5
ffffffc0504022b0:	85ba                	mv	a1,a4
ffffffc0504022b2:	00004517          	auipc	a0,0x4
ffffffc0504022b6:	41e50513          	addi	a0,a0,1054 # ffffffc0504066d0 <get_elf_file+0x346>
ffffffc0504022ba:	7ed030ef          	jal	ra,ffffffc0504062a6 <printk>
ffffffc0504022be:	eb843783          	ld	a5,-328(s0)
ffffffc0504022c2:	1087b783          	ld	a5,264(a5)
ffffffc0504022c6:	85be                	mv	a1,a5
ffffffc0504022c8:	00004517          	auipc	a0,0x4
ffffffc0504022cc:	43850513          	addi	a0,a0,1080 # ffffffc050406700 <get_elf_file+0x376>
ffffffc0504022d0:	7d7030ef          	jal	ra,ffffffc0504062a6 <printk>
ffffffc0504022d4:	eb843783          	ld	a5,-328(s0)
ffffffc0504022d8:	63bc                	ld	a5,64(a5)
ffffffc0504022da:	fef43023          	sd	a5,-32(s0)
ffffffc0504022de:	eb843783          	ld	a5,-328(s0)
ffffffc0504022e2:	6b9c                	ld	a5,16(a5)
ffffffc0504022e4:	fcf43c23          	sd	a5,-40(s0)
ffffffc0504022e8:	00004517          	auipc	a0,0x4
ffffffc0504022ec:	42850513          	addi	a0,a0,1064 # ffffffc050406710 <get_elf_file+0x386>
ffffffc0504022f0:	7b7030ef          	jal	ra,ffffffc0504062a6 <printk>
ffffffc0504022f4:	eb843783          	ld	a5,-328(s0)
ffffffc0504022f8:	679c                	ld	a5,8(a5)
ffffffc0504022fa:	17f1                	addi	a5,a5,-4
ffffffc0504022fc:	fe043683          	ld	a3,-32(s0)
ffffffc050402300:	fd843603          	ld	a2,-40(s0)
ffffffc050402304:	85be                	mv	a1,a5
ffffffc050402306:	00004517          	auipc	a0,0x4
ffffffc05040230a:	41a50513          	addi	a0,a0,1050 # ffffffc050406720 <get_elf_file+0x396>
ffffffc05040230e:	799030ef          	jal	ra,ffffffc0504062a6 <printk>
ffffffc050402312:	a83d                	j	ffffffc050402350 <handle_other+0x184>
ffffffc050402314:	fe043783          	ld	a5,-32(s0)
ffffffc050402318:	17e1                	addi	a5,a5,-8
ffffffc05040231a:	639c                	ld	a5,0(a5)
ffffffc05040231c:	fcf43823          	sd	a5,-48(s0)
ffffffc050402320:	fe043783          	ld	a5,-32(s0)
ffffffc050402324:	17c1                	addi	a5,a5,-16
ffffffc050402326:	639c                	ld	a5,0(a5)
ffffffc050402328:	fcf43423          	sd	a5,-56(s0)
ffffffc05040232c:	fd043783          	ld	a5,-48(s0)
ffffffc050402330:	17f1                	addi	a5,a5,-4
ffffffc050402332:	fc843683          	ld	a3,-56(s0)
ffffffc050402336:	fe043603          	ld	a2,-32(s0)
ffffffc05040233a:	85be                	mv	a1,a5
ffffffc05040233c:	00004517          	auipc	a0,0x4
ffffffc050402340:	3e450513          	addi	a0,a0,996 # ffffffc050406720 <get_elf_file+0x396>
ffffffc050402344:	763030ef          	jal	ra,ffffffc0504062a6 <printk>
ffffffc050402348:	fc843783          	ld	a5,-56(s0)
ffffffc05040234c:	fef43023          	sd	a5,-32(s0)
ffffffc050402350:	fe043703          	ld	a4,-32(s0)
ffffffc050402354:	67c1                	lui	a5,0x10
ffffffc050402356:	fae7efe3          	bltu	a5,a4,ffffffc050402314 <handle_other+0x148>
ffffffc05040235a:	00004617          	auipc	a2,0x4
ffffffc05040235e:	4fe60613          	addi	a2,a2,1278 # ffffffc050406858 <__FUNCTION__.1685>
ffffffc050402362:	11900593          	li	a1,281
ffffffc050402366:	00004517          	auipc	a0,0x4
ffffffc05040236a:	3da50513          	addi	a0,a0,986 # ffffffc050406740 <get_elf_file+0x3b6>
ffffffc05040236e:	b44ff0ef          	jal	ra,ffffffc0504016b2 <_panic>
ffffffc050402372:	0001                	nop
ffffffc050402374:	60f6                	ld	ra,344(sp)
ffffffc050402376:	6456                	ld	s0,336(sp)
ffffffc050402378:	6135                	addi	sp,sp,352
ffffffc05040237a:	8082                	ret

ffffffc05040237c <sbi_console_putchar>:
ffffffc05040237c:	1101                	addi	sp,sp,-32
ffffffc05040237e:	ec22                	sd	s0,24(sp)
ffffffc050402380:	1000                	addi	s0,sp,32
ffffffc050402382:	87aa                	mv	a5,a0
ffffffc050402384:	fef42623          	sw	a5,-20(s0)
ffffffc050402388:	fec42783          	lw	a5,-20(s0)
ffffffc05040238c:	853e                	mv	a0,a5
ffffffc05040238e:	4581                	li	a1,0
ffffffc050402390:	4601                	li	a2,0
ffffffc050402392:	4885                	li	a7,1
ffffffc050402394:	00000073          	ecall
ffffffc050402398:	0001                	nop
ffffffc05040239a:	6462                	ld	s0,24(sp)
ffffffc05040239c:	6105                	addi	sp,sp,32
ffffffc05040239e:	8082                	ret

ffffffc0504023a0 <sbi_console_getchar>:
ffffffc0504023a0:	1141                	addi	sp,sp,-16
ffffffc0504023a2:	e422                	sd	s0,8(sp)
ffffffc0504023a4:	0800                	addi	s0,sp,16
ffffffc0504023a6:	4501                	li	a0,0
ffffffc0504023a8:	4581                	li	a1,0
ffffffc0504023aa:	4601                	li	a2,0
ffffffc0504023ac:	4889                	li	a7,2
ffffffc0504023ae:	00000073          	ecall
ffffffc0504023b2:	87aa                	mv	a5,a0
ffffffc0504023b4:	2781                	sext.w	a5,a5
ffffffc0504023b6:	853e                	mv	a0,a5
ffffffc0504023b8:	6422                	ld	s0,8(sp)
ffffffc0504023ba:	0141                	addi	sp,sp,16
ffffffc0504023bc:	8082                	ret

ffffffc0504023be <vt100_move_cursor>:
ffffffc0504023be:	1101                	addi	sp,sp,-32
ffffffc0504023c0:	ec06                	sd	ra,24(sp)
ffffffc0504023c2:	e822                	sd	s0,16(sp)
ffffffc0504023c4:	1000                	addi	s0,sp,32
ffffffc0504023c6:	87aa                	mv	a5,a0
ffffffc0504023c8:	872e                	mv	a4,a1
ffffffc0504023ca:	fef42623          	sw	a5,-20(s0)
ffffffc0504023ce:	87ba                	mv	a5,a4
ffffffc0504023d0:	fef42423          	sw	a5,-24(s0)
ffffffc0504023d4:	ef5fd0ef          	jal	ra,ffffffc0504002c8 <get_current_cpu_id>
ffffffc0504023d8:	87aa                	mv	a5,a0
ffffffc0504023da:	e791                	bnez	a5,ffffffc0504023e6 <vt100_move_cursor+0x28>
ffffffc0504023dc:	00044797          	auipc	a5,0x44
ffffffc0504023e0:	e3478793          	addi	a5,a5,-460 # ffffffc050446210 <current_running_core0>
ffffffc0504023e4:	a029                	j	ffffffc0504023ee <vt100_move_cursor+0x30>
ffffffc0504023e6:	00044797          	auipc	a5,0x44
ffffffc0504023ea:	e2278793          	addi	a5,a5,-478 # ffffffc050446208 <current_running_core1>
ffffffc0504023ee:	00045717          	auipc	a4,0x45
ffffffc0504023f2:	5da70713          	addi	a4,a4,1498 # ffffffc0504479c8 <current_running>
ffffffc0504023f6:	e31c                	sd	a5,0(a4)
ffffffc0504023f8:	cb9fd0ef          	jal	ra,ffffffc0504000b0 <disable_preempt>
ffffffc0504023fc:	fec42703          	lw	a4,-20(s0)
ffffffc050402400:	fe842783          	lw	a5,-24(s0)
ffffffc050402404:	86ba                	mv	a3,a4
ffffffc050402406:	863e                	mv	a2,a5
ffffffc050402408:	45ed                	li	a1,27
ffffffc05040240a:	00004517          	auipc	a0,0x4
ffffffc05040240e:	45e50513          	addi	a0,a0,1118 # ffffffc050406868 <__FUNCTION__.1685+0x10>
ffffffc050402412:	695030ef          	jal	ra,ffffffc0504062a6 <printk>
ffffffc050402416:	00045797          	auipc	a5,0x45
ffffffc05040241a:	5b278793          	addi	a5,a5,1458 # ffffffc0504479c8 <current_running>
ffffffc05040241e:	639c                	ld	a5,0(a5)
ffffffc050402420:	639c                	ld	a5,0(a5)
ffffffc050402422:	fec42703          	lw	a4,-20(s0)
ffffffc050402426:	df98                	sw	a4,56(a5)
ffffffc050402428:	00045797          	auipc	a5,0x45
ffffffc05040242c:	5a078793          	addi	a5,a5,1440 # ffffffc0504479c8 <current_running>
ffffffc050402430:	639c                	ld	a5,0(a5)
ffffffc050402432:	639c                	ld	a5,0(a5)
ffffffc050402434:	fe842703          	lw	a4,-24(s0)
ffffffc050402438:	dfd8                	sw	a4,60(a5)
ffffffc05040243a:	c3ffd0ef          	jal	ra,ffffffc050400078 <enable_preempt>
ffffffc05040243e:	0001                	nop
ffffffc050402440:	60e2                	ld	ra,24(sp)
ffffffc050402442:	6442                	ld	s0,16(sp)
ffffffc050402444:	6105                	addi	sp,sp,32
ffffffc050402446:	8082                	ret

ffffffc050402448 <vt100_clear>:
ffffffc050402448:	1141                	addi	sp,sp,-16
ffffffc05040244a:	e406                	sd	ra,8(sp)
ffffffc05040244c:	e022                	sd	s0,0(sp)
ffffffc05040244e:	0800                	addi	s0,sp,16
ffffffc050402450:	45ed                	li	a1,27
ffffffc050402452:	00004517          	auipc	a0,0x4
ffffffc050402456:	42650513          	addi	a0,a0,1062 # ffffffc050406878 <__FUNCTION__.1685+0x20>
ffffffc05040245a:	64d030ef          	jal	ra,ffffffc0504062a6 <printk>
ffffffc05040245e:	0001                	nop
ffffffc050402460:	60a2                	ld	ra,8(sp)
ffffffc050402462:	6402                	ld	s0,0(sp)
ffffffc050402464:	0141                	addi	sp,sp,16
ffffffc050402466:	8082                	ret

ffffffc050402468 <vt100_hidden_cursor>:
ffffffc050402468:	1141                	addi	sp,sp,-16
ffffffc05040246a:	e406                	sd	ra,8(sp)
ffffffc05040246c:	e022                	sd	s0,0(sp)
ffffffc05040246e:	0800                	addi	s0,sp,16
ffffffc050402470:	45ed                	li	a1,27
ffffffc050402472:	00004517          	auipc	a0,0x4
ffffffc050402476:	40e50513          	addi	a0,a0,1038 # ffffffc050406880 <__FUNCTION__.1685+0x28>
ffffffc05040247a:	62d030ef          	jal	ra,ffffffc0504062a6 <printk>
ffffffc05040247e:	0001                	nop
ffffffc050402480:	60a2                	ld	ra,8(sp)
ffffffc050402482:	6402                	ld	s0,0(sp)
ffffffc050402484:	0141                	addi	sp,sp,16
ffffffc050402486:	8082                	ret

ffffffc050402488 <screen_write_ch>:
ffffffc050402488:	1101                	addi	sp,sp,-32
ffffffc05040248a:	ec06                	sd	ra,24(sp)
ffffffc05040248c:	e822                	sd	s0,16(sp)
ffffffc05040248e:	1000                	addi	s0,sp,32
ffffffc050402490:	87aa                	mv	a5,a0
ffffffc050402492:	fef407a3          	sb	a5,-17(s0)
ffffffc050402496:	e33fd0ef          	jal	ra,ffffffc0504002c8 <get_current_cpu_id>
ffffffc05040249a:	87aa                	mv	a5,a0
ffffffc05040249c:	e791                	bnez	a5,ffffffc0504024a8 <screen_write_ch+0x20>
ffffffc05040249e:	00044797          	auipc	a5,0x44
ffffffc0504024a2:	d7278793          	addi	a5,a5,-654 # ffffffc050446210 <current_running_core0>
ffffffc0504024a6:	a029                	j	ffffffc0504024b0 <screen_write_ch+0x28>
ffffffc0504024a8:	00044797          	auipc	a5,0x44
ffffffc0504024ac:	d6078793          	addi	a5,a5,-672 # ffffffc050446208 <current_running_core1>
ffffffc0504024b0:	00045717          	auipc	a4,0x45
ffffffc0504024b4:	51870713          	addi	a4,a4,1304 # ffffffc0504479c8 <current_running>
ffffffc0504024b8:	e31c                	sd	a5,0(a4)
ffffffc0504024ba:	fef44783          	lbu	a5,-17(s0)
ffffffc0504024be:	0ff7f713          	andi	a4,a5,255
ffffffc0504024c2:	47a9                	li	a5,10
ffffffc0504024c4:	02f71463          	bne	a4,a5,ffffffc0504024ec <screen_write_ch+0x64>
ffffffc0504024c8:	00045797          	auipc	a5,0x45
ffffffc0504024cc:	50078793          	addi	a5,a5,1280 # ffffffc0504479c8 <current_running>
ffffffc0504024d0:	639c                	ld	a5,0(a5)
ffffffc0504024d2:	639c                	ld	a5,0(a5)
ffffffc0504024d4:	4705                	li	a4,1
ffffffc0504024d6:	df98                	sw	a4,56(a5)
ffffffc0504024d8:	00045797          	auipc	a5,0x45
ffffffc0504024dc:	4f078793          	addi	a5,a5,1264 # ffffffc0504479c8 <current_running>
ffffffc0504024e0:	639c                	ld	a5,0(a5)
ffffffc0504024e2:	639c                	ld	a5,0(a5)
ffffffc0504024e4:	5fd8                	lw	a4,60(a5)
ffffffc0504024e6:	2705                	addiw	a4,a4,1
ffffffc0504024e8:	2701                	sext.w	a4,a4
ffffffc0504024ea:	dfd8                	sw	a4,60(a5)
ffffffc0504024ec:	fef44783          	lbu	a5,-17(s0)
ffffffc0504024f0:	0ff7f713          	andi	a4,a5,255
ffffffc0504024f4:	47a1                	li	a5,8
ffffffc0504024f6:	00f70a63          	beq	a4,a5,ffffffc05040250a <screen_write_ch+0x82>
ffffffc0504024fa:	fef44783          	lbu	a5,-17(s0)
ffffffc0504024fe:	0ff7f713          	andi	a4,a5,255
ffffffc050402502:	07f00793          	li	a5,127
ffffffc050402506:	04f71d63          	bne	a4,a5,ffffffc050402560 <screen_write_ch+0xd8>
ffffffc05040250a:	00045797          	auipc	a5,0x45
ffffffc05040250e:	4be78793          	addi	a5,a5,1214 # ffffffc0504479c8 <current_running>
ffffffc050402512:	639c                	ld	a5,0(a5)
ffffffc050402514:	639c                	ld	a5,0(a5)
ffffffc050402516:	5fdc                	lw	a5,60(a5)
ffffffc050402518:	37fd                	addiw	a5,a5,-1
ffffffc05040251a:	2781                	sext.w	a5,a5
ffffffc05040251c:	873e                	mv	a4,a5
ffffffc05040251e:	87ba                	mv	a5,a4
ffffffc050402520:	0027979b          	slliw	a5,a5,0x2
ffffffc050402524:	9fb9                	addw	a5,a5,a4
ffffffc050402526:	0047979b          	slliw	a5,a5,0x4
ffffffc05040252a:	0007871b          	sext.w	a4,a5
ffffffc05040252e:	00045797          	auipc	a5,0x45
ffffffc050402532:	49a78793          	addi	a5,a5,1178 # ffffffc0504479c8 <current_running>
ffffffc050402536:	639c                	ld	a5,0(a5)
ffffffc050402538:	639c                	ld	a5,0(a5)
ffffffc05040253a:	5f94                	lw	a3,56(a5)
ffffffc05040253c:	36fd                	addiw	a3,a3,-1
ffffffc05040253e:	2681                	sext.w	a3,a3
ffffffc050402540:	df94                	sw	a3,56(a5)
ffffffc050402542:	5f9c                	lw	a5,56(a5)
ffffffc050402544:	37fd                	addiw	a5,a5,-1
ffffffc050402546:	2781                	sext.w	a5,a5
ffffffc050402548:	9fb9                	addw	a5,a5,a4
ffffffc05040254a:	2781                	sext.w	a5,a5
ffffffc05040254c:	00042717          	auipc	a4,0x42
ffffffc050402550:	cf470713          	addi	a4,a4,-780 # ffffffc050444240 <new_screen>
ffffffc050402554:	97ba                	add	a5,a5,a4
ffffffc050402556:	02000713          	li	a4,32
ffffffc05040255a:	00e78023          	sb	a4,0(a5)
ffffffc05040255e:	a095                	j	ffffffc0504025c2 <screen_write_ch+0x13a>
ffffffc050402560:	00045797          	auipc	a5,0x45
ffffffc050402564:	46878793          	addi	a5,a5,1128 # ffffffc0504479c8 <current_running>
ffffffc050402568:	639c                	ld	a5,0(a5)
ffffffc05040256a:	639c                	ld	a5,0(a5)
ffffffc05040256c:	5fdc                	lw	a5,60(a5)
ffffffc05040256e:	37fd                	addiw	a5,a5,-1
ffffffc050402570:	2781                	sext.w	a5,a5
ffffffc050402572:	873e                	mv	a4,a5
ffffffc050402574:	87ba                	mv	a5,a4
ffffffc050402576:	0027979b          	slliw	a5,a5,0x2
ffffffc05040257a:	9fb9                	addw	a5,a5,a4
ffffffc05040257c:	0047979b          	slliw	a5,a5,0x4
ffffffc050402580:	0007871b          	sext.w	a4,a5
ffffffc050402584:	00045797          	auipc	a5,0x45
ffffffc050402588:	44478793          	addi	a5,a5,1092 # ffffffc0504479c8 <current_running>
ffffffc05040258c:	639c                	ld	a5,0(a5)
ffffffc05040258e:	639c                	ld	a5,0(a5)
ffffffc050402590:	5f9c                	lw	a5,56(a5)
ffffffc050402592:	37fd                	addiw	a5,a5,-1
ffffffc050402594:	2781                	sext.w	a5,a5
ffffffc050402596:	9fb9                	addw	a5,a5,a4
ffffffc050402598:	2781                	sext.w	a5,a5
ffffffc05040259a:	00042717          	auipc	a4,0x42
ffffffc05040259e:	ca670713          	addi	a4,a4,-858 # ffffffc050444240 <new_screen>
ffffffc0504025a2:	97ba                	add	a5,a5,a4
ffffffc0504025a4:	fef44703          	lbu	a4,-17(s0)
ffffffc0504025a8:	00e78023          	sb	a4,0(a5)
ffffffc0504025ac:	00045797          	auipc	a5,0x45
ffffffc0504025b0:	41c78793          	addi	a5,a5,1052 # ffffffc0504479c8 <current_running>
ffffffc0504025b4:	639c                	ld	a5,0(a5)
ffffffc0504025b6:	639c                	ld	a5,0(a5)
ffffffc0504025b8:	5f98                	lw	a4,56(a5)
ffffffc0504025ba:	2705                	addiw	a4,a4,1
ffffffc0504025bc:	2701                	sext.w	a4,a4
ffffffc0504025be:	df98                	sw	a4,56(a5)
ffffffc0504025c0:	0001                	nop
ffffffc0504025c2:	0001                	nop
ffffffc0504025c4:	60e2                	ld	ra,24(sp)
ffffffc0504025c6:	6442                	ld	s0,16(sp)
ffffffc0504025c8:	6105                	addi	sp,sp,32
ffffffc0504025ca:	8082                	ret

ffffffc0504025cc <init_screen>:
ffffffc0504025cc:	1141                	addi	sp,sp,-16
ffffffc0504025ce:	e406                	sd	ra,8(sp)
ffffffc0504025d0:	e022                	sd	s0,0(sp)
ffffffc0504025d2:	0800                	addi	s0,sp,16
ffffffc0504025d4:	e95ff0ef          	jal	ra,ffffffc050402468 <vt100_hidden_cursor>
ffffffc0504025d8:	e71ff0ef          	jal	ra,ffffffc050402448 <vt100_clear>
ffffffc0504025dc:	0001                	nop
ffffffc0504025de:	60a2                	ld	ra,8(sp)
ffffffc0504025e0:	6402                	ld	s0,0(sp)
ffffffc0504025e2:	0141                	addi	sp,sp,16
ffffffc0504025e4:	8082                	ret

ffffffc0504025e6 <screen_clear>:
ffffffc0504025e6:	1101                	addi	sp,sp,-32
ffffffc0504025e8:	ec06                	sd	ra,24(sp)
ffffffc0504025ea:	e822                	sd	s0,16(sp)
ffffffc0504025ec:	1000                	addi	s0,sp,32
ffffffc0504025ee:	cdbfd0ef          	jal	ra,ffffffc0504002c8 <get_current_cpu_id>
ffffffc0504025f2:	87aa                	mv	a5,a0
ffffffc0504025f4:	e791                	bnez	a5,ffffffc050402600 <screen_clear+0x1a>
ffffffc0504025f6:	00044797          	auipc	a5,0x44
ffffffc0504025fa:	c1a78793          	addi	a5,a5,-998 # ffffffc050446210 <current_running_core0>
ffffffc0504025fe:	a029                	j	ffffffc050402608 <screen_clear+0x22>
ffffffc050402600:	00044797          	auipc	a5,0x44
ffffffc050402604:	c0878793          	addi	a5,a5,-1016 # ffffffc050446208 <current_running_core1>
ffffffc050402608:	00045717          	auipc	a4,0x45
ffffffc05040260c:	3c070713          	addi	a4,a4,960 # ffffffc0504479c8 <current_running>
ffffffc050402610:	e31c                	sd	a5,0(a4)
ffffffc050402612:	fe042623          	sw	zero,-20(s0)
ffffffc050402616:	a8a1                	j	ffffffc05040266e <screen_clear+0x88>
ffffffc050402618:	fe042423          	sw	zero,-24(s0)
ffffffc05040261c:	a825                	j	ffffffc050402654 <screen_clear+0x6e>
ffffffc05040261e:	fec42703          	lw	a4,-20(s0)
ffffffc050402622:	87ba                	mv	a5,a4
ffffffc050402624:	0027979b          	slliw	a5,a5,0x2
ffffffc050402628:	9fb9                	addw	a5,a5,a4
ffffffc05040262a:	0047979b          	slliw	a5,a5,0x4
ffffffc05040262e:	2781                	sext.w	a5,a5
ffffffc050402630:	fe842703          	lw	a4,-24(s0)
ffffffc050402634:	9fb9                	addw	a5,a5,a4
ffffffc050402636:	2781                	sext.w	a5,a5
ffffffc050402638:	00042717          	auipc	a4,0x42
ffffffc05040263c:	c0870713          	addi	a4,a4,-1016 # ffffffc050444240 <new_screen>
ffffffc050402640:	97ba                	add	a5,a5,a4
ffffffc050402642:	02000713          	li	a4,32
ffffffc050402646:	00e78023          	sb	a4,0(a5)
ffffffc05040264a:	fe842783          	lw	a5,-24(s0)
ffffffc05040264e:	2785                	addiw	a5,a5,1
ffffffc050402650:	fef42423          	sw	a5,-24(s0)
ffffffc050402654:	fe842783          	lw	a5,-24(s0)
ffffffc050402658:	0007871b          	sext.w	a4,a5
ffffffc05040265c:	04f00793          	li	a5,79
ffffffc050402660:	fae7dfe3          	bge	a5,a4,ffffffc05040261e <screen_clear+0x38>
ffffffc050402664:	fec42783          	lw	a5,-20(s0)
ffffffc050402668:	2785                	addiw	a5,a5,1
ffffffc05040266a:	fef42623          	sw	a5,-20(s0)
ffffffc05040266e:	fec42783          	lw	a5,-20(s0)
ffffffc050402672:	0007871b          	sext.w	a4,a5
ffffffc050402676:	03100793          	li	a5,49
ffffffc05040267a:	f8e7dfe3          	bge	a5,a4,ffffffc050402618 <screen_clear+0x32>
ffffffc05040267e:	00045797          	auipc	a5,0x45
ffffffc050402682:	34a78793          	addi	a5,a5,842 # ffffffc0504479c8 <current_running>
ffffffc050402686:	639c                	ld	a5,0(a5)
ffffffc050402688:	639c                	ld	a5,0(a5)
ffffffc05040268a:	4705                	li	a4,1
ffffffc05040268c:	df98                	sw	a4,56(a5)
ffffffc05040268e:	00045797          	auipc	a5,0x45
ffffffc050402692:	33a78793          	addi	a5,a5,826 # ffffffc0504479c8 <current_running>
ffffffc050402696:	639c                	ld	a5,0(a5)
ffffffc050402698:	639c                	ld	a5,0(a5)
ffffffc05040269a:	4705                	li	a4,1
ffffffc05040269c:	dfd8                	sw	a4,60(a5)
ffffffc05040269e:	10e000ef          	jal	ra,ffffffc0504027ac <screen_reflush>
ffffffc0504026a2:	0001                	nop
ffffffc0504026a4:	60e2                	ld	ra,24(sp)
ffffffc0504026a6:	6442                	ld	s0,16(sp)
ffffffc0504026a8:	6105                	addi	sp,sp,32
ffffffc0504026aa:	8082                	ret

ffffffc0504026ac <screen_move_cursor>:
ffffffc0504026ac:	1101                	addi	sp,sp,-32
ffffffc0504026ae:	ec06                	sd	ra,24(sp)
ffffffc0504026b0:	e822                	sd	s0,16(sp)
ffffffc0504026b2:	1000                	addi	s0,sp,32
ffffffc0504026b4:	87aa                	mv	a5,a0
ffffffc0504026b6:	872e                	mv	a4,a1
ffffffc0504026b8:	fef42623          	sw	a5,-20(s0)
ffffffc0504026bc:	87ba                	mv	a5,a4
ffffffc0504026be:	fef42423          	sw	a5,-24(s0)
ffffffc0504026c2:	c07fd0ef          	jal	ra,ffffffc0504002c8 <get_current_cpu_id>
ffffffc0504026c6:	87aa                	mv	a5,a0
ffffffc0504026c8:	e791                	bnez	a5,ffffffc0504026d4 <screen_move_cursor+0x28>
ffffffc0504026ca:	00044797          	auipc	a5,0x44
ffffffc0504026ce:	b4678793          	addi	a5,a5,-1210 # ffffffc050446210 <current_running_core0>
ffffffc0504026d2:	a029                	j	ffffffc0504026dc <screen_move_cursor+0x30>
ffffffc0504026d4:	00044797          	auipc	a5,0x44
ffffffc0504026d8:	b3478793          	addi	a5,a5,-1228 # ffffffc050446208 <current_running_core1>
ffffffc0504026dc:	00045717          	auipc	a4,0x45
ffffffc0504026e0:	2ec70713          	addi	a4,a4,748 # ffffffc0504479c8 <current_running>
ffffffc0504026e4:	e31c                	sd	a5,0(a4)
ffffffc0504026e6:	00045797          	auipc	a5,0x45
ffffffc0504026ea:	2e278793          	addi	a5,a5,738 # ffffffc0504479c8 <current_running>
ffffffc0504026ee:	639c                	ld	a5,0(a5)
ffffffc0504026f0:	639c                	ld	a5,0(a5)
ffffffc0504026f2:	fec42703          	lw	a4,-20(s0)
ffffffc0504026f6:	df98                	sw	a4,56(a5)
ffffffc0504026f8:	00045797          	auipc	a5,0x45
ffffffc0504026fc:	2d078793          	addi	a5,a5,720 # ffffffc0504479c8 <current_running>
ffffffc050402700:	639c                	ld	a5,0(a5)
ffffffc050402702:	639c                	ld	a5,0(a5)
ffffffc050402704:	fe842703          	lw	a4,-24(s0)
ffffffc050402708:	dfd8                	sw	a4,60(a5)
ffffffc05040270a:	0001                	nop
ffffffc05040270c:	60e2                	ld	ra,24(sp)
ffffffc05040270e:	6442                	ld	s0,16(sp)
ffffffc050402710:	6105                	addi	sp,sp,32
ffffffc050402712:	8082                	ret

ffffffc050402714 <screen_write>:
ffffffc050402714:	7179                	addi	sp,sp,-48
ffffffc050402716:	f406                	sd	ra,40(sp)
ffffffc050402718:	f022                	sd	s0,32(sp)
ffffffc05040271a:	1800                	addi	s0,sp,48
ffffffc05040271c:	fca43c23          	sd	a0,-40(s0)
ffffffc050402720:	fe042623          	sw	zero,-20(s0)
ffffffc050402724:	fd843503          	ld	a0,-40(s0)
ffffffc050402728:	0c2030ef          	jal	ra,ffffffc0504057ea <kstrlen>
ffffffc05040272c:	87aa                	mv	a5,a0
ffffffc05040272e:	fef42423          	sw	a5,-24(s0)
ffffffc050402732:	fe042623          	sw	zero,-20(s0)
ffffffc050402736:	a005                	j	ffffffc050402756 <screen_write+0x42>
ffffffc050402738:	fec42783          	lw	a5,-20(s0)
ffffffc05040273c:	fd843703          	ld	a4,-40(s0)
ffffffc050402740:	97ba                	add	a5,a5,a4
ffffffc050402742:	0007c783          	lbu	a5,0(a5)
ffffffc050402746:	853e                	mv	a0,a5
ffffffc050402748:	d41ff0ef          	jal	ra,ffffffc050402488 <screen_write_ch>
ffffffc05040274c:	fec42783          	lw	a5,-20(s0)
ffffffc050402750:	2785                	addiw	a5,a5,1
ffffffc050402752:	fef42623          	sw	a5,-20(s0)
ffffffc050402756:	fec42703          	lw	a4,-20(s0)
ffffffc05040275a:	fe842783          	lw	a5,-24(s0)
ffffffc05040275e:	2701                	sext.w	a4,a4
ffffffc050402760:	2781                	sext.w	a5,a5
ffffffc050402762:	fcf74be3          	blt	a4,a5,ffffffc050402738 <screen_write+0x24>
ffffffc050402766:	0001                	nop
ffffffc050402768:	0001                	nop
ffffffc05040276a:	70a2                	ld	ra,40(sp)
ffffffc05040276c:	7402                	ld	s0,32(sp)
ffffffc05040276e:	6145                	addi	sp,sp,48
ffffffc050402770:	8082                	ret

ffffffc050402772 <serial_getchar>:
ffffffc050402772:	1141                	addi	sp,sp,-16
ffffffc050402774:	e406                	sd	ra,8(sp)
ffffffc050402776:	e022                	sd	s0,0(sp)
ffffffc050402778:	0800                	addi	s0,sp,16
ffffffc05040277a:	c27ff0ef          	jal	ra,ffffffc0504023a0 <sbi_console_getchar>
ffffffc05040277e:	87aa                	mv	a5,a0
ffffffc050402780:	853e                	mv	a0,a5
ffffffc050402782:	60a2                	ld	ra,8(sp)
ffffffc050402784:	6402                	ld	s0,0(sp)
ffffffc050402786:	0141                	addi	sp,sp,16
ffffffc050402788:	8082                	ret

ffffffc05040278a <serial_putchar>:
ffffffc05040278a:	1101                	addi	sp,sp,-32
ffffffc05040278c:	ec06                	sd	ra,24(sp)
ffffffc05040278e:	e822                	sd	s0,16(sp)
ffffffc050402790:	1000                	addi	s0,sp,32
ffffffc050402792:	87aa                	mv	a5,a0
ffffffc050402794:	fef42623          	sw	a5,-20(s0)
ffffffc050402798:	fec42783          	lw	a5,-20(s0)
ffffffc05040279c:	853e                	mv	a0,a5
ffffffc05040279e:	bdfff0ef          	jal	ra,ffffffc05040237c <sbi_console_putchar>
ffffffc0504027a2:	0001                	nop
ffffffc0504027a4:	60e2                	ld	ra,24(sp)
ffffffc0504027a6:	6442                	ld	s0,16(sp)
ffffffc0504027a8:	6105                	addi	sp,sp,32
ffffffc0504027aa:	8082                	ret

ffffffc0504027ac <screen_reflush>:
ffffffc0504027ac:	1101                	addi	sp,sp,-32
ffffffc0504027ae:	ec06                	sd	ra,24(sp)
ffffffc0504027b0:	e822                	sd	s0,16(sp)
ffffffc0504027b2:	1000                	addi	s0,sp,32
ffffffc0504027b4:	b15fd0ef          	jal	ra,ffffffc0504002c8 <get_current_cpu_id>
ffffffc0504027b8:	87aa                	mv	a5,a0
ffffffc0504027ba:	e791                	bnez	a5,ffffffc0504027c6 <screen_reflush+0x1a>
ffffffc0504027bc:	00044797          	auipc	a5,0x44
ffffffc0504027c0:	a5478793          	addi	a5,a5,-1452 # ffffffc050446210 <current_running_core0>
ffffffc0504027c4:	a029                	j	ffffffc0504027ce <screen_reflush+0x22>
ffffffc0504027c6:	00044797          	auipc	a5,0x44
ffffffc0504027ca:	a4278793          	addi	a5,a5,-1470 # ffffffc050446208 <current_running_core1>
ffffffc0504027ce:	00045717          	auipc	a4,0x45
ffffffc0504027d2:	1fa70713          	addi	a4,a4,506 # ffffffc0504479c8 <current_running>
ffffffc0504027d6:	e31c                	sd	a5,0(a4)
ffffffc0504027d8:	00045797          	auipc	a5,0x45
ffffffc0504027dc:	1f078793          	addi	a5,a5,496 # ffffffc0504479c8 <current_running>
ffffffc0504027e0:	639c                	ld	a5,0(a5)
ffffffc0504027e2:	639c                	ld	a5,0(a5)
ffffffc0504027e4:	5f9c                	lw	a5,56(a5)
ffffffc0504027e6:	fef42223          	sw	a5,-28(s0)
ffffffc0504027ea:	00045797          	auipc	a5,0x45
ffffffc0504027ee:	1de78793          	addi	a5,a5,478 # ffffffc0504479c8 <current_running>
ffffffc0504027f2:	639c                	ld	a5,0(a5)
ffffffc0504027f4:	639c                	ld	a5,0(a5)
ffffffc0504027f6:	5fdc                	lw	a5,60(a5)
ffffffc0504027f8:	fef42023          	sw	a5,-32(s0)
ffffffc0504027fc:	fe042623          	sw	zero,-20(s0)
ffffffc050402800:	aa31                	j	ffffffc05040291c <screen_reflush+0x170>
ffffffc050402802:	fe042423          	sw	zero,-24(s0)
ffffffc050402806:	a8f5                	j	ffffffc050402902 <screen_reflush+0x156>
ffffffc050402808:	fec42703          	lw	a4,-20(s0)
ffffffc05040280c:	87ba                	mv	a5,a4
ffffffc05040280e:	0027979b          	slliw	a5,a5,0x2
ffffffc050402812:	9fb9                	addw	a5,a5,a4
ffffffc050402814:	0047979b          	slliw	a5,a5,0x4
ffffffc050402818:	2781                	sext.w	a5,a5
ffffffc05040281a:	fe842703          	lw	a4,-24(s0)
ffffffc05040281e:	9fb9                	addw	a5,a5,a4
ffffffc050402820:	2781                	sext.w	a5,a5
ffffffc050402822:	00042717          	auipc	a4,0x42
ffffffc050402826:	a1e70713          	addi	a4,a4,-1506 # ffffffc050444240 <new_screen>
ffffffc05040282a:	97ba                	add	a5,a5,a4
ffffffc05040282c:	0007c683          	lbu	a3,0(a5)
ffffffc050402830:	fec42703          	lw	a4,-20(s0)
ffffffc050402834:	87ba                	mv	a5,a4
ffffffc050402836:	0027979b          	slliw	a5,a5,0x2
ffffffc05040283a:	9fb9                	addw	a5,a5,a4
ffffffc05040283c:	0047979b          	slliw	a5,a5,0x4
ffffffc050402840:	2781                	sext.w	a5,a5
ffffffc050402842:	fe842703          	lw	a4,-24(s0)
ffffffc050402846:	9fb9                	addw	a5,a5,a4
ffffffc050402848:	2781                	sext.w	a5,a5
ffffffc05040284a:	00043717          	auipc	a4,0x43
ffffffc05040284e:	99670713          	addi	a4,a4,-1642 # ffffffc0504451e0 <old_screen>
ffffffc050402852:	97ba                	add	a5,a5,a4
ffffffc050402854:	0007c783          	lbu	a5,0(a5)
ffffffc050402858:	8736                	mv	a4,a3
ffffffc05040285a:	08f70f63          	beq	a4,a5,ffffffc0504028f8 <screen_reflush+0x14c>
ffffffc05040285e:	fe842783          	lw	a5,-24(s0)
ffffffc050402862:	2785                	addiw	a5,a5,1
ffffffc050402864:	0007871b          	sext.w	a4,a5
ffffffc050402868:	fec42783          	lw	a5,-20(s0)
ffffffc05040286c:	2785                	addiw	a5,a5,1
ffffffc05040286e:	2781                	sext.w	a5,a5
ffffffc050402870:	85be                	mv	a1,a5
ffffffc050402872:	853a                	mv	a0,a4
ffffffc050402874:	b4bff0ef          	jal	ra,ffffffc0504023be <vt100_move_cursor>
ffffffc050402878:	fec42703          	lw	a4,-20(s0)
ffffffc05040287c:	87ba                	mv	a5,a4
ffffffc05040287e:	0027979b          	slliw	a5,a5,0x2
ffffffc050402882:	9fb9                	addw	a5,a5,a4
ffffffc050402884:	0047979b          	slliw	a5,a5,0x4
ffffffc050402888:	2781                	sext.w	a5,a5
ffffffc05040288a:	fe842703          	lw	a4,-24(s0)
ffffffc05040288e:	9fb9                	addw	a5,a5,a4
ffffffc050402890:	2781                	sext.w	a5,a5
ffffffc050402892:	00042717          	auipc	a4,0x42
ffffffc050402896:	9ae70713          	addi	a4,a4,-1618 # ffffffc050444240 <new_screen>
ffffffc05040289a:	97ba                	add	a5,a5,a4
ffffffc05040289c:	0007c783          	lbu	a5,0(a5)
ffffffc0504028a0:	853e                	mv	a0,a5
ffffffc0504028a2:	9c5fd0ef          	jal	ra,ffffffc050400266 <port_write_ch>
ffffffc0504028a6:	fec42703          	lw	a4,-20(s0)
ffffffc0504028aa:	87ba                	mv	a5,a4
ffffffc0504028ac:	0027979b          	slliw	a5,a5,0x2
ffffffc0504028b0:	9fb9                	addw	a5,a5,a4
ffffffc0504028b2:	0047979b          	slliw	a5,a5,0x4
ffffffc0504028b6:	2781                	sext.w	a5,a5
ffffffc0504028b8:	fe842703          	lw	a4,-24(s0)
ffffffc0504028bc:	9fb9                	addw	a5,a5,a4
ffffffc0504028be:	0007869b          	sext.w	a3,a5
ffffffc0504028c2:	fec42703          	lw	a4,-20(s0)
ffffffc0504028c6:	87ba                	mv	a5,a4
ffffffc0504028c8:	0027979b          	slliw	a5,a5,0x2
ffffffc0504028cc:	9fb9                	addw	a5,a5,a4
ffffffc0504028ce:	0047979b          	slliw	a5,a5,0x4
ffffffc0504028d2:	2781                	sext.w	a5,a5
ffffffc0504028d4:	fe842703          	lw	a4,-24(s0)
ffffffc0504028d8:	9fb9                	addw	a5,a5,a4
ffffffc0504028da:	2781                	sext.w	a5,a5
ffffffc0504028dc:	00042717          	auipc	a4,0x42
ffffffc0504028e0:	96470713          	addi	a4,a4,-1692 # ffffffc050444240 <new_screen>
ffffffc0504028e4:	9736                	add	a4,a4,a3
ffffffc0504028e6:	00074703          	lbu	a4,0(a4)
ffffffc0504028ea:	00043697          	auipc	a3,0x43
ffffffc0504028ee:	8f668693          	addi	a3,a3,-1802 # ffffffc0504451e0 <old_screen>
ffffffc0504028f2:	97b6                	add	a5,a5,a3
ffffffc0504028f4:	00e78023          	sb	a4,0(a5)
ffffffc0504028f8:	fe842783          	lw	a5,-24(s0)
ffffffc0504028fc:	2785                	addiw	a5,a5,1
ffffffc0504028fe:	fef42423          	sw	a5,-24(s0)
ffffffc050402902:	fe842783          	lw	a5,-24(s0)
ffffffc050402906:	0007871b          	sext.w	a4,a5
ffffffc05040290a:	04f00793          	li	a5,79
ffffffc05040290e:	eee7dde3          	bge	a5,a4,ffffffc050402808 <screen_reflush+0x5c>
ffffffc050402912:	fec42783          	lw	a5,-20(s0)
ffffffc050402916:	2785                	addiw	a5,a5,1
ffffffc050402918:	fef42623          	sw	a5,-20(s0)
ffffffc05040291c:	fec42783          	lw	a5,-20(s0)
ffffffc050402920:	0007871b          	sext.w	a4,a5
ffffffc050402924:	03100793          	li	a5,49
ffffffc050402928:	ece7dde3          	bge	a5,a4,ffffffc050402802 <screen_reflush+0x56>
ffffffc05040292c:	00045797          	auipc	a5,0x45
ffffffc050402930:	09c78793          	addi	a5,a5,156 # ffffffc0504479c8 <current_running>
ffffffc050402934:	639c                	ld	a5,0(a5)
ffffffc050402936:	639c                	ld	a5,0(a5)
ffffffc050402938:	fe442703          	lw	a4,-28(s0)
ffffffc05040293c:	df98                	sw	a4,56(a5)
ffffffc05040293e:	00045797          	auipc	a5,0x45
ffffffc050402942:	08a78793          	addi	a5,a5,138 # ffffffc0504479c8 <current_running>
ffffffc050402946:	639c                	ld	a5,0(a5)
ffffffc050402948:	639c                	ld	a5,0(a5)
ffffffc05040294a:	fe042703          	lw	a4,-32(s0)
ffffffc05040294e:	dfd8                	sw	a4,60(a5)
ffffffc050402950:	00045797          	auipc	a5,0x45
ffffffc050402954:	07878793          	addi	a5,a5,120 # ffffffc0504479c8 <current_running>
ffffffc050402958:	639c                	ld	a5,0(a5)
ffffffc05040295a:	639c                	ld	a5,0(a5)
ffffffc05040295c:	5f98                	lw	a4,56(a5)
ffffffc05040295e:	00045797          	auipc	a5,0x45
ffffffc050402962:	06a78793          	addi	a5,a5,106 # ffffffc0504479c8 <current_running>
ffffffc050402966:	639c                	ld	a5,0(a5)
ffffffc050402968:	639c                	ld	a5,0(a5)
ffffffc05040296a:	5fdc                	lw	a5,60(a5)
ffffffc05040296c:	85be                	mv	a1,a5
ffffffc05040296e:	853a                	mv	a0,a4
ffffffc050402970:	a4fff0ef          	jal	ra,ffffffc0504023be <vt100_move_cursor>
ffffffc050402974:	0001                	nop
ffffffc050402976:	60e2                	ld	ra,24(sp)
ffffffc050402978:	6442                	ld	s0,16(sp)
ffffffc05040297a:	6105                	addi	sp,sp,32
ffffffc05040297c:	8082                	ret

ffffffc05040297e <screen_scroll>:
ffffffc05040297e:	7179                	addi	sp,sp,-48
ffffffc050402980:	f406                	sd	ra,40(sp)
ffffffc050402982:	f022                	sd	s0,32(sp)
ffffffc050402984:	1800                	addi	s0,sp,48
ffffffc050402986:	87aa                	mv	a5,a0
ffffffc050402988:	872e                	mv	a4,a1
ffffffc05040298a:	fcf42e23          	sw	a5,-36(s0)
ffffffc05040298e:	87ba                	mv	a5,a4
ffffffc050402990:	fcf42c23          	sw	a5,-40(s0)
ffffffc050402994:	935fd0ef          	jal	ra,ffffffc0504002c8 <get_current_cpu_id>
ffffffc050402998:	87aa                	mv	a5,a0
ffffffc05040299a:	e791                	bnez	a5,ffffffc0504029a6 <screen_scroll+0x28>
ffffffc05040299c:	00044797          	auipc	a5,0x44
ffffffc0504029a0:	87478793          	addi	a5,a5,-1932 # ffffffc050446210 <current_running_core0>
ffffffc0504029a4:	a029                	j	ffffffc0504029ae <screen_scroll+0x30>
ffffffc0504029a6:	00044797          	auipc	a5,0x44
ffffffc0504029aa:	86278793          	addi	a5,a5,-1950 # ffffffc050446208 <current_running_core1>
ffffffc0504029ae:	00045717          	auipc	a4,0x45
ffffffc0504029b2:	01a70713          	addi	a4,a4,26 # ffffffc0504479c8 <current_running>
ffffffc0504029b6:	e31c                	sd	a5,0(a4)
ffffffc0504029b8:	fdc42783          	lw	a5,-36(s0)
ffffffc0504029bc:	fef42623          	sw	a5,-20(s0)
ffffffc0504029c0:	a891                	j	ffffffc050402a14 <screen_scroll+0x96>
ffffffc0504029c2:	fe042423          	sw	zero,-24(s0)
ffffffc0504029c6:	a815                	j	ffffffc0504029fa <screen_scroll+0x7c>
ffffffc0504029c8:	fec42703          	lw	a4,-20(s0)
ffffffc0504029cc:	87ba                	mv	a5,a4
ffffffc0504029ce:	0027979b          	slliw	a5,a5,0x2
ffffffc0504029d2:	9fb9                	addw	a5,a5,a4
ffffffc0504029d4:	0047979b          	slliw	a5,a5,0x4
ffffffc0504029d8:	2781                	sext.w	a5,a5
ffffffc0504029da:	fe842703          	lw	a4,-24(s0)
ffffffc0504029de:	9fb9                	addw	a5,a5,a4
ffffffc0504029e0:	2781                	sext.w	a5,a5
ffffffc0504029e2:	00042717          	auipc	a4,0x42
ffffffc0504029e6:	7fe70713          	addi	a4,a4,2046 # ffffffc0504451e0 <old_screen>
ffffffc0504029ea:	97ba                	add	a5,a5,a4
ffffffc0504029ec:	00078023          	sb	zero,0(a5)
ffffffc0504029f0:	fe842783          	lw	a5,-24(s0)
ffffffc0504029f4:	2785                	addiw	a5,a5,1
ffffffc0504029f6:	fef42423          	sw	a5,-24(s0)
ffffffc0504029fa:	fe842783          	lw	a5,-24(s0)
ffffffc0504029fe:	0007871b          	sext.w	a4,a5
ffffffc050402a02:	04f00793          	li	a5,79
ffffffc050402a06:	fce7d1e3          	bge	a5,a4,ffffffc0504029c8 <screen_scroll+0x4a>
ffffffc050402a0a:	fec42783          	lw	a5,-20(s0)
ffffffc050402a0e:	2785                	addiw	a5,a5,1
ffffffc050402a10:	fef42623          	sw	a5,-20(s0)
ffffffc050402a14:	fec42703          	lw	a4,-20(s0)
ffffffc050402a18:	fd842783          	lw	a5,-40(s0)
ffffffc050402a1c:	2701                	sext.w	a4,a4
ffffffc050402a1e:	2781                	sext.w	a5,a5
ffffffc050402a20:	fae7d1e3          	bge	a5,a4,ffffffc0504029c2 <screen_scroll+0x44>
ffffffc050402a24:	fdc42783          	lw	a5,-36(s0)
ffffffc050402a28:	fef42623          	sw	a5,-20(s0)
ffffffc050402a2c:	a0c9                	j	ffffffc050402aee <screen_scroll+0x170>
ffffffc050402a2e:	fe042423          	sw	zero,-24(s0)
ffffffc050402a32:	a04d                	j	ffffffc050402ad4 <screen_scroll+0x156>
ffffffc050402a34:	fec42703          	lw	a4,-20(s0)
ffffffc050402a38:	fd842783          	lw	a5,-40(s0)
ffffffc050402a3c:	2701                	sext.w	a4,a4
ffffffc050402a3e:	2781                	sext.w	a5,a5
ffffffc050402a40:	02f71963          	bne	a4,a5,ffffffc050402a72 <screen_scroll+0xf4>
ffffffc050402a44:	fec42703          	lw	a4,-20(s0)
ffffffc050402a48:	87ba                	mv	a5,a4
ffffffc050402a4a:	0027979b          	slliw	a5,a5,0x2
ffffffc050402a4e:	9fb9                	addw	a5,a5,a4
ffffffc050402a50:	0047979b          	slliw	a5,a5,0x4
ffffffc050402a54:	2781                	sext.w	a5,a5
ffffffc050402a56:	fe842703          	lw	a4,-24(s0)
ffffffc050402a5a:	9fb9                	addw	a5,a5,a4
ffffffc050402a5c:	2781                	sext.w	a5,a5
ffffffc050402a5e:	00041717          	auipc	a4,0x41
ffffffc050402a62:	7e270713          	addi	a4,a4,2018 # ffffffc050444240 <new_screen>
ffffffc050402a66:	97ba                	add	a5,a5,a4
ffffffc050402a68:	02000713          	li	a4,32
ffffffc050402a6c:	00e78023          	sb	a4,0(a5)
ffffffc050402a70:	a8a9                	j	ffffffc050402aca <screen_scroll+0x14c>
ffffffc050402a72:	fec42783          	lw	a5,-20(s0)
ffffffc050402a76:	2785                	addiw	a5,a5,1
ffffffc050402a78:	2781                	sext.w	a5,a5
ffffffc050402a7a:	873e                	mv	a4,a5
ffffffc050402a7c:	87ba                	mv	a5,a4
ffffffc050402a7e:	0027979b          	slliw	a5,a5,0x2
ffffffc050402a82:	9fb9                	addw	a5,a5,a4
ffffffc050402a84:	0047979b          	slliw	a5,a5,0x4
ffffffc050402a88:	2781                	sext.w	a5,a5
ffffffc050402a8a:	fe842703          	lw	a4,-24(s0)
ffffffc050402a8e:	9fb9                	addw	a5,a5,a4
ffffffc050402a90:	0007869b          	sext.w	a3,a5
ffffffc050402a94:	fec42703          	lw	a4,-20(s0)
ffffffc050402a98:	87ba                	mv	a5,a4
ffffffc050402a9a:	0027979b          	slliw	a5,a5,0x2
ffffffc050402a9e:	9fb9                	addw	a5,a5,a4
ffffffc050402aa0:	0047979b          	slliw	a5,a5,0x4
ffffffc050402aa4:	2781                	sext.w	a5,a5
ffffffc050402aa6:	fe842703          	lw	a4,-24(s0)
ffffffc050402aaa:	9fb9                	addw	a5,a5,a4
ffffffc050402aac:	2781                	sext.w	a5,a5
ffffffc050402aae:	00041717          	auipc	a4,0x41
ffffffc050402ab2:	79270713          	addi	a4,a4,1938 # ffffffc050444240 <new_screen>
ffffffc050402ab6:	9736                	add	a4,a4,a3
ffffffc050402ab8:	00074703          	lbu	a4,0(a4)
ffffffc050402abc:	00041697          	auipc	a3,0x41
ffffffc050402ac0:	78468693          	addi	a3,a3,1924 # ffffffc050444240 <new_screen>
ffffffc050402ac4:	97b6                	add	a5,a5,a3
ffffffc050402ac6:	00e78023          	sb	a4,0(a5)
ffffffc050402aca:	fe842783          	lw	a5,-24(s0)
ffffffc050402ace:	2785                	addiw	a5,a5,1
ffffffc050402ad0:	fef42423          	sw	a5,-24(s0)
ffffffc050402ad4:	fe842783          	lw	a5,-24(s0)
ffffffc050402ad8:	0007871b          	sext.w	a4,a5
ffffffc050402adc:	04f00793          	li	a5,79
ffffffc050402ae0:	f4e7dae3          	bge	a5,a4,ffffffc050402a34 <screen_scroll+0xb6>
ffffffc050402ae4:	fec42783          	lw	a5,-20(s0)
ffffffc050402ae8:	2785                	addiw	a5,a5,1
ffffffc050402aea:	fef42623          	sw	a5,-20(s0)
ffffffc050402aee:	fec42703          	lw	a4,-20(s0)
ffffffc050402af2:	fd842783          	lw	a5,-40(s0)
ffffffc050402af6:	2701                	sext.w	a4,a4
ffffffc050402af8:	2781                	sext.w	a5,a5
ffffffc050402afa:	f2e7dae3          	bge	a5,a4,ffffffc050402a2e <screen_scroll+0xb0>
ffffffc050402afe:	00045797          	auipc	a5,0x45
ffffffc050402b02:	eca78793          	addi	a5,a5,-310 # ffffffc0504479c8 <current_running>
ffffffc050402b06:	639c                	ld	a5,0(a5)
ffffffc050402b08:	639c                	ld	a5,0(a5)
ffffffc050402b0a:	5fd8                	lw	a4,60(a5)
ffffffc050402b0c:	377d                	addiw	a4,a4,-1
ffffffc050402b0e:	2701                	sext.w	a4,a4
ffffffc050402b10:	dfd8                	sw	a4,60(a5)
ffffffc050402b12:	c9bff0ef          	jal	ra,ffffffc0504027ac <screen_reflush>
ffffffc050402b16:	0001                	nop
ffffffc050402b18:	70a2                	ld	ra,40(sp)
ffffffc050402b1a:	7402                	ld	s0,32(sp)
ffffffc050402b1c:	6145                	addi	sp,sp,48
ffffffc050402b1e:	8082                	ret

ffffffc050402b20 <kernel_screen_scroll_check>:
ffffffc050402b20:	1141                	addi	sp,sp,-16
ffffffc050402b22:	e406                	sd	ra,8(sp)
ffffffc050402b24:	e022                	sd	s0,0(sp)
ffffffc050402b26:	0800                	addi	s0,sp,16
ffffffc050402b28:	fa0fd0ef          	jal	ra,ffffffc0504002c8 <get_current_cpu_id>
ffffffc050402b2c:	87aa                	mv	a5,a0
ffffffc050402b2e:	e791                	bnez	a5,ffffffc050402b3a <kernel_screen_scroll_check+0x1a>
ffffffc050402b30:	00043797          	auipc	a5,0x43
ffffffc050402b34:	6e078793          	addi	a5,a5,1760 # ffffffc050446210 <current_running_core0>
ffffffc050402b38:	a029                	j	ffffffc050402b42 <kernel_screen_scroll_check+0x22>
ffffffc050402b3a:	00043797          	auipc	a5,0x43
ffffffc050402b3e:	6ce78793          	addi	a5,a5,1742 # ffffffc050446208 <current_running_core1>
ffffffc050402b42:	00045717          	auipc	a4,0x45
ffffffc050402b46:	e8670713          	addi	a4,a4,-378 # ffffffc0504479c8 <current_running>
ffffffc050402b4a:	e31c                	sd	a5,0(a4)
ffffffc050402b4c:	00045797          	auipc	a5,0x45
ffffffc050402b50:	e7c78793          	addi	a5,a5,-388 # ffffffc0504479c8 <current_running>
ffffffc050402b54:	639c                	ld	a5,0(a5)
ffffffc050402b56:	639c                	ld	a5,0(a5)
ffffffc050402b58:	5fdc                	lw	a5,60(a5)
ffffffc050402b5a:	873e                	mv	a4,a5
ffffffc050402b5c:	47f9                	li	a5,30
ffffffc050402b5e:	00e7df63          	bge	a5,a4,ffffffc050402b7c <kernel_screen_scroll_check+0x5c>
ffffffc050402b62:	00045797          	auipc	a5,0x45
ffffffc050402b66:	e6678793          	addi	a5,a5,-410 # ffffffc0504479c8 <current_running>
ffffffc050402b6a:	639c                	ld	a5,0(a5)
ffffffc050402b6c:	639c                	ld	a5,0(a5)
ffffffc050402b6e:	5fdc                	lw	a5,60(a5)
ffffffc050402b70:	37fd                	addiw	a5,a5,-1
ffffffc050402b72:	2781                	sext.w	a5,a5
ffffffc050402b74:	85be                	mv	a1,a5
ffffffc050402b76:	454d                	li	a0,19
ffffffc050402b78:	e07ff0ef          	jal	ra,ffffffc05040297e <screen_scroll>
ffffffc050402b7c:	0001                	nop
ffffffc050402b7e:	60a2                	ld	ra,8(sp)
ffffffc050402b80:	6402                	ld	s0,0(sp)
ffffffc050402b82:	0141                	addi	sp,sp,16
ffffffc050402b84:	8082                	ret

ffffffc050402b86 <init_list_head>:
ffffffc050402b86:	1101                	addi	sp,sp,-32
ffffffc050402b88:	ec22                	sd	s0,24(sp)
ffffffc050402b8a:	1000                	addi	s0,sp,32
ffffffc050402b8c:	fea43423          	sd	a0,-24(s0)
ffffffc050402b90:	fe843783          	ld	a5,-24(s0)
ffffffc050402b94:	fe843703          	ld	a4,-24(s0)
ffffffc050402b98:	e398                	sd	a4,0(a5)
ffffffc050402b9a:	fe843783          	ld	a5,-24(s0)
ffffffc050402b9e:	fe843703          	ld	a4,-24(s0)
ffffffc050402ba2:	e798                	sd	a4,8(a5)
ffffffc050402ba4:	0001                	nop
ffffffc050402ba6:	6462                	ld	s0,24(sp)
ffffffc050402ba8:	6105                	addi	sp,sp,32
ffffffc050402baa:	8082                	ret

ffffffc050402bac <list_empty>:
ffffffc050402bac:	1101                	addi	sp,sp,-32
ffffffc050402bae:	ec22                	sd	s0,24(sp)
ffffffc050402bb0:	1000                	addi	s0,sp,32
ffffffc050402bb2:	fea43423          	sd	a0,-24(s0)
ffffffc050402bb6:	fe843783          	ld	a5,-24(s0)
ffffffc050402bba:	639c                	ld	a5,0(a5)
ffffffc050402bbc:	fe843703          	ld	a4,-24(s0)
ffffffc050402bc0:	40f707b3          	sub	a5,a4,a5
ffffffc050402bc4:	0017b793          	seqz	a5,a5
ffffffc050402bc8:	0ff7f793          	andi	a5,a5,255
ffffffc050402bcc:	2781                	sext.w	a5,a5
ffffffc050402bce:	853e                	mv	a0,a5
ffffffc050402bd0:	6462                	ld	s0,24(sp)
ffffffc050402bd2:	6105                	addi	sp,sp,32
ffffffc050402bd4:	8082                	ret

ffffffc050402bd6 <atomic_swap_d>:
ffffffc050402bd6:	7179                	addi	sp,sp,-48
ffffffc050402bd8:	f422                	sd	s0,40(sp)
ffffffc050402bda:	1800                	addi	s0,sp,48
ffffffc050402bdc:	fca43c23          	sd	a0,-40(s0)
ffffffc050402be0:	fcb43823          	sd	a1,-48(s0)
ffffffc050402be4:	fd043783          	ld	a5,-48(s0)
ffffffc050402be8:	fd843703          	ld	a4,-40(s0)
ffffffc050402bec:	0ee7b72f          	amoswap.d.aqrl	a4,a4,(a5)
ffffffc050402bf0:	fee43423          	sd	a4,-24(s0)
ffffffc050402bf4:	fe843783          	ld	a5,-24(s0)
ffffffc050402bf8:	853e                	mv	a0,a5
ffffffc050402bfa:	7422                	ld	s0,40(sp)
ffffffc050402bfc:	6145                	addi	sp,sp,48
ffffffc050402bfe:	8082                	ret

ffffffc050402c00 <spin_lock_init>:
ffffffc050402c00:	1101                	addi	sp,sp,-32
ffffffc050402c02:	ec22                	sd	s0,24(sp)
ffffffc050402c04:	1000                	addi	s0,sp,32
ffffffc050402c06:	fea43423          	sd	a0,-24(s0)
ffffffc050402c0a:	fe843783          	ld	a5,-24(s0)
ffffffc050402c0e:	0007a023          	sw	zero,0(a5)
ffffffc050402c12:	0001                	nop
ffffffc050402c14:	6462                	ld	s0,24(sp)
ffffffc050402c16:	6105                	addi	sp,sp,32
ffffffc050402c18:	8082                	ret

ffffffc050402c1a <spin_lock_try_acquire>:
ffffffc050402c1a:	1101                	addi	sp,sp,-32
ffffffc050402c1c:	ec06                	sd	ra,24(sp)
ffffffc050402c1e:	e822                	sd	s0,16(sp)
ffffffc050402c20:	1000                	addi	s0,sp,32
ffffffc050402c22:	fea43423          	sd	a0,-24(s0)
ffffffc050402c26:	fe843783          	ld	a5,-24(s0)
ffffffc050402c2a:	85be                	mv	a1,a5
ffffffc050402c2c:	4505                	li	a0,1
ffffffc050402c2e:	fa9ff0ef          	jal	ra,ffffffc050402bd6 <atomic_swap_d>
ffffffc050402c32:	87aa                	mv	a5,a0
ffffffc050402c34:	2781                	sext.w	a5,a5
ffffffc050402c36:	853e                	mv	a0,a5
ffffffc050402c38:	60e2                	ld	ra,24(sp)
ffffffc050402c3a:	6442                	ld	s0,16(sp)
ffffffc050402c3c:	6105                	addi	sp,sp,32
ffffffc050402c3e:	8082                	ret

ffffffc050402c40 <spin_lock_acquire>:
ffffffc050402c40:	1101                	addi	sp,sp,-32
ffffffc050402c42:	ec06                	sd	ra,24(sp)
ffffffc050402c44:	e822                	sd	s0,16(sp)
ffffffc050402c46:	1000                	addi	s0,sp,32
ffffffc050402c48:	fea43423          	sd	a0,-24(s0)
ffffffc050402c4c:	0001                	nop
ffffffc050402c4e:	fe843503          	ld	a0,-24(s0)
ffffffc050402c52:	fc9ff0ef          	jal	ra,ffffffc050402c1a <spin_lock_try_acquire>
ffffffc050402c56:	87aa                	mv	a5,a0
ffffffc050402c58:	873e                	mv	a4,a5
ffffffc050402c5a:	4785                	li	a5,1
ffffffc050402c5c:	fef709e3          	beq	a4,a5,ffffffc050402c4e <spin_lock_acquire+0xe>
ffffffc050402c60:	0001                	nop
ffffffc050402c62:	0001                	nop
ffffffc050402c64:	60e2                	ld	ra,24(sp)
ffffffc050402c66:	6442                	ld	s0,16(sp)
ffffffc050402c68:	6105                	addi	sp,sp,32
ffffffc050402c6a:	8082                	ret

ffffffc050402c6c <spin_lock_release>:
ffffffc050402c6c:	1101                	addi	sp,sp,-32
ffffffc050402c6e:	ec22                	sd	s0,24(sp)
ffffffc050402c70:	1000                	addi	s0,sp,32
ffffffc050402c72:	fea43423          	sd	a0,-24(s0)
ffffffc050402c76:	fe843783          	ld	a5,-24(s0)
ffffffc050402c7a:	0007a023          	sw	zero,0(a5)
ffffffc050402c7e:	0001                	nop
ffffffc050402c80:	6462                	ld	s0,24(sp)
ffffffc050402c82:	6105                	addi	sp,sp,32
ffffffc050402c84:	8082                	ret

ffffffc050402c86 <do_mutex_lock_init>:
ffffffc050402c86:	1101                	addi	sp,sp,-32
ffffffc050402c88:	ec06                	sd	ra,24(sp)
ffffffc050402c8a:	e822                	sd	s0,16(sp)
ffffffc050402c8c:	1000                	addi	s0,sp,32
ffffffc050402c8e:	fea43423          	sd	a0,-24(s0)
ffffffc050402c92:	fe843783          	ld	a5,-24(s0)
ffffffc050402c96:	07a1                	addi	a5,a5,8
ffffffc050402c98:	853e                	mv	a0,a5
ffffffc050402c9a:	eedff0ef          	jal	ra,ffffffc050402b86 <init_list_head>
ffffffc050402c9e:	fe843783          	ld	a5,-24(s0)
ffffffc050402ca2:	0007a023          	sw	zero,0(a5)
ffffffc050402ca6:	0001                	nop
ffffffc050402ca8:	60e2                	ld	ra,24(sp)
ffffffc050402caa:	6442                	ld	s0,16(sp)
ffffffc050402cac:	6105                	addi	sp,sp,32
ffffffc050402cae:	8082                	ret

ffffffc050402cb0 <do_mutex_lock_acquire>:
ffffffc050402cb0:	1101                	addi	sp,sp,-32
ffffffc050402cb2:	ec06                	sd	ra,24(sp)
ffffffc050402cb4:	e822                	sd	s0,16(sp)
ffffffc050402cb6:	1000                	addi	s0,sp,32
ffffffc050402cb8:	fea43423          	sd	a0,-24(s0)
ffffffc050402cbc:	e0cfd0ef          	jal	ra,ffffffc0504002c8 <get_current_cpu_id>
ffffffc050402cc0:	87aa                	mv	a5,a0
ffffffc050402cc2:	e791                	bnez	a5,ffffffc050402cce <do_mutex_lock_acquire+0x1e>
ffffffc050402cc4:	00043797          	auipc	a5,0x43
ffffffc050402cc8:	54c78793          	addi	a5,a5,1356 # ffffffc050446210 <current_running_core0>
ffffffc050402ccc:	a029                	j	ffffffc050402cd6 <do_mutex_lock_acquire+0x26>
ffffffc050402cce:	00043797          	auipc	a5,0x43
ffffffc050402cd2:	53a78793          	addi	a5,a5,1338 # ffffffc050446208 <current_running_core1>
ffffffc050402cd6:	00045717          	auipc	a4,0x45
ffffffc050402cda:	cf270713          	addi	a4,a4,-782 # ffffffc0504479c8 <current_running>
ffffffc050402cde:	e31c                	sd	a5,0(a4)
ffffffc050402ce0:	fe843783          	ld	a5,-24(s0)
ffffffc050402ce4:	439c                	lw	a5,0(a5)
ffffffc050402ce6:	2781                	sext.w	a5,a5
ffffffc050402ce8:	873e                	mv	a4,a5
ffffffc050402cea:	4785                	li	a5,1
ffffffc050402cec:	02f71063          	bne	a4,a5,ffffffc050402d0c <do_mutex_lock_acquire+0x5c>
ffffffc050402cf0:	00045797          	auipc	a5,0x45
ffffffc050402cf4:	cd878793          	addi	a5,a5,-808 # ffffffc0504479c8 <current_running>
ffffffc050402cf8:	639c                	ld	a5,0(a5)
ffffffc050402cfa:	6398                	ld	a4,0(a5)
ffffffc050402cfc:	fe843783          	ld	a5,-24(s0)
ffffffc050402d00:	07a1                	addi	a5,a5,8
ffffffc050402d02:	85be                	mv	a1,a5
ffffffc050402d04:	853a                	mv	a0,a4
ffffffc050402d06:	217010ef          	jal	ra,ffffffc05040471c <do_block>
ffffffc050402d0a:	a029                	j	ffffffc050402d14 <do_mutex_lock_acquire+0x64>
ffffffc050402d0c:	fe843783          	ld	a5,-24(s0)
ffffffc050402d10:	4705                	li	a4,1
ffffffc050402d12:	c398                	sw	a4,0(a5)
ffffffc050402d14:	0001                	nop
ffffffc050402d16:	60e2                	ld	ra,24(sp)
ffffffc050402d18:	6442                	ld	s0,16(sp)
ffffffc050402d1a:	6105                	addi	sp,sp,32
ffffffc050402d1c:	8082                	ret

ffffffc050402d1e <do_mutex_lock_release>:
ffffffc050402d1e:	1101                	addi	sp,sp,-32
ffffffc050402d20:	ec06                	sd	ra,24(sp)
ffffffc050402d22:	e822                	sd	s0,16(sp)
ffffffc050402d24:	1000                	addi	s0,sp,32
ffffffc050402d26:	fea43423          	sd	a0,-24(s0)
ffffffc050402d2a:	fe843783          	ld	a5,-24(s0)
ffffffc050402d2e:	07a1                	addi	a5,a5,8
ffffffc050402d30:	853e                	mv	a0,a5
ffffffc050402d32:	e7bff0ef          	jal	ra,ffffffc050402bac <list_empty>
ffffffc050402d36:	87aa                	mv	a5,a0
ffffffc050402d38:	c791                	beqz	a5,ffffffc050402d44 <do_mutex_lock_release+0x26>
ffffffc050402d3a:	fe843783          	ld	a5,-24(s0)
ffffffc050402d3e:	0007a023          	sw	zero,0(a5)
ffffffc050402d42:	a039                	j	ffffffc050402d50 <do_mutex_lock_release+0x32>
ffffffc050402d44:	fe843783          	ld	a5,-24(s0)
ffffffc050402d48:	07a1                	addi	a5,a5,8
ffffffc050402d4a:	853e                	mv	a0,a5
ffffffc050402d4c:	2a1010ef          	jal	ra,ffffffc0504047ec <do_unblock>
ffffffc050402d50:	0001                	nop
ffffffc050402d52:	60e2                	ld	ra,24(sp)
ffffffc050402d54:	6442                	ld	s0,16(sp)
ffffffc050402d56:	6105                	addi	sp,sp,32
ffffffc050402d58:	8082                	ret

ffffffc050402d5a <id_gen>:
ffffffc050402d5a:	1101                	addi	sp,sp,-32
ffffffc050402d5c:	ec06                	sd	ra,24(sp)
ffffffc050402d5e:	e822                	sd	s0,16(sp)
ffffffc050402d60:	1000                	addi	s0,sp,32
ffffffc050402d62:	69b010ef          	jal	ra,ffffffc050404bfc <get_ticks>
ffffffc050402d66:	fea43423          	sd	a0,-24(s0)
ffffffc050402d6a:	fe843783          	ld	a5,-24(s0)
ffffffc050402d6e:	0ff7f793          	andi	a5,a5,255
ffffffc050402d72:	2781                	sext.w	a5,a5
ffffffc050402d74:	853e                	mv	a0,a5
ffffffc050402d76:	60e2                	ld	ra,24(sp)
ffffffc050402d78:	6442                	ld	s0,16(sp)
ffffffc050402d7a:	6105                	addi	sp,sp,32
ffffffc050402d7c:	8082                	ret

ffffffc050402d7e <kernel_semget>:
ffffffc050402d7e:	7179                	addi	sp,sp,-48
ffffffc050402d80:	f406                	sd	ra,40(sp)
ffffffc050402d82:	f022                	sd	s0,32(sp)
ffffffc050402d84:	1800                	addi	s0,sp,48
ffffffc050402d86:	87aa                	mv	a5,a0
ffffffc050402d88:	fcf42e23          	sw	a5,-36(s0)
ffffffc050402d8c:	fe042423          	sw	zero,-24(s0)
ffffffc050402d90:	a891                	j	ffffffc050402de4 <kernel_semget+0x66>
ffffffc050402d92:	00043717          	auipc	a4,0x43
ffffffc050402d96:	5f670713          	addi	a4,a4,1526 # ffffffc050446388 <sem_list>
ffffffc050402d9a:	fe842783          	lw	a5,-24(s0)
ffffffc050402d9e:	078e                	slli	a5,a5,0x3
ffffffc050402da0:	97ba                	add	a5,a5,a4
ffffffc050402da2:	639c                	ld	a5,0(a5)
ffffffc050402da4:	cb9d                	beqz	a5,ffffffc050402dda <kernel_semget+0x5c>
ffffffc050402da6:	00043717          	auipc	a4,0x43
ffffffc050402daa:	5e270713          	addi	a4,a4,1506 # ffffffc050446388 <sem_list>
ffffffc050402dae:	fe842783          	lw	a5,-24(s0)
ffffffc050402db2:	078e                	slli	a5,a5,0x3
ffffffc050402db4:	97ba                	add	a5,a5,a4
ffffffc050402db6:	639c                	ld	a5,0(a5)
ffffffc050402db8:	43d8                	lw	a4,4(a5)
ffffffc050402dba:	fdc42783          	lw	a5,-36(s0)
ffffffc050402dbe:	2781                	sext.w	a5,a5
ffffffc050402dc0:	00e79d63          	bne	a5,a4,ffffffc050402dda <kernel_semget+0x5c>
ffffffc050402dc4:	00043717          	auipc	a4,0x43
ffffffc050402dc8:	5c470713          	addi	a4,a4,1476 # ffffffc050446388 <sem_list>
ffffffc050402dcc:	fe842783          	lw	a5,-24(s0)
ffffffc050402dd0:	078e                	slli	a5,a5,0x3
ffffffc050402dd2:	97ba                	add	a5,a5,a4
ffffffc050402dd4:	639c                	ld	a5,0(a5)
ffffffc050402dd6:	439c                	lw	a5,0(a5)
ffffffc050402dd8:	a851                	j	ffffffc050402e6c <kernel_semget+0xee>
ffffffc050402dda:	fe842783          	lw	a5,-24(s0)
ffffffc050402dde:	2785                	addiw	a5,a5,1
ffffffc050402de0:	fef42423          	sw	a5,-24(s0)
ffffffc050402de4:	fe842783          	lw	a5,-24(s0)
ffffffc050402de8:	0007871b          	sext.w	a4,a5
ffffffc050402dec:	0ff00793          	li	a5,255
ffffffc050402df0:	fae7d1e3          	bge	a5,a4,ffffffc050402d92 <kernel_semget+0x14>
ffffffc050402df4:	f67ff0ef          	jal	ra,ffffffc050402d5a <id_gen>
ffffffc050402df8:	87aa                	mv	a5,a0
ffffffc050402dfa:	fef42623          	sw	a5,-20(s0)
ffffffc050402dfe:	a031                	j	ffffffc050402e0a <kernel_semget+0x8c>
ffffffc050402e00:	f5bff0ef          	jal	ra,ffffffc050402d5a <id_gen>
ffffffc050402e04:	87aa                	mv	a5,a0
ffffffc050402e06:	fef42623          	sw	a5,-20(s0)
ffffffc050402e0a:	00043717          	auipc	a4,0x43
ffffffc050402e0e:	57e70713          	addi	a4,a4,1406 # ffffffc050446388 <sem_list>
ffffffc050402e12:	fec42783          	lw	a5,-20(s0)
ffffffc050402e16:	078e                	slli	a5,a5,0x3
ffffffc050402e18:	97ba                	add	a5,a5,a4
ffffffc050402e1a:	639c                	ld	a5,0(a5)
ffffffc050402e1c:	f3f5                	bnez	a5,ffffffc050402e00 <kernel_semget+0x82>
ffffffc050402e1e:	02000513          	li	a0,32
ffffffc050402e22:	064020ef          	jal	ra,ffffffc050404e86 <kmalloc>
ffffffc050402e26:	fea43023          	sd	a0,-32(s0)
ffffffc050402e2a:	fe043783          	ld	a5,-32(s0)
ffffffc050402e2e:	fec42703          	lw	a4,-20(s0)
ffffffc050402e32:	c398                	sw	a4,0(a5)
ffffffc050402e34:	fe043783          	ld	a5,-32(s0)
ffffffc050402e38:	fdc42703          	lw	a4,-36(s0)
ffffffc050402e3c:	c3d8                	sw	a4,4(a5)
ffffffc050402e3e:	fe043783          	ld	a5,-32(s0)
ffffffc050402e42:	0007a423          	sw	zero,8(a5)
ffffffc050402e46:	fe043783          	ld	a5,-32(s0)
ffffffc050402e4a:	07c1                	addi	a5,a5,16
ffffffc050402e4c:	853e                	mv	a0,a5
ffffffc050402e4e:	d39ff0ef          	jal	ra,ffffffc050402b86 <init_list_head>
ffffffc050402e52:	00043717          	auipc	a4,0x43
ffffffc050402e56:	53670713          	addi	a4,a4,1334 # ffffffc050446388 <sem_list>
ffffffc050402e5a:	fec42783          	lw	a5,-20(s0)
ffffffc050402e5e:	078e                	slli	a5,a5,0x3
ffffffc050402e60:	97ba                	add	a5,a5,a4
ffffffc050402e62:	fe043703          	ld	a4,-32(s0)
ffffffc050402e66:	e398                	sd	a4,0(a5)
ffffffc050402e68:	fec42783          	lw	a5,-20(s0)
ffffffc050402e6c:	853e                	mv	a0,a5
ffffffc050402e6e:	70a2                	ld	ra,40(sp)
ffffffc050402e70:	7402                	ld	s0,32(sp)
ffffffc050402e72:	6145                	addi	sp,sp,48
ffffffc050402e74:	8082                	ret

ffffffc050402e76 <kernel_binsemop>:
ffffffc050402e76:	7179                	addi	sp,sp,-48
ffffffc050402e78:	f406                	sd	ra,40(sp)
ffffffc050402e7a:	f022                	sd	s0,32(sp)
ffffffc050402e7c:	1800                	addi	s0,sp,48
ffffffc050402e7e:	87aa                	mv	a5,a0
ffffffc050402e80:	872e                	mv	a4,a1
ffffffc050402e82:	fcf42e23          	sw	a5,-36(s0)
ffffffc050402e86:	87ba                	mv	a5,a4
ffffffc050402e88:	fcf42c23          	sw	a5,-40(s0)
ffffffc050402e8c:	c3cfd0ef          	jal	ra,ffffffc0504002c8 <get_current_cpu_id>
ffffffc050402e90:	87aa                	mv	a5,a0
ffffffc050402e92:	e791                	bnez	a5,ffffffc050402e9e <kernel_binsemop+0x28>
ffffffc050402e94:	00043797          	auipc	a5,0x43
ffffffc050402e98:	37c78793          	addi	a5,a5,892 # ffffffc050446210 <current_running_core0>
ffffffc050402e9c:	a029                	j	ffffffc050402ea6 <kernel_binsemop+0x30>
ffffffc050402e9e:	00043797          	auipc	a5,0x43
ffffffc050402ea2:	36a78793          	addi	a5,a5,874 # ffffffc050446208 <current_running_core1>
ffffffc050402ea6:	00045717          	auipc	a4,0x45
ffffffc050402eaa:	b2270713          	addi	a4,a4,-1246 # ffffffc0504479c8 <current_running>
ffffffc050402eae:	e31c                	sd	a5,0(a4)
ffffffc050402eb0:	00043717          	auipc	a4,0x43
ffffffc050402eb4:	4d870713          	addi	a4,a4,1240 # ffffffc050446388 <sem_list>
ffffffc050402eb8:	fdc42783          	lw	a5,-36(s0)
ffffffc050402ebc:	078e                	slli	a5,a5,0x3
ffffffc050402ebe:	97ba                	add	a5,a5,a4
ffffffc050402ec0:	639c                	ld	a5,0(a5)
ffffffc050402ec2:	fef43023          	sd	a5,-32(s0)
ffffffc050402ec6:	fd842783          	lw	a5,-40(s0)
ffffffc050402eca:	2781                	sext.w	a5,a5
ffffffc050402ecc:	e7d1                	bnez	a5,ffffffc050402f58 <kernel_binsemop+0xe2>
ffffffc050402ece:	fe043783          	ld	a5,-32(s0)
ffffffc050402ed2:	479c                	lw	a5,8(a5)
ffffffc050402ed4:	873e                	mv	a4,a5
ffffffc050402ed6:	4785                	li	a5,1
ffffffc050402ed8:	02f71063          	bne	a4,a5,ffffffc050402ef8 <kernel_binsemop+0x82>
ffffffc050402edc:	00045797          	auipc	a5,0x45
ffffffc050402ee0:	aec78793          	addi	a5,a5,-1300 # ffffffc0504479c8 <current_running>
ffffffc050402ee4:	639c                	ld	a5,0(a5)
ffffffc050402ee6:	6398                	ld	a4,0(a5)
ffffffc050402ee8:	fe043783          	ld	a5,-32(s0)
ffffffc050402eec:	07c1                	addi	a5,a5,16
ffffffc050402eee:	85be                	mv	a1,a5
ffffffc050402ef0:	853a                	mv	a0,a4
ffffffc050402ef2:	02b010ef          	jal	ra,ffffffc05040471c <do_block>
ffffffc050402ef6:	aa99                	j	ffffffc05040304c <kernel_binsemop+0x1d6>
ffffffc050402ef8:	bd0fd0ef          	jal	ra,ffffffc0504002c8 <get_current_cpu_id>
ffffffc050402efc:	87aa                	mv	a5,a0
ffffffc050402efe:	e791                	bnez	a5,ffffffc050402f0a <kernel_binsemop+0x94>
ffffffc050402f00:	00043797          	auipc	a5,0x43
ffffffc050402f04:	31078793          	addi	a5,a5,784 # ffffffc050446210 <current_running_core0>
ffffffc050402f08:	a029                	j	ffffffc050402f12 <kernel_binsemop+0x9c>
ffffffc050402f0a:	00043797          	auipc	a5,0x43
ffffffc050402f0e:	2fe78793          	addi	a5,a5,766 # ffffffc050446208 <current_running_core1>
ffffffc050402f12:	00045717          	auipc	a4,0x45
ffffffc050402f16:	ab670713          	addi	a4,a4,-1354 # ffffffc0504479c8 <current_running>
ffffffc050402f1a:	e31c                	sd	a5,0(a4)
ffffffc050402f1c:	fe043783          	ld	a5,-32(s0)
ffffffc050402f20:	4705                	li	a4,1
ffffffc050402f22:	c798                	sw	a4,8(a5)
ffffffc050402f24:	00045797          	auipc	a5,0x45
ffffffc050402f28:	aa478793          	addi	a5,a5,-1372 # ffffffc0504479c8 <current_running>
ffffffc050402f2c:	639c                	ld	a5,0(a5)
ffffffc050402f2e:	6394                	ld	a3,0(a5)
ffffffc050402f30:	00045797          	auipc	a5,0x45
ffffffc050402f34:	a9878793          	addi	a5,a5,-1384 # ffffffc0504479c8 <current_running>
ffffffc050402f38:	639c                	ld	a5,0(a5)
ffffffc050402f3a:	6398                	ld	a4,0(a5)
ffffffc050402f3c:	0ac72783          	lw	a5,172(a4)
ffffffc050402f40:	0017861b          	addiw	a2,a5,1
ffffffc050402f44:	2601                	sext.w	a2,a2
ffffffc050402f46:	0ac72623          	sw	a2,172(a4)
ffffffc050402f4a:	07e1                	addi	a5,a5,24
ffffffc050402f4c:	078a                	slli	a5,a5,0x2
ffffffc050402f4e:	97b6                	add	a5,a5,a3
ffffffc050402f50:	fdc42703          	lw	a4,-36(s0)
ffffffc050402f54:	c7d8                	sw	a4,12(a5)
ffffffc050402f56:	a8dd                	j	ffffffc05040304c <kernel_binsemop+0x1d6>
ffffffc050402f58:	fd842783          	lw	a5,-40(s0)
ffffffc050402f5c:	0007871b          	sext.w	a4,a5
ffffffc050402f60:	4785                	li	a5,1
ffffffc050402f62:	0cf71e63          	bne	a4,a5,ffffffc05040303e <kernel_binsemop+0x1c8>
ffffffc050402f66:	fe043783          	ld	a5,-32(s0)
ffffffc050402f6a:	07c1                	addi	a5,a5,16
ffffffc050402f6c:	853e                	mv	a0,a5
ffffffc050402f6e:	c3fff0ef          	jal	ra,ffffffc050402bac <list_empty>
ffffffc050402f72:	87aa                	mv	a5,a0
ffffffc050402f74:	cfc1                	beqz	a5,ffffffc05040300c <kernel_binsemop+0x196>
ffffffc050402f76:	b52fd0ef          	jal	ra,ffffffc0504002c8 <get_current_cpu_id>
ffffffc050402f7a:	87aa                	mv	a5,a0
ffffffc050402f7c:	e791                	bnez	a5,ffffffc050402f88 <kernel_binsemop+0x112>
ffffffc050402f7e:	00043797          	auipc	a5,0x43
ffffffc050402f82:	29278793          	addi	a5,a5,658 # ffffffc050446210 <current_running_core0>
ffffffc050402f86:	a029                	j	ffffffc050402f90 <kernel_binsemop+0x11a>
ffffffc050402f88:	00043797          	auipc	a5,0x43
ffffffc050402f8c:	28078793          	addi	a5,a5,640 # ffffffc050446208 <current_running_core1>
ffffffc050402f90:	00045717          	auipc	a4,0x45
ffffffc050402f94:	a3870713          	addi	a4,a4,-1480 # ffffffc0504479c8 <current_running>
ffffffc050402f98:	e31c                	sd	a5,0(a4)
ffffffc050402f9a:	fe042623          	sw	zero,-20(s0)
ffffffc050402f9e:	a0a9                	j	ffffffc050402fe8 <kernel_binsemop+0x172>
ffffffc050402fa0:	00045797          	auipc	a5,0x45
ffffffc050402fa4:	a2878793          	addi	a5,a5,-1496 # ffffffc0504479c8 <current_running>
ffffffc050402fa8:	639c                	ld	a5,0(a5)
ffffffc050402faa:	6398                	ld	a4,0(a5)
ffffffc050402fac:	fec42783          	lw	a5,-20(s0)
ffffffc050402fb0:	07e1                	addi	a5,a5,24
ffffffc050402fb2:	078a                	slli	a5,a5,0x2
ffffffc050402fb4:	97ba                	add	a5,a5,a4
ffffffc050402fb6:	47d8                	lw	a4,12(a5)
ffffffc050402fb8:	fdc42783          	lw	a5,-36(s0)
ffffffc050402fbc:	2781                	sext.w	a5,a5
ffffffc050402fbe:	02e79063          	bne	a5,a4,ffffffc050402fde <kernel_binsemop+0x168>
ffffffc050402fc2:	00045797          	auipc	a5,0x45
ffffffc050402fc6:	a0678793          	addi	a5,a5,-1530 # ffffffc0504479c8 <current_running>
ffffffc050402fca:	639c                	ld	a5,0(a5)
ffffffc050402fcc:	6398                	ld	a4,0(a5)
ffffffc050402fce:	fec42783          	lw	a5,-20(s0)
ffffffc050402fd2:	07e1                	addi	a5,a5,24
ffffffc050402fd4:	078a                	slli	a5,a5,0x2
ffffffc050402fd6:	97ba                	add	a5,a5,a4
ffffffc050402fd8:	577d                	li	a4,-1
ffffffc050402fda:	c7d8                	sw	a4,12(a5)
ffffffc050402fdc:	a01d                	j	ffffffc050403002 <kernel_binsemop+0x18c>
ffffffc050402fde:	fec42783          	lw	a5,-20(s0)
ffffffc050402fe2:	2785                	addiw	a5,a5,1
ffffffc050402fe4:	fef42623          	sw	a5,-20(s0)
ffffffc050402fe8:	00045797          	auipc	a5,0x45
ffffffc050402fec:	9e078793          	addi	a5,a5,-1568 # ffffffc0504479c8 <current_running>
ffffffc050402ff0:	639c                	ld	a5,0(a5)
ffffffc050402ff2:	639c                	ld	a5,0(a5)
ffffffc050402ff4:	0ac7a703          	lw	a4,172(a5)
ffffffc050402ff8:	fec42783          	lw	a5,-20(s0)
ffffffc050402ffc:	2781                	sext.w	a5,a5
ffffffc050402ffe:	fae7c1e3          	blt	a5,a4,ffffffc050402fa0 <kernel_binsemop+0x12a>
ffffffc050403002:	fe043783          	ld	a5,-32(s0)
ffffffc050403006:	0007a423          	sw	zero,8(a5)
ffffffc05040300a:	a089                	j	ffffffc05040304c <kernel_binsemop+0x1d6>
ffffffc05040300c:	abcfd0ef          	jal	ra,ffffffc0504002c8 <get_current_cpu_id>
ffffffc050403010:	87aa                	mv	a5,a0
ffffffc050403012:	e791                	bnez	a5,ffffffc05040301e <kernel_binsemop+0x1a8>
ffffffc050403014:	00043797          	auipc	a5,0x43
ffffffc050403018:	1fc78793          	addi	a5,a5,508 # ffffffc050446210 <current_running_core0>
ffffffc05040301c:	a029                	j	ffffffc050403026 <kernel_binsemop+0x1b0>
ffffffc05040301e:	00043797          	auipc	a5,0x43
ffffffc050403022:	1ea78793          	addi	a5,a5,490 # ffffffc050446208 <current_running_core1>
ffffffc050403026:	00045717          	auipc	a4,0x45
ffffffc05040302a:	9a270713          	addi	a4,a4,-1630 # ffffffc0504479c8 <current_running>
ffffffc05040302e:	e31c                	sd	a5,0(a4)
ffffffc050403030:	fe043783          	ld	a5,-32(s0)
ffffffc050403034:	6b9c                	ld	a5,16(a5)
ffffffc050403036:	853e                	mv	a0,a5
ffffffc050403038:	7b4010ef          	jal	ra,ffffffc0504047ec <do_unblock>
ffffffc05040303c:	a801                	j	ffffffc05040304c <kernel_binsemop+0x1d6>
ffffffc05040303e:	00004517          	auipc	a0,0x4
ffffffc050403042:	84a50513          	addi	a0,a0,-1974 # ffffffc050406888 <__FUNCTION__.1685+0x30>
ffffffc050403046:	2e8030ef          	jal	ra,ffffffc05040632e <prints>
ffffffc05040304a:	a001                	j	ffffffc05040304a <kernel_binsemop+0x1d4>
ffffffc05040304c:	0001                	nop
ffffffc05040304e:	853e                	mv	a0,a5
ffffffc050403050:	70a2                	ld	ra,40(sp)
ffffffc050403052:	7402                	ld	s0,32(sp)
ffffffc050403054:	6145                	addi	sp,sp,48
ffffffc050403056:	8082                	ret

ffffffc050403058 <kernel_sem_wait>:
ffffffc050403058:	7179                	addi	sp,sp,-48
ffffffc05040305a:	f406                	sd	ra,40(sp)
ffffffc05040305c:	f022                	sd	s0,32(sp)
ffffffc05040305e:	1800                	addi	s0,sp,48
ffffffc050403060:	87aa                	mv	a5,a0
ffffffc050403062:	872e                	mv	a4,a1
ffffffc050403064:	fcf42e23          	sw	a5,-36(s0)
ffffffc050403068:	87ba                	mv	a5,a4
ffffffc05040306a:	fcf42c23          	sw	a5,-40(s0)
ffffffc05040306e:	a5afd0ef          	jal	ra,ffffffc0504002c8 <get_current_cpu_id>
ffffffc050403072:	87aa                	mv	a5,a0
ffffffc050403074:	e791                	bnez	a5,ffffffc050403080 <kernel_sem_wait+0x28>
ffffffc050403076:	00043797          	auipc	a5,0x43
ffffffc05040307a:	19a78793          	addi	a5,a5,410 # ffffffc050446210 <current_running_core0>
ffffffc05040307e:	a029                	j	ffffffc050403088 <kernel_sem_wait+0x30>
ffffffc050403080:	00043797          	auipc	a5,0x43
ffffffc050403084:	18878793          	addi	a5,a5,392 # ffffffc050446208 <current_running_core1>
ffffffc050403088:	00045717          	auipc	a4,0x45
ffffffc05040308c:	94070713          	addi	a4,a4,-1728 # ffffffc0504479c8 <current_running>
ffffffc050403090:	e31c                	sd	a5,0(a4)
ffffffc050403092:	00043717          	auipc	a4,0x43
ffffffc050403096:	2f670713          	addi	a4,a4,758 # ffffffc050446388 <sem_list>
ffffffc05040309a:	fdc42783          	lw	a5,-36(s0)
ffffffc05040309e:	078e                	slli	a5,a5,0x3
ffffffc0504030a0:	97ba                	add	a5,a5,a4
ffffffc0504030a2:	639c                	ld	a5,0(a5)
ffffffc0504030a4:	fef43423          	sd	a5,-24(s0)
ffffffc0504030a8:	fe843783          	ld	a5,-24(s0)
ffffffc0504030ac:	479c                	lw	a5,8(a5)
ffffffc0504030ae:	2785                	addiw	a5,a5,1
ffffffc0504030b0:	0007871b          	sext.w	a4,a5
ffffffc0504030b4:	fe843783          	ld	a5,-24(s0)
ffffffc0504030b8:	c798                	sw	a4,8(a5)
ffffffc0504030ba:	fd842783          	lw	a5,-40(s0)
ffffffc0504030be:	4585                	li	a1,1
ffffffc0504030c0:	853e                	mv	a0,a5
ffffffc0504030c2:	db5ff0ef          	jal	ra,ffffffc050402e76 <kernel_binsemop>
ffffffc0504030c6:	a02fd0ef          	jal	ra,ffffffc0504002c8 <get_current_cpu_id>
ffffffc0504030ca:	87aa                	mv	a5,a0
ffffffc0504030cc:	e791                	bnez	a5,ffffffc0504030d8 <kernel_sem_wait+0x80>
ffffffc0504030ce:	00043797          	auipc	a5,0x43
ffffffc0504030d2:	14278793          	addi	a5,a5,322 # ffffffc050446210 <current_running_core0>
ffffffc0504030d6:	a029                	j	ffffffc0504030e0 <kernel_sem_wait+0x88>
ffffffc0504030d8:	00043797          	auipc	a5,0x43
ffffffc0504030dc:	13078793          	addi	a5,a5,304 # ffffffc050446208 <current_running_core1>
ffffffc0504030e0:	00045717          	auipc	a4,0x45
ffffffc0504030e4:	8e870713          	addi	a4,a4,-1816 # ffffffc0504479c8 <current_running>
ffffffc0504030e8:	e31c                	sd	a5,0(a4)
ffffffc0504030ea:	00045797          	auipc	a5,0x45
ffffffc0504030ee:	8de78793          	addi	a5,a5,-1826 # ffffffc0504479c8 <current_running>
ffffffc0504030f2:	639c                	ld	a5,0(a5)
ffffffc0504030f4:	6398                	ld	a4,0(a5)
ffffffc0504030f6:	fe843783          	ld	a5,-24(s0)
ffffffc0504030fa:	07c1                	addi	a5,a5,16
ffffffc0504030fc:	85be                	mv	a1,a5
ffffffc0504030fe:	853a                	mv	a0,a4
ffffffc050403100:	61c010ef          	jal	ra,ffffffc05040471c <do_block>
ffffffc050403104:	fd842783          	lw	a5,-40(s0)
ffffffc050403108:	4581                	li	a1,0
ffffffc05040310a:	853e                	mv	a0,a5
ffffffc05040310c:	d6bff0ef          	jal	ra,ffffffc050402e76 <kernel_binsemop>
ffffffc050403110:	0001                	nop
ffffffc050403112:	853e                	mv	a0,a5
ffffffc050403114:	70a2                	ld	ra,40(sp)
ffffffc050403116:	7402                	ld	s0,32(sp)
ffffffc050403118:	6145                	addi	sp,sp,48
ffffffc05040311a:	8082                	ret

ffffffc05040311c <kernel_sem_signal>:
ffffffc05040311c:	7179                	addi	sp,sp,-48
ffffffc05040311e:	f406                	sd	ra,40(sp)
ffffffc050403120:	f022                	sd	s0,32(sp)
ffffffc050403122:	1800                	addi	s0,sp,48
ffffffc050403124:	87aa                	mv	a5,a0
ffffffc050403126:	fcf42e23          	sw	a5,-36(s0)
ffffffc05040312a:	00043717          	auipc	a4,0x43
ffffffc05040312e:	25e70713          	addi	a4,a4,606 # ffffffc050446388 <sem_list>
ffffffc050403132:	fdc42783          	lw	a5,-36(s0)
ffffffc050403136:	078e                	slli	a5,a5,0x3
ffffffc050403138:	97ba                	add	a5,a5,a4
ffffffc05040313a:	639c                	ld	a5,0(a5)
ffffffc05040313c:	fef43423          	sd	a5,-24(s0)
ffffffc050403140:	fe843783          	ld	a5,-24(s0)
ffffffc050403144:	479c                	lw	a5,8(a5)
ffffffc050403146:	00f05863          	blez	a5,ffffffc050403156 <kernel_sem_signal+0x3a>
ffffffc05040314a:	fe843783          	ld	a5,-24(s0)
ffffffc05040314e:	6b9c                	ld	a5,16(a5)
ffffffc050403150:	853e                	mv	a0,a5
ffffffc050403152:	69a010ef          	jal	ra,ffffffc0504047ec <do_unblock>
ffffffc050403156:	fe843783          	ld	a5,-24(s0)
ffffffc05040315a:	479c                	lw	a5,8(a5)
ffffffc05040315c:	37fd                	addiw	a5,a5,-1
ffffffc05040315e:	0007871b          	sext.w	a4,a5
ffffffc050403162:	fe843783          	ld	a5,-24(s0)
ffffffc050403166:	c798                	sw	a4,8(a5)
ffffffc050403168:	0001                	nop
ffffffc05040316a:	853e                	mv	a0,a5
ffffffc05040316c:	70a2                	ld	ra,40(sp)
ffffffc05040316e:	7402                	ld	s0,32(sp)
ffffffc050403170:	6145                	addi	sp,sp,48
ffffffc050403172:	8082                	ret

ffffffc050403174 <kernel_sem_broadcast>:
ffffffc050403174:	7139                	addi	sp,sp,-64
ffffffc050403176:	fc06                	sd	ra,56(sp)
ffffffc050403178:	f822                	sd	s0,48(sp)
ffffffc05040317a:	0080                	addi	s0,sp,64
ffffffc05040317c:	87aa                	mv	a5,a0
ffffffc05040317e:	fcf42623          	sw	a5,-52(s0)
ffffffc050403182:	00043717          	auipc	a4,0x43
ffffffc050403186:	20670713          	addi	a4,a4,518 # ffffffc050446388 <sem_list>
ffffffc05040318a:	fcc42783          	lw	a5,-52(s0)
ffffffc05040318e:	078e                	slli	a5,a5,0x3
ffffffc050403190:	97ba                	add	a5,a5,a4
ffffffc050403192:	639c                	ld	a5,0(a5)
ffffffc050403194:	fef43023          	sd	a5,-32(s0)
ffffffc050403198:	fe043783          	ld	a5,-32(s0)
ffffffc05040319c:	6b9c                	ld	a5,16(a5)
ffffffc05040319e:	fef43423          	sd	a5,-24(s0)
ffffffc0504031a2:	a831                	j	ffffffc0504031be <kernel_sem_broadcast+0x4a>
ffffffc0504031a4:	fe843783          	ld	a5,-24(s0)
ffffffc0504031a8:	639c                	ld	a5,0(a5)
ffffffc0504031aa:	fcf43c23          	sd	a5,-40(s0)
ffffffc0504031ae:	fe843503          	ld	a0,-24(s0)
ffffffc0504031b2:	63a010ef          	jal	ra,ffffffc0504047ec <do_unblock>
ffffffc0504031b6:	fd843783          	ld	a5,-40(s0)
ffffffc0504031ba:	fef43423          	sd	a5,-24(s0)
ffffffc0504031be:	fe043783          	ld	a5,-32(s0)
ffffffc0504031c2:	07c1                	addi	a5,a5,16
ffffffc0504031c4:	fe843703          	ld	a4,-24(s0)
ffffffc0504031c8:	fcf71ee3          	bne	a4,a5,ffffffc0504031a4 <kernel_sem_broadcast+0x30>
ffffffc0504031cc:	fe043783          	ld	a5,-32(s0)
ffffffc0504031d0:	0007a423          	sw	zero,8(a5)
ffffffc0504031d4:	0001                	nop
ffffffc0504031d6:	853e                	mv	a0,a5
ffffffc0504031d8:	70e2                	ld	ra,56(sp)
ffffffc0504031da:	7442                	ld	s0,48(sp)
ffffffc0504031dc:	6121                	addi	sp,sp,64
ffffffc0504031de:	8082                	ret

ffffffc0504031e0 <kernel_barrier_wait>:
ffffffc0504031e0:	7139                	addi	sp,sp,-64
ffffffc0504031e2:	fc06                	sd	ra,56(sp)
ffffffc0504031e4:	f822                	sd	s0,48(sp)
ffffffc0504031e6:	0080                	addi	s0,sp,64
ffffffc0504031e8:	87aa                	mv	a5,a0
ffffffc0504031ea:	872e                	mv	a4,a1
ffffffc0504031ec:	fcf42623          	sw	a5,-52(s0)
ffffffc0504031f0:	87ba                	mv	a5,a4
ffffffc0504031f2:	fcf42423          	sw	a5,-56(s0)
ffffffc0504031f6:	8d2fd0ef          	jal	ra,ffffffc0504002c8 <get_current_cpu_id>
ffffffc0504031fa:	87aa                	mv	a5,a0
ffffffc0504031fc:	e791                	bnez	a5,ffffffc050403208 <kernel_barrier_wait+0x28>
ffffffc0504031fe:	00043797          	auipc	a5,0x43
ffffffc050403202:	01278793          	addi	a5,a5,18 # ffffffc050446210 <current_running_core0>
ffffffc050403206:	a029                	j	ffffffc050403210 <kernel_barrier_wait+0x30>
ffffffc050403208:	00043797          	auipc	a5,0x43
ffffffc05040320c:	00078793          	mv	a5,a5
ffffffc050403210:	00044717          	auipc	a4,0x44
ffffffc050403214:	7b870713          	addi	a4,a4,1976 # ffffffc0504479c8 <current_running>
ffffffc050403218:	e31c                	sd	a5,0(a4)
ffffffc05040321a:	00043717          	auipc	a4,0x43
ffffffc05040321e:	16e70713          	addi	a4,a4,366 # ffffffc050446388 <sem_list>
ffffffc050403222:	fcc42783          	lw	a5,-52(s0)
ffffffc050403226:	078e                	slli	a5,a5,0x3
ffffffc050403228:	97ba                	add	a5,a5,a4
ffffffc05040322a:	639c                	ld	a5,0(a5)
ffffffc05040322c:	fef43023          	sd	a5,-32(s0)
ffffffc050403230:	fe043783          	ld	a5,-32(s0)
ffffffc050403234:	479c                	lw	a5,8(a5)
ffffffc050403236:	2785                	addiw	a5,a5,1
ffffffc050403238:	0007871b          	sext.w	a4,a5
ffffffc05040323c:	fe043783          	ld	a5,-32(s0)
ffffffc050403240:	c798                	sw	a4,8(a5)
ffffffc050403242:	fe043783          	ld	a5,-32(s0)
ffffffc050403246:	4798                	lw	a4,8(a5)
ffffffc050403248:	fc842783          	lw	a5,-56(s0)
ffffffc05040324c:	2781                	sext.w	a5,a5
ffffffc05040324e:	04e79163          	bne	a5,a4,ffffffc050403290 <kernel_barrier_wait+0xb0>
ffffffc050403252:	fe043783          	ld	a5,-32(s0)
ffffffc050403256:	0007a423          	sw	zero,8(a5) # ffffffc050446210 <current_running_core0>
ffffffc05040325a:	fe043783          	ld	a5,-32(s0)
ffffffc05040325e:	6b9c                	ld	a5,16(a5)
ffffffc050403260:	fef43423          	sd	a5,-24(s0)
ffffffc050403264:	a831                	j	ffffffc050403280 <kernel_barrier_wait+0xa0>
ffffffc050403266:	fe843783          	ld	a5,-24(s0)
ffffffc05040326a:	639c                	ld	a5,0(a5)
ffffffc05040326c:	fcf43c23          	sd	a5,-40(s0)
ffffffc050403270:	fe843503          	ld	a0,-24(s0)
ffffffc050403274:	578010ef          	jal	ra,ffffffc0504047ec <do_unblock>
ffffffc050403278:	fd843783          	ld	a5,-40(s0)
ffffffc05040327c:	fef43423          	sd	a5,-24(s0)
ffffffc050403280:	fe043783          	ld	a5,-32(s0)
ffffffc050403284:	07c1                	addi	a5,a5,16
ffffffc050403286:	fe843703          	ld	a4,-24(s0)
ffffffc05040328a:	fcf71ee3          	bne	a4,a5,ffffffc050403266 <kernel_barrier_wait+0x86>
ffffffc05040328e:	a831                	j	ffffffc0504032aa <kernel_barrier_wait+0xca>
ffffffc050403290:	00044797          	auipc	a5,0x44
ffffffc050403294:	73878793          	addi	a5,a5,1848 # ffffffc0504479c8 <current_running>
ffffffc050403298:	639c                	ld	a5,0(a5)
ffffffc05040329a:	6398                	ld	a4,0(a5)
ffffffc05040329c:	fe043783          	ld	a5,-32(s0)
ffffffc0504032a0:	07c1                	addi	a5,a5,16
ffffffc0504032a2:	85be                	mv	a1,a5
ffffffc0504032a4:	853a                	mv	a0,a4
ffffffc0504032a6:	476010ef          	jal	ra,ffffffc05040471c <do_block>
ffffffc0504032aa:	0001                	nop
ffffffc0504032ac:	853e                	mv	a0,a5
ffffffc0504032ae:	70e2                	ld	ra,56(sp)
ffffffc0504032b0:	7442                	ld	s0,48(sp)
ffffffc0504032b2:	6121                	addi	sp,sp,64
ffffffc0504032b4:	8082                	ret

ffffffc0504032b6 <kernel_keygen>:
ffffffc0504032b6:	1101                	addi	sp,sp,-32
ffffffc0504032b8:	ec06                	sd	ra,24(sp)
ffffffc0504032ba:	e822                	sd	s0,16(sp)
ffffffc0504032bc:	e426                	sd	s1,8(sp)
ffffffc0504032be:	1000                	addi	s0,sp,32
ffffffc0504032c0:	84418793          	addi	a5,gp,-1980 # ffffffc05044422c <global_key>
ffffffc0504032c4:	439c                	lw	a5,0(a5)
ffffffc0504032c6:	2785                	addiw	a5,a5,1
ffffffc0504032c8:	0007849b          	sext.w	s1,a5
ffffffc0504032cc:	7e8020ef          	jal	ra,ffffffc050405ab4 <rand>
ffffffc0504032d0:	87aa                	mv	a5,a0
ffffffc0504032d2:	873e                	mv	a4,a5
ffffffc0504032d4:	4795                	li	a5,5
ffffffc0504032d6:	02f767bb          	remw	a5,a4,a5
ffffffc0504032da:	2781                	sext.w	a5,a5
ffffffc0504032dc:	9fa5                	addw	a5,a5,s1
ffffffc0504032de:	2781                	sext.w	a5,a5
ffffffc0504032e0:	873e                	mv	a4,a5
ffffffc0504032e2:	41f7579b          	sraiw	a5,a4,0x1f
ffffffc0504032e6:	0147d79b          	srliw	a5,a5,0x14
ffffffc0504032ea:	00f706bb          	addw	a3,a4,a5
ffffffc0504032ee:	6705                	lui	a4,0x1
ffffffc0504032f0:	177d                	addi	a4,a4,-1
ffffffc0504032f2:	8f75                	and	a4,a4,a3
ffffffc0504032f4:	40f707bb          	subw	a5,a4,a5
ffffffc0504032f8:	0007871b          	sext.w	a4,a5
ffffffc0504032fc:	84418793          	addi	a5,gp,-1980 # ffffffc05044422c <global_key>
ffffffc050403300:	c398                	sw	a4,0(a5)
ffffffc050403302:	84418793          	addi	a5,gp,-1980 # ffffffc05044422c <global_key>
ffffffc050403306:	439c                	lw	a5,0(a5)
ffffffc050403308:	853e                	mv	a0,a5
ffffffc05040330a:	60e2                	ld	ra,24(sp)
ffffffc05040330c:	6442                	ld	s0,16(sp)
ffffffc05040330e:	64a2                	ld	s1,8(sp)
ffffffc050403310:	6105                	addi	sp,sp,32
ffffffc050403312:	8082                	ret

ffffffc050403314 <kernel_mbox_open>:
ffffffc050403314:	7139                	addi	sp,sp,-64
ffffffc050403316:	fc06                	sd	ra,56(sp)
ffffffc050403318:	f822                	sd	s0,48(sp)
ffffffc05040331a:	f426                	sd	s1,40(sp)
ffffffc05040331c:	0080                	addi	s0,sp,64
ffffffc05040331e:	fca43423          	sd	a0,-56(s0)
ffffffc050403322:	fc042e23          	sw	zero,-36(s0)
ffffffc050403326:	fc042e23          	sw	zero,-36(s0)
ffffffc05040332a:	a89d                	j	ffffffc0504033a0 <kernel_mbox_open+0x8c>
ffffffc05040332c:	00044717          	auipc	a4,0x44
ffffffc050403330:	85c70713          	addi	a4,a4,-1956 # ffffffc050446b88 <mbox_list>
ffffffc050403334:	fdc42783          	lw	a5,-36(s0)
ffffffc050403338:	078e                	slli	a5,a5,0x3
ffffffc05040333a:	97ba                	add	a5,a5,a4
ffffffc05040333c:	639c                	ld	a5,0(a5)
ffffffc05040333e:	cfa1                	beqz	a5,ffffffc050403396 <kernel_mbox_open+0x82>
ffffffc050403340:	00044717          	auipc	a4,0x44
ffffffc050403344:	84870713          	addi	a4,a4,-1976 # ffffffc050446b88 <mbox_list>
ffffffc050403348:	fdc42783          	lw	a5,-36(s0)
ffffffc05040334c:	078e                	slli	a5,a5,0x3
ffffffc05040334e:	97ba                	add	a5,a5,a4
ffffffc050403350:	639c                	ld	a5,0(a5)
ffffffc050403352:	0791                	addi	a5,a5,4
ffffffc050403354:	85be                	mv	a1,a5
ffffffc050403356:	fc843503          	ld	a0,-56(s0)
ffffffc05040335a:	5e8020ef          	jal	ra,ffffffc050405942 <kstrcmp>
ffffffc05040335e:	87aa                	mv	a5,a0
ffffffc050403360:	eb9d                	bnez	a5,ffffffc050403396 <kernel_mbox_open+0x82>
ffffffc050403362:	00044717          	auipc	a4,0x44
ffffffc050403366:	82670713          	addi	a4,a4,-2010 # ffffffc050446b88 <mbox_list>
ffffffc05040336a:	fdc42783          	lw	a5,-36(s0)
ffffffc05040336e:	078e                	slli	a5,a5,0x3
ffffffc050403370:	97ba                	add	a5,a5,a4
ffffffc050403372:	639c                	ld	a5,0(a5)
ffffffc050403374:	14c7a703          	lw	a4,332(a5)
ffffffc050403378:	2705                	addiw	a4,a4,1
ffffffc05040337a:	2701                	sext.w	a4,a4
ffffffc05040337c:	14e7a623          	sw	a4,332(a5)
ffffffc050403380:	00044717          	auipc	a4,0x44
ffffffc050403384:	80870713          	addi	a4,a4,-2040 # ffffffc050446b88 <mbox_list>
ffffffc050403388:	fdc42783          	lw	a5,-36(s0)
ffffffc05040338c:	078e                	slli	a5,a5,0x3
ffffffc05040338e:	97ba                	add	a5,a5,a4
ffffffc050403390:	639c                	ld	a5,0(a5)
ffffffc050403392:	439c                	lw	a5,0(a5)
ffffffc050403394:	aaad                	j	ffffffc05040350e <kernel_mbox_open+0x1fa>
ffffffc050403396:	fdc42783          	lw	a5,-36(s0)
ffffffc05040339a:	2785                	addiw	a5,a5,1
ffffffc05040339c:	fcf42e23          	sw	a5,-36(s0)
ffffffc0504033a0:	fdc42783          	lw	a5,-36(s0)
ffffffc0504033a4:	0007871b          	sext.w	a4,a5
ffffffc0504033a8:	0ff00793          	li	a5,255
ffffffc0504033ac:	f8e7d0e3          	bge	a5,a4,ffffffc05040332c <kernel_mbox_open+0x18>
ffffffc0504033b0:	9abff0ef          	jal	ra,ffffffc050402d5a <id_gen>
ffffffc0504033b4:	87aa                	mv	a5,a0
ffffffc0504033b6:	fcf42c23          	sw	a5,-40(s0)
ffffffc0504033ba:	00043717          	auipc	a4,0x43
ffffffc0504033be:	7ce70713          	addi	a4,a4,1998 # ffffffc050446b88 <mbox_list>
ffffffc0504033c2:	fd842783          	lw	a5,-40(s0)
ffffffc0504033c6:	078e                	slli	a5,a5,0x3
ffffffc0504033c8:	97ba                	add	a5,a5,a4
ffffffc0504033ca:	639c                	ld	a5,0(a5)
ffffffc0504033cc:	c391                	beqz	a5,ffffffc0504033d0 <kernel_mbox_open+0xbc>
ffffffc0504033ce:	b7cd                	j	ffffffc0504033b0 <kernel_mbox_open+0x9c>
ffffffc0504033d0:	0001                	nop
ffffffc0504033d2:	16000513          	li	a0,352
ffffffc0504033d6:	2b1010ef          	jal	ra,ffffffc050404e86 <kmalloc>
ffffffc0504033da:	fca43823          	sd	a0,-48(s0)
ffffffc0504033de:	fd043783          	ld	a5,-48(s0)
ffffffc0504033e2:	fd842703          	lw	a4,-40(s0)
ffffffc0504033e6:	c398                	sw	a4,0(a5)
ffffffc0504033e8:	fd043783          	ld	a5,-48(s0)
ffffffc0504033ec:	439c                	lw	a5,0(a5)
ffffffc0504033ee:	00043717          	auipc	a4,0x43
ffffffc0504033f2:	79a70713          	addi	a4,a4,1946 # ffffffc050446b88 <mbox_list>
ffffffc0504033f6:	078e                	slli	a5,a5,0x3
ffffffc0504033f8:	97ba                	add	a5,a5,a4
ffffffc0504033fa:	fd043703          	ld	a4,-48(s0)
ffffffc0504033fe:	e398                	sd	a4,0(a5)
ffffffc050403400:	fd043783          	ld	a5,-48(s0)
ffffffc050403404:	439c                	lw	a5,0(a5)
ffffffc050403406:	00043717          	auipc	a4,0x43
ffffffc05040340a:	78270713          	addi	a4,a4,1922 # ffffffc050446b88 <mbox_list>
ffffffc05040340e:	078e                	slli	a5,a5,0x3
ffffffc050403410:	97ba                	add	a5,a5,a4
ffffffc050403412:	639c                	ld	a5,0(a5)
ffffffc050403414:	0791                	addi	a5,a5,4
ffffffc050403416:	fc843583          	ld	a1,-56(s0)
ffffffc05040341a:	853e                	mv	a0,a5
ffffffc05040341c:	5b4020ef          	jal	ra,ffffffc0504059d0 <kstrcpy>
ffffffc050403420:	fd043783          	ld	a5,-48(s0)
ffffffc050403424:	439c                	lw	a5,0(a5)
ffffffc050403426:	00043717          	auipc	a4,0x43
ffffffc05040342a:	76270713          	addi	a4,a4,1890 # ffffffc050446b88 <mbox_list>
ffffffc05040342e:	078e                	slli	a5,a5,0x3
ffffffc050403430:	97ba                	add	a5,a5,a4
ffffffc050403432:	639c                	ld	a5,0(a5)
ffffffc050403434:	14c7a703          	lw	a4,332(a5)
ffffffc050403438:	2705                	addiw	a4,a4,1
ffffffc05040343a:	2701                	sext.w	a4,a4
ffffffc05040343c:	14e7a623          	sw	a4,332(a5)
ffffffc050403440:	fd043783          	ld	a5,-48(s0)
ffffffc050403444:	439c                	lw	a5,0(a5)
ffffffc050403446:	00043717          	auipc	a4,0x43
ffffffc05040344a:	74270713          	addi	a4,a4,1858 # ffffffc050446b88 <mbox_list>
ffffffc05040344e:	078e                	slli	a5,a5,0x3
ffffffc050403450:	97ba                	add	a5,a5,a4
ffffffc050403452:	6398                	ld	a4,0(a5)
ffffffc050403454:	14072423          	sw	zero,328(a4)
ffffffc050403458:	fd043783          	ld	a5,-48(s0)
ffffffc05040345c:	439c                	lw	a5,0(a5)
ffffffc05040345e:	00043697          	auipc	a3,0x43
ffffffc050403462:	72a68693          	addi	a3,a3,1834 # ffffffc050446b88 <mbox_list>
ffffffc050403466:	078e                	slli	a5,a5,0x3
ffffffc050403468:	97b6                	add	a5,a5,a3
ffffffc05040346a:	639c                	ld	a5,0(a5)
ffffffc05040346c:	14872703          	lw	a4,328(a4)
ffffffc050403470:	14e7a223          	sw	a4,324(a5)
ffffffc050403474:	fd043703          	ld	a4,-48(s0)
ffffffc050403478:	4318                	lw	a4,0(a4)
ffffffc05040347a:	00043697          	auipc	a3,0x43
ffffffc05040347e:	70e68693          	addi	a3,a3,1806 # ffffffc050446b88 <mbox_list>
ffffffc050403482:	070e                	slli	a4,a4,0x3
ffffffc050403484:	9736                	add	a4,a4,a3
ffffffc050403486:	6318                	ld	a4,0(a4)
ffffffc050403488:	1447a783          	lw	a5,324(a5)
ffffffc05040348c:	14f72823          	sw	a5,336(a4)
ffffffc050403490:	e27ff0ef          	jal	ra,ffffffc0504032b6 <kernel_keygen>
ffffffc050403494:	87aa                	mv	a5,a0
ffffffc050403496:	86be                	mv	a3,a5
ffffffc050403498:	fd043783          	ld	a5,-48(s0)
ffffffc05040349c:	439c                	lw	a5,0(a5)
ffffffc05040349e:	00043717          	auipc	a4,0x43
ffffffc0504034a2:	6ea70713          	addi	a4,a4,1770 # ffffffc050446b88 <mbox_list>
ffffffc0504034a6:	078e                	slli	a5,a5,0x3
ffffffc0504034a8:	97ba                	add	a5,a5,a4
ffffffc0504034aa:	6384                	ld	s1,0(a5)
ffffffc0504034ac:	8536                	mv	a0,a3
ffffffc0504034ae:	8d1ff0ef          	jal	ra,ffffffc050402d7e <kernel_semget>
ffffffc0504034b2:	87aa                	mv	a5,a0
ffffffc0504034b4:	14f4ac23          	sw	a5,344(s1)
ffffffc0504034b8:	dffff0ef          	jal	ra,ffffffc0504032b6 <kernel_keygen>
ffffffc0504034bc:	87aa                	mv	a5,a0
ffffffc0504034be:	86be                	mv	a3,a5
ffffffc0504034c0:	fd043783          	ld	a5,-48(s0)
ffffffc0504034c4:	439c                	lw	a5,0(a5)
ffffffc0504034c6:	00043717          	auipc	a4,0x43
ffffffc0504034ca:	6c270713          	addi	a4,a4,1730 # ffffffc050446b88 <mbox_list>
ffffffc0504034ce:	078e                	slli	a5,a5,0x3
ffffffc0504034d0:	97ba                	add	a5,a5,a4
ffffffc0504034d2:	6384                	ld	s1,0(a5)
ffffffc0504034d4:	8536                	mv	a0,a3
ffffffc0504034d6:	8a9ff0ef          	jal	ra,ffffffc050402d7e <kernel_semget>
ffffffc0504034da:	87aa                	mv	a5,a0
ffffffc0504034dc:	14f4aa23          	sw	a5,340(s1)
ffffffc0504034e0:	dd7ff0ef          	jal	ra,ffffffc0504032b6 <kernel_keygen>
ffffffc0504034e4:	87aa                	mv	a5,a0
ffffffc0504034e6:	86be                	mv	a3,a5
ffffffc0504034e8:	fd043783          	ld	a5,-48(s0)
ffffffc0504034ec:	439c                	lw	a5,0(a5)
ffffffc0504034ee:	00043717          	auipc	a4,0x43
ffffffc0504034f2:	69a70713          	addi	a4,a4,1690 # ffffffc050446b88 <mbox_list>
ffffffc0504034f6:	078e                	slli	a5,a5,0x3
ffffffc0504034f8:	97ba                	add	a5,a5,a4
ffffffc0504034fa:	6384                	ld	s1,0(a5)
ffffffc0504034fc:	8536                	mv	a0,a3
ffffffc0504034fe:	881ff0ef          	jal	ra,ffffffc050402d7e <kernel_semget>
ffffffc050403502:	87aa                	mv	a5,a0
ffffffc050403504:	14f4ae23          	sw	a5,348(s1)
ffffffc050403508:	fd043783          	ld	a5,-48(s0)
ffffffc05040350c:	439c                	lw	a5,0(a5)
ffffffc05040350e:	853e                	mv	a0,a5
ffffffc050403510:	70e2                	ld	ra,56(sp)
ffffffc050403512:	7442                	ld	s0,48(sp)
ffffffc050403514:	74a2                	ld	s1,40(sp)
ffffffc050403516:	6121                	addi	sp,sp,64
ffffffc050403518:	8082                	ret

ffffffc05040351a <kernel_mbox_close>:
ffffffc05040351a:	1101                	addi	sp,sp,-32
ffffffc05040351c:	ec22                	sd	s0,24(sp)
ffffffc05040351e:	1000                	addi	s0,sp,32
ffffffc050403520:	87aa                	mv	a5,a0
ffffffc050403522:	fef42623          	sw	a5,-20(s0)
ffffffc050403526:	00043717          	auipc	a4,0x43
ffffffc05040352a:	66270713          	addi	a4,a4,1634 # ffffffc050446b88 <mbox_list>
ffffffc05040352e:	fec42783          	lw	a5,-20(s0)
ffffffc050403532:	078e                	slli	a5,a5,0x3
ffffffc050403534:	97ba                	add	a5,a5,a4
ffffffc050403536:	0007b023          	sd	zero,0(a5)
ffffffc05040353a:	0001                	nop
ffffffc05040353c:	6462                	ld	s0,24(sp)
ffffffc05040353e:	6105                	addi	sp,sp,32
ffffffc050403540:	8082                	ret

ffffffc050403542 <kernel_mbox_send>:
ffffffc050403542:	7179                	addi	sp,sp,-48
ffffffc050403544:	f406                	sd	ra,40(sp)
ffffffc050403546:	f022                	sd	s0,32(sp)
ffffffc050403548:	1800                	addi	s0,sp,48
ffffffc05040354a:	87aa                	mv	a5,a0
ffffffc05040354c:	fcb43823          	sd	a1,-48(s0)
ffffffc050403550:	8732                	mv	a4,a2
ffffffc050403552:	fcf42e23          	sw	a5,-36(s0)
ffffffc050403556:	87ba                	mv	a5,a4
ffffffc050403558:	fcf42c23          	sw	a5,-40(s0)
ffffffc05040355c:	00043717          	auipc	a4,0x43
ffffffc050403560:	62c70713          	addi	a4,a4,1580 # ffffffc050446b88 <mbox_list>
ffffffc050403564:	fdc42783          	lw	a5,-36(s0)
ffffffc050403568:	078e                	slli	a5,a5,0x3
ffffffc05040356a:	97ba                	add	a5,a5,a4
ffffffc05040356c:	639c                	ld	a5,0(a5)
ffffffc05040356e:	fef43423          	sd	a5,-24(s0)
ffffffc050403572:	fe843783          	ld	a5,-24(s0)
ffffffc050403576:	15c7a783          	lw	a5,348(a5)
ffffffc05040357a:	4581                	li	a1,0
ffffffc05040357c:	853e                	mv	a0,a5
ffffffc05040357e:	8f9ff0ef          	jal	ra,ffffffc050402e76 <kernel_binsemop>
ffffffc050403582:	a829                	j	ffffffc05040359c <kernel_mbox_send+0x5a>
ffffffc050403584:	fe843783          	ld	a5,-24(s0)
ffffffc050403588:	1587a703          	lw	a4,344(a5)
ffffffc05040358c:	fe843783          	ld	a5,-24(s0)
ffffffc050403590:	15c7a783          	lw	a5,348(a5)
ffffffc050403594:	85be                	mv	a1,a5
ffffffc050403596:	853a                	mv	a0,a4
ffffffc050403598:	ac1ff0ef          	jal	ra,ffffffc050403058 <kernel_sem_wait>
ffffffc05040359c:	fe843783          	ld	a5,-24(s0)
ffffffc0504035a0:	1507a783          	lw	a5,336(a5)
ffffffc0504035a4:	10000713          	li	a4,256
ffffffc0504035a8:	40f707bb          	subw	a5,a4,a5
ffffffc0504035ac:	0007871b          	sext.w	a4,a5
ffffffc0504035b0:	fd842783          	lw	a5,-40(s0)
ffffffc0504035b4:	2781                	sext.w	a5,a5
ffffffc0504035b6:	fcf747e3          	blt	a4,a5,ffffffc050403584 <kernel_mbox_send+0x42>
ffffffc0504035ba:	fe843783          	ld	a5,-24(s0)
ffffffc0504035be:	1487a783          	lw	a5,328(a5)
ffffffc0504035c2:	10000713          	li	a4,256
ffffffc0504035c6:	40f707bb          	subw	a5,a4,a5
ffffffc0504035ca:	0007871b          	sext.w	a4,a5
ffffffc0504035ce:	fd842783          	lw	a5,-40(s0)
ffffffc0504035d2:	2781                	sext.w	a5,a5
ffffffc0504035d4:	08f75663          	bge	a4,a5,ffffffc050403660 <kernel_mbox_send+0x11e>
ffffffc0504035d8:	fe843783          	ld	a5,-24(s0)
ffffffc0504035dc:	04478793          	addi	a5,a5,68
ffffffc0504035e0:	fe843703          	ld	a4,-24(s0)
ffffffc0504035e4:	14872703          	lw	a4,328(a4)
ffffffc0504035e8:	00e786b3          	add	a3,a5,a4
ffffffc0504035ec:	fe843783          	ld	a5,-24(s0)
ffffffc0504035f0:	1487a783          	lw	a5,328(a5)
ffffffc0504035f4:	10000713          	li	a4,256
ffffffc0504035f8:	40f707bb          	subw	a5,a4,a5
ffffffc0504035fc:	2781                	sext.w	a5,a5
ffffffc0504035fe:	863e                	mv	a2,a5
ffffffc050403600:	fd043583          	ld	a1,-48(s0)
ffffffc050403604:	8536                	mv	a0,a3
ffffffc050403606:	21a020ef          	jal	ra,ffffffc050405820 <kmemcpy>
ffffffc05040360a:	fe843783          	ld	a5,-24(s0)
ffffffc05040360e:	1487a783          	lw	a5,328(a5)
ffffffc050403612:	10000713          	li	a4,256
ffffffc050403616:	40f707bb          	subw	a5,a4,a5
ffffffc05040361a:	2781                	sext.w	a5,a5
ffffffc05040361c:	fd842703          	lw	a4,-40(s0)
ffffffc050403620:	40f707bb          	subw	a5,a4,a5
ffffffc050403624:	0007871b          	sext.w	a4,a5
ffffffc050403628:	fe843783          	ld	a5,-24(s0)
ffffffc05040362c:	14e7a423          	sw	a4,328(a5)
ffffffc050403630:	fe843783          	ld	a5,-24(s0)
ffffffc050403634:	04478693          	addi	a3,a5,68
ffffffc050403638:	fd842783          	lw	a5,-40(s0)
ffffffc05040363c:	fe843703          	ld	a4,-24(s0)
ffffffc050403640:	14872703          	lw	a4,328(a4)
ffffffc050403644:	8f99                	sub	a5,a5,a4
ffffffc050403646:	fd043703          	ld	a4,-48(s0)
ffffffc05040364a:	973e                	add	a4,a4,a5
ffffffc05040364c:	fe843783          	ld	a5,-24(s0)
ffffffc050403650:	1487a783          	lw	a5,328(a5)
ffffffc050403654:	863e                	mv	a2,a5
ffffffc050403656:	85ba                	mv	a1,a4
ffffffc050403658:	8536                	mv	a0,a3
ffffffc05040365a:	1c6020ef          	jal	ra,ffffffc050405820 <kmemcpy>
ffffffc05040365e:	a83d                	j	ffffffc05040369c <kernel_mbox_send+0x15a>
ffffffc050403660:	fe843783          	ld	a5,-24(s0)
ffffffc050403664:	04478793          	addi	a5,a5,68
ffffffc050403668:	fe843703          	ld	a4,-24(s0)
ffffffc05040366c:	14872703          	lw	a4,328(a4)
ffffffc050403670:	97ba                	add	a5,a5,a4
ffffffc050403672:	fd842703          	lw	a4,-40(s0)
ffffffc050403676:	863a                	mv	a2,a4
ffffffc050403678:	fd043583          	ld	a1,-48(s0)
ffffffc05040367c:	853e                	mv	a0,a5
ffffffc05040367e:	1a2020ef          	jal	ra,ffffffc050405820 <kmemcpy>
ffffffc050403682:	fe843783          	ld	a5,-24(s0)
ffffffc050403686:	1487a783          	lw	a5,328(a5)
ffffffc05040368a:	fd842703          	lw	a4,-40(s0)
ffffffc05040368e:	9fb9                	addw	a5,a5,a4
ffffffc050403690:	0007871b          	sext.w	a4,a5
ffffffc050403694:	fe843783          	ld	a5,-24(s0)
ffffffc050403698:	14e7a423          	sw	a4,328(a5)
ffffffc05040369c:	fe843783          	ld	a5,-24(s0)
ffffffc0504036a0:	1507a783          	lw	a5,336(a5)
ffffffc0504036a4:	fd842703          	lw	a4,-40(s0)
ffffffc0504036a8:	9fb9                	addw	a5,a5,a4
ffffffc0504036aa:	0007871b          	sext.w	a4,a5
ffffffc0504036ae:	fe843783          	ld	a5,-24(s0)
ffffffc0504036b2:	14e7a823          	sw	a4,336(a5)
ffffffc0504036b6:	fe843783          	ld	a5,-24(s0)
ffffffc0504036ba:	1547a783          	lw	a5,340(a5)
ffffffc0504036be:	853e                	mv	a0,a5
ffffffc0504036c0:	ab5ff0ef          	jal	ra,ffffffc050403174 <kernel_sem_broadcast>
ffffffc0504036c4:	fe843783          	ld	a5,-24(s0)
ffffffc0504036c8:	15c7a783          	lw	a5,348(a5)
ffffffc0504036cc:	4585                	li	a1,1
ffffffc0504036ce:	853e                	mv	a0,a5
ffffffc0504036d0:	fa6ff0ef          	jal	ra,ffffffc050402e76 <kernel_binsemop>
ffffffc0504036d4:	0001                	nop
ffffffc0504036d6:	70a2                	ld	ra,40(sp)
ffffffc0504036d8:	7402                	ld	s0,32(sp)
ffffffc0504036da:	6145                	addi	sp,sp,48
ffffffc0504036dc:	8082                	ret

ffffffc0504036de <kernel_mbox_recv>:
ffffffc0504036de:	7179                	addi	sp,sp,-48
ffffffc0504036e0:	f406                	sd	ra,40(sp)
ffffffc0504036e2:	f022                	sd	s0,32(sp)
ffffffc0504036e4:	1800                	addi	s0,sp,48
ffffffc0504036e6:	87aa                	mv	a5,a0
ffffffc0504036e8:	fcb43823          	sd	a1,-48(s0)
ffffffc0504036ec:	8732                	mv	a4,a2
ffffffc0504036ee:	fcf42e23          	sw	a5,-36(s0)
ffffffc0504036f2:	87ba                	mv	a5,a4
ffffffc0504036f4:	fcf42c23          	sw	a5,-40(s0)
ffffffc0504036f8:	00043717          	auipc	a4,0x43
ffffffc0504036fc:	49070713          	addi	a4,a4,1168 # ffffffc050446b88 <mbox_list>
ffffffc050403700:	fdc42783          	lw	a5,-36(s0)
ffffffc050403704:	078e                	slli	a5,a5,0x3
ffffffc050403706:	97ba                	add	a5,a5,a4
ffffffc050403708:	639c                	ld	a5,0(a5)
ffffffc05040370a:	fef43423          	sd	a5,-24(s0)
ffffffc05040370e:	fe843783          	ld	a5,-24(s0)
ffffffc050403712:	15c7a783          	lw	a5,348(a5)
ffffffc050403716:	4581                	li	a1,0
ffffffc050403718:	853e                	mv	a0,a5
ffffffc05040371a:	f5cff0ef          	jal	ra,ffffffc050402e76 <kernel_binsemop>
ffffffc05040371e:	a829                	j	ffffffc050403738 <kernel_mbox_recv+0x5a>
ffffffc050403720:	fe843783          	ld	a5,-24(s0)
ffffffc050403724:	1547a703          	lw	a4,340(a5)
ffffffc050403728:	fe843783          	ld	a5,-24(s0)
ffffffc05040372c:	15c7a783          	lw	a5,348(a5)
ffffffc050403730:	85be                	mv	a1,a5
ffffffc050403732:	853a                	mv	a0,a4
ffffffc050403734:	925ff0ef          	jal	ra,ffffffc050403058 <kernel_sem_wait>
ffffffc050403738:	fe843783          	ld	a5,-24(s0)
ffffffc05040373c:	1507a703          	lw	a4,336(a5)
ffffffc050403740:	fd842783          	lw	a5,-40(s0)
ffffffc050403744:	2781                	sext.w	a5,a5
ffffffc050403746:	fcf74de3          	blt	a4,a5,ffffffc050403720 <kernel_mbox_recv+0x42>
ffffffc05040374a:	fe843783          	ld	a5,-24(s0)
ffffffc05040374e:	1447a783          	lw	a5,324(a5)
ffffffc050403752:	10000713          	li	a4,256
ffffffc050403756:	40f707bb          	subw	a5,a4,a5
ffffffc05040375a:	0007871b          	sext.w	a4,a5
ffffffc05040375e:	fd842783          	lw	a5,-40(s0)
ffffffc050403762:	2781                	sext.w	a5,a5
ffffffc050403764:	08f75663          	bge	a4,a5,ffffffc0504037f0 <kernel_mbox_recv+0x112>
ffffffc050403768:	fe843783          	ld	a5,-24(s0)
ffffffc05040376c:	04478793          	addi	a5,a5,68
ffffffc050403770:	fe843703          	ld	a4,-24(s0)
ffffffc050403774:	14472703          	lw	a4,324(a4)
ffffffc050403778:	00e786b3          	add	a3,a5,a4
ffffffc05040377c:	fe843783          	ld	a5,-24(s0)
ffffffc050403780:	1447a783          	lw	a5,324(a5)
ffffffc050403784:	10000713          	li	a4,256
ffffffc050403788:	40f707bb          	subw	a5,a4,a5
ffffffc05040378c:	2781                	sext.w	a5,a5
ffffffc05040378e:	863e                	mv	a2,a5
ffffffc050403790:	85b6                	mv	a1,a3
ffffffc050403792:	fd043503          	ld	a0,-48(s0)
ffffffc050403796:	08a020ef          	jal	ra,ffffffc050405820 <kmemcpy>
ffffffc05040379a:	fe843783          	ld	a5,-24(s0)
ffffffc05040379e:	1447a783          	lw	a5,324(a5)
ffffffc0504037a2:	10000713          	li	a4,256
ffffffc0504037a6:	40f707bb          	subw	a5,a4,a5
ffffffc0504037aa:	2781                	sext.w	a5,a5
ffffffc0504037ac:	fd842703          	lw	a4,-40(s0)
ffffffc0504037b0:	40f707bb          	subw	a5,a4,a5
ffffffc0504037b4:	0007871b          	sext.w	a4,a5
ffffffc0504037b8:	fe843783          	ld	a5,-24(s0)
ffffffc0504037bc:	14e7a223          	sw	a4,324(a5)
ffffffc0504037c0:	fd842783          	lw	a5,-40(s0)
ffffffc0504037c4:	fe843703          	ld	a4,-24(s0)
ffffffc0504037c8:	14472703          	lw	a4,324(a4)
ffffffc0504037cc:	8f99                	sub	a5,a5,a4
ffffffc0504037ce:	fd043703          	ld	a4,-48(s0)
ffffffc0504037d2:	973e                	add	a4,a4,a5
ffffffc0504037d4:	fe843783          	ld	a5,-24(s0)
ffffffc0504037d8:	04478693          	addi	a3,a5,68
ffffffc0504037dc:	fe843783          	ld	a5,-24(s0)
ffffffc0504037e0:	1447a783          	lw	a5,324(a5)
ffffffc0504037e4:	863e                	mv	a2,a5
ffffffc0504037e6:	85b6                	mv	a1,a3
ffffffc0504037e8:	853a                	mv	a0,a4
ffffffc0504037ea:	036020ef          	jal	ra,ffffffc050405820 <kmemcpy>
ffffffc0504037ee:	a83d                	j	ffffffc05040382c <kernel_mbox_recv+0x14e>
ffffffc0504037f0:	fe843783          	ld	a5,-24(s0)
ffffffc0504037f4:	04478793          	addi	a5,a5,68
ffffffc0504037f8:	fe843703          	ld	a4,-24(s0)
ffffffc0504037fc:	14472703          	lw	a4,324(a4)
ffffffc050403800:	97ba                	add	a5,a5,a4
ffffffc050403802:	fd842703          	lw	a4,-40(s0)
ffffffc050403806:	863a                	mv	a2,a4
ffffffc050403808:	85be                	mv	a1,a5
ffffffc05040380a:	fd043503          	ld	a0,-48(s0)
ffffffc05040380e:	012020ef          	jal	ra,ffffffc050405820 <kmemcpy>
ffffffc050403812:	fe843783          	ld	a5,-24(s0)
ffffffc050403816:	1447a783          	lw	a5,324(a5)
ffffffc05040381a:	fd842703          	lw	a4,-40(s0)
ffffffc05040381e:	9fb9                	addw	a5,a5,a4
ffffffc050403820:	0007871b          	sext.w	a4,a5
ffffffc050403824:	fe843783          	ld	a5,-24(s0)
ffffffc050403828:	14e7a223          	sw	a4,324(a5)
ffffffc05040382c:	fe843783          	ld	a5,-24(s0)
ffffffc050403830:	1507a703          	lw	a4,336(a5)
ffffffc050403834:	fd842783          	lw	a5,-40(s0)
ffffffc050403838:	40f707bb          	subw	a5,a4,a5
ffffffc05040383c:	0007871b          	sext.w	a4,a5
ffffffc050403840:	fe843783          	ld	a5,-24(s0)
ffffffc050403844:	14e7a823          	sw	a4,336(a5)
ffffffc050403848:	fe843783          	ld	a5,-24(s0)
ffffffc05040384c:	1587a783          	lw	a5,344(a5)
ffffffc050403850:	853e                	mv	a0,a5
ffffffc050403852:	923ff0ef          	jal	ra,ffffffc050403174 <kernel_sem_broadcast>
ffffffc050403856:	fe843783          	ld	a5,-24(s0)
ffffffc05040385a:	15c7a783          	lw	a5,348(a5)
ffffffc05040385e:	4585                	li	a1,1
ffffffc050403860:	853e                	mv	a0,a5
ffffffc050403862:	e14ff0ef          	jal	ra,ffffffc050402e76 <kernel_binsemop>
ffffffc050403866:	0001                	nop
ffffffc050403868:	70a2                	ld	ra,40(sp)
ffffffc05040386a:	7402                	ld	s0,32(sp)
ffffffc05040386c:	6145                	addi	sp,sp,48
ffffffc05040386e:	8082                	ret

ffffffc050403870 <init_list_head>:
ffffffc050403870:	1101                	addi	sp,sp,-32
ffffffc050403872:	ec22                	sd	s0,24(sp)
ffffffc050403874:	1000                	addi	s0,sp,32
ffffffc050403876:	fea43423          	sd	a0,-24(s0)
ffffffc05040387a:	fe843783          	ld	a5,-24(s0)
ffffffc05040387e:	fe843703          	ld	a4,-24(s0)
ffffffc050403882:	e398                	sd	a4,0(a5)
ffffffc050403884:	fe843783          	ld	a5,-24(s0)
ffffffc050403888:	fe843703          	ld	a4,-24(s0)
ffffffc05040388c:	e798                	sd	a4,8(a5)
ffffffc05040388e:	0001                	nop
ffffffc050403890:	6462                	ld	s0,24(sp)
ffffffc050403892:	6105                	addi	sp,sp,32
ffffffc050403894:	8082                	ret

ffffffc050403896 <_list_add>:
ffffffc050403896:	7179                	addi	sp,sp,-48
ffffffc050403898:	f422                	sd	s0,40(sp)
ffffffc05040389a:	1800                	addi	s0,sp,48
ffffffc05040389c:	fea43423          	sd	a0,-24(s0)
ffffffc0504038a0:	feb43023          	sd	a1,-32(s0)
ffffffc0504038a4:	fcc43c23          	sd	a2,-40(s0)
ffffffc0504038a8:	fd843783          	ld	a5,-40(s0)
ffffffc0504038ac:	fe843703          	ld	a4,-24(s0)
ffffffc0504038b0:	e798                	sd	a4,8(a5)
ffffffc0504038b2:	fe843783          	ld	a5,-24(s0)
ffffffc0504038b6:	fd843703          	ld	a4,-40(s0)
ffffffc0504038ba:	e398                	sd	a4,0(a5)
ffffffc0504038bc:	fe843783          	ld	a5,-24(s0)
ffffffc0504038c0:	fe043703          	ld	a4,-32(s0)
ffffffc0504038c4:	e798                	sd	a4,8(a5)
ffffffc0504038c6:	fe043783          	ld	a5,-32(s0)
ffffffc0504038ca:	fe843703          	ld	a4,-24(s0)
ffffffc0504038ce:	e398                	sd	a4,0(a5)
ffffffc0504038d0:	0001                	nop
ffffffc0504038d2:	7422                	ld	s0,40(sp)
ffffffc0504038d4:	6145                	addi	sp,sp,48
ffffffc0504038d6:	8082                	ret

ffffffc0504038d8 <list_add_tail>:
ffffffc0504038d8:	1101                	addi	sp,sp,-32
ffffffc0504038da:	ec06                	sd	ra,24(sp)
ffffffc0504038dc:	e822                	sd	s0,16(sp)
ffffffc0504038de:	1000                	addi	s0,sp,32
ffffffc0504038e0:	fea43423          	sd	a0,-24(s0)
ffffffc0504038e4:	feb43023          	sd	a1,-32(s0)
ffffffc0504038e8:	fe043783          	ld	a5,-32(s0)
ffffffc0504038ec:	679c                	ld	a5,8(a5)
ffffffc0504038ee:	fe043603          	ld	a2,-32(s0)
ffffffc0504038f2:	85be                	mv	a1,a5
ffffffc0504038f4:	fe843503          	ld	a0,-24(s0)
ffffffc0504038f8:	f9fff0ef          	jal	ra,ffffffc050403896 <_list_add>
ffffffc0504038fc:	0001                	nop
ffffffc0504038fe:	60e2                	ld	ra,24(sp)
ffffffc050403900:	6442                	ld	s0,16(sp)
ffffffc050403902:	6105                	addi	sp,sp,32
ffffffc050403904:	8082                	ret

ffffffc050403906 <list_empty>:
ffffffc050403906:	1101                	addi	sp,sp,-32
ffffffc050403908:	ec22                	sd	s0,24(sp)
ffffffc05040390a:	1000                	addi	s0,sp,32
ffffffc05040390c:	fea43423          	sd	a0,-24(s0)
ffffffc050403910:	fe843783          	ld	a5,-24(s0)
ffffffc050403914:	639c                	ld	a5,0(a5)
ffffffc050403916:	fe843703          	ld	a4,-24(s0)
ffffffc05040391a:	40f707b3          	sub	a5,a4,a5
ffffffc05040391e:	0017b793          	seqz	a5,a5
ffffffc050403922:	0ff7f793          	andi	a5,a5,255
ffffffc050403926:	2781                	sext.w	a5,a5
ffffffc050403928:	853e                	mv	a0,a5
ffffffc05040392a:	6462                	ld	s0,24(sp)
ffffffc05040392c:	6105                	addi	sp,sp,32
ffffffc05040392e:	8082                	ret

ffffffc050403930 <_panic>:
ffffffc050403930:	7179                	addi	sp,sp,-48
ffffffc050403932:	f406                	sd	ra,40(sp)
ffffffc050403934:	f022                	sd	s0,32(sp)
ffffffc050403936:	1800                	addi	s0,sp,48
ffffffc050403938:	fea43423          	sd	a0,-24(s0)
ffffffc05040393c:	87ae                	mv	a5,a1
ffffffc05040393e:	fcc43c23          	sd	a2,-40(s0)
ffffffc050403942:	fef42223          	sw	a5,-28(s0)
ffffffc050403946:	fe442783          	lw	a5,-28(s0)
ffffffc05040394a:	86be                	mv	a3,a5
ffffffc05040394c:	fe843603          	ld	a2,-24(s0)
ffffffc050403950:	fd843583          	ld	a1,-40(s0)
ffffffc050403954:	00003517          	auipc	a0,0x3
ffffffc050403958:	f5c50513          	addi	a0,a0,-164 # ffffffc0504068b0 <__FUNCTION__.1685+0x58>
ffffffc05040395c:	14b020ef          	jal	ra,ffffffc0504062a6 <printk>
ffffffc050403960:	a001                	j	ffffffc050403960 <_panic+0x30>

ffffffc050403962 <init_system_futex>:
ffffffc050403962:	1101                	addi	sp,sp,-32
ffffffc050403964:	ec06                	sd	ra,24(sp)
ffffffc050403966:	e822                	sd	s0,16(sp)
ffffffc050403968:	1000                	addi	s0,sp,32
ffffffc05040396a:	f46fc0ef          	jal	ra,ffffffc0504000b0 <disable_preempt>
ffffffc05040396e:	fe042623          	sw	zero,-20(s0)
ffffffc050403972:	a015                	j	ffffffc050403996 <init_system_futex+0x34>
ffffffc050403974:	fec42783          	lw	a5,-20(s0)
ffffffc050403978:	00479713          	slli	a4,a5,0x4
ffffffc05040397c:	00044797          	auipc	a5,0x44
ffffffc050403980:	a0c78793          	addi	a5,a5,-1524 # ffffffc050447388 <futex_buckets>
ffffffc050403984:	97ba                	add	a5,a5,a4
ffffffc050403986:	853e                	mv	a0,a5
ffffffc050403988:	ee9ff0ef          	jal	ra,ffffffc050403870 <init_list_head>
ffffffc05040398c:	fec42783          	lw	a5,-20(s0)
ffffffc050403990:	2785                	addiw	a5,a5,1
ffffffc050403992:	fef42623          	sw	a5,-20(s0)
ffffffc050403996:	fec42783          	lw	a5,-20(s0)
ffffffc05040399a:	0007871b          	sext.w	a4,a5
ffffffc05040399e:	06300793          	li	a5,99
ffffffc0504039a2:	fce7d9e3          	bge	a5,a4,ffffffc050403974 <init_system_futex+0x12>
ffffffc0504039a6:	ed2fc0ef          	jal	ra,ffffffc050400078 <enable_preempt>
ffffffc0504039aa:	0001                	nop
ffffffc0504039ac:	60e2                	ld	ra,24(sp)
ffffffc0504039ae:	6442                	ld	s0,16(sp)
ffffffc0504039b0:	6105                	addi	sp,sp,32
ffffffc0504039b2:	8082                	ret

ffffffc0504039b4 <futex_hash>:
ffffffc0504039b4:	1101                	addi	sp,sp,-32
ffffffc0504039b6:	ec22                	sd	s0,24(sp)
ffffffc0504039b8:	1000                	addi	s0,sp,32
ffffffc0504039ba:	fea43423          	sd	a0,-24(s0)
ffffffc0504039be:	fe843783          	ld	a5,-24(s0)
ffffffc0504039c2:	01e7d713          	srli	a4,a5,0x1e
ffffffc0504039c6:	fe843783          	ld	a5,-24(s0)
ffffffc0504039ca:	8f3d                	xor	a4,a4,a5
ffffffc0504039cc:	00003797          	auipc	a5,0x3
ffffffc0504039d0:	f3c78793          	addi	a5,a5,-196 # ffffffc050406908 <__FUNCTION__.1379+0x10>
ffffffc0504039d4:	639c                	ld	a5,0(a5)
ffffffc0504039d6:	02f707b3          	mul	a5,a4,a5
ffffffc0504039da:	fef43423          	sd	a5,-24(s0)
ffffffc0504039de:	fe843783          	ld	a5,-24(s0)
ffffffc0504039e2:	01b7d713          	srli	a4,a5,0x1b
ffffffc0504039e6:	fe843783          	ld	a5,-24(s0)
ffffffc0504039ea:	8f3d                	xor	a4,a4,a5
ffffffc0504039ec:	00003797          	auipc	a5,0x3
ffffffc0504039f0:	f2478793          	addi	a5,a5,-220 # ffffffc050406910 <__FUNCTION__.1379+0x18>
ffffffc0504039f4:	639c                	ld	a5,0(a5)
ffffffc0504039f6:	02f707b3          	mul	a5,a4,a5
ffffffc0504039fa:	fef43423          	sd	a5,-24(s0)
ffffffc0504039fe:	fe843783          	ld	a5,-24(s0)
ffffffc050403a02:	83fd                	srli	a5,a5,0x1f
ffffffc050403a04:	fe843703          	ld	a4,-24(s0)
ffffffc050403a08:	8fb9                	xor	a5,a5,a4
ffffffc050403a0a:	fef43423          	sd	a5,-24(s0)
ffffffc050403a0e:	fe843703          	ld	a4,-24(s0)
ffffffc050403a12:	06400793          	li	a5,100
ffffffc050403a16:	02f777b3          	remu	a5,a4,a5
ffffffc050403a1a:	2781                	sext.w	a5,a5
ffffffc050403a1c:	853e                	mv	a0,a5
ffffffc050403a1e:	6462                	ld	s0,24(sp)
ffffffc050403a20:	6105                	addi	sp,sp,32
ffffffc050403a22:	8082                	ret

ffffffc050403a24 <get_node>:
ffffffc050403a24:	715d                	addi	sp,sp,-80
ffffffc050403a26:	e486                	sd	ra,72(sp)
ffffffc050403a28:	e0a2                	sd	s0,64(sp)
ffffffc050403a2a:	0880                	addi	s0,sp,80
ffffffc050403a2c:	faa43c23          	sd	a0,-72(s0)
ffffffc050403a30:	87ae                	mv	a5,a1
ffffffc050403a32:	faf42a23          	sw	a5,-76(s0)
ffffffc050403a36:	fb843783          	ld	a5,-72(s0)
ffffffc050403a3a:	853e                	mv	a0,a5
ffffffc050403a3c:	f79ff0ef          	jal	ra,ffffffc0504039b4 <futex_hash>
ffffffc050403a40:	87aa                	mv	a5,a0
ffffffc050403a42:	fef42223          	sw	a5,-28(s0)
ffffffc050403a46:	fe442783          	lw	a5,-28(s0)
ffffffc050403a4a:	00479713          	slli	a4,a5,0x4
ffffffc050403a4e:	00044797          	auipc	a5,0x44
ffffffc050403a52:	93a78793          	addi	a5,a5,-1734 # ffffffc050447388 <futex_buckets>
ffffffc050403a56:	97ba                	add	a5,a5,a4
ffffffc050403a58:	fcf43c23          	sd	a5,-40(s0)
ffffffc050403a5c:	fd843783          	ld	a5,-40(s0)
ffffffc050403a60:	639c                	ld	a5,0(a5)
ffffffc050403a62:	fef43423          	sd	a5,-24(s0)
ffffffc050403a66:	a80d                	j	ffffffc050403a98 <get_node+0x74>
ffffffc050403a68:	fe843783          	ld	a5,-24(s0)
ffffffc050403a6c:	fcf43423          	sd	a5,-56(s0)
ffffffc050403a70:	fc843783          	ld	a5,-56(s0)
ffffffc050403a74:	17e1                	addi	a5,a5,-8
ffffffc050403a76:	fcf43023          	sd	a5,-64(s0)
ffffffc050403a7a:	fc043783          	ld	a5,-64(s0)
ffffffc050403a7e:	6398                	ld	a4,0(a5)
ffffffc050403a80:	fb843783          	ld	a5,-72(s0)
ffffffc050403a84:	00f71563          	bne	a4,a5,ffffffc050403a8e <get_node+0x6a>
ffffffc050403a88:	fc043783          	ld	a5,-64(s0)
ffffffc050403a8c:	a0b5                	j	ffffffc050403af8 <get_node+0xd4>
ffffffc050403a8e:	fe843783          	ld	a5,-24(s0)
ffffffc050403a92:	639c                	ld	a5,0(a5)
ffffffc050403a94:	fef43423          	sd	a5,-24(s0)
ffffffc050403a98:	fe843703          	ld	a4,-24(s0)
ffffffc050403a9c:	fd843783          	ld	a5,-40(s0)
ffffffc050403aa0:	fcf714e3          	bne	a4,a5,ffffffc050403a68 <get_node+0x44>
ffffffc050403aa4:	fb442783          	lw	a5,-76(s0)
ffffffc050403aa8:	2781                	sext.w	a5,a5
ffffffc050403aaa:	c7b1                	beqz	a5,ffffffc050403af6 <get_node+0xd2>
ffffffc050403aac:	02800513          	li	a0,40
ffffffc050403ab0:	3d6010ef          	jal	ra,ffffffc050404e86 <kmalloc>
ffffffc050403ab4:	fca43823          	sd	a0,-48(s0)
ffffffc050403ab8:	fb843703          	ld	a4,-72(s0)
ffffffc050403abc:	fd043783          	ld	a5,-48(s0)
ffffffc050403ac0:	e398                	sd	a4,0(a5)
ffffffc050403ac2:	fd043783          	ld	a5,-48(s0)
ffffffc050403ac6:	07e1                	addi	a5,a5,24
ffffffc050403ac8:	853e                	mv	a0,a5
ffffffc050403aca:	da7ff0ef          	jal	ra,ffffffc050403870 <init_list_head>
ffffffc050403ace:	fd043783          	ld	a5,-48(s0)
ffffffc050403ad2:	00878693          	addi	a3,a5,8
ffffffc050403ad6:	fe442783          	lw	a5,-28(s0)
ffffffc050403ada:	00479713          	slli	a4,a5,0x4
ffffffc050403ade:	00044797          	auipc	a5,0x44
ffffffc050403ae2:	8aa78793          	addi	a5,a5,-1878 # ffffffc050447388 <futex_buckets>
ffffffc050403ae6:	97ba                	add	a5,a5,a4
ffffffc050403ae8:	85be                	mv	a1,a5
ffffffc050403aea:	8536                	mv	a0,a3
ffffffc050403aec:	dedff0ef          	jal	ra,ffffffc0504038d8 <list_add_tail>
ffffffc050403af0:	fd043783          	ld	a5,-48(s0)
ffffffc050403af4:	a011                	j	ffffffc050403af8 <get_node+0xd4>
ffffffc050403af6:	4781                	li	a5,0
ffffffc050403af8:	853e                	mv	a0,a5
ffffffc050403afa:	60a6                	ld	ra,72(sp)
ffffffc050403afc:	6406                	ld	s0,64(sp)
ffffffc050403afe:	6161                	addi	sp,sp,80
ffffffc050403b00:	8082                	ret

ffffffc050403b02 <futex_wait>:
ffffffc050403b02:	7179                	addi	sp,sp,-48
ffffffc050403b04:	f406                	sd	ra,40(sp)
ffffffc050403b06:	f022                	sd	s0,32(sp)
ffffffc050403b08:	1800                	addi	s0,sp,48
ffffffc050403b0a:	fca43c23          	sd	a0,-40(s0)
ffffffc050403b0e:	fcb43823          	sd	a1,-48(s0)
ffffffc050403b12:	fb6fc0ef          	jal	ra,ffffffc0504002c8 <get_current_cpu_id>
ffffffc050403b16:	87aa                	mv	a5,a0
ffffffc050403b18:	e791                	bnez	a5,ffffffc050403b24 <futex_wait+0x22>
ffffffc050403b1a:	00042797          	auipc	a5,0x42
ffffffc050403b1e:	6f678793          	addi	a5,a5,1782 # ffffffc050446210 <current_running_core0>
ffffffc050403b22:	a029                	j	ffffffc050403b2c <futex_wait+0x2a>
ffffffc050403b24:	00042797          	auipc	a5,0x42
ffffffc050403b28:	6e478793          	addi	a5,a5,1764 # ffffffc050446208 <current_running_core1>
ffffffc050403b2c:	00044717          	auipc	a4,0x44
ffffffc050403b30:	e9c70713          	addi	a4,a4,-356 # ffffffc0504479c8 <current_running>
ffffffc050403b34:	e31c                	sd	a5,0(a4)
ffffffc050403b36:	d7afc0ef          	jal	ra,ffffffc0504000b0 <disable_preempt>
ffffffc050403b3a:	4585                	li	a1,1
ffffffc050403b3c:	fd843503          	ld	a0,-40(s0)
ffffffc050403b40:	ee5ff0ef          	jal	ra,ffffffc050403a24 <get_node>
ffffffc050403b44:	fea43423          	sd	a0,-24(s0)
ffffffc050403b48:	fe843783          	ld	a5,-24(s0)
ffffffc050403b4c:	ef89                	bnez	a5,ffffffc050403b66 <futex_wait+0x64>
ffffffc050403b4e:	00003617          	auipc	a2,0x3
ffffffc050403b52:	daa60613          	addi	a2,a2,-598 # ffffffc0504068f8 <__FUNCTION__.1379>
ffffffc050403b56:	03600593          	li	a1,54
ffffffc050403b5a:	00003517          	auipc	a0,0x3
ffffffc050403b5e:	d7e50513          	addi	a0,a0,-642 # ffffffc0504068d8 <__FUNCTION__.1685+0x80>
ffffffc050403b62:	dcfff0ef          	jal	ra,ffffffc050403930 <_panic>
ffffffc050403b66:	fd843783          	ld	a5,-40(s0)
ffffffc050403b6a:	639c                	ld	a5,0(a5)
ffffffc050403b6c:	fd043703          	ld	a4,-48(s0)
ffffffc050403b70:	02f71363          	bne	a4,a5,ffffffc050403b96 <futex_wait+0x94>
ffffffc050403b74:	00044797          	auipc	a5,0x44
ffffffc050403b78:	e5478793          	addi	a5,a5,-428 # ffffffc0504479c8 <current_running>
ffffffc050403b7c:	639c                	ld	a5,0(a5)
ffffffc050403b7e:	639c                	ld	a5,0(a5)
ffffffc050403b80:	01878713          	addi	a4,a5,24
ffffffc050403b84:	fe843783          	ld	a5,-24(s0)
ffffffc050403b88:	07e1                	addi	a5,a5,24
ffffffc050403b8a:	85be                	mv	a1,a5
ffffffc050403b8c:	853a                	mv	a0,a4
ffffffc050403b8e:	38f000ef          	jal	ra,ffffffc05040471c <do_block>
ffffffc050403b92:	45c000ef          	jal	ra,ffffffc050403fee <do_scheduler>
ffffffc050403b96:	ce2fc0ef          	jal	ra,ffffffc050400078 <enable_preempt>
ffffffc050403b9a:	0001                	nop
ffffffc050403b9c:	70a2                	ld	ra,40(sp)
ffffffc050403b9e:	7402                	ld	s0,32(sp)
ffffffc050403ba0:	6145                	addi	sp,sp,48
ffffffc050403ba2:	8082                	ret

ffffffc050403ba4 <futex_wakeup>:
ffffffc050403ba4:	7179                	addi	sp,sp,-48
ffffffc050403ba6:	f406                	sd	ra,40(sp)
ffffffc050403ba8:	f022                	sd	s0,32(sp)
ffffffc050403baa:	1800                	addi	s0,sp,48
ffffffc050403bac:	fca43c23          	sd	a0,-40(s0)
ffffffc050403bb0:	87ae                	mv	a5,a1
ffffffc050403bb2:	fcf42a23          	sw	a5,-44(s0)
ffffffc050403bb6:	cfafc0ef          	jal	ra,ffffffc0504000b0 <disable_preempt>
ffffffc050403bba:	4581                	li	a1,0
ffffffc050403bbc:	fd843503          	ld	a0,-40(s0)
ffffffc050403bc0:	e65ff0ef          	jal	ra,ffffffc050403a24 <get_node>
ffffffc050403bc4:	fea43023          	sd	a0,-32(s0)
ffffffc050403bc8:	fe043783          	ld	a5,-32(s0)
ffffffc050403bcc:	c3a9                	beqz	a5,ffffffc050403c0e <futex_wakeup+0x6a>
ffffffc050403bce:	fe042623          	sw	zero,-20(s0)
ffffffc050403bd2:	a025                	j	ffffffc050403bfa <futex_wakeup+0x56>
ffffffc050403bd4:	fe043783          	ld	a5,-32(s0)
ffffffc050403bd8:	07e1                	addi	a5,a5,24
ffffffc050403bda:	853e                	mv	a0,a5
ffffffc050403bdc:	d2bff0ef          	jal	ra,ffffffc050403906 <list_empty>
ffffffc050403be0:	87aa                	mv	a5,a0
ffffffc050403be2:	e78d                	bnez	a5,ffffffc050403c0c <futex_wakeup+0x68>
ffffffc050403be4:	fe043783          	ld	a5,-32(s0)
ffffffc050403be8:	6f9c                	ld	a5,24(a5)
ffffffc050403bea:	853e                	mv	a0,a5
ffffffc050403bec:	401000ef          	jal	ra,ffffffc0504047ec <do_unblock>
ffffffc050403bf0:	fec42783          	lw	a5,-20(s0)
ffffffc050403bf4:	2785                	addiw	a5,a5,1
ffffffc050403bf6:	fef42623          	sw	a5,-20(s0)
ffffffc050403bfa:	fec42703          	lw	a4,-20(s0)
ffffffc050403bfe:	fd442783          	lw	a5,-44(s0)
ffffffc050403c02:	2701                	sext.w	a4,a4
ffffffc050403c04:	2781                	sext.w	a5,a5
ffffffc050403c06:	fcf747e3          	blt	a4,a5,ffffffc050403bd4 <futex_wakeup+0x30>
ffffffc050403c0a:	a011                	j	ffffffc050403c0e <futex_wakeup+0x6a>
ffffffc050403c0c:	0001                	nop
ffffffc050403c0e:	3e0000ef          	jal	ra,ffffffc050403fee <do_scheduler>
ffffffc050403c12:	c66fc0ef          	jal	ra,ffffffc050400078 <enable_preempt>
ffffffc050403c16:	0001                	nop
ffffffc050403c18:	70a2                	ld	ra,40(sp)
ffffffc050403c1a:	7402                	ld	s0,32(sp)
ffffffc050403c1c:	6145                	addi	sp,sp,48
ffffffc050403c1e:	8082                	ret

ffffffc050403c20 <_list_add>:
ffffffc050403c20:	7179                	addi	sp,sp,-48
ffffffc050403c22:	f422                	sd	s0,40(sp)
ffffffc050403c24:	1800                	addi	s0,sp,48
ffffffc050403c26:	fea43423          	sd	a0,-24(s0)
ffffffc050403c2a:	feb43023          	sd	a1,-32(s0)
ffffffc050403c2e:	fcc43c23          	sd	a2,-40(s0)
ffffffc050403c32:	fd843783          	ld	a5,-40(s0)
ffffffc050403c36:	fe843703          	ld	a4,-24(s0)
ffffffc050403c3a:	e798                	sd	a4,8(a5)
ffffffc050403c3c:	fe843783          	ld	a5,-24(s0)
ffffffc050403c40:	fd843703          	ld	a4,-40(s0)
ffffffc050403c44:	e398                	sd	a4,0(a5)
ffffffc050403c46:	fe843783          	ld	a5,-24(s0)
ffffffc050403c4a:	fe043703          	ld	a4,-32(s0)
ffffffc050403c4e:	e798                	sd	a4,8(a5)
ffffffc050403c50:	fe043783          	ld	a5,-32(s0)
ffffffc050403c54:	fe843703          	ld	a4,-24(s0)
ffffffc050403c58:	e398                	sd	a4,0(a5)
ffffffc050403c5a:	0001                	nop
ffffffc050403c5c:	7422                	ld	s0,40(sp)
ffffffc050403c5e:	6145                	addi	sp,sp,48
ffffffc050403c60:	8082                	ret

ffffffc050403c62 <_list_del>:
ffffffc050403c62:	1101                	addi	sp,sp,-32
ffffffc050403c64:	ec22                	sd	s0,24(sp)
ffffffc050403c66:	1000                	addi	s0,sp,32
ffffffc050403c68:	fea43423          	sd	a0,-24(s0)
ffffffc050403c6c:	feb43023          	sd	a1,-32(s0)
ffffffc050403c70:	fe043783          	ld	a5,-32(s0)
ffffffc050403c74:	fe843703          	ld	a4,-24(s0)
ffffffc050403c78:	e798                	sd	a4,8(a5)
ffffffc050403c7a:	fe843783          	ld	a5,-24(s0)
ffffffc050403c7e:	fe043703          	ld	a4,-32(s0)
ffffffc050403c82:	e398                	sd	a4,0(a5)
ffffffc050403c84:	0001                	nop
ffffffc050403c86:	6462                	ld	s0,24(sp)
ffffffc050403c88:	6105                	addi	sp,sp,32
ffffffc050403c8a:	8082                	ret

ffffffc050403c8c <list_del>:
ffffffc050403c8c:	1101                	addi	sp,sp,-32
ffffffc050403c8e:	ec06                	sd	ra,24(sp)
ffffffc050403c90:	e822                	sd	s0,16(sp)
ffffffc050403c92:	1000                	addi	s0,sp,32
ffffffc050403c94:	fea43423          	sd	a0,-24(s0)
ffffffc050403c98:	fe843783          	ld	a5,-24(s0)
ffffffc050403c9c:	679c                	ld	a5,8(a5)
ffffffc050403c9e:	c79d                	beqz	a5,ffffffc050403ccc <list_del+0x40>
ffffffc050403ca0:	fe843783          	ld	a5,-24(s0)
ffffffc050403ca4:	639c                	ld	a5,0(a5)
ffffffc050403ca6:	c39d                	beqz	a5,ffffffc050403ccc <list_del+0x40>
ffffffc050403ca8:	fe843783          	ld	a5,-24(s0)
ffffffc050403cac:	6798                	ld	a4,8(a5)
ffffffc050403cae:	fe843783          	ld	a5,-24(s0)
ffffffc050403cb2:	639c                	ld	a5,0(a5)
ffffffc050403cb4:	85be                	mv	a1,a5
ffffffc050403cb6:	853a                	mv	a0,a4
ffffffc050403cb8:	fabff0ef          	jal	ra,ffffffc050403c62 <_list_del>
ffffffc050403cbc:	fe843783          	ld	a5,-24(s0)
ffffffc050403cc0:	0007b423          	sd	zero,8(a5)
ffffffc050403cc4:	fe843783          	ld	a5,-24(s0)
ffffffc050403cc8:	0007b023          	sd	zero,0(a5)
ffffffc050403ccc:	0001                	nop
ffffffc050403cce:	60e2                	ld	ra,24(sp)
ffffffc050403cd0:	6442                	ld	s0,16(sp)
ffffffc050403cd2:	6105                	addi	sp,sp,32
ffffffc050403cd4:	8082                	ret

ffffffc050403cd6 <list_add_tail>:
ffffffc050403cd6:	1101                	addi	sp,sp,-32
ffffffc050403cd8:	ec06                	sd	ra,24(sp)
ffffffc050403cda:	e822                	sd	s0,16(sp)
ffffffc050403cdc:	1000                	addi	s0,sp,32
ffffffc050403cde:	fea43423          	sd	a0,-24(s0)
ffffffc050403ce2:	feb43023          	sd	a1,-32(s0)
ffffffc050403ce6:	fe043783          	ld	a5,-32(s0)
ffffffc050403cea:	679c                	ld	a5,8(a5)
ffffffc050403cec:	fe043603          	ld	a2,-32(s0)
ffffffc050403cf0:	85be                	mv	a1,a5
ffffffc050403cf2:	fe843503          	ld	a0,-24(s0)
ffffffc050403cf6:	f2bff0ef          	jal	ra,ffffffc050403c20 <_list_add>
ffffffc050403cfa:	0001                	nop
ffffffc050403cfc:	60e2                	ld	ra,24(sp)
ffffffc050403cfe:	6442                	ld	s0,16(sp)
ffffffc050403d00:	6105                	addi	sp,sp,32
ffffffc050403d02:	8082                	ret

ffffffc050403d04 <list_empty>:
ffffffc050403d04:	1101                	addi	sp,sp,-32
ffffffc050403d06:	ec22                	sd	s0,24(sp)
ffffffc050403d08:	1000                	addi	s0,sp,32
ffffffc050403d0a:	fea43423          	sd	a0,-24(s0)
ffffffc050403d0e:	fe843783          	ld	a5,-24(s0)
ffffffc050403d12:	639c                	ld	a5,0(a5)
ffffffc050403d14:	fe843703          	ld	a4,-24(s0)
ffffffc050403d18:	40f707b3          	sub	a5,a4,a5
ffffffc050403d1c:	0017b793          	seqz	a5,a5
ffffffc050403d20:	0ff7f793          	andi	a5,a5,255
ffffffc050403d24:	2781                	sext.w	a5,a5
ffffffc050403d26:	853e                	mv	a0,a5
ffffffc050403d28:	6462                	ld	s0,24(sp)
ffffffc050403d2a:	6105                	addi	sp,sp,32
ffffffc050403d2c:	8082                	ret

ffffffc050403d2e <local_flush_tlb_all>:
ffffffc050403d2e:	1141                	addi	sp,sp,-16
ffffffc050403d30:	e422                	sd	s0,8(sp)
ffffffc050403d32:	0800                	addi	s0,sp,16
ffffffc050403d34:	12000073          	sfence.vma
ffffffc050403d38:	0001                	nop
ffffffc050403d3a:	6422                	ld	s0,8(sp)
ffffffc050403d3c:	0141                	addi	sp,sp,16
ffffffc050403d3e:	8082                	ret

ffffffc050403d40 <set_satp>:
ffffffc050403d40:	7179                	addi	sp,sp,-48
ffffffc050403d42:	f422                	sd	s0,40(sp)
ffffffc050403d44:	1800                	addi	s0,sp,48
ffffffc050403d46:	87aa                	mv	a5,a0
ffffffc050403d48:	872e                	mv	a4,a1
ffffffc050403d4a:	fcc43823          	sd	a2,-48(s0)
ffffffc050403d4e:	fcf42e23          	sw	a5,-36(s0)
ffffffc050403d52:	87ba                	mv	a5,a4
ffffffc050403d54:	fcf42c23          	sw	a5,-40(s0)
ffffffc050403d58:	fdc46783          	lwu	a5,-36(s0)
ffffffc050403d5c:	03c79713          	slli	a4,a5,0x3c
ffffffc050403d60:	fd846783          	lwu	a5,-40(s0)
ffffffc050403d64:	17b2                	slli	a5,a5,0x2c
ffffffc050403d66:	8fd9                	or	a5,a5,a4
ffffffc050403d68:	fd043703          	ld	a4,-48(s0)
ffffffc050403d6c:	8fd9                	or	a5,a5,a4
ffffffc050403d6e:	fef43423          	sd	a5,-24(s0)
ffffffc050403d72:	fe843783          	ld	a5,-24(s0)
ffffffc050403d76:	12000073          	sfence.vma
ffffffc050403d7a:	18079073          	csrw	satp,a5
ffffffc050403d7e:	0001                	nop
ffffffc050403d80:	7422                	ld	s0,40(sp)
ffffffc050403d82:	6145                	addi	sp,sp,48
ffffffc050403d84:	8082                	ret

ffffffc050403d86 <score>:
ffffffc050403d86:	7179                	addi	sp,sp,-48
ffffffc050403d88:	f406                	sd	ra,40(sp)
ffffffc050403d8a:	f022                	sd	s0,32(sp)
ffffffc050403d8c:	ec26                	sd	s1,24(sp)
ffffffc050403d8e:	1800                	addi	s0,sp,48
ffffffc050403d90:	87aa                	mv	a5,a0
ffffffc050403d92:	fcb43823          	sd	a1,-48(s0)
ffffffc050403d96:	fcf42e23          	sw	a5,-36(s0)
ffffffc050403d9a:	fdc42783          	lw	a5,-36(s0)
ffffffc050403d9e:	17c2                	slli	a5,a5,0x30
ffffffc050403da0:	93c1                	srli	a5,a5,0x30
ffffffc050403da2:	873e                	mv	a4,a5
ffffffc050403da4:	87ba                	mv	a5,a4
ffffffc050403da6:	0027979b          	slliw	a5,a5,0x2
ffffffc050403daa:	9fb9                	addw	a5,a5,a4
ffffffc050403dac:	03079493          	slli	s1,a5,0x30
ffffffc050403db0:	90c1                	srli	s1,s1,0x30
ffffffc050403db2:	64b000ef          	jal	ra,ffffffc050404bfc <get_ticks>
ffffffc050403db6:	872a                	mv	a4,a0
ffffffc050403db8:	fd043783          	ld	a5,-48(s0)
ffffffc050403dbc:	8f1d                	sub	a4,a4,a5
ffffffc050403dbe:	000257b7          	lui	a5,0x25
ffffffc050403dc2:	9f078793          	addi	a5,a5,-1552 # 249f0 <_start-0xffffffc0503db610>
ffffffc050403dc6:	02f757b3          	divu	a5,a4,a5
ffffffc050403dca:	17c2                	slli	a5,a5,0x30
ffffffc050403dcc:	93c1                	srli	a5,a5,0x30
ffffffc050403dce:	9fa5                	addw	a5,a5,s1
ffffffc050403dd0:	17c2                	slli	a5,a5,0x30
ffffffc050403dd2:	93c1                	srli	a5,a5,0x30
ffffffc050403dd4:	853e                	mv	a0,a5
ffffffc050403dd6:	70a2                	ld	ra,40(sp)
ffffffc050403dd8:	7402                	ld	s0,32(sp)
ffffffc050403dda:	64e2                	ld	s1,24(sp)
ffffffc050403ddc:	6145                	addi	sp,sp,48
ffffffc050403dde:	8082                	ret

ffffffc050403de0 <findnext>:
ffffffc050403de0:	715d                	addi	sp,sp,-80
ffffffc050403de2:	e486                	sd	ra,72(sp)
ffffffc050403de4:	e0a2                	sd	s0,64(sp)
ffffffc050403de6:	0880                	addi	s0,sp,80
ffffffc050403de8:	faa43c23          	sd	a0,-72(s0)
ffffffc050403dec:	fe043423          	sd	zero,-24(s0)
ffffffc050403df0:	fb843783          	ld	a5,-72(s0)
ffffffc050403df4:	639c                	ld	a5,0(a5)
ffffffc050403df6:	fef43023          	sd	a5,-32(s0)
ffffffc050403dfa:	fe043783          	ld	a5,-32(s0)
ffffffc050403dfe:	fcf43823          	sd	a5,-48(s0)
ffffffc050403e02:	fd043783          	ld	a5,-48(s0)
ffffffc050403e06:	17a1                	addi	a5,a5,-24
ffffffc050403e08:	fcf43423          	sd	a5,-56(s0)
ffffffc050403e0c:	fc843783          	ld	a5,-56(s0)
ffffffc050403e10:	fef43423          	sd	a5,-24(s0)
ffffffc050403e14:	fc040fa3          	sb	zero,-33(s0)
ffffffc050403e18:	a0a5                	j	ffffffc050403e80 <findnext+0xa0>
ffffffc050403e1a:	fe043783          	ld	a5,-32(s0)
ffffffc050403e1e:	fcf43023          	sd	a5,-64(s0)
ffffffc050403e22:	fc043783          	ld	a5,-64(s0)
ffffffc050403e26:	17a1                	addi	a5,a5,-24
ffffffc050403e28:	fcf43423          	sd	a5,-56(s0)
ffffffc050403e2c:	fc843783          	ld	a5,-56(s0)
ffffffc050403e30:	4fb8                	lw	a4,88(a5)
ffffffc050403e32:	fc843783          	ld	a5,-56(s0)
ffffffc050403e36:	73bc                	ld	a5,96(a5)
ffffffc050403e38:	85be                	mv	a1,a5
ffffffc050403e3a:	853a                	mv	a0,a4
ffffffc050403e3c:	f4bff0ef          	jal	ra,ffffffc050403d86 <score>
ffffffc050403e40:	87aa                	mv	a5,a0
ffffffc050403e42:	873e                	mv	a4,a5
ffffffc050403e44:	fdf44783          	lbu	a5,-33(s0)
ffffffc050403e48:	17c2                	slli	a5,a5,0x30
ffffffc050403e4a:	93c1                	srli	a5,a5,0x30
ffffffc050403e4c:	2701                	sext.w	a4,a4
ffffffc050403e4e:	2781                	sext.w	a5,a5
ffffffc050403e50:	02e7f363          	bgeu	a5,a4,ffffffc050403e76 <findnext+0x96>
ffffffc050403e54:	fc843783          	ld	a5,-56(s0)
ffffffc050403e58:	fef43423          	sd	a5,-24(s0)
ffffffc050403e5c:	fc843783          	ld	a5,-56(s0)
ffffffc050403e60:	4fb8                	lw	a4,88(a5)
ffffffc050403e62:	fc843783          	ld	a5,-56(s0)
ffffffc050403e66:	73bc                	ld	a5,96(a5)
ffffffc050403e68:	85be                	mv	a1,a5
ffffffc050403e6a:	853a                	mv	a0,a4
ffffffc050403e6c:	f1bff0ef          	jal	ra,ffffffc050403d86 <score>
ffffffc050403e70:	87aa                	mv	a5,a0
ffffffc050403e72:	fcf40fa3          	sb	a5,-33(s0)
ffffffc050403e76:	fe043783          	ld	a5,-32(s0)
ffffffc050403e7a:	639c                	ld	a5,0(a5)
ffffffc050403e7c:	fef43023          	sd	a5,-32(s0)
ffffffc050403e80:	fe043703          	ld	a4,-32(s0)
ffffffc050403e84:	fb843783          	ld	a5,-72(s0)
ffffffc050403e88:	f8f719e3          	bne	a4,a5,ffffffc050403e1a <findnext+0x3a>
ffffffc050403e8c:	fe843783          	ld	a5,-24(s0)
ffffffc050403e90:	853e                	mv	a0,a5
ffffffc050403e92:	60a6                	ld	ra,72(sp)
ffffffc050403e94:	6406                	ld	s0,64(sp)
ffffffc050403e96:	6161                	addi	sp,sp,80
ffffffc050403e98:	8082                	ret

ffffffc050403e9a <findnext_core>:
ffffffc050403e9a:	7139                	addi	sp,sp,-64
ffffffc050403e9c:	fc06                	sd	ra,56(sp)
ffffffc050403e9e:	f822                	sd	s0,48(sp)
ffffffc050403ea0:	0080                	addi	s0,sp,64
ffffffc050403ea2:	00003797          	auipc	a5,0x3
ffffffc050403ea6:	d7678793          	addi	a5,a5,-650 # ffffffc050406c18 <ready_queue>
ffffffc050403eaa:	639c                	ld	a5,0(a5)
ffffffc050403eac:	fef43423          	sd	a5,-24(s0)
ffffffc050403eb0:	478d                	li	a5,3
ffffffc050403eb2:	fef403a3          	sb	a5,-25(s0)
ffffffc050403eb6:	c12fc0ef          	jal	ra,ffffffc0504002c8 <get_current_cpu_id>
ffffffc050403eba:	87aa                	mv	a5,a0
ffffffc050403ebc:	fef42023          	sw	a5,-32(s0)
ffffffc050403ec0:	a869                	j	ffffffc050403f5a <findnext_core+0xc0>
ffffffc050403ec2:	fe843783          	ld	a5,-24(s0)
ffffffc050403ec6:	fcf43c23          	sd	a5,-40(s0)
ffffffc050403eca:	fd843783          	ld	a5,-40(s0)
ffffffc050403ece:	17a1                	addi	a5,a5,-24
ffffffc050403ed0:	fcf43823          	sd	a5,-48(s0)
ffffffc050403ed4:	fd043783          	ld	a5,-48(s0)
ffffffc050403ed8:	0b07c703          	lbu	a4,176(a5)
ffffffc050403edc:	fe744783          	lbu	a5,-25(s0)
ffffffc050403ee0:	8ff9                	and	a5,a5,a4
ffffffc050403ee2:	fcf407a3          	sb	a5,-49(s0)
ffffffc050403ee6:	fe042783          	lw	a5,-32(s0)
ffffffc050403eea:	2781                	sext.w	a5,a5
ffffffc050403eec:	e795                	bnez	a5,ffffffc050403f18 <findnext_core+0x7e>
ffffffc050403eee:	fcf44783          	lbu	a5,-49(s0)
ffffffc050403ef2:	0ff7f713          	andi	a4,a5,255
ffffffc050403ef6:	4785                	li	a5,1
ffffffc050403ef8:	00f70963          	beq	a4,a5,ffffffc050403f0a <findnext_core+0x70>
ffffffc050403efc:	fcf44783          	lbu	a5,-49(s0)
ffffffc050403f00:	0ff7f713          	andi	a4,a5,255
ffffffc050403f04:	478d                	li	a5,3
ffffffc050403f06:	00f71963          	bne	a4,a5,ffffffc050403f18 <findnext_core+0x7e>
ffffffc050403f0a:	fe843503          	ld	a0,-24(s0)
ffffffc050403f0e:	d7fff0ef          	jal	ra,ffffffc050403c8c <list_del>
ffffffc050403f12:	fd043783          	ld	a5,-48(s0)
ffffffc050403f16:	a899                	j	ffffffc050403f6c <findnext_core+0xd2>
ffffffc050403f18:	fe042783          	lw	a5,-32(s0)
ffffffc050403f1c:	0007871b          	sext.w	a4,a5
ffffffc050403f20:	4785                	li	a5,1
ffffffc050403f22:	02f71763          	bne	a4,a5,ffffffc050403f50 <findnext_core+0xb6>
ffffffc050403f26:	fcf44783          	lbu	a5,-49(s0)
ffffffc050403f2a:	0ff7f713          	andi	a4,a5,255
ffffffc050403f2e:	4789                	li	a5,2
ffffffc050403f30:	00f70963          	beq	a4,a5,ffffffc050403f42 <findnext_core+0xa8>
ffffffc050403f34:	fcf44783          	lbu	a5,-49(s0)
ffffffc050403f38:	0ff7f713          	andi	a4,a5,255
ffffffc050403f3c:	478d                	li	a5,3
ffffffc050403f3e:	00f71963          	bne	a4,a5,ffffffc050403f50 <findnext_core+0xb6>
ffffffc050403f42:	fe843503          	ld	a0,-24(s0)
ffffffc050403f46:	d47ff0ef          	jal	ra,ffffffc050403c8c <list_del>
ffffffc050403f4a:	fd043783          	ld	a5,-48(s0)
ffffffc050403f4e:	a839                	j	ffffffc050403f6c <findnext_core+0xd2>
ffffffc050403f50:	fe843783          	ld	a5,-24(s0)
ffffffc050403f54:	639c                	ld	a5,0(a5)
ffffffc050403f56:	fef43423          	sd	a5,-24(s0)
ffffffc050403f5a:	fe843703          	ld	a4,-24(s0)
ffffffc050403f5e:	00003797          	auipc	a5,0x3
ffffffc050403f62:	cba78793          	addi	a5,a5,-838 # ffffffc050406c18 <ready_queue>
ffffffc050403f66:	f4f71ee3          	bne	a4,a5,ffffffc050403ec2 <findnext_core+0x28>
ffffffc050403f6a:	4781                	li	a5,0
ffffffc050403f6c:	853e                	mv	a0,a5
ffffffc050403f6e:	70e2                	ld	ra,56(sp)
ffffffc050403f70:	7442                	ld	s0,48(sp)
ffffffc050403f72:	6121                	addi	sp,sp,64
ffffffc050403f74:	8082                	ret

ffffffc050403f76 <free_all_page>:
ffffffc050403f76:	7139                	addi	sp,sp,-64
ffffffc050403f78:	fc06                	sd	ra,56(sp)
ffffffc050403f7a:	f822                	sd	s0,48(sp)
ffffffc050403f7c:	0080                	addi	s0,sp,64
ffffffc050403f7e:	87aa                	mv	a5,a0
ffffffc050403f80:	fcf42623          	sw	a5,-52(s0)
ffffffc050403f84:	fcc42783          	lw	a5,-52(s0)
ffffffc050403f88:	37fd                	addiw	a5,a5,-1
ffffffc050403f8a:	0007871b          	sext.w	a4,a5
ffffffc050403f8e:	0d800793          	li	a5,216
ffffffc050403f92:	02f707b3          	mul	a5,a4,a5
ffffffc050403f96:	0c078713          	addi	a4,a5,192
ffffffc050403f9a:	00044797          	auipc	a5,0x44
ffffffc050403f9e:	a3678793          	addi	a5,a5,-1482 # ffffffc0504479d0 <pcb>
ffffffc050403fa2:	97ba                	add	a5,a5,a4
ffffffc050403fa4:	fef43423          	sd	a5,-24(s0)
ffffffc050403fa8:	a03d                	j	ffffffc050403fd6 <free_all_page+0x60>
ffffffc050403faa:	fe843783          	ld	a5,-24(s0)
ffffffc050403fae:	639c                	ld	a5,0(a5)
ffffffc050403fb0:	fef43023          	sd	a5,-32(s0)
ffffffc050403fb4:	fe043783          	ld	a5,-32(s0)
ffffffc050403fb8:	1781                	addi	a5,a5,-32
ffffffc050403fba:	fcf43c23          	sd	a5,-40(s0)
ffffffc050403fbe:	fd843783          	ld	a5,-40(s0)
ffffffc050403fc2:	639c                	ld	a5,0(a5)
ffffffc050403fc4:	853e                	mv	a0,a5
ffffffc050403fc6:	6af000ef          	jal	ra,ffffffc050404e74 <freePage>
ffffffc050403fca:	fe843783          	ld	a5,-24(s0)
ffffffc050403fce:	639c                	ld	a5,0(a5)
ffffffc050403fd0:	853e                	mv	a0,a5
ffffffc050403fd2:	cbbff0ef          	jal	ra,ffffffc050403c8c <list_del>
ffffffc050403fd6:	fe843503          	ld	a0,-24(s0)
ffffffc050403fda:	d2bff0ef          	jal	ra,ffffffc050403d04 <list_empty>
ffffffc050403fde:	87aa                	mv	a5,a0
ffffffc050403fe0:	d7e9                	beqz	a5,ffffffc050403faa <free_all_page+0x34>
ffffffc050403fe2:	0001                	nop
ffffffc050403fe4:	0001                	nop
ffffffc050403fe6:	70e2                	ld	ra,56(sp)
ffffffc050403fe8:	7442                	ld	s0,48(sp)
ffffffc050403fea:	6121                	addi	sp,sp,64
ffffffc050403fec:	8082                	ret

ffffffc050403fee <do_scheduler>:
ffffffc050403fee:	7179                	addi	sp,sp,-48
ffffffc050403ff0:	f406                	sd	ra,40(sp)
ffffffc050403ff2:	f022                	sd	s0,32(sp)
ffffffc050403ff4:	ec26                	sd	s1,24(sp)
ffffffc050403ff6:	1800                	addi	s0,sp,48
ffffffc050403ff8:	ad0fc0ef          	jal	ra,ffffffc0504002c8 <get_current_cpu_id>
ffffffc050403ffc:	87aa                	mv	a5,a0
ffffffc050403ffe:	e791                	bnez	a5,ffffffc05040400a <do_scheduler+0x1c>
ffffffc050404000:	00042797          	auipc	a5,0x42
ffffffc050404004:	21078793          	addi	a5,a5,528 # ffffffc050446210 <current_running_core0>
ffffffc050404008:	a029                	j	ffffffc050404012 <do_scheduler+0x24>
ffffffc05040400a:	00042797          	auipc	a5,0x42
ffffffc05040400e:	1fe78793          	addi	a5,a5,510 # ffffffc050446208 <current_running_core1>
ffffffc050404012:	00044717          	auipc	a4,0x44
ffffffc050404016:	9b670713          	addi	a4,a4,-1610 # ffffffc0504479c8 <current_running>
ffffffc05040401a:	e31c                	sd	a5,0(a4)
ffffffc05040401c:	e7fff0ef          	jal	ra,ffffffc050403e9a <findnext_core>
ffffffc050404020:	fca43c23          	sd	a0,-40(s0)
ffffffc050404024:	fd843783          	ld	a5,-40(s0)
ffffffc050404028:	e3dd                	bnez	a5,ffffffc0504040ce <do_scheduler+0xe0>
ffffffc05040402a:	00044797          	auipc	a5,0x44
ffffffc05040402e:	99e78793          	addi	a5,a5,-1634 # ffffffc0504479c8 <current_running>
ffffffc050404032:	639c                	ld	a5,0(a5)
ffffffc050404034:	639c                	ld	a5,0(a5)
ffffffc050404036:	5b9c                	lw	a5,48(a5)
ffffffc050404038:	873e                	mv	a4,a5
ffffffc05040403a:	4785                	li	a5,1
ffffffc05040403c:	06f71a63          	bne	a4,a5,ffffffc0504040b0 <do_scheduler+0xc2>
ffffffc050404040:	a88fc0ef          	jal	ra,ffffffc0504002c8 <get_current_cpu_id>
ffffffc050404044:	87aa                	mv	a5,a0
ffffffc050404046:	ef89                	bnez	a5,ffffffc050404060 <do_scheduler+0x72>
ffffffc050404048:	00044797          	auipc	a5,0x44
ffffffc05040404c:	98078793          	addi	a5,a5,-1664 # ffffffc0504479c8 <current_running>
ffffffc050404050:	639c                	ld	a5,0(a5)
ffffffc050404052:	639c                	ld	a5,0(a5)
ffffffc050404054:	0b07c783          	lbu	a5,176(a5)
ffffffc050404058:	873e                	mv	a4,a5
ffffffc05040405a:	4785                	li	a5,1
ffffffc05040405c:	04f70163          	beq	a4,a5,ffffffc05040409e <do_scheduler+0xb0>
ffffffc050404060:	a68fc0ef          	jal	ra,ffffffc0504002c8 <get_current_cpu_id>
ffffffc050404064:	87aa                	mv	a5,a0
ffffffc050404066:	873e                	mv	a4,a5
ffffffc050404068:	4785                	li	a5,1
ffffffc05040406a:	00f71e63          	bne	a4,a5,ffffffc050404086 <do_scheduler+0x98>
ffffffc05040406e:	00044797          	auipc	a5,0x44
ffffffc050404072:	95a78793          	addi	a5,a5,-1702 # ffffffc0504479c8 <current_running>
ffffffc050404076:	639c                	ld	a5,0(a5)
ffffffc050404078:	639c                	ld	a5,0(a5)
ffffffc05040407a:	0b07c783          	lbu	a5,176(a5)
ffffffc05040407e:	873e                	mv	a4,a5
ffffffc050404080:	4789                	li	a5,2
ffffffc050404082:	00f70e63          	beq	a4,a5,ffffffc05040409e <do_scheduler+0xb0>
ffffffc050404086:	00044797          	auipc	a5,0x44
ffffffc05040408a:	94278793          	addi	a5,a5,-1726 # ffffffc0504479c8 <current_running>
ffffffc05040408e:	639c                	ld	a5,0(a5)
ffffffc050404090:	639c                	ld	a5,0(a5)
ffffffc050404092:	0b07c783          	lbu	a5,176(a5)
ffffffc050404096:	873e                	mv	a4,a5
ffffffc050404098:	478d                	li	a5,3
ffffffc05040409a:	00f71b63          	bne	a4,a5,ffffffc0504040b0 <do_scheduler+0xc2>
ffffffc05040409e:	00044797          	auipc	a5,0x44
ffffffc0504040a2:	92a78793          	addi	a5,a5,-1750 # ffffffc0504479c8 <current_running>
ffffffc0504040a6:	639c                	ld	a5,0(a5)
ffffffc0504040a8:	639c                	ld	a5,0(a5)
ffffffc0504040aa:	fcf43c23          	sd	a5,-40(s0)
ffffffc0504040ae:	a005                	j	ffffffc0504040ce <do_scheduler+0xe0>
ffffffc0504040b0:	a18fc0ef          	jal	ra,ffffffc0504002c8 <get_current_cpu_id>
ffffffc0504040b4:	87aa                	mv	a5,a0
ffffffc0504040b6:	e791                	bnez	a5,ffffffc0504040c2 <do_scheduler+0xd4>
ffffffc0504040b8:	00003797          	auipc	a5,0x3
ffffffc0504040bc:	9b078793          	addi	a5,a5,-1616 # ffffffc050406a68 <pid0_pcb_core0>
ffffffc0504040c0:	a029                	j	ffffffc0504040ca <do_scheduler+0xdc>
ffffffc0504040c2:	00003797          	auipc	a5,0x3
ffffffc0504040c6:	a7e78793          	addi	a5,a5,-1410 # ffffffc050406b40 <pid0_pcb_core1>
ffffffc0504040ca:	fcf43c23          	sd	a5,-40(s0)
ffffffc0504040ce:	00044797          	auipc	a5,0x44
ffffffc0504040d2:	8fa78793          	addi	a5,a5,-1798 # ffffffc0504479c8 <current_running>
ffffffc0504040d6:	639c                	ld	a5,0(a5)
ffffffc0504040d8:	639c                	ld	a5,0(a5)
ffffffc0504040da:	fcf43823          	sd	a5,-48(s0)
ffffffc0504040de:	00044797          	auipc	a5,0x44
ffffffc0504040e2:	8ea78793          	addi	a5,a5,-1814 # ffffffc0504479c8 <current_running>
ffffffc0504040e6:	639c                	ld	a5,0(a5)
ffffffc0504040e8:	639c                	ld	a5,0(a5)
ffffffc0504040ea:	5b9c                	lw	a5,48(a5)
ffffffc0504040ec:	873e                	mv	a4,a5
ffffffc0504040ee:	4785                	li	a5,1
ffffffc0504040f0:	04f71963          	bne	a4,a5,ffffffc050404142 <do_scheduler+0x154>
ffffffc0504040f4:	00044797          	auipc	a5,0x44
ffffffc0504040f8:	8d478793          	addi	a5,a5,-1836 # ffffffc0504479c8 <current_running>
ffffffc0504040fc:	639c                	ld	a5,0(a5)
ffffffc0504040fe:	639c                	ld	a5,0(a5)
ffffffc050404100:	579c                	lw	a5,40(a5)
ffffffc050404102:	c3a1                	beqz	a5,ffffffc050404142 <do_scheduler+0x154>
ffffffc050404104:	00044797          	auipc	a5,0x44
ffffffc050404108:	8c478793          	addi	a5,a5,-1852 # ffffffc0504479c8 <current_running>
ffffffc05040410c:	639c                	ld	a5,0(a5)
ffffffc05040410e:	639c                	ld	a5,0(a5)
ffffffc050404110:	fd843703          	ld	a4,-40(s0)
ffffffc050404114:	02f70763          	beq	a4,a5,ffffffc050404142 <do_scheduler+0x154>
ffffffc050404118:	00044797          	auipc	a5,0x44
ffffffc05040411c:	8b078793          	addi	a5,a5,-1872 # ffffffc0504479c8 <current_running>
ffffffc050404120:	639c                	ld	a5,0(a5)
ffffffc050404122:	639c                	ld	a5,0(a5)
ffffffc050404124:	85be                	mv	a1,a5
ffffffc050404126:	00003517          	auipc	a0,0x3
ffffffc05040412a:	af250513          	addi	a0,a0,-1294 # ffffffc050406c18 <ready_queue>
ffffffc05040412e:	64c000ef          	jal	ra,ffffffc05040477a <enqueue>
ffffffc050404132:	00044797          	auipc	a5,0x44
ffffffc050404136:	89678793          	addi	a5,a5,-1898 # ffffffc0504479c8 <current_running>
ffffffc05040413a:	639c                	ld	a5,0(a5)
ffffffc05040413c:	639c                	ld	a5,0(a5)
ffffffc05040413e:	4709                	li	a4,2
ffffffc050404140:	db98                	sw	a4,48(a5)
ffffffc050404142:	fd843783          	ld	a5,-40(s0)
ffffffc050404146:	4705                	li	a4,1
ffffffc050404148:	db98                	sw	a4,48(a5)
ffffffc05040414a:	00044797          	auipc	a5,0x44
ffffffc05040414e:	87e78793          	addi	a5,a5,-1922 # ffffffc0504479c8 <current_running>
ffffffc050404152:	639c                	ld	a5,0(a5)
ffffffc050404154:	6384                	ld	s1,0(a5)
ffffffc050404156:	2a7000ef          	jal	ra,ffffffc050404bfc <get_ticks>
ffffffc05040415a:	87aa                	mv	a5,a0
ffffffc05040415c:	f0bc                	sd	a5,96(s1)
ffffffc05040415e:	00044797          	auipc	a5,0x44
ffffffc050404162:	86a78793          	addi	a5,a5,-1942 # ffffffc0504479c8 <current_running>
ffffffc050404166:	639c                	ld	a5,0(a5)
ffffffc050404168:	fd843703          	ld	a4,-40(s0)
ffffffc05040416c:	e398                	sd	a4,0(a5)
ffffffc05040416e:	00044797          	auipc	a5,0x44
ffffffc050404172:	85a78793          	addi	a5,a5,-1958 # ffffffc0504479c8 <current_running>
ffffffc050404176:	639c                	ld	a5,0(a5)
ffffffc050404178:	639c                	ld	a5,0(a5)
ffffffc05040417a:	5798                	lw	a4,40(a5)
ffffffc05040417c:	81418793          	addi	a5,gp,-2028 # ffffffc0504441fc <process_id>
ffffffc050404180:	c398                	sw	a4,0(a5)
ffffffc050404182:	fd843783          	ld	a5,-40(s0)
ffffffc050404186:	7fdc                	ld	a5,184(a5)
ffffffc050404188:	83b1                	srli	a5,a5,0xc
ffffffc05040418a:	863e                	mv	a2,a5
ffffffc05040418c:	4585                	li	a1,1
ffffffc05040418e:	4521                	li	a0,8
ffffffc050404190:	bb1ff0ef          	jal	ra,ffffffc050403d40 <set_satp>
ffffffc050404194:	b9bff0ef          	jal	ra,ffffffc050403d2e <local_flush_tlb_all>
ffffffc050404198:	fd843583          	ld	a1,-40(s0)
ffffffc05040419c:	fd043503          	ld	a0,-48(s0)
ffffffc0504041a0:	f4dfb0ef          	jal	ra,ffffffc0504000ec <switch_to>
ffffffc0504041a4:	0001                	nop
ffffffc0504041a6:	70a2                	ld	ra,40(sp)
ffffffc0504041a8:	7402                	ld	s0,32(sp)
ffffffc0504041aa:	64e2                	ld	s1,24(sp)
ffffffc0504041ac:	6145                	addi	sp,sp,48
ffffffc0504041ae:	8082                	ret

ffffffc0504041b0 <do_kill>:
ffffffc0504041b0:	1101                	addi	sp,sp,-32
ffffffc0504041b2:	ec06                	sd	ra,24(sp)
ffffffc0504041b4:	e822                	sd	s0,16(sp)
ffffffc0504041b6:	1000                	addi	s0,sp,32
ffffffc0504041b8:	87aa                	mv	a5,a0
ffffffc0504041ba:	fef42623          	sw	a5,-20(s0)
ffffffc0504041be:	fec42783          	lw	a5,-20(s0)
ffffffc0504041c2:	0007871b          	sext.w	a4,a5
ffffffc0504041c6:	4785                	li	a5,1
ffffffc0504041c8:	00f71a63          	bne	a4,a5,ffffffc0504041dc <do_kill+0x2c>
ffffffc0504041cc:	00002517          	auipc	a0,0x2
ffffffc0504041d0:	74c50513          	addi	a0,a0,1868 # ffffffc050406918 <__FUNCTION__.1379+0x20>
ffffffc0504041d4:	15a020ef          	jal	ra,ffffffc05040632e <prints>
ffffffc0504041d8:	4781                	li	a5,0
ffffffc0504041da:	a8f9                	j	ffffffc0504042b8 <do_kill+0x108>
ffffffc0504041dc:	fec42783          	lw	a5,-20(s0)
ffffffc0504041e0:	37fd                	addiw	a5,a5,-1
ffffffc0504041e2:	0007869b          	sext.w	a3,a5
ffffffc0504041e6:	00043717          	auipc	a4,0x43
ffffffc0504041ea:	7ea70713          	addi	a4,a4,2026 # ffffffc0504479d0 <pcb>
ffffffc0504041ee:	0d800793          	li	a5,216
ffffffc0504041f2:	02f687b3          	mul	a5,a3,a5
ffffffc0504041f6:	97ba                	add	a5,a5,a4
ffffffc0504041f8:	579c                	lw	a5,40(a5)
ffffffc0504041fa:	e399                	bnez	a5,ffffffc050404200 <do_kill+0x50>
ffffffc0504041fc:	4781                	li	a5,0
ffffffc0504041fe:	a86d                	j	ffffffc0504042b8 <do_kill+0x108>
ffffffc050404200:	fec42783          	lw	a5,-20(s0)
ffffffc050404204:	37fd                	addiw	a5,a5,-1
ffffffc050404206:	0007869b          	sext.w	a3,a5
ffffffc05040420a:	00043717          	auipc	a4,0x43
ffffffc05040420e:	7c670713          	addi	a4,a4,1990 # ffffffc0504479d0 <pcb>
ffffffc050404212:	0d800793          	li	a5,216
ffffffc050404216:	02f687b3          	mul	a5,a3,a5
ffffffc05040421a:	97ba                	add	a5,a5,a4
ffffffc05040421c:	470d                	li	a4,3
ffffffc05040421e:	db98                	sw	a4,48(a5)
ffffffc050404220:	fec42783          	lw	a5,-20(s0)
ffffffc050404224:	37fd                	addiw	a5,a5,-1
ffffffc050404226:	0007869b          	sext.w	a3,a5
ffffffc05040422a:	00043717          	auipc	a4,0x43
ffffffc05040422e:	7a670713          	addi	a4,a4,1958 # ffffffc0504479d0 <pcb>
ffffffc050404232:	0d800793          	li	a5,216
ffffffc050404236:	02f687b3          	mul	a5,a3,a5
ffffffc05040423a:	97ba                	add	a5,a5,a4
ffffffc05040423c:	0207a423          	sw	zero,40(a5)
ffffffc050404240:	fec42783          	lw	a5,-20(s0)
ffffffc050404244:	37fd                	addiw	a5,a5,-1
ffffffc050404246:	0007871b          	sext.w	a4,a5
ffffffc05040424a:	0d800793          	li	a5,216
ffffffc05040424e:	02f707b3          	mul	a5,a4,a5
ffffffc050404252:	01078713          	addi	a4,a5,16
ffffffc050404256:	00043797          	auipc	a5,0x43
ffffffc05040425a:	77a78793          	addi	a5,a5,1914 # ffffffc0504479d0 <pcb>
ffffffc05040425e:	97ba                	add	a5,a5,a4
ffffffc050404260:	07a1                	addi	a5,a5,8
ffffffc050404262:	853e                	mv	a0,a5
ffffffc050404264:	a29ff0ef          	jal	ra,ffffffc050403c8c <list_del>
ffffffc050404268:	fec42783          	lw	a5,-20(s0)
ffffffc05040426c:	853e                	mv	a0,a5
ffffffc05040426e:	d09ff0ef          	jal	ra,ffffffc050403f76 <free_all_page>
ffffffc050404272:	fec42783          	lw	a5,-20(s0)
ffffffc050404276:	37fd                	addiw	a5,a5,-1
ffffffc050404278:	0007869b          	sext.w	a3,a5
ffffffc05040427c:	00043717          	auipc	a4,0x43
ffffffc050404280:	75470713          	addi	a4,a4,1876 # ffffffc0504479d0 <pcb>
ffffffc050404284:	0d800793          	li	a5,216
ffffffc050404288:	02f687b3          	mul	a5,a3,a5
ffffffc05040428c:	97ba                	add	a5,a5,a4
ffffffc05040428e:	5bdc                	lw	a5,52(a5)
ffffffc050404290:	e39d                	bnez	a5,ffffffc0504042b6 <do_kill+0x106>
ffffffc050404292:	fec42783          	lw	a5,-20(s0)
ffffffc050404296:	37fd                	addiw	a5,a5,-1
ffffffc050404298:	0007869b          	sext.w	a3,a5
ffffffc05040429c:	00043717          	auipc	a4,0x43
ffffffc0504042a0:	73470713          	addi	a4,a4,1844 # ffffffc0504479d0 <pcb>
ffffffc0504042a4:	0d800793          	li	a5,216
ffffffc0504042a8:	02f687b3          	mul	a5,a3,a5
ffffffc0504042ac:	97ba                	add	a5,a5,a4
ffffffc0504042ae:	57bc                	lw	a5,104(a5)
ffffffc0504042b0:	853e                	mv	a0,a5
ffffffc0504042b2:	582000ef          	jal	ra,ffffffc050404834 <zombie_check>
ffffffc0504042b6:	4785                	li	a5,1
ffffffc0504042b8:	853e                	mv	a0,a5
ffffffc0504042ba:	60e2                	ld	ra,24(sp)
ffffffc0504042bc:	6442                	ld	s0,16(sp)
ffffffc0504042be:	6105                	addi	sp,sp,32
ffffffc0504042c0:	8082                	ret

ffffffc0504042c2 <do_process_show>:
ffffffc0504042c2:	1101                	addi	sp,sp,-32
ffffffc0504042c4:	ec06                	sd	ra,24(sp)
ffffffc0504042c6:	e822                	sd	s0,16(sp)
ffffffc0504042c8:	1000                	addi	s0,sp,32
ffffffc0504042ca:	00002517          	auipc	a0,0x2
ffffffc0504042ce:	66650513          	addi	a0,a0,1638 # ffffffc050406930 <__FUNCTION__.1379+0x38>
ffffffc0504042d2:	05c020ef          	jal	ra,ffffffc05040632e <prints>
ffffffc0504042d6:	fe042623          	sw	zero,-20(s0)
ffffffc0504042da:	a691                	j	ffffffc05040461e <do_process_show+0x35c>
ffffffc0504042dc:	00043717          	auipc	a4,0x43
ffffffc0504042e0:	6f470713          	addi	a4,a4,1780 # ffffffc0504479d0 <pcb>
ffffffc0504042e4:	fec42683          	lw	a3,-20(s0)
ffffffc0504042e8:	0d800793          	li	a5,216
ffffffc0504042ec:	02f687b3          	mul	a5,a3,a5
ffffffc0504042f0:	97ba                	add	a5,a5,a4
ffffffc0504042f2:	579c                	lw	a5,40(a5)
ffffffc0504042f4:	30078d63          	beqz	a5,ffffffc05040460e <do_process_show+0x34c>
ffffffc0504042f8:	00043717          	auipc	a4,0x43
ffffffc0504042fc:	6d870713          	addi	a4,a4,1752 # ffffffc0504479d0 <pcb>
ffffffc050404300:	fec42683          	lw	a3,-20(s0)
ffffffc050404304:	0d800793          	li	a5,216
ffffffc050404308:	02f687b3          	mul	a5,a3,a5
ffffffc05040430c:	97ba                	add	a5,a5,a4
ffffffc05040430e:	5b9c                	lw	a5,48(a5)
ffffffc050404310:	86be                	mv	a3,a5
ffffffc050404312:	470d                	li	a4,3
ffffffc050404314:	26e68163          	beq	a3,a4,ffffffc050404576 <do_process_show+0x2b4>
ffffffc050404318:	86be                	mv	a3,a5
ffffffc05040431a:	470d                	li	a4,3
ffffffc05040431c:	2ed76c63          	bltu	a4,a3,ffffffc050404614 <do_process_show+0x352>
ffffffc050404320:	86be                	mv	a3,a5
ffffffc050404322:	4709                	li	a4,2
ffffffc050404324:	28e68f63          	beq	a3,a4,ffffffc0504045c2 <do_process_show+0x300>
ffffffc050404328:	86be                	mv	a3,a5
ffffffc05040432a:	4709                	li	a4,2
ffffffc05040432c:	2ed76463          	bltu	a4,a3,ffffffc050404614 <do_process_show+0x352>
ffffffc050404330:	1e078d63          	beqz	a5,ffffffc05040452a <do_process_show+0x268>
ffffffc050404334:	873e                	mv	a4,a5
ffffffc050404336:	4785                	li	a5,1
ffffffc050404338:	2cf71e63          	bne	a4,a5,ffffffc050404614 <do_process_show+0x352>
ffffffc05040433c:	00043797          	auipc	a5,0x43
ffffffc050404340:	68c78793          	addi	a5,a5,1676 # ffffffc0504479c8 <current_running>
ffffffc050404344:	639c                	ld	a5,0(a5)
ffffffc050404346:	6398                	ld	a4,0(a5)
ffffffc050404348:	fec42683          	lw	a3,-20(s0)
ffffffc05040434c:	0d800793          	li	a5,216
ffffffc050404350:	02f686b3          	mul	a3,a3,a5
ffffffc050404354:	00043797          	auipc	a5,0x43
ffffffc050404358:	67c78793          	addi	a5,a5,1660 # ffffffc0504479d0 <pcb>
ffffffc05040435c:	97b6                	add	a5,a5,a3
ffffffc05040435e:	04f71b63          	bne	a4,a5,ffffffc0504043b4 <do_process_show+0xf2>
ffffffc050404362:	f67fb0ef          	jal	ra,ffffffc0504002c8 <get_current_cpu_id>
ffffffc050404366:	87aa                	mv	a5,a0
ffffffc050404368:	e7b1                	bnez	a5,ffffffc0504043b4 <do_process_show+0xf2>
ffffffc05040436a:	00043717          	auipc	a4,0x43
ffffffc05040436e:	66670713          	addi	a4,a4,1638 # ffffffc0504479d0 <pcb>
ffffffc050404372:	fec42683          	lw	a3,-20(s0)
ffffffc050404376:	0d800793          	li	a5,216
ffffffc05040437a:	02f687b3          	mul	a5,a3,a5
ffffffc05040437e:	97ba                	add	a5,a5,a4
ffffffc050404380:	578c                	lw	a1,40(a5)
ffffffc050404382:	00043717          	auipc	a4,0x43
ffffffc050404386:	64e70713          	addi	a4,a4,1614 # ffffffc0504479d0 <pcb>
ffffffc05040438a:	fec42683          	lw	a3,-20(s0)
ffffffc05040438e:	0d800793          	li	a5,216
ffffffc050404392:	02f687b3          	mul	a5,a3,a5
ffffffc050404396:	97ba                	add	a5,a5,a4
ffffffc050404398:	0b07c783          	lbu	a5,176(a5)
ffffffc05040439c:	2781                	sext.w	a5,a5
ffffffc05040439e:	86be                	mv	a3,a5
ffffffc0504043a0:	00002617          	auipc	a2,0x2
ffffffc0504043a4:	5a860613          	addi	a2,a2,1448 # ffffffc050406948 <__FUNCTION__.1379+0x50>
ffffffc0504043a8:	00002517          	auipc	a0,0x2
ffffffc0504043ac:	5b850513          	addi	a0,a0,1464 # ffffffc050406960 <__FUNCTION__.1379+0x68>
ffffffc0504043b0:	77f010ef          	jal	ra,ffffffc05040632e <prints>
ffffffc0504043b4:	00043797          	auipc	a5,0x43
ffffffc0504043b8:	61478793          	addi	a5,a5,1556 # ffffffc0504479c8 <current_running>
ffffffc0504043bc:	639c                	ld	a5,0(a5)
ffffffc0504043be:	6398                	ld	a4,0(a5)
ffffffc0504043c0:	fec42683          	lw	a3,-20(s0)
ffffffc0504043c4:	0d800793          	li	a5,216
ffffffc0504043c8:	02f686b3          	mul	a3,a3,a5
ffffffc0504043cc:	00043797          	auipc	a5,0x43
ffffffc0504043d0:	60478793          	addi	a5,a5,1540 # ffffffc0504479d0 <pcb>
ffffffc0504043d4:	97b6                	add	a5,a5,a3
ffffffc0504043d6:	04f71e63          	bne	a4,a5,ffffffc050404432 <do_process_show+0x170>
ffffffc0504043da:	eeffb0ef          	jal	ra,ffffffc0504002c8 <get_current_cpu_id>
ffffffc0504043de:	87aa                	mv	a5,a0
ffffffc0504043e0:	873e                	mv	a4,a5
ffffffc0504043e2:	4785                	li	a5,1
ffffffc0504043e4:	04f71763          	bne	a4,a5,ffffffc050404432 <do_process_show+0x170>
ffffffc0504043e8:	00043717          	auipc	a4,0x43
ffffffc0504043ec:	5e870713          	addi	a4,a4,1512 # ffffffc0504479d0 <pcb>
ffffffc0504043f0:	fec42683          	lw	a3,-20(s0)
ffffffc0504043f4:	0d800793          	li	a5,216
ffffffc0504043f8:	02f687b3          	mul	a5,a3,a5
ffffffc0504043fc:	97ba                	add	a5,a5,a4
ffffffc0504043fe:	578c                	lw	a1,40(a5)
ffffffc050404400:	00043717          	auipc	a4,0x43
ffffffc050404404:	5d070713          	addi	a4,a4,1488 # ffffffc0504479d0 <pcb>
ffffffc050404408:	fec42683          	lw	a3,-20(s0)
ffffffc05040440c:	0d800793          	li	a5,216
ffffffc050404410:	02f687b3          	mul	a5,a3,a5
ffffffc050404414:	97ba                	add	a5,a5,a4
ffffffc050404416:	0b07c783          	lbu	a5,176(a5)
ffffffc05040441a:	2781                	sext.w	a5,a5
ffffffc05040441c:	86be                	mv	a3,a5
ffffffc05040441e:	00002617          	auipc	a2,0x2
ffffffc050404422:	55a60613          	addi	a2,a2,1370 # ffffffc050406978 <__FUNCTION__.1379+0x80>
ffffffc050404426:	00002517          	auipc	a0,0x2
ffffffc05040442a:	53a50513          	addi	a0,a0,1338 # ffffffc050406960 <__FUNCTION__.1379+0x68>
ffffffc05040442e:	701010ef          	jal	ra,ffffffc05040632e <prints>
ffffffc050404432:	00043797          	auipc	a5,0x43
ffffffc050404436:	59678793          	addi	a5,a5,1430 # ffffffc0504479c8 <current_running>
ffffffc05040443a:	639c                	ld	a5,0(a5)
ffffffc05040443c:	6398                	ld	a4,0(a5)
ffffffc05040443e:	fec42683          	lw	a3,-20(s0)
ffffffc050404442:	0d800793          	li	a5,216
ffffffc050404446:	02f686b3          	mul	a3,a3,a5
ffffffc05040444a:	00043797          	auipc	a5,0x43
ffffffc05040444e:	58678793          	addi	a5,a5,1414 # ffffffc0504479d0 <pcb>
ffffffc050404452:	97b6                	add	a5,a5,a3
ffffffc050404454:	04f70b63          	beq	a4,a5,ffffffc0504044aa <do_process_show+0x1e8>
ffffffc050404458:	e71fb0ef          	jal	ra,ffffffc0504002c8 <get_current_cpu_id>
ffffffc05040445c:	87aa                	mv	a5,a0
ffffffc05040445e:	e7b1                	bnez	a5,ffffffc0504044aa <do_process_show+0x1e8>
ffffffc050404460:	00043717          	auipc	a4,0x43
ffffffc050404464:	57070713          	addi	a4,a4,1392 # ffffffc0504479d0 <pcb>
ffffffc050404468:	fec42683          	lw	a3,-20(s0)
ffffffc05040446c:	0d800793          	li	a5,216
ffffffc050404470:	02f687b3          	mul	a5,a3,a5
ffffffc050404474:	97ba                	add	a5,a5,a4
ffffffc050404476:	578c                	lw	a1,40(a5)
ffffffc050404478:	00043717          	auipc	a4,0x43
ffffffc05040447c:	55870713          	addi	a4,a4,1368 # ffffffc0504479d0 <pcb>
ffffffc050404480:	fec42683          	lw	a3,-20(s0)
ffffffc050404484:	0d800793          	li	a5,216
ffffffc050404488:	02f687b3          	mul	a5,a3,a5
ffffffc05040448c:	97ba                	add	a5,a5,a4
ffffffc05040448e:	0b07c783          	lbu	a5,176(a5)
ffffffc050404492:	2781                	sext.w	a5,a5
ffffffc050404494:	86be                	mv	a3,a5
ffffffc050404496:	00002617          	auipc	a2,0x2
ffffffc05040449a:	4e260613          	addi	a2,a2,1250 # ffffffc050406978 <__FUNCTION__.1379+0x80>
ffffffc05040449e:	00002517          	auipc	a0,0x2
ffffffc0504044a2:	4c250513          	addi	a0,a0,1218 # ffffffc050406960 <__FUNCTION__.1379+0x68>
ffffffc0504044a6:	689010ef          	jal	ra,ffffffc05040632e <prints>
ffffffc0504044aa:	00043797          	auipc	a5,0x43
ffffffc0504044ae:	51e78793          	addi	a5,a5,1310 # ffffffc0504479c8 <current_running>
ffffffc0504044b2:	639c                	ld	a5,0(a5)
ffffffc0504044b4:	6398                	ld	a4,0(a5)
ffffffc0504044b6:	fec42683          	lw	a3,-20(s0)
ffffffc0504044ba:	0d800793          	li	a5,216
ffffffc0504044be:	02f686b3          	mul	a3,a3,a5
ffffffc0504044c2:	00043797          	auipc	a5,0x43
ffffffc0504044c6:	50e78793          	addi	a5,a5,1294 # ffffffc0504479d0 <pcb>
ffffffc0504044ca:	97b6                	add	a5,a5,a3
ffffffc0504044cc:	14f70363          	beq	a4,a5,ffffffc050404612 <do_process_show+0x350>
ffffffc0504044d0:	df9fb0ef          	jal	ra,ffffffc0504002c8 <get_current_cpu_id>
ffffffc0504044d4:	87aa                	mv	a5,a0
ffffffc0504044d6:	873e                	mv	a4,a5
ffffffc0504044d8:	4785                	li	a5,1
ffffffc0504044da:	12f71c63          	bne	a4,a5,ffffffc050404612 <do_process_show+0x350>
ffffffc0504044de:	00043717          	auipc	a4,0x43
ffffffc0504044e2:	4f270713          	addi	a4,a4,1266 # ffffffc0504479d0 <pcb>
ffffffc0504044e6:	fec42683          	lw	a3,-20(s0)
ffffffc0504044ea:	0d800793          	li	a5,216
ffffffc0504044ee:	02f687b3          	mul	a5,a3,a5
ffffffc0504044f2:	97ba                	add	a5,a5,a4
ffffffc0504044f4:	578c                	lw	a1,40(a5)
ffffffc0504044f6:	00043717          	auipc	a4,0x43
ffffffc0504044fa:	4da70713          	addi	a4,a4,1242 # ffffffc0504479d0 <pcb>
ffffffc0504044fe:	fec42683          	lw	a3,-20(s0)
ffffffc050404502:	0d800793          	li	a5,216
ffffffc050404506:	02f687b3          	mul	a5,a3,a5
ffffffc05040450a:	97ba                	add	a5,a5,a4
ffffffc05040450c:	0b07c783          	lbu	a5,176(a5)
ffffffc050404510:	2781                	sext.w	a5,a5
ffffffc050404512:	86be                	mv	a3,a5
ffffffc050404514:	00002617          	auipc	a2,0x2
ffffffc050404518:	43460613          	addi	a2,a2,1076 # ffffffc050406948 <__FUNCTION__.1379+0x50>
ffffffc05040451c:	00002517          	auipc	a0,0x2
ffffffc050404520:	44450513          	addi	a0,a0,1092 # ffffffc050406960 <__FUNCTION__.1379+0x68>
ffffffc050404524:	60b010ef          	jal	ra,ffffffc05040632e <prints>
ffffffc050404528:	a0ed                	j	ffffffc050404612 <do_process_show+0x350>
ffffffc05040452a:	00043717          	auipc	a4,0x43
ffffffc05040452e:	4a670713          	addi	a4,a4,1190 # ffffffc0504479d0 <pcb>
ffffffc050404532:	fec42683          	lw	a3,-20(s0)
ffffffc050404536:	0d800793          	li	a5,216
ffffffc05040453a:	02f687b3          	mul	a5,a3,a5
ffffffc05040453e:	97ba                	add	a5,a5,a4
ffffffc050404540:	578c                	lw	a1,40(a5)
ffffffc050404542:	00043717          	auipc	a4,0x43
ffffffc050404546:	48e70713          	addi	a4,a4,1166 # ffffffc0504479d0 <pcb>
ffffffc05040454a:	fec42683          	lw	a3,-20(s0)
ffffffc05040454e:	0d800793          	li	a5,216
ffffffc050404552:	02f687b3          	mul	a5,a3,a5
ffffffc050404556:	97ba                	add	a5,a5,a4
ffffffc050404558:	0b07c783          	lbu	a5,176(a5)
ffffffc05040455c:	2781                	sext.w	a5,a5
ffffffc05040455e:	86be                	mv	a3,a5
ffffffc050404560:	00002617          	auipc	a2,0x2
ffffffc050404564:	43060613          	addi	a2,a2,1072 # ffffffc050406990 <__FUNCTION__.1379+0x98>
ffffffc050404568:	00002517          	auipc	a0,0x2
ffffffc05040456c:	3f850513          	addi	a0,a0,1016 # ffffffc050406960 <__FUNCTION__.1379+0x68>
ffffffc050404570:	5bf010ef          	jal	ra,ffffffc05040632e <prints>
ffffffc050404574:	a045                	j	ffffffc050404614 <do_process_show+0x352>
ffffffc050404576:	00043717          	auipc	a4,0x43
ffffffc05040457a:	45a70713          	addi	a4,a4,1114 # ffffffc0504479d0 <pcb>
ffffffc05040457e:	fec42683          	lw	a3,-20(s0)
ffffffc050404582:	0d800793          	li	a5,216
ffffffc050404586:	02f687b3          	mul	a5,a3,a5
ffffffc05040458a:	97ba                	add	a5,a5,a4
ffffffc05040458c:	578c                	lw	a1,40(a5)
ffffffc05040458e:	00043717          	auipc	a4,0x43
ffffffc050404592:	44270713          	addi	a4,a4,1090 # ffffffc0504479d0 <pcb>
ffffffc050404596:	fec42683          	lw	a3,-20(s0)
ffffffc05040459a:	0d800793          	li	a5,216
ffffffc05040459e:	02f687b3          	mul	a5,a3,a5
ffffffc0504045a2:	97ba                	add	a5,a5,a4
ffffffc0504045a4:	0b07c783          	lbu	a5,176(a5)
ffffffc0504045a8:	2781                	sext.w	a5,a5
ffffffc0504045aa:	86be                	mv	a3,a5
ffffffc0504045ac:	00002617          	auipc	a2,0x2
ffffffc0504045b0:	3ec60613          	addi	a2,a2,1004 # ffffffc050406998 <__FUNCTION__.1379+0xa0>
ffffffc0504045b4:	00002517          	auipc	a0,0x2
ffffffc0504045b8:	3ac50513          	addi	a0,a0,940 # ffffffc050406960 <__FUNCTION__.1379+0x68>
ffffffc0504045bc:	573010ef          	jal	ra,ffffffc05040632e <prints>
ffffffc0504045c0:	a891                	j	ffffffc050404614 <do_process_show+0x352>
ffffffc0504045c2:	00043717          	auipc	a4,0x43
ffffffc0504045c6:	40e70713          	addi	a4,a4,1038 # ffffffc0504479d0 <pcb>
ffffffc0504045ca:	fec42683          	lw	a3,-20(s0)
ffffffc0504045ce:	0d800793          	li	a5,216
ffffffc0504045d2:	02f687b3          	mul	a5,a3,a5
ffffffc0504045d6:	97ba                	add	a5,a5,a4
ffffffc0504045d8:	578c                	lw	a1,40(a5)
ffffffc0504045da:	00043717          	auipc	a4,0x43
ffffffc0504045de:	3f670713          	addi	a4,a4,1014 # ffffffc0504479d0 <pcb>
ffffffc0504045e2:	fec42683          	lw	a3,-20(s0)
ffffffc0504045e6:	0d800793          	li	a5,216
ffffffc0504045ea:	02f687b3          	mul	a5,a3,a5
ffffffc0504045ee:	97ba                	add	a5,a5,a4
ffffffc0504045f0:	0b07c783          	lbu	a5,176(a5)
ffffffc0504045f4:	2781                	sext.w	a5,a5
ffffffc0504045f6:	86be                	mv	a3,a5
ffffffc0504045f8:	00002617          	auipc	a2,0x2
ffffffc0504045fc:	3a860613          	addi	a2,a2,936 # ffffffc0504069a0 <__FUNCTION__.1379+0xa8>
ffffffc050404600:	00002517          	auipc	a0,0x2
ffffffc050404604:	36050513          	addi	a0,a0,864 # ffffffc050406960 <__FUNCTION__.1379+0x68>
ffffffc050404608:	527010ef          	jal	ra,ffffffc05040632e <prints>
ffffffc05040460c:	a021                	j	ffffffc050404614 <do_process_show+0x352>
ffffffc05040460e:	0001                	nop
ffffffc050404610:	a011                	j	ffffffc050404614 <do_process_show+0x352>
ffffffc050404612:	0001                	nop
ffffffc050404614:	fec42783          	lw	a5,-20(s0)
ffffffc050404618:	2785                	addiw	a5,a5,1
ffffffc05040461a:	fef42623          	sw	a5,-20(s0)
ffffffc05040461e:	fec42783          	lw	a5,-20(s0)
ffffffc050404622:	0007871b          	sext.w	a4,a5
ffffffc050404626:	47bd                	li	a5,15
ffffffc050404628:	cae7dae3          	bge	a5,a4,ffffffc0504042dc <do_process_show+0x1a>
ffffffc05040462c:	0001                	nop
ffffffc05040462e:	0001                	nop
ffffffc050404630:	60e2                	ld	ra,24(sp)
ffffffc050404632:	6442                	ld	s0,16(sp)
ffffffc050404634:	6105                	addi	sp,sp,32
ffffffc050404636:	8082                	ret

ffffffc050404638 <do_getpid>:
ffffffc050404638:	1141                	addi	sp,sp,-16
ffffffc05040463a:	e406                	sd	ra,8(sp)
ffffffc05040463c:	e022                	sd	s0,0(sp)
ffffffc05040463e:	0800                	addi	s0,sp,16
ffffffc050404640:	c89fb0ef          	jal	ra,ffffffc0504002c8 <get_current_cpu_id>
ffffffc050404644:	87aa                	mv	a5,a0
ffffffc050404646:	e791                	bnez	a5,ffffffc050404652 <do_getpid+0x1a>
ffffffc050404648:	00042797          	auipc	a5,0x42
ffffffc05040464c:	bc878793          	addi	a5,a5,-1080 # ffffffc050446210 <current_running_core0>
ffffffc050404650:	a029                	j	ffffffc05040465a <do_getpid+0x22>
ffffffc050404652:	00042797          	auipc	a5,0x42
ffffffc050404656:	bb678793          	addi	a5,a5,-1098 # ffffffc050446208 <current_running_core1>
ffffffc05040465a:	00043717          	auipc	a4,0x43
ffffffc05040465e:	36e70713          	addi	a4,a4,878 # ffffffc0504479c8 <current_running>
ffffffc050404662:	e31c                	sd	a5,0(a4)
ffffffc050404664:	00043797          	auipc	a5,0x43
ffffffc050404668:	36478793          	addi	a5,a5,868 # ffffffc0504479c8 <current_running>
ffffffc05040466c:	639c                	ld	a5,0(a5)
ffffffc05040466e:	639c                	ld	a5,0(a5)
ffffffc050404670:	579c                	lw	a5,40(a5)
ffffffc050404672:	853e                	mv	a0,a5
ffffffc050404674:	60a2                	ld	ra,8(sp)
ffffffc050404676:	6402                	ld	s0,0(sp)
ffffffc050404678:	0141                	addi	sp,sp,16
ffffffc05040467a:	8082                	ret

ffffffc05040467c <do_sleep>:
ffffffc05040467c:	1101                	addi	sp,sp,-32
ffffffc05040467e:	ec06                	sd	ra,24(sp)
ffffffc050404680:	e822                	sd	s0,16(sp)
ffffffc050404682:	1000                	addi	s0,sp,32
ffffffc050404684:	87aa                	mv	a5,a0
ffffffc050404686:	fef42623          	sw	a5,-20(s0)
ffffffc05040468a:	c3ffb0ef          	jal	ra,ffffffc0504002c8 <get_current_cpu_id>
ffffffc05040468e:	87aa                	mv	a5,a0
ffffffc050404690:	e791                	bnez	a5,ffffffc05040469c <do_sleep+0x20>
ffffffc050404692:	00042797          	auipc	a5,0x42
ffffffc050404696:	b7e78793          	addi	a5,a5,-1154 # ffffffc050446210 <current_running_core0>
ffffffc05040469a:	a029                	j	ffffffc0504046a4 <do_sleep+0x28>
ffffffc05040469c:	00042797          	auipc	a5,0x42
ffffffc0504046a0:	b6c78793          	addi	a5,a5,-1172 # ffffffc050446208 <current_running_core1>
ffffffc0504046a4:	00043717          	auipc	a4,0x43
ffffffc0504046a8:	32470713          	addi	a4,a4,804 # ffffffc0504479c8 <current_running>
ffffffc0504046ac:	e31c                	sd	a5,0(a4)
ffffffc0504046ae:	00043797          	auipc	a5,0x43
ffffffc0504046b2:	31a78793          	addi	a5,a5,794 # ffffffc0504479c8 <current_running>
ffffffc0504046b6:	639c                	ld	a5,0(a5)
ffffffc0504046b8:	639c                	ld	a5,0(a5)
ffffffc0504046ba:	0207a823          	sw	zero,48(a5)
ffffffc0504046be:	c0bfb0ef          	jal	ra,ffffffc0504002c8 <get_current_cpu_id>
ffffffc0504046c2:	87aa                	mv	a5,a0
ffffffc0504046c4:	873e                	mv	a4,a5
ffffffc0504046c6:	00043797          	auipc	a5,0x43
ffffffc0504046ca:	30278793          	addi	a5,a5,770 # ffffffc0504479c8 <current_running>
ffffffc0504046ce:	639c                	ld	a5,0(a5)
ffffffc0504046d0:	639c                	ld	a5,0(a5)
ffffffc0504046d2:	0ff77713          	andi	a4,a4,255
ffffffc0504046d6:	0ae788a3          	sb	a4,177(a5)
ffffffc0504046da:	00043797          	auipc	a5,0x43
ffffffc0504046de:	2ee78793          	addi	a5,a5,750 # ffffffc0504479c8 <current_running>
ffffffc0504046e2:	639c                	ld	a5,0(a5)
ffffffc0504046e4:	639c                	ld	a5,0(a5)
ffffffc0504046e6:	01878693          	addi	a3,a5,24
ffffffc0504046ea:	85018793          	addi	a5,gp,-1968 # ffffffc050444238 <time_base>
ffffffc0504046ee:	439c                	lw	a5,0(a5)
ffffffc0504046f0:	fec42703          	lw	a4,-20(s0)
ffffffc0504046f4:	02f707bb          	mulw	a5,a4,a5
ffffffc0504046f8:	2781                	sext.w	a5,a5
ffffffc0504046fa:	1782                	slli	a5,a5,0x20
ffffffc0504046fc:	9381                	srli	a5,a5,0x20
ffffffc0504046fe:	863e                	mv	a2,a5
ffffffc050404700:	85b6                	mv	a1,a3
ffffffc050404702:	00000517          	auipc	a0,0x0
ffffffc050404706:	0ea50513          	addi	a0,a0,234 # ffffffc0504047ec <do_unblock>
ffffffc05040470a:	36a000ef          	jal	ra,ffffffc050404a74 <timer_create>
ffffffc05040470e:	8e1ff0ef          	jal	ra,ffffffc050403fee <do_scheduler>
ffffffc050404712:	0001                	nop
ffffffc050404714:	60e2                	ld	ra,24(sp)
ffffffc050404716:	6442                	ld	s0,16(sp)
ffffffc050404718:	6105                	addi	sp,sp,32
ffffffc05040471a:	8082                	ret

ffffffc05040471c <do_block>:
ffffffc05040471c:	1101                	addi	sp,sp,-32
ffffffc05040471e:	ec06                	sd	ra,24(sp)
ffffffc050404720:	e822                	sd	s0,16(sp)
ffffffc050404722:	1000                	addi	s0,sp,32
ffffffc050404724:	fea43423          	sd	a0,-24(s0)
ffffffc050404728:	feb43023          	sd	a1,-32(s0)
ffffffc05040472c:	b9dfb0ef          	jal	ra,ffffffc0504002c8 <get_current_cpu_id>
ffffffc050404730:	87aa                	mv	a5,a0
ffffffc050404732:	e791                	bnez	a5,ffffffc05040473e <do_block+0x22>
ffffffc050404734:	00042797          	auipc	a5,0x42
ffffffc050404738:	adc78793          	addi	a5,a5,-1316 # ffffffc050446210 <current_running_core0>
ffffffc05040473c:	a029                	j	ffffffc050404746 <do_block+0x2a>
ffffffc05040473e:	00042797          	auipc	a5,0x42
ffffffc050404742:	aca78793          	addi	a5,a5,-1334 # ffffffc050446208 <current_running_core1>
ffffffc050404746:	00043717          	auipc	a4,0x43
ffffffc05040474a:	28270713          	addi	a4,a4,642 # ffffffc0504479c8 <current_running>
ffffffc05040474e:	e31c                	sd	a5,0(a4)
ffffffc050404750:	fe843583          	ld	a1,-24(s0)
ffffffc050404754:	fe043503          	ld	a0,-32(s0)
ffffffc050404758:	022000ef          	jal	ra,ffffffc05040477a <enqueue>
ffffffc05040475c:	00043797          	auipc	a5,0x43
ffffffc050404760:	26c78793          	addi	a5,a5,620 # ffffffc0504479c8 <current_running>
ffffffc050404764:	639c                	ld	a5,0(a5)
ffffffc050404766:	639c                	ld	a5,0(a5)
ffffffc050404768:	0207a823          	sw	zero,48(a5)
ffffffc05040476c:	883ff0ef          	jal	ra,ffffffc050403fee <do_scheduler>
ffffffc050404770:	0001                	nop
ffffffc050404772:	60e2                	ld	ra,24(sp)
ffffffc050404774:	6442                	ld	s0,16(sp)
ffffffc050404776:	6105                	addi	sp,sp,32
ffffffc050404778:	8082                	ret

ffffffc05040477a <enqueue>:
ffffffc05040477a:	1101                	addi	sp,sp,-32
ffffffc05040477c:	ec06                	sd	ra,24(sp)
ffffffc05040477e:	e822                	sd	s0,16(sp)
ffffffc050404780:	1000                	addi	s0,sp,32
ffffffc050404782:	fea43423          	sd	a0,-24(s0)
ffffffc050404786:	feb43023          	sd	a1,-32(s0)
ffffffc05040478a:	fe043783          	ld	a5,-32(s0)
ffffffc05040478e:	07e1                	addi	a5,a5,24
ffffffc050404790:	fe843583          	ld	a1,-24(s0)
ffffffc050404794:	853e                	mv	a0,a5
ffffffc050404796:	d40ff0ef          	jal	ra,ffffffc050403cd6 <list_add_tail>
ffffffc05040479a:	0001                	nop
ffffffc05040479c:	60e2                	ld	ra,24(sp)
ffffffc05040479e:	6442                	ld	s0,16(sp)
ffffffc0504047a0:	6105                	addi	sp,sp,32
ffffffc0504047a2:	8082                	ret

ffffffc0504047a4 <dequeue>:
ffffffc0504047a4:	7179                	addi	sp,sp,-48
ffffffc0504047a6:	f406                	sd	ra,40(sp)
ffffffc0504047a8:	f022                	sd	s0,32(sp)
ffffffc0504047aa:	1800                	addi	s0,sp,48
ffffffc0504047ac:	fca43c23          	sd	a0,-40(s0)
ffffffc0504047b0:	fd843503          	ld	a0,-40(s0)
ffffffc0504047b4:	d50ff0ef          	jal	ra,ffffffc050403d04 <list_empty>
ffffffc0504047b8:	87aa                	mv	a5,a0
ffffffc0504047ba:	e785                	bnez	a5,ffffffc0504047e2 <dequeue+0x3e>
ffffffc0504047bc:	fd843783          	ld	a5,-40(s0)
ffffffc0504047c0:	639c                	ld	a5,0(a5)
ffffffc0504047c2:	fef43423          	sd	a5,-24(s0)
ffffffc0504047c6:	fe843783          	ld	a5,-24(s0)
ffffffc0504047ca:	17a1                	addi	a5,a5,-24
ffffffc0504047cc:	fef43023          	sd	a5,-32(s0)
ffffffc0504047d0:	fd843783          	ld	a5,-40(s0)
ffffffc0504047d4:	639c                	ld	a5,0(a5)
ffffffc0504047d6:	853e                	mv	a0,a5
ffffffc0504047d8:	cb4ff0ef          	jal	ra,ffffffc050403c8c <list_del>
ffffffc0504047dc:	fe043783          	ld	a5,-32(s0)
ffffffc0504047e0:	a009                	j	ffffffc0504047e2 <dequeue+0x3e>
ffffffc0504047e2:	853e                	mv	a0,a5
ffffffc0504047e4:	70a2                	ld	ra,40(sp)
ffffffc0504047e6:	7402                	ld	s0,32(sp)
ffffffc0504047e8:	6145                	addi	sp,sp,48
ffffffc0504047ea:	8082                	ret

ffffffc0504047ec <do_unblock>:
ffffffc0504047ec:	7179                	addi	sp,sp,-48
ffffffc0504047ee:	f406                	sd	ra,40(sp)
ffffffc0504047f0:	f022                	sd	s0,32(sp)
ffffffc0504047f2:	1800                	addi	s0,sp,48
ffffffc0504047f4:	fca43c23          	sd	a0,-40(s0)
ffffffc0504047f8:	fd843783          	ld	a5,-40(s0)
ffffffc0504047fc:	fef43423          	sd	a5,-24(s0)
ffffffc050404800:	fe843783          	ld	a5,-24(s0)
ffffffc050404804:	17a1                	addi	a5,a5,-24
ffffffc050404806:	fef43023          	sd	a5,-32(s0)
ffffffc05040480a:	fd843503          	ld	a0,-40(s0)
ffffffc05040480e:	c7eff0ef          	jal	ra,ffffffc050403c8c <list_del>
ffffffc050404812:	fe043783          	ld	a5,-32(s0)
ffffffc050404816:	4709                	li	a4,2
ffffffc050404818:	db98                	sw	a4,48(a5)
ffffffc05040481a:	fe043583          	ld	a1,-32(s0)
ffffffc05040481e:	00002517          	auipc	a0,0x2
ffffffc050404822:	3fa50513          	addi	a0,a0,1018 # ffffffc050406c18 <ready_queue>
ffffffc050404826:	f55ff0ef          	jal	ra,ffffffc05040477a <enqueue>
ffffffc05040482a:	0001                	nop
ffffffc05040482c:	70a2                	ld	ra,40(sp)
ffffffc05040482e:	7402                	ld	s0,32(sp)
ffffffc050404830:	6145                	addi	sp,sp,48
ffffffc050404832:	8082                	ret

ffffffc050404834 <zombie_check>:
ffffffc050404834:	1101                	addi	sp,sp,-32
ffffffc050404836:	ec06                	sd	ra,24(sp)
ffffffc050404838:	e822                	sd	s0,16(sp)
ffffffc05040483a:	1000                	addi	s0,sp,32
ffffffc05040483c:	87aa                	mv	a5,a0
ffffffc05040483e:	fef42623          	sw	a5,-20(s0)
ffffffc050404842:	fec42783          	lw	a5,-20(s0)
ffffffc050404846:	2781                	sext.w	a5,a5
ffffffc050404848:	c795                	beqz	a5,ffffffc050404874 <zombie_check+0x40>
ffffffc05040484a:	fec42783          	lw	a5,-20(s0)
ffffffc05040484e:	37fd                	addiw	a5,a5,-1
ffffffc050404850:	0007871b          	sext.w	a4,a5
ffffffc050404854:	0d800793          	li	a5,216
ffffffc050404858:	02f707b3          	mul	a5,a4,a5
ffffffc05040485c:	01078713          	addi	a4,a5,16
ffffffc050404860:	00043797          	auipc	a5,0x43
ffffffc050404864:	17078793          	addi	a5,a5,368 # ffffffc0504479d0 <pcb>
ffffffc050404868:	97ba                	add	a5,a5,a4
ffffffc05040486a:	07a1                	addi	a5,a5,8
ffffffc05040486c:	853e                	mv	a0,a5
ffffffc05040486e:	f7fff0ef          	jal	ra,ffffffc0504047ec <do_unblock>
ffffffc050404872:	a011                	j	ffffffc050404876 <zombie_check+0x42>
ffffffc050404874:	0001                	nop
ffffffc050404876:	60e2                	ld	ra,24(sp)
ffffffc050404878:	6442                	ld	s0,16(sp)
ffffffc05040487a:	6105                	addi	sp,sp,32
ffffffc05040487c:	8082                	ret

ffffffc05040487e <do_exit>:
ffffffc05040487e:	1141                	addi	sp,sp,-16
ffffffc050404880:	e406                	sd	ra,8(sp)
ffffffc050404882:	e022                	sd	s0,0(sp)
ffffffc050404884:	0800                	addi	s0,sp,16
ffffffc050404886:	a43fb0ef          	jal	ra,ffffffc0504002c8 <get_current_cpu_id>
ffffffc05040488a:	87aa                	mv	a5,a0
ffffffc05040488c:	e791                	bnez	a5,ffffffc050404898 <do_exit+0x1a>
ffffffc05040488e:	00042797          	auipc	a5,0x42
ffffffc050404892:	98278793          	addi	a5,a5,-1662 # ffffffc050446210 <current_running_core0>
ffffffc050404896:	a029                	j	ffffffc0504048a0 <do_exit+0x22>
ffffffc050404898:	00042797          	auipc	a5,0x42
ffffffc05040489c:	97078793          	addi	a5,a5,-1680 # ffffffc050446208 <current_running_core1>
ffffffc0504048a0:	00043717          	auipc	a4,0x43
ffffffc0504048a4:	12870713          	addi	a4,a4,296 # ffffffc0504479c8 <current_running>
ffffffc0504048a8:	e31c                	sd	a5,0(a4)
ffffffc0504048aa:	00043797          	auipc	a5,0x43
ffffffc0504048ae:	11e78793          	addi	a5,a5,286 # ffffffc0504479c8 <current_running>
ffffffc0504048b2:	639c                	ld	a5,0(a5)
ffffffc0504048b4:	639c                	ld	a5,0(a5)
ffffffc0504048b6:	579c                	lw	a5,40(a5)
ffffffc0504048b8:	853e                	mv	a0,a5
ffffffc0504048ba:	ebcff0ef          	jal	ra,ffffffc050403f76 <free_all_page>
ffffffc0504048be:	00043797          	auipc	a5,0x43
ffffffc0504048c2:	10a78793          	addi	a5,a5,266 # ffffffc0504479c8 <current_running>
ffffffc0504048c6:	639c                	ld	a5,0(a5)
ffffffc0504048c8:	639c                	ld	a5,0(a5)
ffffffc0504048ca:	5bdc                	lw	a5,52(a5)
ffffffc0504048cc:	873e                	mv	a4,a5
ffffffc0504048ce:	4785                	li	a5,1
ffffffc0504048d0:	02f71363          	bne	a4,a5,ffffffc0504048f6 <do_exit+0x78>
ffffffc0504048d4:	00043797          	auipc	a5,0x43
ffffffc0504048d8:	0f478793          	addi	a5,a5,244 # ffffffc0504479c8 <current_running>
ffffffc0504048dc:	639c                	ld	a5,0(a5)
ffffffc0504048de:	639c                	ld	a5,0(a5)
ffffffc0504048e0:	0207a423          	sw	zero,40(a5)
ffffffc0504048e4:	00043797          	auipc	a5,0x43
ffffffc0504048e8:	0e478793          	addi	a5,a5,228 # ffffffc0504479c8 <current_running>
ffffffc0504048ec:	639c                	ld	a5,0(a5)
ffffffc0504048ee:	639c                	ld	a5,0(a5)
ffffffc0504048f0:	470d                	li	a4,3
ffffffc0504048f2:	db98                	sw	a4,48(a5)
ffffffc0504048f4:	a81d                	j	ffffffc05040492a <do_exit+0xac>
ffffffc0504048f6:	00043797          	auipc	a5,0x43
ffffffc0504048fa:	0d278793          	addi	a5,a5,210 # ffffffc0504479c8 <current_running>
ffffffc0504048fe:	639c                	ld	a5,0(a5)
ffffffc050404900:	639c                	ld	a5,0(a5)
ffffffc050404902:	470d                	li	a4,3
ffffffc050404904:	db98                	sw	a4,48(a5)
ffffffc050404906:	00043797          	auipc	a5,0x43
ffffffc05040490a:	0c278793          	addi	a5,a5,194 # ffffffc0504479c8 <current_running>
ffffffc05040490e:	639c                	ld	a5,0(a5)
ffffffc050404910:	639c                	ld	a5,0(a5)
ffffffc050404912:	0207a423          	sw	zero,40(a5)
ffffffc050404916:	00043797          	auipc	a5,0x43
ffffffc05040491a:	0b278793          	addi	a5,a5,178 # ffffffc0504479c8 <current_running>
ffffffc05040491e:	639c                	ld	a5,0(a5)
ffffffc050404920:	639c                	ld	a5,0(a5)
ffffffc050404922:	57bc                	lw	a5,104(a5)
ffffffc050404924:	853e                	mv	a0,a5
ffffffc050404926:	f0fff0ef          	jal	ra,ffffffc050404834 <zombie_check>
ffffffc05040492a:	ec4ff0ef          	jal	ra,ffffffc050403fee <do_scheduler>
ffffffc05040492e:	0001                	nop
ffffffc050404930:	60a2                	ld	ra,8(sp)
ffffffc050404932:	6402                	ld	s0,0(sp)
ffffffc050404934:	0141                	addi	sp,sp,16
ffffffc050404936:	8082                	ret

ffffffc050404938 <do_waitpid>:
ffffffc050404938:	1101                	addi	sp,sp,-32
ffffffc05040493a:	ec06                	sd	ra,24(sp)
ffffffc05040493c:	e822                	sd	s0,16(sp)
ffffffc05040493e:	1000                	addi	s0,sp,32
ffffffc050404940:	87aa                	mv	a5,a0
ffffffc050404942:	fef42623          	sw	a5,-20(s0)
ffffffc050404946:	983fb0ef          	jal	ra,ffffffc0504002c8 <get_current_cpu_id>
ffffffc05040494a:	87aa                	mv	a5,a0
ffffffc05040494c:	e791                	bnez	a5,ffffffc050404958 <do_waitpid+0x20>
ffffffc05040494e:	00042797          	auipc	a5,0x42
ffffffc050404952:	8c278793          	addi	a5,a5,-1854 # ffffffc050446210 <current_running_core0>
ffffffc050404956:	a029                	j	ffffffc050404960 <do_waitpid+0x28>
ffffffc050404958:	00042797          	auipc	a5,0x42
ffffffc05040495c:	8b078793          	addi	a5,a5,-1872 # ffffffc050446208 <current_running_core1>
ffffffc050404960:	00043717          	auipc	a4,0x43
ffffffc050404964:	06870713          	addi	a4,a4,104 # ffffffc0504479c8 <current_running>
ffffffc050404968:	e31c                	sd	a5,0(a4)
ffffffc05040496a:	fec42783          	lw	a5,-20(s0)
ffffffc05040496e:	37fd                	addiw	a5,a5,-1
ffffffc050404970:	0007869b          	sext.w	a3,a5
ffffffc050404974:	00043717          	auipc	a4,0x43
ffffffc050404978:	05c70713          	addi	a4,a4,92 # ffffffc0504479d0 <pcb>
ffffffc05040497c:	0d800793          	li	a5,216
ffffffc050404980:	02f687b3          	mul	a5,a3,a5
ffffffc050404984:	97ba                	add	a5,a5,a4
ffffffc050404986:	579c                	lw	a5,40(a5)
ffffffc050404988:	c7bd                	beqz	a5,ffffffc0504049f6 <do_waitpid+0xbe>
ffffffc05040498a:	fec42783          	lw	a5,-20(s0)
ffffffc05040498e:	37fd                	addiw	a5,a5,-1
ffffffc050404990:	0007869b          	sext.w	a3,a5
ffffffc050404994:	00043717          	auipc	a4,0x43
ffffffc050404998:	03c70713          	addi	a4,a4,60 # ffffffc0504479d0 <pcb>
ffffffc05040499c:	0d800793          	li	a5,216
ffffffc0504049a0:	02f687b3          	mul	a5,a3,a5
ffffffc0504049a4:	97ba                	add	a5,a5,a4
ffffffc0504049a6:	5b9c                	lw	a5,48(a5)
ffffffc0504049a8:	873e                	mv	a4,a5
ffffffc0504049aa:	478d                	li	a5,3
ffffffc0504049ac:	04f70563          	beq	a4,a5,ffffffc0504049f6 <do_waitpid+0xbe>
ffffffc0504049b0:	00043797          	auipc	a5,0x43
ffffffc0504049b4:	01878793          	addi	a5,a5,24 # ffffffc0504479c8 <current_running>
ffffffc0504049b8:	639c                	ld	a5,0(a5)
ffffffc0504049ba:	639c                	ld	a5,0(a5)
ffffffc0504049bc:	fec42703          	lw	a4,-20(s0)
ffffffc0504049c0:	377d                	addiw	a4,a4,-1
ffffffc0504049c2:	0007061b          	sext.w	a2,a4
ffffffc0504049c6:	5798                	lw	a4,40(a5)
ffffffc0504049c8:	00043697          	auipc	a3,0x43
ffffffc0504049cc:	00868693          	addi	a3,a3,8 # ffffffc0504479d0 <pcb>
ffffffc0504049d0:	0d800793          	li	a5,216
ffffffc0504049d4:	02f607b3          	mul	a5,a2,a5
ffffffc0504049d8:	97b6                	add	a5,a5,a3
ffffffc0504049da:	d7b8                	sw	a4,104(a5)
ffffffc0504049dc:	00043797          	auipc	a5,0x43
ffffffc0504049e0:	fec78793          	addi	a5,a5,-20 # ffffffc0504479c8 <current_running>
ffffffc0504049e4:	639c                	ld	a5,0(a5)
ffffffc0504049e6:	639c                	ld	a5,0(a5)
ffffffc0504049e8:	00002597          	auipc	a1,0x2
ffffffc0504049ec:	24058593          	addi	a1,a1,576 # ffffffc050406c28 <wait_queue>
ffffffc0504049f0:	853e                	mv	a0,a5
ffffffc0504049f2:	d2bff0ef          	jal	ra,ffffffc05040471c <do_block>
ffffffc0504049f6:	fec42783          	lw	a5,-20(s0)
ffffffc0504049fa:	853e                	mv	a0,a5
ffffffc0504049fc:	60e2                	ld	ra,24(sp)
ffffffc0504049fe:	6442                	ld	s0,16(sp)
ffffffc050404a00:	6105                	addi	sp,sp,32
ffffffc050404a02:	8082                	ret

ffffffc050404a04 <_list_add>:
ffffffc050404a04:	7179                	addi	sp,sp,-48
ffffffc050404a06:	f422                	sd	s0,40(sp)
ffffffc050404a08:	1800                	addi	s0,sp,48
ffffffc050404a0a:	fea43423          	sd	a0,-24(s0)
ffffffc050404a0e:	feb43023          	sd	a1,-32(s0)
ffffffc050404a12:	fcc43c23          	sd	a2,-40(s0)
ffffffc050404a16:	fd843783          	ld	a5,-40(s0)
ffffffc050404a1a:	fe843703          	ld	a4,-24(s0)
ffffffc050404a1e:	e798                	sd	a4,8(a5)
ffffffc050404a20:	fe843783          	ld	a5,-24(s0)
ffffffc050404a24:	fd843703          	ld	a4,-40(s0)
ffffffc050404a28:	e398                	sd	a4,0(a5)
ffffffc050404a2a:	fe843783          	ld	a5,-24(s0)
ffffffc050404a2e:	fe043703          	ld	a4,-32(s0)
ffffffc050404a32:	e798                	sd	a4,8(a5)
ffffffc050404a34:	fe043783          	ld	a5,-32(s0)
ffffffc050404a38:	fe843703          	ld	a4,-24(s0)
ffffffc050404a3c:	e398                	sd	a4,0(a5)
ffffffc050404a3e:	0001                	nop
ffffffc050404a40:	7422                	ld	s0,40(sp)
ffffffc050404a42:	6145                	addi	sp,sp,48
ffffffc050404a44:	8082                	ret

ffffffc050404a46 <list_add_tail>:
ffffffc050404a46:	1101                	addi	sp,sp,-32
ffffffc050404a48:	ec06                	sd	ra,24(sp)
ffffffc050404a4a:	e822                	sd	s0,16(sp)
ffffffc050404a4c:	1000                	addi	s0,sp,32
ffffffc050404a4e:	fea43423          	sd	a0,-24(s0)
ffffffc050404a52:	feb43023          	sd	a1,-32(s0)
ffffffc050404a56:	fe043783          	ld	a5,-32(s0)
ffffffc050404a5a:	679c                	ld	a5,8(a5)
ffffffc050404a5c:	fe043603          	ld	a2,-32(s0)
ffffffc050404a60:	85be                	mv	a1,a5
ffffffc050404a62:	fe843503          	ld	a0,-24(s0)
ffffffc050404a66:	f9fff0ef          	jal	ra,ffffffc050404a04 <_list_add>
ffffffc050404a6a:	0001                	nop
ffffffc050404a6c:	60e2                	ld	ra,24(sp)
ffffffc050404a6e:	6442                	ld	s0,16(sp)
ffffffc050404a70:	6105                	addi	sp,sp,32
ffffffc050404a72:	8082                	ret

ffffffc050404a74 <timer_create>:
ffffffc050404a74:	7179                	addi	sp,sp,-48
ffffffc050404a76:	f406                	sd	ra,40(sp)
ffffffc050404a78:	f022                	sd	s0,32(sp)
ffffffc050404a7a:	1800                	addi	s0,sp,48
ffffffc050404a7c:	fea43423          	sd	a0,-24(s0)
ffffffc050404a80:	feb43023          	sd	a1,-32(s0)
ffffffc050404a84:	fcc43c23          	sd	a2,-40(s0)
ffffffc050404a88:	e28fb0ef          	jal	ra,ffffffc0504000b0 <disable_preempt>
ffffffc050404a8c:	83dfb0ef          	jal	ra,ffffffc0504002c8 <get_current_cpu_id>
ffffffc050404a90:	87aa                	mv	a5,a0
ffffffc050404a92:	e791                	bnez	a5,ffffffc050404a9e <timer_create+0x2a>
ffffffc050404a94:	00041797          	auipc	a5,0x41
ffffffc050404a98:	77c78793          	addi	a5,a5,1916 # ffffffc050446210 <current_running_core0>
ffffffc050404a9c:	a029                	j	ffffffc050404aa6 <timer_create+0x32>
ffffffc050404a9e:	00041797          	auipc	a5,0x41
ffffffc050404aa2:	76a78793          	addi	a5,a5,1898 # ffffffc050446208 <current_running_core1>
ffffffc050404aa6:	00043717          	auipc	a4,0x43
ffffffc050404aaa:	f2270713          	addi	a4,a4,-222 # ffffffc0504479c8 <current_running>
ffffffc050404aae:	e31c                	sd	a5,0(a4)
ffffffc050404ab0:	14c000ef          	jal	ra,ffffffc050404bfc <get_ticks>
ffffffc050404ab4:	86aa                	mv	a3,a0
ffffffc050404ab6:	00043797          	auipc	a5,0x43
ffffffc050404aba:	f1278793          	addi	a5,a5,-238 # ffffffc0504479c8 <current_running>
ffffffc050404abe:	639c                	ld	a5,0(a5)
ffffffc050404ac0:	639c                	ld	a5,0(a5)
ffffffc050404ac2:	fd843703          	ld	a4,-40(s0)
ffffffc050404ac6:	9736                	add	a4,a4,a3
ffffffc050404ac8:	e3b8                	sd	a4,64(a5)
ffffffc050404aca:	00043797          	auipc	a5,0x43
ffffffc050404ace:	efe78793          	addi	a5,a5,-258 # ffffffc0504479c8 <current_running>
ffffffc050404ad2:	639c                	ld	a5,0(a5)
ffffffc050404ad4:	639c                	ld	a5,0(a5)
ffffffc050404ad6:	fe843703          	ld	a4,-24(s0)
ffffffc050404ada:	e7b8                	sd	a4,72(a5)
ffffffc050404adc:	00043797          	auipc	a5,0x43
ffffffc050404ae0:	eec78793          	addi	a5,a5,-276 # ffffffc0504479c8 <current_running>
ffffffc050404ae4:	639c                	ld	a5,0(a5)
ffffffc050404ae6:	639c                	ld	a5,0(a5)
ffffffc050404ae8:	fe043703          	ld	a4,-32(s0)
ffffffc050404aec:	ebb8                	sd	a4,80(a5)
ffffffc050404aee:	00043797          	auipc	a5,0x43
ffffffc050404af2:	eda78793          	addi	a5,a5,-294 # ffffffc0504479c8 <current_running>
ffffffc050404af6:	639c                	ld	a5,0(a5)
ffffffc050404af8:	639c                	ld	a5,0(a5)
ffffffc050404afa:	85be                	mv	a1,a5
ffffffc050404afc:	00002517          	auipc	a0,0x2
ffffffc050404b00:	13c50513          	addi	a0,a0,316 # ffffffc050406c38 <sleep_queue>
ffffffc050404b04:	012000ef          	jal	ra,ffffffc050404b16 <enqueue_timer>
ffffffc050404b08:	d70fb0ef          	jal	ra,ffffffc050400078 <enable_preempt>
ffffffc050404b0c:	0001                	nop
ffffffc050404b0e:	70a2                	ld	ra,40(sp)
ffffffc050404b10:	7402                	ld	s0,32(sp)
ffffffc050404b12:	6145                	addi	sp,sp,48
ffffffc050404b14:	8082                	ret

ffffffc050404b16 <enqueue_timer>:
ffffffc050404b16:	1101                	addi	sp,sp,-32
ffffffc050404b18:	ec06                	sd	ra,24(sp)
ffffffc050404b1a:	e822                	sd	s0,16(sp)
ffffffc050404b1c:	1000                	addi	s0,sp,32
ffffffc050404b1e:	fea43423          	sd	a0,-24(s0)
ffffffc050404b22:	feb43023          	sd	a1,-32(s0)
ffffffc050404b26:	fe043783          	ld	a5,-32(s0)
ffffffc050404b2a:	07e1                	addi	a5,a5,24
ffffffc050404b2c:	fe843583          	ld	a1,-24(s0)
ffffffc050404b30:	853e                	mv	a0,a5
ffffffc050404b32:	f15ff0ef          	jal	ra,ffffffc050404a46 <list_add_tail>
ffffffc050404b36:	0001                	nop
ffffffc050404b38:	60e2                	ld	ra,24(sp)
ffffffc050404b3a:	6442                	ld	s0,16(sp)
ffffffc050404b3c:	6105                	addi	sp,sp,32
ffffffc050404b3e:	8082                	ret

ffffffc050404b40 <gethead_timer>:
ffffffc050404b40:	7179                	addi	sp,sp,-48
ffffffc050404b42:	f422                	sd	s0,40(sp)
ffffffc050404b44:	1800                	addi	s0,sp,48
ffffffc050404b46:	fca43c23          	sd	a0,-40(s0)
ffffffc050404b4a:	fd843783          	ld	a5,-40(s0)
ffffffc050404b4e:	fef43423          	sd	a5,-24(s0)
ffffffc050404b52:	fe843783          	ld	a5,-24(s0)
ffffffc050404b56:	17a1                	addi	a5,a5,-24
ffffffc050404b58:	fef43023          	sd	a5,-32(s0)
ffffffc050404b5c:	fe043783          	ld	a5,-32(s0)
ffffffc050404b60:	853e                	mv	a0,a5
ffffffc050404b62:	7422                	ld	s0,40(sp)
ffffffc050404b64:	6145                	addi	sp,sp,48
ffffffc050404b66:	8082                	ret

ffffffc050404b68 <timer_check>:
ffffffc050404b68:	7139                	addi	sp,sp,-64
ffffffc050404b6a:	fc06                	sd	ra,56(sp)
ffffffc050404b6c:	f822                	sd	s0,48(sp)
ffffffc050404b6e:	0080                	addi	s0,sp,64
ffffffc050404b70:	d40fb0ef          	jal	ra,ffffffc0504000b0 <disable_preempt>
ffffffc050404b74:	f54fb0ef          	jal	ra,ffffffc0504002c8 <get_current_cpu_id>
ffffffc050404b78:	87aa                	mv	a5,a0
ffffffc050404b7a:	fef403a3          	sb	a5,-25(s0)
ffffffc050404b7e:	00002797          	auipc	a5,0x2
ffffffc050404b82:	0ba78793          	addi	a5,a5,186 # ffffffc050406c38 <sleep_queue>
ffffffc050404b86:	639c                	ld	a5,0(a5)
ffffffc050404b88:	fef43423          	sd	a5,-24(s0)
ffffffc050404b8c:	a889                	j	ffffffc050404bde <timer_check+0x76>
ffffffc050404b8e:	fe843783          	ld	a5,-24(s0)
ffffffc050404b92:	fcf43c23          	sd	a5,-40(s0)
ffffffc050404b96:	fd843783          	ld	a5,-40(s0)
ffffffc050404b9a:	17a1                	addi	a5,a5,-24
ffffffc050404b9c:	fcf43823          	sd	a5,-48(s0)
ffffffc050404ba0:	fe843783          	ld	a5,-24(s0)
ffffffc050404ba4:	639c                	ld	a5,0(a5)
ffffffc050404ba6:	fcf43423          	sd	a5,-56(s0)
ffffffc050404baa:	fd043783          	ld	a5,-48(s0)
ffffffc050404bae:	0b17c703          	lbu	a4,177(a5)
ffffffc050404bb2:	fe744783          	lbu	a5,-25(s0)
ffffffc050404bb6:	0ff7f793          	andi	a5,a5,255
ffffffc050404bba:	00e79e63          	bne	a5,a4,ffffffc050404bd6 <timer_check+0x6e>
ffffffc050404bbe:	03e000ef          	jal	ra,ffffffc050404bfc <get_ticks>
ffffffc050404bc2:	872a                	mv	a4,a0
ffffffc050404bc4:	fd043783          	ld	a5,-48(s0)
ffffffc050404bc8:	63bc                	ld	a5,64(a5)
ffffffc050404bca:	00f76663          	bltu	a4,a5,ffffffc050404bd6 <timer_check+0x6e>
ffffffc050404bce:	fe843503          	ld	a0,-24(s0)
ffffffc050404bd2:	c1bff0ef          	jal	ra,ffffffc0504047ec <do_unblock>
ffffffc050404bd6:	fc843783          	ld	a5,-56(s0)
ffffffc050404bda:	fef43423          	sd	a5,-24(s0)
ffffffc050404bde:	fe843703          	ld	a4,-24(s0)
ffffffc050404be2:	00002797          	auipc	a5,0x2
ffffffc050404be6:	05678793          	addi	a5,a5,86 # ffffffc050406c38 <sleep_queue>
ffffffc050404bea:	faf712e3          	bne	a4,a5,ffffffc050404b8e <timer_check+0x26>
ffffffc050404bee:	c8afb0ef          	jal	ra,ffffffc050400078 <enable_preempt>
ffffffc050404bf2:	0001                	nop
ffffffc050404bf4:	70e2                	ld	ra,56(sp)
ffffffc050404bf6:	7442                	ld	s0,48(sp)
ffffffc050404bf8:	6121                	addi	sp,sp,64
ffffffc050404bfa:	8082                	ret

ffffffc050404bfc <get_ticks>:
ffffffc050404bfc:	1141                	addi	sp,sp,-16
ffffffc050404bfe:	e422                	sd	s0,8(sp)
ffffffc050404c00:	0800                	addi	s0,sp,16
ffffffc050404c02:	c0102773          	rdtime	a4
ffffffc050404c06:	84818793          	addi	a5,gp,-1976 # ffffffc050444230 <time_elapsed>
ffffffc050404c0a:	e398                	sd	a4,0(a5)
ffffffc050404c0c:	84818793          	addi	a5,gp,-1976 # ffffffc050444230 <time_elapsed>
ffffffc050404c10:	639c                	ld	a5,0(a5)
ffffffc050404c12:	853e                	mv	a0,a5
ffffffc050404c14:	6422                	ld	s0,8(sp)
ffffffc050404c16:	0141                	addi	sp,sp,16
ffffffc050404c18:	8082                	ret

ffffffc050404c1a <get_timer>:
ffffffc050404c1a:	1141                	addi	sp,sp,-16
ffffffc050404c1c:	e406                	sd	ra,8(sp)
ffffffc050404c1e:	e022                	sd	s0,0(sp)
ffffffc050404c20:	0800                	addi	s0,sp,16
ffffffc050404c22:	fdbff0ef          	jal	ra,ffffffc050404bfc <get_ticks>
ffffffc050404c26:	872a                	mv	a4,a0
ffffffc050404c28:	85018793          	addi	a5,gp,-1968 # ffffffc050444238 <time_base>
ffffffc050404c2c:	439c                	lw	a5,0(a5)
ffffffc050404c2e:	1782                	slli	a5,a5,0x20
ffffffc050404c30:	9381                	srli	a5,a5,0x20
ffffffc050404c32:	02f757b3          	divu	a5,a4,a5
ffffffc050404c36:	853e                	mv	a0,a5
ffffffc050404c38:	60a2                	ld	ra,8(sp)
ffffffc050404c3a:	6402                	ld	s0,0(sp)
ffffffc050404c3c:	0141                	addi	sp,sp,16
ffffffc050404c3e:	8082                	ret

ffffffc050404c40 <get_time_base>:
ffffffc050404c40:	1141                	addi	sp,sp,-16
ffffffc050404c42:	e422                	sd	s0,8(sp)
ffffffc050404c44:	0800                	addi	s0,sp,16
ffffffc050404c46:	85018793          	addi	a5,gp,-1968 # ffffffc050444238 <time_base>
ffffffc050404c4a:	439c                	lw	a5,0(a5)
ffffffc050404c4c:	1782                	slli	a5,a5,0x20
ffffffc050404c4e:	9381                	srli	a5,a5,0x20
ffffffc050404c50:	853e                	mv	a0,a5
ffffffc050404c52:	6422                	ld	s0,8(sp)
ffffffc050404c54:	0141                	addi	sp,sp,16
ffffffc050404c56:	8082                	ret

ffffffc050404c58 <latency>:
ffffffc050404c58:	7179                	addi	sp,sp,-48
ffffffc050404c5a:	f406                	sd	ra,40(sp)
ffffffc050404c5c:	f022                	sd	s0,32(sp)
ffffffc050404c5e:	1800                	addi	s0,sp,48
ffffffc050404c60:	fca43c23          	sd	a0,-40(s0)
ffffffc050404c64:	fb7ff0ef          	jal	ra,ffffffc050404c1a <get_timer>
ffffffc050404c68:	fea43423          	sd	a0,-24(s0)
ffffffc050404c6c:	0001                	nop
ffffffc050404c6e:	fadff0ef          	jal	ra,ffffffc050404c1a <get_timer>
ffffffc050404c72:	872a                	mv	a4,a0
ffffffc050404c74:	fe843783          	ld	a5,-24(s0)
ffffffc050404c78:	40f707b3          	sub	a5,a4,a5
ffffffc050404c7c:	fd843703          	ld	a4,-40(s0)
ffffffc050404c80:	fee7e7e3          	bltu	a5,a4,ffffffc050404c6e <latency+0x16>
ffffffc050404c84:	0001                	nop
ffffffc050404c86:	70a2                	ld	ra,40(sp)
ffffffc050404c88:	7402                	ld	s0,32(sp)
ffffffc050404c8a:	6145                	addi	sp,sp,48
ffffffc050404c8c:	8082                	ret

ffffffc050404c8e <smp_init>:
ffffffc050404c8e:	1141                	addi	sp,sp,-16
ffffffc050404c90:	e422                	sd	s0,8(sp)
ffffffc050404c92:	0800                	addi	s0,sp,16
ffffffc050404c94:	0001                	nop
ffffffc050404c96:	6422                	ld	s0,8(sp)
ffffffc050404c98:	0141                	addi	sp,sp,16
ffffffc050404c9a:	8082                	ret

ffffffc050404c9c <wakeup_other_hart>:
ffffffc050404c9c:	1141                	addi	sp,sp,-16
ffffffc050404c9e:	e422                	sd	s0,8(sp)
ffffffc050404ca0:	0800                	addi	s0,sp,16
ffffffc050404ca2:	0001                	nop
ffffffc050404ca4:	6422                	ld	s0,8(sp)
ffffffc050404ca6:	0141                	addi	sp,sp,16
ffffffc050404ca8:	8082                	ret

ffffffc050404caa <lock_kernel>:
ffffffc050404caa:	1141                	addi	sp,sp,-16
ffffffc050404cac:	e422                	sd	s0,8(sp)
ffffffc050404cae:	0800                	addi	s0,sp,16
ffffffc050404cb0:	0001                	nop
ffffffc050404cb2:	6422                	ld	s0,8(sp)
ffffffc050404cb4:	0141                	addi	sp,sp,16
ffffffc050404cb6:	8082                	ret

ffffffc050404cb8 <unlock_kernel>:
ffffffc050404cb8:	1141                	addi	sp,sp,-16
ffffffc050404cba:	e422                	sd	s0,8(sp)
ffffffc050404cbc:	0800                	addi	s0,sp,16
ffffffc050404cbe:	0001                	nop
ffffffc050404cc0:	6422                	ld	s0,8(sp)
ffffffc050404cc2:	0141                	addi	sp,sp,16
ffffffc050404cc4:	8082                	ret

ffffffc050404cc6 <_list_del>:
ffffffc050404cc6:	1101                	addi	sp,sp,-32
ffffffc050404cc8:	ec22                	sd	s0,24(sp)
ffffffc050404cca:	1000                	addi	s0,sp,32
ffffffc050404ccc:	fea43423          	sd	a0,-24(s0)
ffffffc050404cd0:	feb43023          	sd	a1,-32(s0)
ffffffc050404cd4:	fe043783          	ld	a5,-32(s0)
ffffffc050404cd8:	fe843703          	ld	a4,-24(s0)
ffffffc050404cdc:	e798                	sd	a4,8(a5)
ffffffc050404cde:	fe843783          	ld	a5,-24(s0)
ffffffc050404ce2:	fe043703          	ld	a4,-32(s0)
ffffffc050404ce6:	e398                	sd	a4,0(a5)
ffffffc050404ce8:	0001                	nop
ffffffc050404cea:	6462                	ld	s0,24(sp)
ffffffc050404cec:	6105                	addi	sp,sp,32
ffffffc050404cee:	8082                	ret

ffffffc050404cf0 <list_del>:
ffffffc050404cf0:	1101                	addi	sp,sp,-32
ffffffc050404cf2:	ec06                	sd	ra,24(sp)
ffffffc050404cf4:	e822                	sd	s0,16(sp)
ffffffc050404cf6:	1000                	addi	s0,sp,32
ffffffc050404cf8:	fea43423          	sd	a0,-24(s0)
ffffffc050404cfc:	fe843783          	ld	a5,-24(s0)
ffffffc050404d00:	679c                	ld	a5,8(a5)
ffffffc050404d02:	c79d                	beqz	a5,ffffffc050404d30 <list_del+0x40>
ffffffc050404d04:	fe843783          	ld	a5,-24(s0)
ffffffc050404d08:	639c                	ld	a5,0(a5)
ffffffc050404d0a:	c39d                	beqz	a5,ffffffc050404d30 <list_del+0x40>
ffffffc050404d0c:	fe843783          	ld	a5,-24(s0)
ffffffc050404d10:	6798                	ld	a4,8(a5)
ffffffc050404d12:	fe843783          	ld	a5,-24(s0)
ffffffc050404d16:	639c                	ld	a5,0(a5)
ffffffc050404d18:	85be                	mv	a1,a5
ffffffc050404d1a:	853a                	mv	a0,a4
ffffffc050404d1c:	fabff0ef          	jal	ra,ffffffc050404cc6 <_list_del>
ffffffc050404d20:	fe843783          	ld	a5,-24(s0)
ffffffc050404d24:	0007b423          	sd	zero,8(a5)
ffffffc050404d28:	fe843783          	ld	a5,-24(s0)
ffffffc050404d2c:	0007b023          	sd	zero,0(a5)
ffffffc050404d30:	0001                	nop
ffffffc050404d32:	60e2                	ld	ra,24(sp)
ffffffc050404d34:	6442                	ld	s0,16(sp)
ffffffc050404d36:	6105                	addi	sp,sp,32
ffffffc050404d38:	8082                	ret

ffffffc050404d3a <list_empty>:
ffffffc050404d3a:	1101                	addi	sp,sp,-32
ffffffc050404d3c:	ec22                	sd	s0,24(sp)
ffffffc050404d3e:	1000                	addi	s0,sp,32
ffffffc050404d40:	fea43423          	sd	a0,-24(s0)
ffffffc050404d44:	fe843783          	ld	a5,-24(s0)
ffffffc050404d48:	639c                	ld	a5,0(a5)
ffffffc050404d4a:	fe843703          	ld	a4,-24(s0)
ffffffc050404d4e:	40f707b3          	sub	a5,a4,a5
ffffffc050404d52:	0017b793          	seqz	a5,a5
ffffffc050404d56:	0ff7f793          	andi	a5,a5,255
ffffffc050404d5a:	2781                	sext.w	a5,a5
ffffffc050404d5c:	853e                	mv	a0,a5
ffffffc050404d5e:	6462                	ld	s0,24(sp)
ffffffc050404d60:	6105                	addi	sp,sp,32
ffffffc050404d62:	8082                	ret

ffffffc050404d64 <kva2pa>:
ffffffc050404d64:	1101                	addi	sp,sp,-32
ffffffc050404d66:	ec22                	sd	s0,24(sp)
ffffffc050404d68:	1000                	addi	s0,sp,32
ffffffc050404d6a:	fea43423          	sd	a0,-24(s0)
ffffffc050404d6e:	fe843703          	ld	a4,-24(s0)
ffffffc050404d72:	4785                	li	a5,1
ffffffc050404d74:	179a                	slli	a5,a5,0x26
ffffffc050404d76:	97ba                	add	a5,a5,a4
ffffffc050404d78:	853e                	mv	a0,a5
ffffffc050404d7a:	6462                	ld	s0,24(sp)
ffffffc050404d7c:	6105                	addi	sp,sp,32
ffffffc050404d7e:	8082                	ret

ffffffc050404d80 <pa2kva>:
ffffffc050404d80:	1101                	addi	sp,sp,-32
ffffffc050404d82:	ec22                	sd	s0,24(sp)
ffffffc050404d84:	1000                	addi	s0,sp,32
ffffffc050404d86:	fea43423          	sd	a0,-24(s0)
ffffffc050404d8a:	fe843703          	ld	a4,-24(s0)
ffffffc050404d8e:	57fd                	li	a5,-1
ffffffc050404d90:	179a                	slli	a5,a5,0x26
ffffffc050404d92:	97ba                	add	a5,a5,a4
ffffffc050404d94:	853e                	mv	a0,a5
ffffffc050404d96:	6462                	ld	s0,24(sp)
ffffffc050404d98:	6105                	addi	sp,sp,32
ffffffc050404d9a:	8082                	ret

ffffffc050404d9c <set_pfn>:
ffffffc050404d9c:	7179                	addi	sp,sp,-48
ffffffc050404d9e:	f422                	sd	s0,40(sp)
ffffffc050404da0:	1800                	addi	s0,sp,48
ffffffc050404da2:	fca43c23          	sd	a0,-40(s0)
ffffffc050404da6:	fcb43823          	sd	a1,-48(s0)
ffffffc050404daa:	c0000793          	li	a5,-1024
ffffffc050404dae:	fef43423          	sd	a5,-24(s0)
ffffffc050404db2:	fd843783          	ld	a5,-40(s0)
ffffffc050404db6:	6398                	ld	a4,0(a5)
ffffffc050404db8:	fd043783          	ld	a5,-48(s0)
ffffffc050404dbc:	00a79693          	slli	a3,a5,0xa
ffffffc050404dc0:	fe843783          	ld	a5,-24(s0)
ffffffc050404dc4:	8ff5                	and	a5,a5,a3
ffffffc050404dc6:	8f5d                	or	a4,a4,a5
ffffffc050404dc8:	fd843783          	ld	a5,-40(s0)
ffffffc050404dcc:	e398                	sd	a4,0(a5)
ffffffc050404dce:	0001                	nop
ffffffc050404dd0:	7422                	ld	s0,40(sp)
ffffffc050404dd2:	6145                	addi	sp,sp,48
ffffffc050404dd4:	8082                	ret

ffffffc050404dd6 <set_attribute>:
ffffffc050404dd6:	1101                	addi	sp,sp,-32
ffffffc050404dd8:	ec22                	sd	s0,24(sp)
ffffffc050404dda:	1000                	addi	s0,sp,32
ffffffc050404ddc:	fea43423          	sd	a0,-24(s0)
ffffffc050404de0:	feb43023          	sd	a1,-32(s0)
ffffffc050404de4:	fe843783          	ld	a5,-24(s0)
ffffffc050404de8:	6398                	ld	a4,0(a5)
ffffffc050404dea:	fe043783          	ld	a5,-32(s0)
ffffffc050404dee:	8f5d                	or	a4,a4,a5
ffffffc050404df0:	fe843783          	ld	a5,-24(s0)
ffffffc050404df4:	e398                	sd	a4,0(a5)
ffffffc050404df6:	0001                	nop
ffffffc050404df8:	6462                	ld	s0,24(sp)
ffffffc050404dfa:	6105                	addi	sp,sp,32
ffffffc050404dfc:	8082                	ret

ffffffc050404dfe <allocPage>:
ffffffc050404dfe:	7179                	addi	sp,sp,-48
ffffffc050404e00:	f406                	sd	ra,40(sp)
ffffffc050404e02:	f022                	sd	s0,32(sp)
ffffffc050404e04:	1800                	addi	s0,sp,48
ffffffc050404e06:	00002517          	auipc	a0,0x2
ffffffc050404e0a:	e4250513          	addi	a0,a0,-446 # ffffffc050406c48 <freePageList>
ffffffc050404e0e:	f2dff0ef          	jal	ra,ffffffc050404d3a <list_empty>
ffffffc050404e12:	87aa                	mv	a5,a0
ffffffc050404e14:	e3a1                	bnez	a5,ffffffc050404e54 <allocPage+0x56>
ffffffc050404e16:	00002797          	auipc	a5,0x2
ffffffc050404e1a:	e3278793          	addi	a5,a5,-462 # ffffffc050406c48 <freePageList>
ffffffc050404e1e:	639c                	ld	a5,0(a5)
ffffffc050404e20:	fef43423          	sd	a5,-24(s0)
ffffffc050404e24:	fe843783          	ld	a5,-24(s0)
ffffffc050404e28:	1781                	addi	a5,a5,-32
ffffffc050404e2a:	fef43023          	sd	a5,-32(s0)
ffffffc050404e2e:	fe043783          	ld	a5,-32(s0)
ffffffc050404e32:	639c                	ld	a5,0(a5)
ffffffc050404e34:	853e                	mv	a0,a5
ffffffc050404e36:	f4bff0ef          	jal	ra,ffffffc050404d80 <pa2kva>
ffffffc050404e3a:	fca43c23          	sd	a0,-40(s0)
ffffffc050404e3e:	00002797          	auipc	a5,0x2
ffffffc050404e42:	e0a78793          	addi	a5,a5,-502 # ffffffc050406c48 <freePageList>
ffffffc050404e46:	639c                	ld	a5,0(a5)
ffffffc050404e48:	853e                	mv	a0,a5
ffffffc050404e4a:	ea7ff0ef          	jal	ra,ffffffc050404cf0 <list_del>
ffffffc050404e4e:	fd843783          	ld	a5,-40(s0)
ffffffc050404e52:	a821                	j	ffffffc050404e6a <allocPage+0x6c>
ffffffc050404e54:	81818793          	addi	a5,gp,-2024 # ffffffc050444200 <memCurr>
ffffffc050404e58:	6398                	ld	a4,0(a5)
ffffffc050404e5a:	6785                	lui	a5,0x1
ffffffc050404e5c:	973e                	add	a4,a4,a5
ffffffc050404e5e:	81818793          	addi	a5,gp,-2024 # ffffffc050444200 <memCurr>
ffffffc050404e62:	e398                	sd	a4,0(a5)
ffffffc050404e64:	81818793          	addi	a5,gp,-2024 # ffffffc050444200 <memCurr>
ffffffc050404e68:	639c                	ld	a5,0(a5)
ffffffc050404e6a:	853e                	mv	a0,a5
ffffffc050404e6c:	70a2                	ld	ra,40(sp)
ffffffc050404e6e:	7402                	ld	s0,32(sp)
ffffffc050404e70:	6145                	addi	sp,sp,48
ffffffc050404e72:	8082                	ret

ffffffc050404e74 <freePage>:
ffffffc050404e74:	1101                	addi	sp,sp,-32
ffffffc050404e76:	ec22                	sd	s0,24(sp)
ffffffc050404e78:	1000                	addi	s0,sp,32
ffffffc050404e7a:	fea43423          	sd	a0,-24(s0)
ffffffc050404e7e:	0001                	nop
ffffffc050404e80:	6462                	ld	s0,24(sp)
ffffffc050404e82:	6105                	addi	sp,sp,32
ffffffc050404e84:	8082                	ret

ffffffc050404e86 <kmalloc>:
ffffffc050404e86:	7179                	addi	sp,sp,-48
ffffffc050404e88:	f422                	sd	s0,40(sp)
ffffffc050404e8a:	1800                	addi	s0,sp,48
ffffffc050404e8c:	fca43c23          	sd	a0,-40(s0)
ffffffc050404e90:	82018793          	addi	a5,gp,-2016 # ffffffc050444208 <heapCurr>
ffffffc050404e94:	639c                	ld	a5,0(a5)
ffffffc050404e96:	078d                	addi	a5,a5,3
ffffffc050404e98:	9bf1                	andi	a5,a5,-4
ffffffc050404e9a:	fef43423          	sd	a5,-24(s0)
ffffffc050404e9e:	fe843703          	ld	a4,-24(s0)
ffffffc050404ea2:	fd843783          	ld	a5,-40(s0)
ffffffc050404ea6:	973e                	add	a4,a4,a5
ffffffc050404ea8:	82018793          	addi	a5,gp,-2016 # ffffffc050444208 <heapCurr>
ffffffc050404eac:	e398                	sd	a4,0(a5)
ffffffc050404eae:	fe843783          	ld	a5,-24(s0)
ffffffc050404eb2:	853e                	mv	a0,a5
ffffffc050404eb4:	7422                	ld	s0,40(sp)
ffffffc050404eb6:	6145                	addi	sp,sp,48
ffffffc050404eb8:	8082                	ret

ffffffc050404eba <shm_page_get>:
ffffffc050404eba:	715d                	addi	sp,sp,-80
ffffffc050404ebc:	e486                	sd	ra,72(sp)
ffffffc050404ebe:	e0a2                	sd	s0,64(sp)
ffffffc050404ec0:	fc26                	sd	s1,56(sp)
ffffffc050404ec2:	0880                	addi	s0,sp,80
ffffffc050404ec4:	87aa                	mv	a5,a0
ffffffc050404ec6:	faf42e23          	sw	a5,-68(s0)
ffffffc050404eca:	bfefb0ef          	jal	ra,ffffffc0504002c8 <get_current_cpu_id>
ffffffc050404ece:	87aa                	mv	a5,a0
ffffffc050404ed0:	e791                	bnez	a5,ffffffc050404edc <shm_page_get+0x22>
ffffffc050404ed2:	00041797          	auipc	a5,0x41
ffffffc050404ed6:	33e78793          	addi	a5,a5,830 # ffffffc050446210 <current_running_core0>
ffffffc050404eda:	a029                	j	ffffffc050404ee4 <shm_page_get+0x2a>
ffffffc050404edc:	00041797          	auipc	a5,0x41
ffffffc050404ee0:	32c78793          	addi	a5,a5,812 # ffffffc050446208 <current_running_core1>
ffffffc050404ee4:	00043717          	auipc	a4,0x43
ffffffc050404ee8:	ae470713          	addi	a4,a4,-1308 # ffffffc0504479c8 <current_running>
ffffffc050404eec:	e31c                	sd	a5,0(a4)
ffffffc050404eee:	00c007b7          	lui	a5,0xc00
ffffffc050404ef2:	fcf43c23          	sd	a5,-40(s0)
ffffffc050404ef6:	fc042a23          	sw	zero,-44(s0)
ffffffc050404efa:	aa39                	j	ffffffc050405018 <shm_page_get+0x15e>
ffffffc050404efc:	00044697          	auipc	a3,0x44
ffffffc050404f00:	85468693          	addi	a3,a3,-1964 # ffffffc050448750 <spage>
ffffffc050404f04:	fd442703          	lw	a4,-44(s0)
ffffffc050404f08:	87ba                	mv	a5,a4
ffffffc050404f0a:	078e                	slli	a5,a5,0x3
ffffffc050404f0c:	97ba                	add	a5,a5,a4
ffffffc050404f0e:	0792                	slli	a5,a5,0x4
ffffffc050404f10:	97b6                	add	a5,a5,a3
ffffffc050404f12:	0007c783          	lbu	a5,0(a5) # c00000 <_start-0xffffffc04f800000>
ffffffc050404f16:	0e078c63          	beqz	a5,ffffffc05040500e <shm_page_get+0x154>
ffffffc050404f1a:	00044697          	auipc	a3,0x44
ffffffc050404f1e:	83668693          	addi	a3,a3,-1994 # ffffffc050448750 <spage>
ffffffc050404f22:	fd442703          	lw	a4,-44(s0)
ffffffc050404f26:	87ba                	mv	a5,a4
ffffffc050404f28:	078e                	slli	a5,a5,0x3
ffffffc050404f2a:	97ba                	add	a5,a5,a4
ffffffc050404f2c:	0792                	slli	a5,a5,0x4
ffffffc050404f2e:	97b6                	add	a5,a5,a3
ffffffc050404f30:	0017c783          	lbu	a5,1(a5)
ffffffc050404f34:	0007871b          	sext.w	a4,a5
ffffffc050404f38:	fbc42783          	lw	a5,-68(s0)
ffffffc050404f3c:	2781                	sext.w	a5,a5
ffffffc050404f3e:	0ce79863          	bne	a5,a4,ffffffc05040500e <shm_page_get+0x154>
ffffffc050404f42:	00043797          	auipc	a5,0x43
ffffffc050404f46:	a8678793          	addi	a5,a5,-1402 # ffffffc0504479c8 <current_running>
ffffffc050404f4a:	639c                	ld	a5,0(a5)
ffffffc050404f4c:	639c                	ld	a5,0(a5)
ffffffc050404f4e:	7fdc                	ld	a5,184(a5)
ffffffc050404f50:	853e                	mv	a0,a5
ffffffc050404f52:	e2fff0ef          	jal	ra,ffffffc050404d80 <pa2kva>
ffffffc050404f56:	87aa                	mv	a5,a0
ffffffc050404f58:	85be                	mv	a1,a5
ffffffc050404f5a:	fd843503          	ld	a0,-40(s0)
ffffffc050404f5e:	754000ef          	jal	ra,ffffffc0504056b2 <check_page_helper>
ffffffc050404f62:	87aa                	mv	a5,a0
ffffffc050404f64:	cb81                	beqz	a5,ffffffc050404f74 <shm_page_get+0xba>
ffffffc050404f66:	fd843703          	ld	a4,-40(s0)
ffffffc050404f6a:	6785                	lui	a5,0x1
ffffffc050404f6c:	97ba                	add	a5,a5,a4
ffffffc050404f6e:	fcf43c23          	sd	a5,-40(s0)
ffffffc050404f72:	bfc1                	j	ffffffc050404f42 <shm_page_get+0x88>
ffffffc050404f74:	0001                	nop
ffffffc050404f76:	00043697          	auipc	a3,0x43
ffffffc050404f7a:	7da68693          	addi	a3,a3,2010 # ffffffc050448750 <spage>
ffffffc050404f7e:	fd442703          	lw	a4,-44(s0)
ffffffc050404f82:	87ba                	mv	a5,a4
ffffffc050404f84:	078e                	slli	a5,a5,0x3
ffffffc050404f86:	97ba                	add	a5,a5,a4
ffffffc050404f88:	0792                	slli	a5,a5,0x4
ffffffc050404f8a:	97b6                	add	a5,a5,a3
ffffffc050404f8c:	6784                	ld	s1,8(a5)
ffffffc050404f8e:	00043797          	auipc	a5,0x43
ffffffc050404f92:	a3a78793          	addi	a5,a5,-1478 # ffffffc0504479c8 <current_running>
ffffffc050404f96:	639c                	ld	a5,0(a5)
ffffffc050404f98:	639c                	ld	a5,0(a5)
ffffffc050404f9a:	7fdc                	ld	a5,184(a5)
ffffffc050404f9c:	853e                	mv	a0,a5
ffffffc050404f9e:	de3ff0ef          	jal	ra,ffffffc050404d80 <pa2kva>
ffffffc050404fa2:	87aa                	mv	a5,a0
ffffffc050404fa4:	863e                	mv	a2,a5
ffffffc050404fa6:	85a6                	mv	a1,s1
ffffffc050404fa8:	fd843503          	ld	a0,-40(s0)
ffffffc050404fac:	364000ef          	jal	ra,ffffffc050405310 <setup_shm_page>
ffffffc050404fb0:	00043797          	auipc	a5,0x43
ffffffc050404fb4:	a1878793          	addi	a5,a5,-1512 # ffffffc0504479c8 <current_running>
ffffffc050404fb8:	639c                	ld	a5,0(a5)
ffffffc050404fba:	639c                	ld	a5,0(a5)
ffffffc050404fbc:	5790                	lw	a2,40(a5)
ffffffc050404fbe:	00043697          	auipc	a3,0x43
ffffffc050404fc2:	79268693          	addi	a3,a3,1938 # ffffffc050448750 <spage>
ffffffc050404fc6:	fd442703          	lw	a4,-44(s0)
ffffffc050404fca:	87ba                	mv	a5,a4
ffffffc050404fcc:	078e                	slli	a5,a5,0x3
ffffffc050404fce:	97ba                	add	a5,a5,a4
ffffffc050404fd0:	0786                	slli	a5,a5,0x1
ffffffc050404fd2:	97b2                	add	a5,a5,a2
ffffffc050404fd4:	0789                	addi	a5,a5,2
ffffffc050404fd6:	078e                	slli	a5,a5,0x3
ffffffc050404fd8:	97b6                	add	a5,a5,a3
ffffffc050404fda:	fd843703          	ld	a4,-40(s0)
ffffffc050404fde:	e398                	sd	a4,0(a5)
ffffffc050404fe0:	00043797          	auipc	a5,0x43
ffffffc050404fe4:	9e878793          	addi	a5,a5,-1560 # ffffffc0504479c8 <current_running>
ffffffc050404fe8:	639c                	ld	a5,0(a5)
ffffffc050404fea:	639c                	ld	a5,0(a5)
ffffffc050404fec:	5790                	lw	a2,40(a5)
ffffffc050404fee:	00043697          	auipc	a3,0x43
ffffffc050404ff2:	76268693          	addi	a3,a3,1890 # ffffffc050448750 <spage>
ffffffc050404ff6:	fd442703          	lw	a4,-44(s0)
ffffffc050404ffa:	87ba                	mv	a5,a4
ffffffc050404ffc:	078e                	slli	a5,a5,0x3
ffffffc050404ffe:	97ba                	add	a5,a5,a4
ffffffc050405000:	0786                	slli	a5,a5,0x1
ffffffc050405002:	97b2                	add	a5,a5,a2
ffffffc050405004:	0789                	addi	a5,a5,2
ffffffc050405006:	078e                	slli	a5,a5,0x3
ffffffc050405008:	97b6                	add	a5,a5,a3
ffffffc05040500a:	639c                	ld	a5,0(a5)
ffffffc05040500c:	aa81                	j	ffffffc05040515c <shm_page_get+0x2a2>
ffffffc05040500e:	fd442783          	lw	a5,-44(s0)
ffffffc050405012:	2785                	addiw	a5,a5,1
ffffffc050405014:	fcf42a23          	sw	a5,-44(s0)
ffffffc050405018:	fd442783          	lw	a5,-44(s0)
ffffffc05040501c:	0007871b          	sext.w	a4,a5
ffffffc050405020:	47bd                	li	a5,15
ffffffc050405022:	ece7dde3          	bge	a5,a4,ffffffc050404efc <shm_page_get+0x42>
ffffffc050405026:	00043797          	auipc	a5,0x43
ffffffc05040502a:	9a278793          	addi	a5,a5,-1630 # ffffffc0504479c8 <current_running>
ffffffc05040502e:	639c                	ld	a5,0(a5)
ffffffc050405030:	639c                	ld	a5,0(a5)
ffffffc050405032:	7fdc                	ld	a5,184(a5)
ffffffc050405034:	853e                	mv	a0,a5
ffffffc050405036:	d4bff0ef          	jal	ra,ffffffc050404d80 <pa2kva>
ffffffc05040503a:	87aa                	mv	a5,a0
ffffffc05040503c:	4605                	li	a2,1
ffffffc05040503e:	85be                	mv	a1,a5
ffffffc050405040:	fd843503          	ld	a0,-40(s0)
ffffffc050405044:	422000ef          	jal	ra,ffffffc050405466 <alloc_page_helper>
ffffffc050405048:	fca43423          	sd	a0,-56(s0)
ffffffc05040504c:	fc843783          	ld	a5,-56(s0)
ffffffc050405050:	eb81                	bnez	a5,ffffffc050405060 <shm_page_get+0x1a6>
ffffffc050405052:	fd843703          	ld	a4,-40(s0)
ffffffc050405056:	6785                	lui	a5,0x1
ffffffc050405058:	97ba                	add	a5,a5,a4
ffffffc05040505a:	fcf43c23          	sd	a5,-40(s0)
ffffffc05040505e:	b7e1                	j	ffffffc050405026 <shm_page_get+0x16c>
ffffffc050405060:	0001                	nop
ffffffc050405062:	fc042a23          	sw	zero,-44(s0)
ffffffc050405066:	a025                	j	ffffffc05040508e <shm_page_get+0x1d4>
ffffffc050405068:	00043697          	auipc	a3,0x43
ffffffc05040506c:	6e868693          	addi	a3,a3,1768 # ffffffc050448750 <spage>
ffffffc050405070:	fd442703          	lw	a4,-44(s0)
ffffffc050405074:	87ba                	mv	a5,a4
ffffffc050405076:	078e                	slli	a5,a5,0x3
ffffffc050405078:	97ba                	add	a5,a5,a4
ffffffc05040507a:	0792                	slli	a5,a5,0x4
ffffffc05040507c:	97b6                	add	a5,a5,a3
ffffffc05040507e:	0007c783          	lbu	a5,0(a5) # 1000 <_start-0xffffffc0503ff000>
ffffffc050405082:	cf91                	beqz	a5,ffffffc05040509e <shm_page_get+0x1e4>
ffffffc050405084:	fd442783          	lw	a5,-44(s0)
ffffffc050405088:	2785                	addiw	a5,a5,1
ffffffc05040508a:	fcf42a23          	sw	a5,-44(s0)
ffffffc05040508e:	fd442783          	lw	a5,-44(s0)
ffffffc050405092:	0007871b          	sext.w	a4,a5
ffffffc050405096:	47bd                	li	a5,15
ffffffc050405098:	fce7d8e3          	bge	a5,a4,ffffffc050405068 <shm_page_get+0x1ae>
ffffffc05040509c:	a011                	j	ffffffc0504050a0 <shm_page_get+0x1e6>
ffffffc05040509e:	0001                	nop
ffffffc0504050a0:	00043697          	auipc	a3,0x43
ffffffc0504050a4:	6b068693          	addi	a3,a3,1712 # ffffffc050448750 <spage>
ffffffc0504050a8:	fd442703          	lw	a4,-44(s0)
ffffffc0504050ac:	87ba                	mv	a5,a4
ffffffc0504050ae:	078e                	slli	a5,a5,0x3
ffffffc0504050b0:	97ba                	add	a5,a5,a4
ffffffc0504050b2:	0792                	slli	a5,a5,0x4
ffffffc0504050b4:	97b6                	add	a5,a5,a3
ffffffc0504050b6:	4705                	li	a4,1
ffffffc0504050b8:	00e78023          	sb	a4,0(a5)
ffffffc0504050bc:	fbc42783          	lw	a5,-68(s0)
ffffffc0504050c0:	0ff7f693          	andi	a3,a5,255
ffffffc0504050c4:	00043617          	auipc	a2,0x43
ffffffc0504050c8:	68c60613          	addi	a2,a2,1676 # ffffffc050448750 <spage>
ffffffc0504050cc:	fd442703          	lw	a4,-44(s0)
ffffffc0504050d0:	87ba                	mv	a5,a4
ffffffc0504050d2:	078e                	slli	a5,a5,0x3
ffffffc0504050d4:	97ba                	add	a5,a5,a4
ffffffc0504050d6:	0792                	slli	a5,a5,0x4
ffffffc0504050d8:	97b2                	add	a5,a5,a2
ffffffc0504050da:	00d780a3          	sb	a3,1(a5)
ffffffc0504050de:	fc843503          	ld	a0,-56(s0)
ffffffc0504050e2:	c83ff0ef          	jal	ra,ffffffc050404d64 <kva2pa>
ffffffc0504050e6:	862a                	mv	a2,a0
ffffffc0504050e8:	00043697          	auipc	a3,0x43
ffffffc0504050ec:	66868693          	addi	a3,a3,1640 # ffffffc050448750 <spage>
ffffffc0504050f0:	fd442703          	lw	a4,-44(s0)
ffffffc0504050f4:	87ba                	mv	a5,a4
ffffffc0504050f6:	078e                	slli	a5,a5,0x3
ffffffc0504050f8:	97ba                	add	a5,a5,a4
ffffffc0504050fa:	0792                	slli	a5,a5,0x4
ffffffc0504050fc:	97b6                	add	a5,a5,a3
ffffffc0504050fe:	e790                	sd	a2,8(a5)
ffffffc050405100:	00043797          	auipc	a5,0x43
ffffffc050405104:	8c878793          	addi	a5,a5,-1848 # ffffffc0504479c8 <current_running>
ffffffc050405108:	639c                	ld	a5,0(a5)
ffffffc05040510a:	639c                	ld	a5,0(a5)
ffffffc05040510c:	5790                	lw	a2,40(a5)
ffffffc05040510e:	00043697          	auipc	a3,0x43
ffffffc050405112:	64268693          	addi	a3,a3,1602 # ffffffc050448750 <spage>
ffffffc050405116:	fd442703          	lw	a4,-44(s0)
ffffffc05040511a:	87ba                	mv	a5,a4
ffffffc05040511c:	078e                	slli	a5,a5,0x3
ffffffc05040511e:	97ba                	add	a5,a5,a4
ffffffc050405120:	0786                	slli	a5,a5,0x1
ffffffc050405122:	97b2                	add	a5,a5,a2
ffffffc050405124:	0789                	addi	a5,a5,2
ffffffc050405126:	078e                	slli	a5,a5,0x3
ffffffc050405128:	97b6                	add	a5,a5,a3
ffffffc05040512a:	fd843703          	ld	a4,-40(s0)
ffffffc05040512e:	e398                	sd	a4,0(a5)
ffffffc050405130:	00043797          	auipc	a5,0x43
ffffffc050405134:	89878793          	addi	a5,a5,-1896 # ffffffc0504479c8 <current_running>
ffffffc050405138:	639c                	ld	a5,0(a5)
ffffffc05040513a:	639c                	ld	a5,0(a5)
ffffffc05040513c:	5790                	lw	a2,40(a5)
ffffffc05040513e:	00043697          	auipc	a3,0x43
ffffffc050405142:	61268693          	addi	a3,a3,1554 # ffffffc050448750 <spage>
ffffffc050405146:	fd442703          	lw	a4,-44(s0)
ffffffc05040514a:	87ba                	mv	a5,a4
ffffffc05040514c:	078e                	slli	a5,a5,0x3
ffffffc05040514e:	97ba                	add	a5,a5,a4
ffffffc050405150:	0786                	slli	a5,a5,0x1
ffffffc050405152:	97b2                	add	a5,a5,a2
ffffffc050405154:	0789                	addi	a5,a5,2
ffffffc050405156:	078e                	slli	a5,a5,0x3
ffffffc050405158:	97b6                	add	a5,a5,a3
ffffffc05040515a:	639c                	ld	a5,0(a5)
ffffffc05040515c:	853e                	mv	a0,a5
ffffffc05040515e:	60a6                	ld	ra,72(sp)
ffffffc050405160:	6406                	ld	s0,64(sp)
ffffffc050405162:	74e2                	ld	s1,56(sp)
ffffffc050405164:	6161                	addi	sp,sp,80
ffffffc050405166:	8082                	ret

ffffffc050405168 <shm_page_dt>:
ffffffc050405168:	7139                	addi	sp,sp,-64
ffffffc05040516a:	fc06                	sd	ra,56(sp)
ffffffc05040516c:	f822                	sd	s0,48(sp)
ffffffc05040516e:	0080                	addi	s0,sp,64
ffffffc050405170:	fca43423          	sd	a0,-56(s0)
ffffffc050405174:	954fb0ef          	jal	ra,ffffffc0504002c8 <get_current_cpu_id>
ffffffc050405178:	87aa                	mv	a5,a0
ffffffc05040517a:	e791                	bnez	a5,ffffffc050405186 <shm_page_dt+0x1e>
ffffffc05040517c:	00041797          	auipc	a5,0x41
ffffffc050405180:	09478793          	addi	a5,a5,148 # ffffffc050446210 <current_running_core0>
ffffffc050405184:	a029                	j	ffffffc05040518e <shm_page_dt+0x26>
ffffffc050405186:	00041797          	auipc	a5,0x41
ffffffc05040518a:	08278793          	addi	a5,a5,130 # ffffffc050446208 <current_running_core1>
ffffffc05040518e:	00043717          	auipc	a4,0x43
ffffffc050405192:	83a70713          	addi	a4,a4,-1990 # ffffffc0504479c8 <current_running>
ffffffc050405196:	e31c                	sd	a5,0(a4)
ffffffc050405198:	fc843703          	ld	a4,-56(s0)
ffffffc05040519c:	77fd                	lui	a5,0xfffff
ffffffc05040519e:	8ff9                	and	a5,a5,a4
ffffffc0504051a0:	fcf43c23          	sd	a5,-40(s0)
ffffffc0504051a4:	fe042623          	sw	zero,-20(s0)
ffffffc0504051a8:	a8b1                	j	ffffffc050405204 <shm_page_dt+0x9c>
ffffffc0504051aa:	00043697          	auipc	a3,0x43
ffffffc0504051ae:	5a668693          	addi	a3,a3,1446 # ffffffc050448750 <spage>
ffffffc0504051b2:	fec42703          	lw	a4,-20(s0)
ffffffc0504051b6:	87ba                	mv	a5,a4
ffffffc0504051b8:	078e                	slli	a5,a5,0x3
ffffffc0504051ba:	97ba                	add	a5,a5,a4
ffffffc0504051bc:	0792                	slli	a5,a5,0x4
ffffffc0504051be:	97b6                	add	a5,a5,a3
ffffffc0504051c0:	0007c783          	lbu	a5,0(a5) # fffffffffffff000 <__BSS_END__+0x3fafbb5da8>
ffffffc0504051c4:	cb9d                	beqz	a5,ffffffc0504051fa <shm_page_dt+0x92>
ffffffc0504051c6:	00043797          	auipc	a5,0x43
ffffffc0504051ca:	80278793          	addi	a5,a5,-2046 # ffffffc0504479c8 <current_running>
ffffffc0504051ce:	639c                	ld	a5,0(a5)
ffffffc0504051d0:	639c                	ld	a5,0(a5)
ffffffc0504051d2:	5790                	lw	a2,40(a5)
ffffffc0504051d4:	00043697          	auipc	a3,0x43
ffffffc0504051d8:	57c68693          	addi	a3,a3,1404 # ffffffc050448750 <spage>
ffffffc0504051dc:	fec42703          	lw	a4,-20(s0)
ffffffc0504051e0:	87ba                	mv	a5,a4
ffffffc0504051e2:	078e                	slli	a5,a5,0x3
ffffffc0504051e4:	97ba                	add	a5,a5,a4
ffffffc0504051e6:	0786                	slli	a5,a5,0x1
ffffffc0504051e8:	97b2                	add	a5,a5,a2
ffffffc0504051ea:	0789                	addi	a5,a5,2
ffffffc0504051ec:	078e                	slli	a5,a5,0x3
ffffffc0504051ee:	97b6                	add	a5,a5,a3
ffffffc0504051f0:	639c                	ld	a5,0(a5)
ffffffc0504051f2:	fd843703          	ld	a4,-40(s0)
ffffffc0504051f6:	00f70f63          	beq	a4,a5,ffffffc050405214 <shm_page_dt+0xac>
ffffffc0504051fa:	fec42783          	lw	a5,-20(s0)
ffffffc0504051fe:	2785                	addiw	a5,a5,1
ffffffc050405200:	fef42623          	sw	a5,-20(s0)
ffffffc050405204:	fec42783          	lw	a5,-20(s0)
ffffffc050405208:	0007871b          	sext.w	a4,a5
ffffffc05040520c:	47bd                	li	a5,15
ffffffc05040520e:	f8e7dee3          	bge	a5,a4,ffffffc0504051aa <shm_page_dt+0x42>
ffffffc050405212:	a011                	j	ffffffc050405216 <shm_page_dt+0xae>
ffffffc050405214:	0001                	nop
ffffffc050405216:	00042797          	auipc	a5,0x42
ffffffc05040521a:	7b278793          	addi	a5,a5,1970 # ffffffc0504479c8 <current_running>
ffffffc05040521e:	639c                	ld	a5,0(a5)
ffffffc050405220:	639c                	ld	a5,0(a5)
ffffffc050405222:	5790                	lw	a2,40(a5)
ffffffc050405224:	00043697          	auipc	a3,0x43
ffffffc050405228:	52c68693          	addi	a3,a3,1324 # ffffffc050448750 <spage>
ffffffc05040522c:	fec42703          	lw	a4,-20(s0)
ffffffc050405230:	87ba                	mv	a5,a4
ffffffc050405232:	078e                	slli	a5,a5,0x3
ffffffc050405234:	97ba                	add	a5,a5,a4
ffffffc050405236:	0786                	slli	a5,a5,0x1
ffffffc050405238:	97b2                	add	a5,a5,a2
ffffffc05040523a:	0789                	addi	a5,a5,2
ffffffc05040523c:	078e                	slli	a5,a5,0x3
ffffffc05040523e:	97b6                	add	a5,a5,a3
ffffffc050405240:	0007b023          	sd	zero,0(a5)
ffffffc050405244:	00042797          	auipc	a5,0x42
ffffffc050405248:	78478793          	addi	a5,a5,1924 # ffffffc0504479c8 <current_running>
ffffffc05040524c:	639c                	ld	a5,0(a5)
ffffffc05040524e:	639c                	ld	a5,0(a5)
ffffffc050405250:	7fdc                	ld	a5,184(a5)
ffffffc050405252:	853e                	mv	a0,a5
ffffffc050405254:	b2dff0ef          	jal	ra,ffffffc050404d80 <pa2kva>
ffffffc050405258:	87aa                	mv	a5,a0
ffffffc05040525a:	85be                	mv	a1,a5
ffffffc05040525c:	fd843503          	ld	a0,-40(s0)
ffffffc050405260:	3ae000ef          	jal	ra,ffffffc05040560e <free_page_helper>
ffffffc050405264:	fe042423          	sw	zero,-24(s0)
ffffffc050405268:	fe042223          	sw	zero,-28(s0)
ffffffc05040526c:	a81d                	j	ffffffc0504052a2 <shm_page_dt+0x13a>
ffffffc05040526e:	00043697          	auipc	a3,0x43
ffffffc050405272:	4e268693          	addi	a3,a3,1250 # ffffffc050448750 <spage>
ffffffc050405276:	fe442603          	lw	a2,-28(s0)
ffffffc05040527a:	fec42703          	lw	a4,-20(s0)
ffffffc05040527e:	87ba                	mv	a5,a4
ffffffc050405280:	078e                	slli	a5,a5,0x3
ffffffc050405282:	97ba                	add	a5,a5,a4
ffffffc050405284:	0786                	slli	a5,a5,0x1
ffffffc050405286:	97b2                	add	a5,a5,a2
ffffffc050405288:	0789                	addi	a5,a5,2
ffffffc05040528a:	078e                	slli	a5,a5,0x3
ffffffc05040528c:	97b6                	add	a5,a5,a3
ffffffc05040528e:	639c                	ld	a5,0(a5)
ffffffc050405290:	c781                	beqz	a5,ffffffc050405298 <shm_page_dt+0x130>
ffffffc050405292:	4785                	li	a5,1
ffffffc050405294:	fef42423          	sw	a5,-24(s0)
ffffffc050405298:	fe442783          	lw	a5,-28(s0)
ffffffc05040529c:	2785                	addiw	a5,a5,1
ffffffc05040529e:	fef42223          	sw	a5,-28(s0)
ffffffc0504052a2:	fe442783          	lw	a5,-28(s0)
ffffffc0504052a6:	0007871b          	sext.w	a4,a5
ffffffc0504052aa:	47bd                	li	a5,15
ffffffc0504052ac:	fce7d1e3          	bge	a5,a4,ffffffc05040526e <shm_page_dt+0x106>
ffffffc0504052b0:	fe842783          	lw	a5,-24(s0)
ffffffc0504052b4:	2781                	sext.w	a5,a5
ffffffc0504052b6:	ef8d                	bnez	a5,ffffffc0504052f0 <shm_page_dt+0x188>
ffffffc0504052b8:	00043697          	auipc	a3,0x43
ffffffc0504052bc:	49868693          	addi	a3,a3,1176 # ffffffc050448750 <spage>
ffffffc0504052c0:	fec42703          	lw	a4,-20(s0)
ffffffc0504052c4:	87ba                	mv	a5,a4
ffffffc0504052c6:	078e                	slli	a5,a5,0x3
ffffffc0504052c8:	97ba                	add	a5,a5,a4
ffffffc0504052ca:	0792                	slli	a5,a5,0x4
ffffffc0504052cc:	97b6                	add	a5,a5,a3
ffffffc0504052ce:	00078023          	sb	zero,0(a5)
ffffffc0504052d2:	00043697          	auipc	a3,0x43
ffffffc0504052d6:	47e68693          	addi	a3,a3,1150 # ffffffc050448750 <spage>
ffffffc0504052da:	fec42703          	lw	a4,-20(s0)
ffffffc0504052de:	87ba                	mv	a5,a4
ffffffc0504052e0:	078e                	slli	a5,a5,0x3
ffffffc0504052e2:	97ba                	add	a5,a5,a4
ffffffc0504052e4:	0792                	slli	a5,a5,0x4
ffffffc0504052e6:	97b6                	add	a5,a5,a3
ffffffc0504052e8:	679c                	ld	a5,8(a5)
ffffffc0504052ea:	853e                	mv	a0,a5
ffffffc0504052ec:	b89ff0ef          	jal	ra,ffffffc050404e74 <freePage>
ffffffc0504052f0:	0001                	nop
ffffffc0504052f2:	70e2                	ld	ra,56(sp)
ffffffc0504052f4:	7442                	ld	s0,48(sp)
ffffffc0504052f6:	6121                	addi	sp,sp,64
ffffffc0504052f8:	8082                	ret

ffffffc0504052fa <share_pgtable>:
ffffffc0504052fa:	1101                	addi	sp,sp,-32
ffffffc0504052fc:	ec22                	sd	s0,24(sp)
ffffffc0504052fe:	1000                	addi	s0,sp,32
ffffffc050405300:	fea43423          	sd	a0,-24(s0)
ffffffc050405304:	feb43023          	sd	a1,-32(s0)
ffffffc050405308:	0001                	nop
ffffffc05040530a:	6462                	ld	s0,24(sp)
ffffffc05040530c:	6105                	addi	sp,sp,32
ffffffc05040530e:	8082                	ret

ffffffc050405310 <setup_shm_page>:
ffffffc050405310:	7175                	addi	sp,sp,-144
ffffffc050405312:	e506                	sd	ra,136(sp)
ffffffc050405314:	e122                	sd	s0,128(sp)
ffffffc050405316:	fca6                	sd	s1,120(sp)
ffffffc050405318:	0900                	addi	s0,sp,144
ffffffc05040531a:	f8a43423          	sd	a0,-120(s0)
ffffffc05040531e:	f8b43023          	sd	a1,-128(s0)
ffffffc050405322:	f6c43c23          	sd	a2,-136(s0)
ffffffc050405326:	f8843783          	ld	a5,-120(s0)
ffffffc05040532a:	83b1                	srli	a5,a5,0xc
ffffffc05040532c:	1ff7f793          	andi	a5,a5,511
ffffffc050405330:	f8f43c23          	sd	a5,-104(s0)
ffffffc050405334:	f8843783          	ld	a5,-120(s0)
ffffffc050405338:	83d5                	srli	a5,a5,0x15
ffffffc05040533a:	1ff7f793          	andi	a5,a5,511
ffffffc05040533e:	faf43023          	sd	a5,-96(s0)
ffffffc050405342:	f8843783          	ld	a5,-120(s0)
ffffffc050405346:	83f9                	srli	a5,a5,0x1e
ffffffc050405348:	1ff7f793          	andi	a5,a5,511
ffffffc05040534c:	faf43423          	sd	a5,-88(s0)
ffffffc050405350:	fa843783          	ld	a5,-88(s0)
ffffffc050405354:	00379713          	slli	a4,a5,0x3
ffffffc050405358:	f7843783          	ld	a5,-136(s0)
ffffffc05040535c:	97ba                	add	a5,a5,a4
ffffffc05040535e:	fcf43423          	sd	a5,-56(s0)
ffffffc050405362:	fc043c23          	sd	zero,-40(s0)
ffffffc050405366:	fc043823          	sd	zero,-48(s0)
ffffffc05040536a:	fc843783          	ld	a5,-56(s0)
ffffffc05040536e:	639c                	ld	a5,0(a5)
ffffffc050405370:	8b85                	andi	a5,a5,1
ffffffc050405372:	ef9d                	bnez	a5,ffffffc0504053b0 <setup_shm_page+0xa0>
ffffffc050405374:	a8bff0ef          	jal	ra,ffffffc050404dfe <allocPage>
ffffffc050405378:	fca43023          	sd	a0,-64(s0)
ffffffc05040537c:	fc043503          	ld	a0,-64(s0)
ffffffc050405380:	9e5ff0ef          	jal	ra,ffffffc050404d64 <kva2pa>
ffffffc050405384:	87aa                	mv	a5,a0
ffffffc050405386:	83b1                	srli	a5,a5,0xc
ffffffc050405388:	00a79713          	slli	a4,a5,0xa
ffffffc05040538c:	fc843783          	ld	a5,-56(s0)
ffffffc050405390:	e398                	sd	a4,0(a5)
ffffffc050405392:	4585                	li	a1,1
ffffffc050405394:	fc843503          	ld	a0,-56(s0)
ffffffc050405398:	a3fff0ef          	jal	ra,ffffffc050404dd6 <set_attribute>
ffffffc05040539c:	fa043783          	ld	a5,-96(s0)
ffffffc0504053a0:	00379713          	slli	a4,a5,0x3
ffffffc0504053a4:	fc043783          	ld	a5,-64(s0)
ffffffc0504053a8:	97ba                	add	a5,a5,a4
ffffffc0504053aa:	fcf43c23          	sd	a5,-40(s0)
ffffffc0504053ae:	a00d                	j	ffffffc0504053d0 <setup_shm_page+0xc0>
ffffffc0504053b0:	fa043783          	ld	a5,-96(s0)
ffffffc0504053b4:	00379493          	slli	s1,a5,0x3
ffffffc0504053b8:	fc843783          	ld	a5,-56(s0)
ffffffc0504053bc:	639c                	ld	a5,0(a5)
ffffffc0504053be:	83a9                	srli	a5,a5,0xa
ffffffc0504053c0:	07b2                	slli	a5,a5,0xc
ffffffc0504053c2:	853e                	mv	a0,a5
ffffffc0504053c4:	9bdff0ef          	jal	ra,ffffffc050404d80 <pa2kva>
ffffffc0504053c8:	87aa                	mv	a5,a0
ffffffc0504053ca:	97a6                	add	a5,a5,s1
ffffffc0504053cc:	fcf43c23          	sd	a5,-40(s0)
ffffffc0504053d0:	fd843783          	ld	a5,-40(s0)
ffffffc0504053d4:	639c                	ld	a5,0(a5)
ffffffc0504053d6:	8b85                	andi	a5,a5,1
ffffffc0504053d8:	ef9d                	bnez	a5,ffffffc050405416 <setup_shm_page+0x106>
ffffffc0504053da:	a25ff0ef          	jal	ra,ffffffc050404dfe <allocPage>
ffffffc0504053de:	faa43c23          	sd	a0,-72(s0)
ffffffc0504053e2:	fb843503          	ld	a0,-72(s0)
ffffffc0504053e6:	97fff0ef          	jal	ra,ffffffc050404d64 <kva2pa>
ffffffc0504053ea:	87aa                	mv	a5,a0
ffffffc0504053ec:	83b1                	srli	a5,a5,0xc
ffffffc0504053ee:	00a79713          	slli	a4,a5,0xa
ffffffc0504053f2:	fd843783          	ld	a5,-40(s0)
ffffffc0504053f6:	e398                	sd	a4,0(a5)
ffffffc0504053f8:	4585                	li	a1,1
ffffffc0504053fa:	fd843503          	ld	a0,-40(s0)
ffffffc0504053fe:	9d9ff0ef          	jal	ra,ffffffc050404dd6 <set_attribute>
ffffffc050405402:	f9843783          	ld	a5,-104(s0)
ffffffc050405406:	00379713          	slli	a4,a5,0x3
ffffffc05040540a:	fb843783          	ld	a5,-72(s0)
ffffffc05040540e:	97ba                	add	a5,a5,a4
ffffffc050405410:	fcf43823          	sd	a5,-48(s0)
ffffffc050405414:	a00d                	j	ffffffc050405436 <setup_shm_page+0x126>
ffffffc050405416:	f9843783          	ld	a5,-104(s0)
ffffffc05040541a:	00379493          	slli	s1,a5,0x3
ffffffc05040541e:	fd843783          	ld	a5,-40(s0)
ffffffc050405422:	639c                	ld	a5,0(a5)
ffffffc050405424:	83a9                	srli	a5,a5,0xa
ffffffc050405426:	07b2                	slli	a5,a5,0xc
ffffffc050405428:	853e                	mv	a0,a5
ffffffc05040542a:	957ff0ef          	jal	ra,ffffffc050404d80 <pa2kva>
ffffffc05040542e:	87aa                	mv	a5,a0
ffffffc050405430:	97a6                	add	a5,a5,s1
ffffffc050405432:	fcf43823          	sd	a5,-48(s0)
ffffffc050405436:	f8043783          	ld	a5,-128(s0)
ffffffc05040543a:	83b1                	srli	a5,a5,0xc
ffffffc05040543c:	85be                	mv	a1,a5
ffffffc05040543e:	fd043503          	ld	a0,-48(s0)
ffffffc050405442:	95bff0ef          	jal	ra,ffffffc050404d9c <set_pfn>
ffffffc050405446:	0df00793          	li	a5,223
ffffffc05040544a:	faf43823          	sd	a5,-80(s0)
ffffffc05040544e:	fb043583          	ld	a1,-80(s0)
ffffffc050405452:	fd043503          	ld	a0,-48(s0)
ffffffc050405456:	981ff0ef          	jal	ra,ffffffc050404dd6 <set_attribute>
ffffffc05040545a:	0001                	nop
ffffffc05040545c:	60aa                	ld	ra,136(sp)
ffffffc05040545e:	640a                	ld	s0,128(sp)
ffffffc050405460:	74e6                	ld	s1,120(sp)
ffffffc050405462:	6149                	addi	sp,sp,144
ffffffc050405464:	8082                	ret

ffffffc050405466 <alloc_page_helper>:
ffffffc050405466:	7175                	addi	sp,sp,-144
ffffffc050405468:	e506                	sd	ra,136(sp)
ffffffc05040546a:	e122                	sd	s0,128(sp)
ffffffc05040546c:	fca6                	sd	s1,120(sp)
ffffffc05040546e:	0900                	addi	s0,sp,144
ffffffc050405470:	f8a43423          	sd	a0,-120(s0)
ffffffc050405474:	f8b43023          	sd	a1,-128(s0)
ffffffc050405478:	87b2                	mv	a5,a2
ffffffc05040547a:	f6f42e23          	sw	a5,-132(s0)
ffffffc05040547e:	f8843783          	ld	a5,-120(s0)
ffffffc050405482:	83b1                	srli	a5,a5,0xc
ffffffc050405484:	1ff7f793          	andi	a5,a5,511
ffffffc050405488:	f8f43823          	sd	a5,-112(s0)
ffffffc05040548c:	f8843783          	ld	a5,-120(s0)
ffffffc050405490:	83d5                	srli	a5,a5,0x15
ffffffc050405492:	1ff7f793          	andi	a5,a5,511
ffffffc050405496:	f8f43c23          	sd	a5,-104(s0)
ffffffc05040549a:	f8843783          	ld	a5,-120(s0)
ffffffc05040549e:	83f9                	srli	a5,a5,0x1e
ffffffc0504054a0:	1ff7f793          	andi	a5,a5,511
ffffffc0504054a4:	faf43023          	sd	a5,-96(s0)
ffffffc0504054a8:	fa043783          	ld	a5,-96(s0)
ffffffc0504054ac:	00379713          	slli	a4,a5,0x3
ffffffc0504054b0:	f8043783          	ld	a5,-128(s0)
ffffffc0504054b4:	97ba                	add	a5,a5,a4
ffffffc0504054b6:	fcf43423          	sd	a5,-56(s0)
ffffffc0504054ba:	fc043c23          	sd	zero,-40(s0)
ffffffc0504054be:	fc043823          	sd	zero,-48(s0)
ffffffc0504054c2:	fc843783          	ld	a5,-56(s0)
ffffffc0504054c6:	639c                	ld	a5,0(a5)
ffffffc0504054c8:	8b85                	andi	a5,a5,1
ffffffc0504054ca:	e7b1                	bnez	a5,ffffffc050405516 <alloc_page_helper+0xb0>
ffffffc0504054cc:	933ff0ef          	jal	ra,ffffffc050404dfe <allocPage>
ffffffc0504054d0:	fca43023          	sd	a0,-64(s0)
ffffffc0504054d4:	fc043503          	ld	a0,-64(s0)
ffffffc0504054d8:	88dff0ef          	jal	ra,ffffffc050404d64 <kva2pa>
ffffffc0504054dc:	87aa                	mv	a5,a0
ffffffc0504054de:	83b1                	srli	a5,a5,0xc
ffffffc0504054e0:	00a79713          	slli	a4,a5,0xa
ffffffc0504054e4:	fc843783          	ld	a5,-56(s0)
ffffffc0504054e8:	e398                	sd	a4,0(a5)
ffffffc0504054ea:	f7c42783          	lw	a5,-132(s0)
ffffffc0504054ee:	2781                	sext.w	a5,a5
ffffffc0504054f0:	c399                	beqz	a5,ffffffc0504054f6 <alloc_page_helper+0x90>
ffffffc0504054f2:	47c5                	li	a5,17
ffffffc0504054f4:	a011                	j	ffffffc0504054f8 <alloc_page_helper+0x92>
ffffffc0504054f6:	4785                	li	a5,1
ffffffc0504054f8:	85be                	mv	a1,a5
ffffffc0504054fa:	fc843503          	ld	a0,-56(s0)
ffffffc0504054fe:	8d9ff0ef          	jal	ra,ffffffc050404dd6 <set_attribute>
ffffffc050405502:	f9843783          	ld	a5,-104(s0)
ffffffc050405506:	00379713          	slli	a4,a5,0x3
ffffffc05040550a:	fc043783          	ld	a5,-64(s0)
ffffffc05040550e:	97ba                	add	a5,a5,a4
ffffffc050405510:	fcf43c23          	sd	a5,-40(s0)
ffffffc050405514:	a00d                	j	ffffffc050405536 <alloc_page_helper+0xd0>
ffffffc050405516:	f9843783          	ld	a5,-104(s0)
ffffffc05040551a:	00379493          	slli	s1,a5,0x3
ffffffc05040551e:	fc843783          	ld	a5,-56(s0)
ffffffc050405522:	639c                	ld	a5,0(a5)
ffffffc050405524:	83a9                	srli	a5,a5,0xa
ffffffc050405526:	07b2                	slli	a5,a5,0xc
ffffffc050405528:	853e                	mv	a0,a5
ffffffc05040552a:	857ff0ef          	jal	ra,ffffffc050404d80 <pa2kva>
ffffffc05040552e:	87aa                	mv	a5,a0
ffffffc050405530:	97a6                	add	a5,a5,s1
ffffffc050405532:	fcf43c23          	sd	a5,-40(s0)
ffffffc050405536:	fd843783          	ld	a5,-40(s0)
ffffffc05040553a:	639c                	ld	a5,0(a5)
ffffffc05040553c:	8b85                	andi	a5,a5,1
ffffffc05040553e:	e7b1                	bnez	a5,ffffffc05040558a <alloc_page_helper+0x124>
ffffffc050405540:	8bfff0ef          	jal	ra,ffffffc050404dfe <allocPage>
ffffffc050405544:	faa43c23          	sd	a0,-72(s0)
ffffffc050405548:	fb843503          	ld	a0,-72(s0)
ffffffc05040554c:	819ff0ef          	jal	ra,ffffffc050404d64 <kva2pa>
ffffffc050405550:	87aa                	mv	a5,a0
ffffffc050405552:	83b1                	srli	a5,a5,0xc
ffffffc050405554:	00a79713          	slli	a4,a5,0xa
ffffffc050405558:	fd843783          	ld	a5,-40(s0)
ffffffc05040555c:	e398                	sd	a4,0(a5)
ffffffc05040555e:	f7c42783          	lw	a5,-132(s0)
ffffffc050405562:	2781                	sext.w	a5,a5
ffffffc050405564:	c399                	beqz	a5,ffffffc05040556a <alloc_page_helper+0x104>
ffffffc050405566:	47c5                	li	a5,17
ffffffc050405568:	a011                	j	ffffffc05040556c <alloc_page_helper+0x106>
ffffffc05040556a:	4785                	li	a5,1
ffffffc05040556c:	85be                	mv	a1,a5
ffffffc05040556e:	fd843503          	ld	a0,-40(s0)
ffffffc050405572:	865ff0ef          	jal	ra,ffffffc050404dd6 <set_attribute>
ffffffc050405576:	f9043783          	ld	a5,-112(s0)
ffffffc05040557a:	00379713          	slli	a4,a5,0x3
ffffffc05040557e:	fb843783          	ld	a5,-72(s0)
ffffffc050405582:	97ba                	add	a5,a5,a4
ffffffc050405584:	fcf43823          	sd	a5,-48(s0)
ffffffc050405588:	a00d                	j	ffffffc0504055aa <alloc_page_helper+0x144>
ffffffc05040558a:	f9043783          	ld	a5,-112(s0)
ffffffc05040558e:	00379493          	slli	s1,a5,0x3
ffffffc050405592:	fd843783          	ld	a5,-40(s0)
ffffffc050405596:	639c                	ld	a5,0(a5)
ffffffc050405598:	83a9                	srli	a5,a5,0xa
ffffffc05040559a:	07b2                	slli	a5,a5,0xc
ffffffc05040559c:	853e                	mv	a0,a5
ffffffc05040559e:	fe2ff0ef          	jal	ra,ffffffc050404d80 <pa2kva>
ffffffc0504055a2:	87aa                	mv	a5,a0
ffffffc0504055a4:	97a6                	add	a5,a5,s1
ffffffc0504055a6:	fcf43823          	sd	a5,-48(s0)
ffffffc0504055aa:	fd043783          	ld	a5,-48(s0)
ffffffc0504055ae:	639c                	ld	a5,0(a5)
ffffffc0504055b0:	8b85                	andi	a5,a5,1
ffffffc0504055b2:	c399                	beqz	a5,ffffffc0504055b8 <alloc_page_helper+0x152>
ffffffc0504055b4:	4781                	li	a5,0
ffffffc0504055b6:	a0b1                	j	ffffffc050405602 <alloc_page_helper+0x19c>
ffffffc0504055b8:	847ff0ef          	jal	ra,ffffffc050404dfe <allocPage>
ffffffc0504055bc:	faa43823          	sd	a0,-80(s0)
ffffffc0504055c0:	fb043503          	ld	a0,-80(s0)
ffffffc0504055c4:	fa0ff0ef          	jal	ra,ffffffc050404d64 <kva2pa>
ffffffc0504055c8:	87aa                	mv	a5,a0
ffffffc0504055ca:	83b1                	srli	a5,a5,0xc
ffffffc0504055cc:	85be                	mv	a1,a5
ffffffc0504055ce:	fd043503          	ld	a0,-48(s0)
ffffffc0504055d2:	fcaff0ef          	jal	ra,ffffffc050404d9c <set_pfn>
ffffffc0504055d6:	f7c42783          	lw	a5,-132(s0)
ffffffc0504055da:	0007871b          	sext.w	a4,a5
ffffffc0504055de:	4785                	li	a5,1
ffffffc0504055e0:	00f71463          	bne	a4,a5,ffffffc0504055e8 <alloc_page_helper+0x182>
ffffffc0504055e4:	47fd                	li	a5,31
ffffffc0504055e6:	a011                	j	ffffffc0504055ea <alloc_page_helper+0x184>
ffffffc0504055e8:	47bd                	li	a5,15
ffffffc0504055ea:	faf43423          	sd	a5,-88(s0)
ffffffc0504055ee:	fa843583          	ld	a1,-88(s0)
ffffffc0504055f2:	fd043503          	ld	a0,-48(s0)
ffffffc0504055f6:	fe0ff0ef          	jal	ra,ffffffc050404dd6 <set_attribute>
ffffffc0504055fa:	fb043703          	ld	a4,-80(s0)
ffffffc0504055fe:	77fd                	lui	a5,0xfffff
ffffffc050405600:	8ff9                	and	a5,a5,a4
ffffffc050405602:	853e                	mv	a0,a5
ffffffc050405604:	60aa                	ld	ra,136(sp)
ffffffc050405606:	640a                	ld	s0,128(sp)
ffffffc050405608:	74e6                	ld	s1,120(sp)
ffffffc05040560a:	6149                	addi	sp,sp,144
ffffffc05040560c:	8082                	ret

ffffffc05040560e <free_page_helper>:
ffffffc05040560e:	711d                	addi	sp,sp,-96
ffffffc050405610:	ec86                	sd	ra,88(sp)
ffffffc050405612:	e8a2                	sd	s0,80(sp)
ffffffc050405614:	e4a6                	sd	s1,72(sp)
ffffffc050405616:	1080                	addi	s0,sp,96
ffffffc050405618:	faa43423          	sd	a0,-88(s0)
ffffffc05040561c:	fab43023          	sd	a1,-96(s0)
ffffffc050405620:	fa843783          	ld	a5,-88(s0)
ffffffc050405624:	83b1                	srli	a5,a5,0xc
ffffffc050405626:	1ff7f793          	andi	a5,a5,511
ffffffc05040562a:	faf43823          	sd	a5,-80(s0)
ffffffc05040562e:	fa843783          	ld	a5,-88(s0)
ffffffc050405632:	83d5                	srli	a5,a5,0x15
ffffffc050405634:	1ff7f793          	andi	a5,a5,511
ffffffc050405638:	faf43c23          	sd	a5,-72(s0)
ffffffc05040563c:	fa843783          	ld	a5,-88(s0)
ffffffc050405640:	83f9                	srli	a5,a5,0x1e
ffffffc050405642:	1ff7f793          	andi	a5,a5,511
ffffffc050405646:	fcf43023          	sd	a5,-64(s0)
ffffffc05040564a:	fc043783          	ld	a5,-64(s0)
ffffffc05040564e:	00379713          	slli	a4,a5,0x3
ffffffc050405652:	fa043783          	ld	a5,-96(s0)
ffffffc050405656:	97ba                	add	a5,a5,a4
ffffffc050405658:	fcf43c23          	sd	a5,-40(s0)
ffffffc05040565c:	fb843783          	ld	a5,-72(s0)
ffffffc050405660:	00379493          	slli	s1,a5,0x3
ffffffc050405664:	fd843783          	ld	a5,-40(s0)
ffffffc050405668:	639c                	ld	a5,0(a5)
ffffffc05040566a:	83a9                	srli	a5,a5,0xa
ffffffc05040566c:	07b2                	slli	a5,a5,0xc
ffffffc05040566e:	853e                	mv	a0,a5
ffffffc050405670:	f10ff0ef          	jal	ra,ffffffc050404d80 <pa2kva>
ffffffc050405674:	87aa                	mv	a5,a0
ffffffc050405676:	97a6                	add	a5,a5,s1
ffffffc050405678:	fcf43823          	sd	a5,-48(s0)
ffffffc05040567c:	fb043783          	ld	a5,-80(s0)
ffffffc050405680:	00379493          	slli	s1,a5,0x3
ffffffc050405684:	fd043783          	ld	a5,-48(s0)
ffffffc050405688:	639c                	ld	a5,0(a5)
ffffffc05040568a:	83a9                	srli	a5,a5,0xa
ffffffc05040568c:	07b2                	slli	a5,a5,0xc
ffffffc05040568e:	853e                	mv	a0,a5
ffffffc050405690:	ef0ff0ef          	jal	ra,ffffffc050404d80 <pa2kva>
ffffffc050405694:	87aa                	mv	a5,a0
ffffffc050405696:	97a6                	add	a5,a5,s1
ffffffc050405698:	fcf43423          	sd	a5,-56(s0)
ffffffc05040569c:	fc843783          	ld	a5,-56(s0)
ffffffc0504056a0:	0007b023          	sd	zero,0(a5) # fffffffffffff000 <__BSS_END__+0x3fafbb5da8>
ffffffc0504056a4:	0001                	nop
ffffffc0504056a6:	853e                	mv	a0,a5
ffffffc0504056a8:	60e6                	ld	ra,88(sp)
ffffffc0504056aa:	6446                	ld	s0,80(sp)
ffffffc0504056ac:	64a6                	ld	s1,72(sp)
ffffffc0504056ae:	6125                	addi	sp,sp,96
ffffffc0504056b0:	8082                	ret

ffffffc0504056b2 <check_page_helper>:
ffffffc0504056b2:	711d                	addi	sp,sp,-96
ffffffc0504056b4:	ec86                	sd	ra,88(sp)
ffffffc0504056b6:	e8a2                	sd	s0,80(sp)
ffffffc0504056b8:	e4a6                	sd	s1,72(sp)
ffffffc0504056ba:	1080                	addi	s0,sp,96
ffffffc0504056bc:	faa43423          	sd	a0,-88(s0)
ffffffc0504056c0:	fab43023          	sd	a1,-96(s0)
ffffffc0504056c4:	fa843783          	ld	a5,-88(s0)
ffffffc0504056c8:	83b1                	srli	a5,a5,0xc
ffffffc0504056ca:	1ff7f793          	andi	a5,a5,511
ffffffc0504056ce:	faf43823          	sd	a5,-80(s0)
ffffffc0504056d2:	fa843783          	ld	a5,-88(s0)
ffffffc0504056d6:	83d5                	srli	a5,a5,0x15
ffffffc0504056d8:	1ff7f793          	andi	a5,a5,511
ffffffc0504056dc:	faf43c23          	sd	a5,-72(s0)
ffffffc0504056e0:	fa843783          	ld	a5,-88(s0)
ffffffc0504056e4:	83f9                	srli	a5,a5,0x1e
ffffffc0504056e6:	1ff7f793          	andi	a5,a5,511
ffffffc0504056ea:	fcf43023          	sd	a5,-64(s0)
ffffffc0504056ee:	fc043783          	ld	a5,-64(s0)
ffffffc0504056f2:	00379713          	slli	a4,a5,0x3
ffffffc0504056f6:	fa043783          	ld	a5,-96(s0)
ffffffc0504056fa:	97ba                	add	a5,a5,a4
ffffffc0504056fc:	fcf43c23          	sd	a5,-40(s0)
ffffffc050405700:	fd843783          	ld	a5,-40(s0)
ffffffc050405704:	639c                	ld	a5,0(a5)
ffffffc050405706:	8b85                	andi	a5,a5,1
ffffffc050405708:	e399                	bnez	a5,ffffffc05040570e <check_page_helper+0x5c>
ffffffc05040570a:	4781                	li	a5,0
ffffffc05040570c:	a08d                	j	ffffffc05040576e <check_page_helper+0xbc>
ffffffc05040570e:	fb843783          	ld	a5,-72(s0)
ffffffc050405712:	00379493          	slli	s1,a5,0x3
ffffffc050405716:	fd843783          	ld	a5,-40(s0)
ffffffc05040571a:	639c                	ld	a5,0(a5)
ffffffc05040571c:	83a9                	srli	a5,a5,0xa
ffffffc05040571e:	07b2                	slli	a5,a5,0xc
ffffffc050405720:	853e                	mv	a0,a5
ffffffc050405722:	e5eff0ef          	jal	ra,ffffffc050404d80 <pa2kva>
ffffffc050405726:	87aa                	mv	a5,a0
ffffffc050405728:	97a6                	add	a5,a5,s1
ffffffc05040572a:	fcf43823          	sd	a5,-48(s0)
ffffffc05040572e:	fd043783          	ld	a5,-48(s0)
ffffffc050405732:	639c                	ld	a5,0(a5)
ffffffc050405734:	8b85                	andi	a5,a5,1
ffffffc050405736:	e399                	bnez	a5,ffffffc05040573c <check_page_helper+0x8a>
ffffffc050405738:	4781                	li	a5,0
ffffffc05040573a:	a815                	j	ffffffc05040576e <check_page_helper+0xbc>
ffffffc05040573c:	fb043783          	ld	a5,-80(s0)
ffffffc050405740:	00379493          	slli	s1,a5,0x3
ffffffc050405744:	fd043783          	ld	a5,-48(s0)
ffffffc050405748:	639c                	ld	a5,0(a5)
ffffffc05040574a:	83a9                	srli	a5,a5,0xa
ffffffc05040574c:	07b2                	slli	a5,a5,0xc
ffffffc05040574e:	853e                	mv	a0,a5
ffffffc050405750:	e30ff0ef          	jal	ra,ffffffc050404d80 <pa2kva>
ffffffc050405754:	87aa                	mv	a5,a0
ffffffc050405756:	97a6                	add	a5,a5,s1
ffffffc050405758:	fcf43423          	sd	a5,-56(s0)
ffffffc05040575c:	fc843783          	ld	a5,-56(s0)
ffffffc050405760:	639c                	ld	a5,0(a5)
ffffffc050405762:	8b85                	andi	a5,a5,1
ffffffc050405764:	e399                	bnez	a5,ffffffc05040576a <check_page_helper+0xb8>
ffffffc050405766:	4781                	li	a5,0
ffffffc050405768:	a019                	j	ffffffc05040576e <check_page_helper+0xbc>
ffffffc05040576a:	fc843783          	ld	a5,-56(s0)
ffffffc05040576e:	853e                	mv	a0,a5
ffffffc050405770:	60e6                	ld	ra,88(sp)
ffffffc050405772:	6446                	ld	s0,80(sp)
ffffffc050405774:	64a6                	ld	s1,72(sp)
ffffffc050405776:	6125                	addi	sp,sp,96
ffffffc050405778:	8082                	ret

ffffffc05040577a <handle_syscall>:
ffffffc05040577a:	7179                	addi	sp,sp,-48
ffffffc05040577c:	f406                	sd	ra,40(sp)
ffffffc05040577e:	f022                	sd	s0,32(sp)
ffffffc050405780:	1800                	addi	s0,sp,48
ffffffc050405782:	fea43423          	sd	a0,-24(s0)
ffffffc050405786:	feb43023          	sd	a1,-32(s0)
ffffffc05040578a:	fcc43c23          	sd	a2,-40(s0)
ffffffc05040578e:	fe843783          	ld	a5,-24(s0)
ffffffc050405792:	1087b783          	ld	a5,264(a5)
ffffffc050405796:	00478713          	addi	a4,a5,4
ffffffc05040579a:	fe843783          	ld	a5,-24(s0)
ffffffc05040579e:	10e7b423          	sd	a4,264(a5)
ffffffc0504057a2:	fe843783          	ld	a5,-24(s0)
ffffffc0504057a6:	67dc                	ld	a5,136(a5)
ffffffc0504057a8:	00044717          	auipc	a4,0x44
ffffffc0504057ac:	8a870713          	addi	a4,a4,-1880 # ffffffc050449050 <syscall>
ffffffc0504057b0:	078e                	slli	a5,a5,0x3
ffffffc0504057b2:	97ba                	add	a5,a5,a4
ffffffc0504057b4:	0007b803          	ld	a6,0(a5)
ffffffc0504057b8:	fe843783          	ld	a5,-24(s0)
ffffffc0504057bc:	6bb8                	ld	a4,80(a5)
ffffffc0504057be:	fe843783          	ld	a5,-24(s0)
ffffffc0504057c2:	6fac                	ld	a1,88(a5)
ffffffc0504057c4:	fe843783          	ld	a5,-24(s0)
ffffffc0504057c8:	73b0                	ld	a2,96(a5)
ffffffc0504057ca:	fe843783          	ld	a5,-24(s0)
ffffffc0504057ce:	77bc                	ld	a5,104(a5)
ffffffc0504057d0:	86be                	mv	a3,a5
ffffffc0504057d2:	853a                	mv	a0,a4
ffffffc0504057d4:	9802                	jalr	a6
ffffffc0504057d6:	87aa                	mv	a5,a0
ffffffc0504057d8:	873e                	mv	a4,a5
ffffffc0504057da:	fe843783          	ld	a5,-24(s0)
ffffffc0504057de:	ebb8                	sd	a4,80(a5)
ffffffc0504057e0:	0001                	nop
ffffffc0504057e2:	70a2                	ld	ra,40(sp)
ffffffc0504057e4:	7402                	ld	s0,32(sp)
ffffffc0504057e6:	6145                	addi	sp,sp,48
ffffffc0504057e8:	8082                	ret

ffffffc0504057ea <kstrlen>:
ffffffc0504057ea:	7179                	addi	sp,sp,-48
ffffffc0504057ec:	f422                	sd	s0,40(sp)
ffffffc0504057ee:	1800                	addi	s0,sp,48
ffffffc0504057f0:	fca43c23          	sd	a0,-40(s0)
ffffffc0504057f4:	fe042623          	sw	zero,-20(s0)
ffffffc0504057f8:	a031                	j	ffffffc050405804 <kstrlen+0x1a>
ffffffc0504057fa:	fec42783          	lw	a5,-20(s0)
ffffffc0504057fe:	2785                	addiw	a5,a5,1
ffffffc050405800:	fef42623          	sw	a5,-20(s0)
ffffffc050405804:	fec42783          	lw	a5,-20(s0)
ffffffc050405808:	fd843703          	ld	a4,-40(s0)
ffffffc05040580c:	97ba                	add	a5,a5,a4
ffffffc05040580e:	0007c783          	lbu	a5,0(a5)
ffffffc050405812:	f7e5                	bnez	a5,ffffffc0504057fa <kstrlen+0x10>
ffffffc050405814:	fec42783          	lw	a5,-20(s0)
ffffffc050405818:	853e                	mv	a0,a5
ffffffc05040581a:	7422                	ld	s0,40(sp)
ffffffc05040581c:	6145                	addi	sp,sp,48
ffffffc05040581e:	8082                	ret

ffffffc050405820 <kmemcpy>:
ffffffc050405820:	7179                	addi	sp,sp,-48
ffffffc050405822:	f422                	sd	s0,40(sp)
ffffffc050405824:	1800                	addi	s0,sp,48
ffffffc050405826:	fea43423          	sd	a0,-24(s0)
ffffffc05040582a:	feb43023          	sd	a1,-32(s0)
ffffffc05040582e:	87b2                	mv	a5,a2
ffffffc050405830:	fcf42e23          	sw	a5,-36(s0)
ffffffc050405834:	a035                	j	ffffffc050405860 <kmemcpy+0x40>
ffffffc050405836:	fe043703          	ld	a4,-32(s0)
ffffffc05040583a:	00170793          	addi	a5,a4,1
ffffffc05040583e:	fef43023          	sd	a5,-32(s0)
ffffffc050405842:	fe843783          	ld	a5,-24(s0)
ffffffc050405846:	00178693          	addi	a3,a5,1
ffffffc05040584a:	fed43423          	sd	a3,-24(s0)
ffffffc05040584e:	00074703          	lbu	a4,0(a4)
ffffffc050405852:	00e78023          	sb	a4,0(a5)
ffffffc050405856:	fdc42783          	lw	a5,-36(s0)
ffffffc05040585a:	37fd                	addiw	a5,a5,-1
ffffffc05040585c:	fcf42e23          	sw	a5,-36(s0)
ffffffc050405860:	fdc42783          	lw	a5,-36(s0)
ffffffc050405864:	2781                	sext.w	a5,a5
ffffffc050405866:	fbe1                	bnez	a5,ffffffc050405836 <kmemcpy+0x16>
ffffffc050405868:	0001                	nop
ffffffc05040586a:	0001                	nop
ffffffc05040586c:	7422                	ld	s0,40(sp)
ffffffc05040586e:	6145                	addi	sp,sp,48
ffffffc050405870:	8082                	ret

ffffffc050405872 <memcpy>:
ffffffc050405872:	7179                	addi	sp,sp,-48
ffffffc050405874:	f422                	sd	s0,40(sp)
ffffffc050405876:	1800                	addi	s0,sp,48
ffffffc050405878:	fea43423          	sd	a0,-24(s0)
ffffffc05040587c:	feb43023          	sd	a1,-32(s0)
ffffffc050405880:	87b2                	mv	a5,a2
ffffffc050405882:	fcf42e23          	sw	a5,-36(s0)
ffffffc050405886:	a035                	j	ffffffc0504058b2 <memcpy+0x40>
ffffffc050405888:	fe043703          	ld	a4,-32(s0)
ffffffc05040588c:	00170793          	addi	a5,a4,1
ffffffc050405890:	fef43023          	sd	a5,-32(s0)
ffffffc050405894:	fe843783          	ld	a5,-24(s0)
ffffffc050405898:	00178693          	addi	a3,a5,1
ffffffc05040589c:	fed43423          	sd	a3,-24(s0)
ffffffc0504058a0:	00074703          	lbu	a4,0(a4)
ffffffc0504058a4:	00e78023          	sb	a4,0(a5)
ffffffc0504058a8:	fdc42783          	lw	a5,-36(s0)
ffffffc0504058ac:	37fd                	addiw	a5,a5,-1
ffffffc0504058ae:	fcf42e23          	sw	a5,-36(s0)
ffffffc0504058b2:	fdc42783          	lw	a5,-36(s0)
ffffffc0504058b6:	2781                	sext.w	a5,a5
ffffffc0504058b8:	fbe1                	bnez	a5,ffffffc050405888 <memcpy+0x16>
ffffffc0504058ba:	0001                	nop
ffffffc0504058bc:	0001                	nop
ffffffc0504058be:	7422                	ld	s0,40(sp)
ffffffc0504058c0:	6145                	addi	sp,sp,48
ffffffc0504058c2:	8082                	ret

ffffffc0504058c4 <kmemset>:
ffffffc0504058c4:	7179                	addi	sp,sp,-48
ffffffc0504058c6:	f422                	sd	s0,40(sp)
ffffffc0504058c8:	1800                	addi	s0,sp,48
ffffffc0504058ca:	fca43c23          	sd	a0,-40(s0)
ffffffc0504058ce:	87ae                	mv	a5,a1
ffffffc0504058d0:	8732                	mv	a4,a2
ffffffc0504058d2:	fcf40ba3          	sb	a5,-41(s0)
ffffffc0504058d6:	87ba                	mv	a5,a4
ffffffc0504058d8:	fcf42823          	sw	a5,-48(s0)
ffffffc0504058dc:	fd843783          	ld	a5,-40(s0)
ffffffc0504058e0:	fef43423          	sd	a5,-24(s0)
ffffffc0504058e4:	a005                	j	ffffffc050405904 <kmemset+0x40>
ffffffc0504058e6:	fe843783          	ld	a5,-24(s0)
ffffffc0504058ea:	00178713          	addi	a4,a5,1
ffffffc0504058ee:	fee43423          	sd	a4,-24(s0)
ffffffc0504058f2:	fd744703          	lbu	a4,-41(s0)
ffffffc0504058f6:	00e78023          	sb	a4,0(a5)
ffffffc0504058fa:	fd042783          	lw	a5,-48(s0)
ffffffc0504058fe:	37fd                	addiw	a5,a5,-1
ffffffc050405900:	fcf42823          	sw	a5,-48(s0)
ffffffc050405904:	fd042783          	lw	a5,-48(s0)
ffffffc050405908:	2781                	sext.w	a5,a5
ffffffc05040590a:	fff1                	bnez	a5,ffffffc0504058e6 <kmemset+0x22>
ffffffc05040590c:	0001                	nop
ffffffc05040590e:	0001                	nop
ffffffc050405910:	7422                	ld	s0,40(sp)
ffffffc050405912:	6145                	addi	sp,sp,48
ffffffc050405914:	8082                	ret

ffffffc050405916 <kbzero>:
ffffffc050405916:	1101                	addi	sp,sp,-32
ffffffc050405918:	ec06                	sd	ra,24(sp)
ffffffc05040591a:	e822                	sd	s0,16(sp)
ffffffc05040591c:	1000                	addi	s0,sp,32
ffffffc05040591e:	fea43423          	sd	a0,-24(s0)
ffffffc050405922:	87ae                	mv	a5,a1
ffffffc050405924:	fef42223          	sw	a5,-28(s0)
ffffffc050405928:	fe442783          	lw	a5,-28(s0)
ffffffc05040592c:	863e                	mv	a2,a5
ffffffc05040592e:	4581                	li	a1,0
ffffffc050405930:	fe843503          	ld	a0,-24(s0)
ffffffc050405934:	f91ff0ef          	jal	ra,ffffffc0504058c4 <kmemset>
ffffffc050405938:	0001                	nop
ffffffc05040593a:	60e2                	ld	ra,24(sp)
ffffffc05040593c:	6442                	ld	s0,16(sp)
ffffffc05040593e:	6105                	addi	sp,sp,32
ffffffc050405940:	8082                	ret

ffffffc050405942 <kstrcmp>:
ffffffc050405942:	1101                	addi	sp,sp,-32
ffffffc050405944:	ec22                	sd	s0,24(sp)
ffffffc050405946:	1000                	addi	s0,sp,32
ffffffc050405948:	fea43423          	sd	a0,-24(s0)
ffffffc05040594c:	feb43023          	sd	a1,-32(s0)
ffffffc050405950:	a0a1                	j	ffffffc050405998 <kstrcmp+0x56>
ffffffc050405952:	fe843783          	ld	a5,-24(s0)
ffffffc050405956:	0007c703          	lbu	a4,0(a5)
ffffffc05040595a:	fe043783          	ld	a5,-32(s0)
ffffffc05040595e:	0007c783          	lbu	a5,0(a5)
ffffffc050405962:	02f70163          	beq	a4,a5,ffffffc050405984 <kstrcmp+0x42>
ffffffc050405966:	fe843783          	ld	a5,-24(s0)
ffffffc05040596a:	0007c783          	lbu	a5,0(a5)
ffffffc05040596e:	0007871b          	sext.w	a4,a5
ffffffc050405972:	fe043783          	ld	a5,-32(s0)
ffffffc050405976:	0007c783          	lbu	a5,0(a5)
ffffffc05040597a:	2781                	sext.w	a5,a5
ffffffc05040597c:	40f707bb          	subw	a5,a4,a5
ffffffc050405980:	2781                	sext.w	a5,a5
ffffffc050405982:	a099                	j	ffffffc0504059c8 <kstrcmp+0x86>
ffffffc050405984:	fe843783          	ld	a5,-24(s0)
ffffffc050405988:	0785                	addi	a5,a5,1
ffffffc05040598a:	fef43423          	sd	a5,-24(s0)
ffffffc05040598e:	fe043783          	ld	a5,-32(s0)
ffffffc050405992:	0785                	addi	a5,a5,1
ffffffc050405994:	fef43023          	sd	a5,-32(s0)
ffffffc050405998:	fe843783          	ld	a5,-24(s0)
ffffffc05040599c:	0007c783          	lbu	a5,0(a5)
ffffffc0504059a0:	c791                	beqz	a5,ffffffc0504059ac <kstrcmp+0x6a>
ffffffc0504059a2:	fe043783          	ld	a5,-32(s0)
ffffffc0504059a6:	0007c783          	lbu	a5,0(a5)
ffffffc0504059aa:	f7c5                	bnez	a5,ffffffc050405952 <kstrcmp+0x10>
ffffffc0504059ac:	fe843783          	ld	a5,-24(s0)
ffffffc0504059b0:	0007c783          	lbu	a5,0(a5)
ffffffc0504059b4:	0007871b          	sext.w	a4,a5
ffffffc0504059b8:	fe043783          	ld	a5,-32(s0)
ffffffc0504059bc:	0007c783          	lbu	a5,0(a5)
ffffffc0504059c0:	2781                	sext.w	a5,a5
ffffffc0504059c2:	40f707bb          	subw	a5,a4,a5
ffffffc0504059c6:	2781                	sext.w	a5,a5
ffffffc0504059c8:	853e                	mv	a0,a5
ffffffc0504059ca:	6462                	ld	s0,24(sp)
ffffffc0504059cc:	6105                	addi	sp,sp,32
ffffffc0504059ce:	8082                	ret

ffffffc0504059d0 <kstrcpy>:
ffffffc0504059d0:	7179                	addi	sp,sp,-48
ffffffc0504059d2:	f422                	sd	s0,40(sp)
ffffffc0504059d4:	1800                	addi	s0,sp,48
ffffffc0504059d6:	fca43c23          	sd	a0,-40(s0)
ffffffc0504059da:	fcb43823          	sd	a1,-48(s0)
ffffffc0504059de:	fd843783          	ld	a5,-40(s0)
ffffffc0504059e2:	fef43423          	sd	a5,-24(s0)
ffffffc0504059e6:	a00d                	j	ffffffc050405a08 <kstrcpy+0x38>
ffffffc0504059e8:	fd043703          	ld	a4,-48(s0)
ffffffc0504059ec:	00170793          	addi	a5,a4,1
ffffffc0504059f0:	fcf43823          	sd	a5,-48(s0)
ffffffc0504059f4:	fd843783          	ld	a5,-40(s0)
ffffffc0504059f8:	00178693          	addi	a3,a5,1
ffffffc0504059fc:	fcd43c23          	sd	a3,-40(s0)
ffffffc050405a00:	00074703          	lbu	a4,0(a4)
ffffffc050405a04:	00e78023          	sb	a4,0(a5)
ffffffc050405a08:	fd043783          	ld	a5,-48(s0)
ffffffc050405a0c:	0007c783          	lbu	a5,0(a5)
ffffffc050405a10:	ffe1                	bnez	a5,ffffffc0504059e8 <kstrcpy+0x18>
ffffffc050405a12:	fd843783          	ld	a5,-40(s0)
ffffffc050405a16:	00078023          	sb	zero,0(a5)
ffffffc050405a1a:	fe843783          	ld	a5,-24(s0)
ffffffc050405a1e:	853e                	mv	a0,a5
ffffffc050405a20:	7422                	ld	s0,40(sp)
ffffffc050405a22:	6145                	addi	sp,sp,48
ffffffc050405a24:	8082                	ret

ffffffc050405a26 <kstrcat>:
ffffffc050405a26:	7179                	addi	sp,sp,-48
ffffffc050405a28:	f422                	sd	s0,40(sp)
ffffffc050405a2a:	1800                	addi	s0,sp,48
ffffffc050405a2c:	fca43c23          	sd	a0,-40(s0)
ffffffc050405a30:	fcb43823          	sd	a1,-48(s0)
ffffffc050405a34:	fd843783          	ld	a5,-40(s0)
ffffffc050405a38:	fef43423          	sd	a5,-24(s0)
ffffffc050405a3c:	a031                	j	ffffffc050405a48 <kstrcat+0x22>
ffffffc050405a3e:	fd843783          	ld	a5,-40(s0)
ffffffc050405a42:	0785                	addi	a5,a5,1
ffffffc050405a44:	fcf43c23          	sd	a5,-40(s0)
ffffffc050405a48:	fd843783          	ld	a5,-40(s0)
ffffffc050405a4c:	0007c783          	lbu	a5,0(a5)
ffffffc050405a50:	f7fd                	bnez	a5,ffffffc050405a3e <kstrcat+0x18>
ffffffc050405a52:	a00d                	j	ffffffc050405a74 <kstrcat+0x4e>
ffffffc050405a54:	fd043703          	ld	a4,-48(s0)
ffffffc050405a58:	00170793          	addi	a5,a4,1
ffffffc050405a5c:	fcf43823          	sd	a5,-48(s0)
ffffffc050405a60:	fd843783          	ld	a5,-40(s0)
ffffffc050405a64:	00178693          	addi	a3,a5,1
ffffffc050405a68:	fcd43c23          	sd	a3,-40(s0)
ffffffc050405a6c:	00074703          	lbu	a4,0(a4)
ffffffc050405a70:	00e78023          	sb	a4,0(a5)
ffffffc050405a74:	fd043783          	ld	a5,-48(s0)
ffffffc050405a78:	0007c783          	lbu	a5,0(a5)
ffffffc050405a7c:	ffe1                	bnez	a5,ffffffc050405a54 <kstrcat+0x2e>
ffffffc050405a7e:	fd843783          	ld	a5,-40(s0)
ffffffc050405a82:	00078023          	sb	zero,0(a5)
ffffffc050405a86:	fe843783          	ld	a5,-24(s0)
ffffffc050405a8a:	853e                	mv	a0,a5
ffffffc050405a8c:	7422                	ld	s0,40(sp)
ffffffc050405a8e:	6145                	addi	sp,sp,48
ffffffc050405a90:	8082                	ret

ffffffc050405a92 <srand>:
ffffffc050405a92:	1101                	addi	sp,sp,-32
ffffffc050405a94:	ec22                	sd	s0,24(sp)
ffffffc050405a96:	1000                	addi	s0,sp,32
ffffffc050405a98:	87aa                	mv	a5,a0
ffffffc050405a9a:	fef42623          	sw	a5,-20(s0)
ffffffc050405a9e:	fec42703          	lw	a4,-20(s0)
ffffffc050405aa2:	00043797          	auipc	a5,0x43
ffffffc050405aa6:	7ae78793          	addi	a5,a5,1966 # ffffffc050449250 <x>
ffffffc050405aaa:	c398                	sw	a4,0(a5)
ffffffc050405aac:	0001                	nop
ffffffc050405aae:	6462                	ld	s0,24(sp)
ffffffc050405ab0:	6105                	addi	sp,sp,32
ffffffc050405ab2:	8082                	ret

ffffffc050405ab4 <rand>:
ffffffc050405ab4:	1101                	addi	sp,sp,-32
ffffffc050405ab6:	ec22                	sd	s0,24(sp)
ffffffc050405ab8:	1000                	addi	s0,sp,32
ffffffc050405aba:	00043797          	auipc	a5,0x43
ffffffc050405abe:	79678793          	addi	a5,a5,1942 # ffffffc050449250 <x>
ffffffc050405ac2:	439c                	lw	a5,0(a5)
ffffffc050405ac4:	873e                	mv	a4,a5
ffffffc050405ac6:	00001797          	auipc	a5,0x1
ffffffc050405aca:	ee278793          	addi	a5,a5,-286 # ffffffc0504069a8 <__FUNCTION__.1379+0xb0>
ffffffc050405ace:	639c                	ld	a5,0(a5)
ffffffc050405ad0:	02f707b3          	mul	a5,a4,a5
ffffffc050405ad4:	07ad                	addi	a5,a5,11
ffffffc050405ad6:	fef43423          	sd	a5,-24(s0)
ffffffc050405ada:	fe843783          	ld	a5,-24(s0)
ffffffc050405ade:	0007871b          	sext.w	a4,a5
ffffffc050405ae2:	800007b7          	lui	a5,0x80000
ffffffc050405ae6:	fff7c793          	not	a5,a5
ffffffc050405aea:	8ff9                	and	a5,a5,a4
ffffffc050405aec:	0007871b          	sext.w	a4,a5
ffffffc050405af0:	00043797          	auipc	a5,0x43
ffffffc050405af4:	76078793          	addi	a5,a5,1888 # ffffffc050449250 <x>
ffffffc050405af8:	c398                	sw	a4,0(a5)
ffffffc050405afa:	00043797          	auipc	a5,0x43
ffffffc050405afe:	75678793          	addi	a5,a5,1878 # ffffffc050449250 <x>
ffffffc050405b02:	439c                	lw	a5,0(a5)
ffffffc050405b04:	853e                	mv	a0,a5
ffffffc050405b06:	6462                	ld	s0,24(sp)
ffffffc050405b08:	6105                	addi	sp,sp,32
ffffffc050405b0a:	8082                	ret

ffffffc050405b0c <mini_strlen>:
ffffffc050405b0c:	7179                	addi	sp,sp,-48
ffffffc050405b0e:	f422                	sd	s0,40(sp)
ffffffc050405b10:	1800                	addi	s0,sp,48
ffffffc050405b12:	fca43c23          	sd	a0,-40(s0)
ffffffc050405b16:	fe042623          	sw	zero,-20(s0)
ffffffc050405b1a:	a031                	j	ffffffc050405b26 <mini_strlen+0x1a>
ffffffc050405b1c:	fec42783          	lw	a5,-20(s0)
ffffffc050405b20:	2785                	addiw	a5,a5,1
ffffffc050405b22:	fef42623          	sw	a5,-20(s0)
ffffffc050405b26:	fec46783          	lwu	a5,-20(s0)
ffffffc050405b2a:	fd843703          	ld	a4,-40(s0)
ffffffc050405b2e:	97ba                	add	a5,a5,a4
ffffffc050405b30:	0007c783          	lbu	a5,0(a5)
ffffffc050405b34:	f7e5                	bnez	a5,ffffffc050405b1c <mini_strlen+0x10>
ffffffc050405b36:	fec42783          	lw	a5,-20(s0)
ffffffc050405b3a:	853e                	mv	a0,a5
ffffffc050405b3c:	7422                	ld	s0,40(sp)
ffffffc050405b3e:	6145                	addi	sp,sp,48
ffffffc050405b40:	8082                	ret

ffffffc050405b42 <mini_itoa>:
ffffffc050405b42:	715d                	addi	sp,sp,-80
ffffffc050405b44:	e4a2                	sd	s0,72(sp)
ffffffc050405b46:	0880                	addi	s0,sp,80
ffffffc050405b48:	fca43423          	sd	a0,-56(s0)
ffffffc050405b4c:	fae43823          	sd	a4,-80(s0)
ffffffc050405b50:	873e                	mv	a4,a5
ffffffc050405b52:	87ae                	mv	a5,a1
ffffffc050405b54:	fcf42223          	sw	a5,-60(s0)
ffffffc050405b58:	87b2                	mv	a5,a2
ffffffc050405b5a:	fcf42023          	sw	a5,-64(s0)
ffffffc050405b5e:	87b6                	mv	a5,a3
ffffffc050405b60:	faf42e23          	sw	a5,-68(s0)
ffffffc050405b64:	87ba                	mv	a5,a4
ffffffc050405b66:	faf42c23          	sw	a5,-72(s0)
ffffffc050405b6a:	fb043783          	ld	a5,-80(s0)
ffffffc050405b6e:	fef43423          	sd	a5,-24(s0)
ffffffc050405b72:	fe042223          	sw	zero,-28(s0)
ffffffc050405b76:	fc442783          	lw	a5,-60(s0)
ffffffc050405b7a:	0007871b          	sext.w	a4,a5
ffffffc050405b7e:	47c1                	li	a5,16
ffffffc050405b80:	00e7f463          	bgeu	a5,a4,ffffffc050405b88 <mini_itoa+0x46>
ffffffc050405b84:	4781                	li	a5,0
ffffffc050405b86:	aae9                	j	ffffffc050405d60 <mini_itoa+0x21e>
ffffffc050405b88:	fc843783          	ld	a5,-56(s0)
ffffffc050405b8c:	0007df63          	bgez	a5,ffffffc050405baa <mini_itoa+0x68>
ffffffc050405b90:	fbc42783          	lw	a5,-68(s0)
ffffffc050405b94:	2781                	sext.w	a5,a5
ffffffc050405b96:	eb91                	bnez	a5,ffffffc050405baa <mini_itoa+0x68>
ffffffc050405b98:	4785                	li	a5,1
ffffffc050405b9a:	fef42223          	sw	a5,-28(s0)
ffffffc050405b9e:	fc843783          	ld	a5,-56(s0)
ffffffc050405ba2:	40f007b3          	neg	a5,a5
ffffffc050405ba6:	fcf43423          	sd	a5,-56(s0)
ffffffc050405baa:	fc042e23          	sw	zero,-36(s0)
ffffffc050405bae:	fbc42783          	lw	a5,-68(s0)
ffffffc050405bb2:	2781                	sext.w	a5,a5
ffffffc050405bb4:	cb91                	beqz	a5,ffffffc050405bc8 <mini_itoa+0x86>
ffffffc050405bb6:	fc843703          	ld	a4,-56(s0)
ffffffc050405bba:	fc446783          	lwu	a5,-60(s0)
ffffffc050405bbe:	02f777b3          	remu	a5,a4,a5
ffffffc050405bc2:	fcf42e23          	sw	a5,-36(s0)
ffffffc050405bc6:	a809                	j	ffffffc050405bd8 <mini_itoa+0x96>
ffffffc050405bc8:	fc446783          	lwu	a5,-60(s0)
ffffffc050405bcc:	fc843703          	ld	a4,-56(s0)
ffffffc050405bd0:	02f767b3          	rem	a5,a4,a5
ffffffc050405bd4:	fcf42e23          	sw	a5,-36(s0)
ffffffc050405bd8:	fdc42783          	lw	a5,-36(s0)
ffffffc050405bdc:	0007871b          	sext.w	a4,a5
ffffffc050405be0:	47a5                	li	a5,9
ffffffc050405be2:	00e7cb63          	blt	a5,a4,ffffffc050405bf8 <mini_itoa+0xb6>
ffffffc050405be6:	fdc42783          	lw	a5,-36(s0)
ffffffc050405bea:	0ff7f793          	andi	a5,a5,255
ffffffc050405bee:	0307879b          	addiw	a5,a5,48
ffffffc050405bf2:	0ff7f713          	andi	a4,a5,255
ffffffc050405bf6:	a025                	j	ffffffc050405c1e <mini_itoa+0xdc>
ffffffc050405bf8:	fc042783          	lw	a5,-64(s0)
ffffffc050405bfc:	2781                	sext.w	a5,a5
ffffffc050405bfe:	c781                	beqz	a5,ffffffc050405c06 <mini_itoa+0xc4>
ffffffc050405c00:	04100793          	li	a5,65
ffffffc050405c04:	a019                	j	ffffffc050405c0a <mini_itoa+0xc8>
ffffffc050405c06:	06100793          	li	a5,97
ffffffc050405c0a:	fdc42703          	lw	a4,-36(s0)
ffffffc050405c0e:	0ff77713          	andi	a4,a4,255
ffffffc050405c12:	9fb9                	addw	a5,a5,a4
ffffffc050405c14:	0ff7f793          	andi	a5,a5,255
ffffffc050405c18:	37d9                	addiw	a5,a5,-10
ffffffc050405c1a:	0ff7f713          	andi	a4,a5,255
ffffffc050405c1e:	fe843783          	ld	a5,-24(s0)
ffffffc050405c22:	00178693          	addi	a3,a5,1
ffffffc050405c26:	fed43423          	sd	a3,-24(s0)
ffffffc050405c2a:	00e78023          	sb	a4,0(a5)
ffffffc050405c2e:	fbc42783          	lw	a5,-68(s0)
ffffffc050405c32:	2781                	sext.w	a5,a5
ffffffc050405c34:	cb91                	beqz	a5,ffffffc050405c48 <mini_itoa+0x106>
ffffffc050405c36:	fc843703          	ld	a4,-56(s0)
ffffffc050405c3a:	fc446783          	lwu	a5,-60(s0)
ffffffc050405c3e:	02f757b3          	divu	a5,a4,a5
ffffffc050405c42:	fcf43423          	sd	a5,-56(s0)
ffffffc050405c46:	a809                	j	ffffffc050405c58 <mini_itoa+0x116>
ffffffc050405c48:	fc446783          	lwu	a5,-60(s0)
ffffffc050405c4c:	fc843703          	ld	a4,-56(s0)
ffffffc050405c50:	02f747b3          	div	a5,a4,a5
ffffffc050405c54:	fcf43423          	sd	a5,-56(s0)
ffffffc050405c58:	fc843783          	ld	a5,-56(s0)
ffffffc050405c5c:	f7b9                	bnez	a5,ffffffc050405baa <mini_itoa+0x68>
ffffffc050405c5e:	fe843703          	ld	a4,-24(s0)
ffffffc050405c62:	fb043783          	ld	a5,-80(s0)
ffffffc050405c66:	40f707b3          	sub	a5,a4,a5
ffffffc050405c6a:	fef42023          	sw	a5,-32(s0)
ffffffc050405c6e:	a005                	j	ffffffc050405c8e <mini_itoa+0x14c>
ffffffc050405c70:	fe843783          	ld	a5,-24(s0)
ffffffc050405c74:	00178713          	addi	a4,a5,1
ffffffc050405c78:	fee43423          	sd	a4,-24(s0)
ffffffc050405c7c:	03000713          	li	a4,48
ffffffc050405c80:	00e78023          	sb	a4,0(a5)
ffffffc050405c84:	fe042783          	lw	a5,-32(s0)
ffffffc050405c88:	2785                	addiw	a5,a5,1
ffffffc050405c8a:	fef42023          	sw	a5,-32(s0)
ffffffc050405c8e:	fe042703          	lw	a4,-32(s0)
ffffffc050405c92:	fb842783          	lw	a5,-72(s0)
ffffffc050405c96:	2701                	sext.w	a4,a4
ffffffc050405c98:	2781                	sext.w	a5,a5
ffffffc050405c9a:	fcf76be3          	bltu	a4,a5,ffffffc050405c70 <mini_itoa+0x12e>
ffffffc050405c9e:	fe442783          	lw	a5,-28(s0)
ffffffc050405ca2:	2781                	sext.w	a5,a5
ffffffc050405ca4:	cb99                	beqz	a5,ffffffc050405cba <mini_itoa+0x178>
ffffffc050405ca6:	fe843783          	ld	a5,-24(s0)
ffffffc050405caa:	00178713          	addi	a4,a5,1
ffffffc050405cae:	fee43423          	sd	a4,-24(s0)
ffffffc050405cb2:	02d00713          	li	a4,45
ffffffc050405cb6:	00e78023          	sb	a4,0(a5)
ffffffc050405cba:	fe843783          	ld	a5,-24(s0)
ffffffc050405cbe:	00078023          	sb	zero,0(a5)
ffffffc050405cc2:	fe843703          	ld	a4,-24(s0)
ffffffc050405cc6:	fb043783          	ld	a5,-80(s0)
ffffffc050405cca:	40f707b3          	sub	a5,a4,a5
ffffffc050405cce:	fcf42c23          	sw	a5,-40(s0)
ffffffc050405cd2:	fe042023          	sw	zero,-32(s0)
ffffffc050405cd6:	a885                	j	ffffffc050405d46 <mini_itoa+0x204>
ffffffc050405cd8:	fe046783          	lwu	a5,-32(s0)
ffffffc050405cdc:	fb043703          	ld	a4,-80(s0)
ffffffc050405ce0:	97ba                	add	a5,a5,a4
ffffffc050405ce2:	0007c783          	lbu	a5,0(a5)
ffffffc050405ce6:	fcf40ba3          	sb	a5,-41(s0)
ffffffc050405cea:	fd842703          	lw	a4,-40(s0)
ffffffc050405cee:	fe042783          	lw	a5,-32(s0)
ffffffc050405cf2:	40f707bb          	subw	a5,a4,a5
ffffffc050405cf6:	2781                	sext.w	a5,a5
ffffffc050405cf8:	37fd                	addiw	a5,a5,-1
ffffffc050405cfa:	2781                	sext.w	a5,a5
ffffffc050405cfc:	1782                	slli	a5,a5,0x20
ffffffc050405cfe:	9381                	srli	a5,a5,0x20
ffffffc050405d00:	fb043703          	ld	a4,-80(s0)
ffffffc050405d04:	973e                	add	a4,a4,a5
ffffffc050405d06:	fe046783          	lwu	a5,-32(s0)
ffffffc050405d0a:	fb043683          	ld	a3,-80(s0)
ffffffc050405d0e:	97b6                	add	a5,a5,a3
ffffffc050405d10:	00074703          	lbu	a4,0(a4)
ffffffc050405d14:	00e78023          	sb	a4,0(a5)
ffffffc050405d18:	fd842703          	lw	a4,-40(s0)
ffffffc050405d1c:	fe042783          	lw	a5,-32(s0)
ffffffc050405d20:	40f707bb          	subw	a5,a4,a5
ffffffc050405d24:	2781                	sext.w	a5,a5
ffffffc050405d26:	37fd                	addiw	a5,a5,-1
ffffffc050405d28:	2781                	sext.w	a5,a5
ffffffc050405d2a:	1782                	slli	a5,a5,0x20
ffffffc050405d2c:	9381                	srli	a5,a5,0x20
ffffffc050405d2e:	fb043703          	ld	a4,-80(s0)
ffffffc050405d32:	97ba                	add	a5,a5,a4
ffffffc050405d34:	fd744703          	lbu	a4,-41(s0)
ffffffc050405d38:	00e78023          	sb	a4,0(a5)
ffffffc050405d3c:	fe042783          	lw	a5,-32(s0)
ffffffc050405d40:	2785                	addiw	a5,a5,1
ffffffc050405d42:	fef42023          	sw	a5,-32(s0)
ffffffc050405d46:	fd842783          	lw	a5,-40(s0)
ffffffc050405d4a:	0017d79b          	srliw	a5,a5,0x1
ffffffc050405d4e:	0007871b          	sext.w	a4,a5
ffffffc050405d52:	fe042783          	lw	a5,-32(s0)
ffffffc050405d56:	2781                	sext.w	a5,a5
ffffffc050405d58:	f8e7e0e3          	bltu	a5,a4,ffffffc050405cd8 <mini_itoa+0x196>
ffffffc050405d5c:	fd842783          	lw	a5,-40(s0)
ffffffc050405d60:	853e                	mv	a0,a5
ffffffc050405d62:	6426                	ld	s0,72(sp)
ffffffc050405d64:	6161                	addi	sp,sp,80
ffffffc050405d66:	8082                	ret

ffffffc050405d68 <_putc>:
ffffffc050405d68:	1101                	addi	sp,sp,-32
ffffffc050405d6a:	ec22                	sd	s0,24(sp)
ffffffc050405d6c:	1000                	addi	s0,sp,32
ffffffc050405d6e:	87aa                	mv	a5,a0
ffffffc050405d70:	feb43023          	sd	a1,-32(s0)
ffffffc050405d74:	fef42623          	sw	a5,-20(s0)
ffffffc050405d78:	fe043783          	ld	a5,-32(s0)
ffffffc050405d7c:	6798                	ld	a4,8(a5)
ffffffc050405d7e:	fe043783          	ld	a5,-32(s0)
ffffffc050405d82:	639c                	ld	a5,0(a5)
ffffffc050405d84:	40f707b3          	sub	a5,a4,a5
ffffffc050405d88:	2781                	sext.w	a5,a5
ffffffc050405d8a:	2785                	addiw	a5,a5,1
ffffffc050405d8c:	0007871b          	sext.w	a4,a5
ffffffc050405d90:	fe043783          	ld	a5,-32(s0)
ffffffc050405d94:	4b9c                	lw	a5,16(a5)
ffffffc050405d96:	00f76463          	bltu	a4,a5,ffffffc050405d9e <_putc+0x36>
ffffffc050405d9a:	4781                	li	a5,0
ffffffc050405d9c:	a02d                	j	ffffffc050405dc6 <_putc+0x5e>
ffffffc050405d9e:	fe043783          	ld	a5,-32(s0)
ffffffc050405da2:	679c                	ld	a5,8(a5)
ffffffc050405da4:	00178693          	addi	a3,a5,1
ffffffc050405da8:	fe043703          	ld	a4,-32(s0)
ffffffc050405dac:	e714                	sd	a3,8(a4)
ffffffc050405dae:	fec42703          	lw	a4,-20(s0)
ffffffc050405db2:	0ff77713          	andi	a4,a4,255
ffffffc050405db6:	00e78023          	sb	a4,0(a5)
ffffffc050405dba:	fe043783          	ld	a5,-32(s0)
ffffffc050405dbe:	679c                	ld	a5,8(a5)
ffffffc050405dc0:	00078023          	sb	zero,0(a5)
ffffffc050405dc4:	4785                	li	a5,1
ffffffc050405dc6:	853e                	mv	a0,a5
ffffffc050405dc8:	6462                	ld	s0,24(sp)
ffffffc050405dca:	6105                	addi	sp,sp,32
ffffffc050405dcc:	8082                	ret

ffffffc050405dce <_puts>:
ffffffc050405dce:	7139                	addi	sp,sp,-64
ffffffc050405dd0:	fc22                	sd	s0,56(sp)
ffffffc050405dd2:	0080                	addi	s0,sp,64
ffffffc050405dd4:	fca43c23          	sd	a0,-40(s0)
ffffffc050405dd8:	87ae                	mv	a5,a1
ffffffc050405dda:	fcc43423          	sd	a2,-56(s0)
ffffffc050405dde:	fcf42a23          	sw	a5,-44(s0)
ffffffc050405de2:	fc843783          	ld	a5,-56(s0)
ffffffc050405de6:	4b9c                	lw	a5,16(a5)
ffffffc050405de8:	02079713          	slli	a4,a5,0x20
ffffffc050405dec:	9301                	srli	a4,a4,0x20
ffffffc050405dee:	fc843783          	ld	a5,-56(s0)
ffffffc050405df2:	6794                	ld	a3,8(a5)
ffffffc050405df4:	fc843783          	ld	a5,-56(s0)
ffffffc050405df8:	639c                	ld	a5,0(a5)
ffffffc050405dfa:	40f687b3          	sub	a5,a3,a5
ffffffc050405dfe:	8f1d                	sub	a4,a4,a5
ffffffc050405e00:	fd446783          	lwu	a5,-44(s0)
ffffffc050405e04:	02e7c463          	blt	a5,a4,ffffffc050405e2c <_puts+0x5e>
ffffffc050405e08:	fc843783          	ld	a5,-56(s0)
ffffffc050405e0c:	4b98                	lw	a4,16(a5)
ffffffc050405e0e:	fc843783          	ld	a5,-56(s0)
ffffffc050405e12:	6794                	ld	a3,8(a5)
ffffffc050405e14:	fc843783          	ld	a5,-56(s0)
ffffffc050405e18:	639c                	ld	a5,0(a5)
ffffffc050405e1a:	40f687b3          	sub	a5,a3,a5
ffffffc050405e1e:	2781                	sext.w	a5,a5
ffffffc050405e20:	40f707bb          	subw	a5,a4,a5
ffffffc050405e24:	2781                	sext.w	a5,a5
ffffffc050405e26:	37fd                	addiw	a5,a5,-1
ffffffc050405e28:	fcf42a23          	sw	a5,-44(s0)
ffffffc050405e2c:	fe042623          	sw	zero,-20(s0)
ffffffc050405e30:	a03d                	j	ffffffc050405e5e <_puts+0x90>
ffffffc050405e32:	fec46783          	lwu	a5,-20(s0)
ffffffc050405e36:	fd843703          	ld	a4,-40(s0)
ffffffc050405e3a:	973e                	add	a4,a4,a5
ffffffc050405e3c:	fc843783          	ld	a5,-56(s0)
ffffffc050405e40:	679c                	ld	a5,8(a5)
ffffffc050405e42:	00178613          	addi	a2,a5,1
ffffffc050405e46:	fc843683          	ld	a3,-56(s0)
ffffffc050405e4a:	e690                	sd	a2,8(a3)
ffffffc050405e4c:	00074703          	lbu	a4,0(a4)
ffffffc050405e50:	00e78023          	sb	a4,0(a5)
ffffffc050405e54:	fec42783          	lw	a5,-20(s0)
ffffffc050405e58:	2785                	addiw	a5,a5,1
ffffffc050405e5a:	fef42623          	sw	a5,-20(s0)
ffffffc050405e5e:	fec42703          	lw	a4,-20(s0)
ffffffc050405e62:	fd442783          	lw	a5,-44(s0)
ffffffc050405e66:	2701                	sext.w	a4,a4
ffffffc050405e68:	2781                	sext.w	a5,a5
ffffffc050405e6a:	fcf764e3          	bltu	a4,a5,ffffffc050405e32 <_puts+0x64>
ffffffc050405e6e:	fc843783          	ld	a5,-56(s0)
ffffffc050405e72:	679c                	ld	a5,8(a5)
ffffffc050405e74:	00078023          	sb	zero,0(a5)
ffffffc050405e78:	fd442783          	lw	a5,-44(s0)
ffffffc050405e7c:	853e                	mv	a0,a5
ffffffc050405e7e:	7462                	ld	s0,56(sp)
ffffffc050405e80:	6121                	addi	sp,sp,64
ffffffc050405e82:	8082                	ret

ffffffc050405e84 <mini_vsnprintf>:
ffffffc050405e84:	7119                	addi	sp,sp,-128
ffffffc050405e86:	fc86                	sd	ra,120(sp)
ffffffc050405e88:	f8a2                	sd	s0,112(sp)
ffffffc050405e8a:	0100                	addi	s0,sp,128
ffffffc050405e8c:	f8a43c23          	sd	a0,-104(s0)
ffffffc050405e90:	87ae                	mv	a5,a1
ffffffc050405e92:	f8c43423          	sd	a2,-120(s0)
ffffffc050405e96:	f8d43023          	sd	a3,-128(s0)
ffffffc050405e9a:	f8f42a23          	sw	a5,-108(s0)
ffffffc050405e9e:	f9843783          	ld	a5,-104(s0)
ffffffc050405ea2:	fcf43023          	sd	a5,-64(s0)
ffffffc050405ea6:	f9843783          	ld	a5,-104(s0)
ffffffc050405eaa:	fcf43423          	sd	a5,-56(s0)
ffffffc050405eae:	f9442783          	lw	a5,-108(s0)
ffffffc050405eb2:	fcf42823          	sw	a5,-48(s0)
ffffffc050405eb6:	a4f9                	j	ffffffc050406184 <mini_vsnprintf+0x300>
ffffffc050405eb8:	fc843703          	ld	a4,-56(s0)
ffffffc050405ebc:	fc043783          	ld	a5,-64(s0)
ffffffc050405ec0:	40f707b3          	sub	a5,a4,a5
ffffffc050405ec4:	2781                	sext.w	a5,a5
ffffffc050405ec6:	2785                	addiw	a5,a5,1
ffffffc050405ec8:	0007871b          	sext.w	a4,a5
ffffffc050405ecc:	fd042783          	lw	a5,-48(s0)
ffffffc050405ed0:	2cf77b63          	bgeu	a4,a5,ffffffc0504061a6 <mini_vsnprintf+0x322>
ffffffc050405ed4:	fef44783          	lbu	a5,-17(s0)
ffffffc050405ed8:	0ff7f713          	andi	a4,a5,255
ffffffc050405edc:	02500793          	li	a5,37
ffffffc050405ee0:	00f70c63          	beq	a4,a5,ffffffc050405ef8 <mini_vsnprintf+0x74>
ffffffc050405ee4:	fef44783          	lbu	a5,-17(s0)
ffffffc050405ee8:	2781                	sext.w	a5,a5
ffffffc050405eea:	fc040713          	addi	a4,s0,-64
ffffffc050405eee:	85ba                	mv	a1,a4
ffffffc050405ef0:	853e                	mv	a0,a5
ffffffc050405ef2:	e77ff0ef          	jal	ra,ffffffc050405d68 <_putc>
ffffffc050405ef6:	a479                	j	ffffffc050406184 <mini_vsnprintf+0x300>
ffffffc050405ef8:	fe040723          	sb	zero,-18(s0)
ffffffc050405efc:	fe042423          	sw	zero,-24(s0)
ffffffc050405f00:	f8843783          	ld	a5,-120(s0)
ffffffc050405f04:	00178713          	addi	a4,a5,1
ffffffc050405f08:	f8e43423          	sd	a4,-120(s0)
ffffffc050405f0c:	0007c783          	lbu	a5,0(a5)
ffffffc050405f10:	fef407a3          	sb	a5,-17(s0)
ffffffc050405f14:	fef44783          	lbu	a5,-17(s0)
ffffffc050405f18:	0ff7f713          	andi	a4,a5,255
ffffffc050405f1c:	03000793          	li	a5,48
ffffffc050405f20:	06f71b63          	bne	a4,a5,ffffffc050405f96 <mini_vsnprintf+0x112>
ffffffc050405f24:	a891                	j	ffffffc050405f78 <mini_vsnprintf+0xf4>
ffffffc050405f26:	fef44783          	lbu	a5,-17(s0)
ffffffc050405f2a:	0ff7f793          	andi	a5,a5,255
ffffffc050405f2e:	26078e63          	beqz	a5,ffffffc0504061aa <mini_vsnprintf+0x326>
ffffffc050405f32:	fef44783          	lbu	a5,-17(s0)
ffffffc050405f36:	0ff7f713          	andi	a4,a5,255
ffffffc050405f3a:	02f00793          	li	a5,47
ffffffc050405f3e:	04e7fc63          	bgeu	a5,a4,ffffffc050405f96 <mini_vsnprintf+0x112>
ffffffc050405f42:	fef44783          	lbu	a5,-17(s0)
ffffffc050405f46:	0ff7f713          	andi	a4,a5,255
ffffffc050405f4a:	03900793          	li	a5,57
ffffffc050405f4e:	04e7e463          	bltu	a5,a4,ffffffc050405f96 <mini_vsnprintf+0x112>
ffffffc050405f52:	fee44703          	lbu	a4,-18(s0)
ffffffc050405f56:	87ba                	mv	a5,a4
ffffffc050405f58:	0027979b          	slliw	a5,a5,0x2
ffffffc050405f5c:	9fb9                	addw	a5,a5,a4
ffffffc050405f5e:	0017979b          	slliw	a5,a5,0x1
ffffffc050405f62:	0ff7f793          	andi	a5,a5,255
ffffffc050405f66:	fef44703          	lbu	a4,-17(s0)
ffffffc050405f6a:	9fb9                	addw	a5,a5,a4
ffffffc050405f6c:	0ff7f793          	andi	a5,a5,255
ffffffc050405f70:	fd07879b          	addiw	a5,a5,-48
ffffffc050405f74:	fef40723          	sb	a5,-18(s0)
ffffffc050405f78:	f8843783          	ld	a5,-120(s0)
ffffffc050405f7c:	00178713          	addi	a4,a5,1
ffffffc050405f80:	f8e43423          	sd	a4,-120(s0)
ffffffc050405f84:	0007c783          	lbu	a5,0(a5)
ffffffc050405f88:	fef407a3          	sb	a5,-17(s0)
ffffffc050405f8c:	fef44783          	lbu	a5,-17(s0)
ffffffc050405f90:	0ff7f793          	andi	a5,a5,255
ffffffc050405f94:	fbc9                	bnez	a5,ffffffc050405f26 <mini_vsnprintf+0xa2>
ffffffc050405f96:	fef44783          	lbu	a5,-17(s0)
ffffffc050405f9a:	0ff7f713          	andi	a4,a5,255
ffffffc050405f9e:	06c00793          	li	a5,108
ffffffc050405fa2:	00f71f63          	bne	a4,a5,ffffffc050405fc0 <mini_vsnprintf+0x13c>
ffffffc050405fa6:	4785                	li	a5,1
ffffffc050405fa8:	fef42423          	sw	a5,-24(s0)
ffffffc050405fac:	f8843783          	ld	a5,-120(s0)
ffffffc050405fb0:	00178713          	addi	a4,a5,1
ffffffc050405fb4:	f8e43423          	sd	a4,-120(s0)
ffffffc050405fb8:	0007c783          	lbu	a5,0(a5)
ffffffc050405fbc:	fef407a3          	sb	a5,-17(s0)
ffffffc050405fc0:	fef44783          	lbu	a5,-17(s0)
ffffffc050405fc4:	2781                	sext.w	a5,a5
ffffffc050405fc6:	1e078463          	beqz	a5,ffffffc0504061ae <mini_vsnprintf+0x32a>
ffffffc050405fca:	873e                	mv	a4,a5
ffffffc050405fcc:	1a074263          	bltz	a4,ffffffc050406170 <mini_vsnprintf+0x2ec>
ffffffc050405fd0:	86be                	mv	a3,a5
ffffffc050405fd2:	07800713          	li	a4,120
ffffffc050405fd6:	18d74d63          	blt	a4,a3,ffffffc050406170 <mini_vsnprintf+0x2ec>
ffffffc050405fda:	86be                	mv	a3,a5
ffffffc050405fdc:	05800713          	li	a4,88
ffffffc050405fe0:	18e6c863          	blt	a3,a4,ffffffc050406170 <mini_vsnprintf+0x2ec>
ffffffc050405fe4:	fa87869b          	addiw	a3,a5,-88
ffffffc050405fe8:	0006871b          	sext.w	a4,a3
ffffffc050405fec:	02000793          	li	a5,32
ffffffc050405ff0:	18e7e063          	bltu	a5,a4,ffffffc050406170 <mini_vsnprintf+0x2ec>
ffffffc050405ff4:	02069793          	slli	a5,a3,0x20
ffffffc050405ff8:	9381                	srli	a5,a5,0x20
ffffffc050405ffa:	00279713          	slli	a4,a5,0x2
ffffffc050405ffe:	00001797          	auipc	a5,0x1
ffffffc050406002:	9b278793          	addi	a5,a5,-1614 # ffffffc0504069b0 <__FUNCTION__.1379+0xb8>
ffffffc050406006:	97ba                	add	a5,a5,a4
ffffffc050406008:	439c                	lw	a5,0(a5)
ffffffc05040600a:	0007871b          	sext.w	a4,a5
ffffffc05040600e:	00001797          	auipc	a5,0x1
ffffffc050406012:	9a278793          	addi	a5,a5,-1630 # ffffffc0504069b0 <__FUNCTION__.1379+0xb8>
ffffffc050406016:	97ba                	add	a5,a5,a4
ffffffc050406018:	8782                	jr	a5
ffffffc05040601a:	4785                	li	a5,1
ffffffc05040601c:	fef42423          	sw	a5,-24(s0)
ffffffc050406020:	a295                	j	ffffffc050406184 <mini_vsnprintf+0x300>
ffffffc050406022:	fe842783          	lw	a5,-24(s0)
ffffffc050406026:	2781                	sext.w	a5,a5
ffffffc050406028:	ef81                	bnez	a5,ffffffc050406040 <mini_vsnprintf+0x1bc>
ffffffc05040602a:	f8043783          	ld	a5,-128(s0)
ffffffc05040602e:	00878713          	addi	a4,a5,8
ffffffc050406032:	f8e43023          	sd	a4,-128(s0)
ffffffc050406036:	439c                	lw	a5,0(a5)
ffffffc050406038:	02079513          	slli	a0,a5,0x20
ffffffc05040603c:	9101                	srli	a0,a0,0x20
ffffffc05040603e:	a809                	j	ffffffc050406050 <mini_vsnprintf+0x1cc>
ffffffc050406040:	f8043783          	ld	a5,-128(s0)
ffffffc050406044:	00878713          	addi	a4,a5,8
ffffffc050406048:	f8e43023          	sd	a4,-128(s0)
ffffffc05040604c:	639c                	ld	a5,0(a5)
ffffffc05040604e:	853e                	mv	a0,a5
ffffffc050406050:	fef44783          	lbu	a5,-17(s0)
ffffffc050406054:	0007871b          	sext.w	a4,a5
ffffffc050406058:	07500793          	li	a5,117
ffffffc05040605c:	40f707b3          	sub	a5,a4,a5
ffffffc050406060:	0017b793          	seqz	a5,a5
ffffffc050406064:	0ff7f793          	andi	a5,a5,255
ffffffc050406068:	0007869b          	sext.w	a3,a5
ffffffc05040606c:	fee44783          	lbu	a5,-18(s0)
ffffffc050406070:	2781                	sext.w	a5,a5
ffffffc050406072:	fa840713          	addi	a4,s0,-88
ffffffc050406076:	4601                	li	a2,0
ffffffc050406078:	45a9                	li	a1,10
ffffffc05040607a:	ac9ff0ef          	jal	ra,ffffffc050405b42 <mini_itoa>
ffffffc05040607e:	87aa                	mv	a5,a0
ffffffc050406080:	fcf42e23          	sw	a5,-36(s0)
ffffffc050406084:	fc040693          	addi	a3,s0,-64
ffffffc050406088:	fdc42703          	lw	a4,-36(s0)
ffffffc05040608c:	fa840793          	addi	a5,s0,-88
ffffffc050406090:	8636                	mv	a2,a3
ffffffc050406092:	85ba                	mv	a1,a4
ffffffc050406094:	853e                	mv	a0,a5
ffffffc050406096:	d39ff0ef          	jal	ra,ffffffc050405dce <_puts>
ffffffc05040609a:	fe042423          	sw	zero,-24(s0)
ffffffc05040609e:	a0dd                	j	ffffffc050406184 <mini_vsnprintf+0x300>
ffffffc0504060a0:	fe842783          	lw	a5,-24(s0)
ffffffc0504060a4:	2781                	sext.w	a5,a5
ffffffc0504060a6:	ef81                	bnez	a5,ffffffc0504060be <mini_vsnprintf+0x23a>
ffffffc0504060a8:	f8043783          	ld	a5,-128(s0)
ffffffc0504060ac:	00878713          	addi	a4,a5,8
ffffffc0504060b0:	f8e43023          	sd	a4,-128(s0)
ffffffc0504060b4:	439c                	lw	a5,0(a5)
ffffffc0504060b6:	02079513          	slli	a0,a5,0x20
ffffffc0504060ba:	9101                	srli	a0,a0,0x20
ffffffc0504060bc:	a809                	j	ffffffc0504060ce <mini_vsnprintf+0x24a>
ffffffc0504060be:	f8043783          	ld	a5,-128(s0)
ffffffc0504060c2:	00878713          	addi	a4,a5,8
ffffffc0504060c6:	f8e43023          	sd	a4,-128(s0)
ffffffc0504060ca:	639c                	ld	a5,0(a5)
ffffffc0504060cc:	853e                	mv	a0,a5
ffffffc0504060ce:	fef44783          	lbu	a5,-17(s0)
ffffffc0504060d2:	0007871b          	sext.w	a4,a5
ffffffc0504060d6:	05800793          	li	a5,88
ffffffc0504060da:	40f707b3          	sub	a5,a4,a5
ffffffc0504060de:	0017b793          	seqz	a5,a5
ffffffc0504060e2:	0ff7f793          	andi	a5,a5,255
ffffffc0504060e6:	0007861b          	sext.w	a2,a5
ffffffc0504060ea:	fee44783          	lbu	a5,-18(s0)
ffffffc0504060ee:	2781                	sext.w	a5,a5
ffffffc0504060f0:	fa840713          	addi	a4,s0,-88
ffffffc0504060f4:	4685                	li	a3,1
ffffffc0504060f6:	45c1                	li	a1,16
ffffffc0504060f8:	a4bff0ef          	jal	ra,ffffffc050405b42 <mini_itoa>
ffffffc0504060fc:	87aa                	mv	a5,a0
ffffffc0504060fe:	fcf42e23          	sw	a5,-36(s0)
ffffffc050406102:	fc040693          	addi	a3,s0,-64
ffffffc050406106:	fdc42703          	lw	a4,-36(s0)
ffffffc05040610a:	fa840793          	addi	a5,s0,-88
ffffffc05040610e:	8636                	mv	a2,a3
ffffffc050406110:	85ba                	mv	a1,a4
ffffffc050406112:	853e                	mv	a0,a5
ffffffc050406114:	cbbff0ef          	jal	ra,ffffffc050405dce <_puts>
ffffffc050406118:	fe042423          	sw	zero,-24(s0)
ffffffc05040611c:	a0a5                	j	ffffffc050406184 <mini_vsnprintf+0x300>
ffffffc05040611e:	f8043783          	ld	a5,-128(s0)
ffffffc050406122:	00878713          	addi	a4,a5,8
ffffffc050406126:	f8e43023          	sd	a4,-128(s0)
ffffffc05040612a:	439c                	lw	a5,0(a5)
ffffffc05040612c:	0ff7f793          	andi	a5,a5,255
ffffffc050406130:	2781                	sext.w	a5,a5
ffffffc050406132:	fc040713          	addi	a4,s0,-64
ffffffc050406136:	85ba                	mv	a1,a4
ffffffc050406138:	853e                	mv	a0,a5
ffffffc05040613a:	c2fff0ef          	jal	ra,ffffffc050405d68 <_putc>
ffffffc05040613e:	a099                	j	ffffffc050406184 <mini_vsnprintf+0x300>
ffffffc050406140:	f8043783          	ld	a5,-128(s0)
ffffffc050406144:	00878713          	addi	a4,a5,8
ffffffc050406148:	f8e43023          	sd	a4,-128(s0)
ffffffc05040614c:	639c                	ld	a5,0(a5)
ffffffc05040614e:	fef43023          	sd	a5,-32(s0)
ffffffc050406152:	fe043503          	ld	a0,-32(s0)
ffffffc050406156:	9b7ff0ef          	jal	ra,ffffffc050405b0c <mini_strlen>
ffffffc05040615a:	87aa                	mv	a5,a0
ffffffc05040615c:	2781                	sext.w	a5,a5
ffffffc05040615e:	fc040713          	addi	a4,s0,-64
ffffffc050406162:	863a                	mv	a2,a4
ffffffc050406164:	85be                	mv	a1,a5
ffffffc050406166:	fe043503          	ld	a0,-32(s0)
ffffffc05040616a:	c65ff0ef          	jal	ra,ffffffc050405dce <_puts>
ffffffc05040616e:	a819                	j	ffffffc050406184 <mini_vsnprintf+0x300>
ffffffc050406170:	fef44783          	lbu	a5,-17(s0)
ffffffc050406174:	2781                	sext.w	a5,a5
ffffffc050406176:	fc040713          	addi	a4,s0,-64
ffffffc05040617a:	85ba                	mv	a1,a4
ffffffc05040617c:	853e                	mv	a0,a5
ffffffc05040617e:	bebff0ef          	jal	ra,ffffffc050405d68 <_putc>
ffffffc050406182:	0001                	nop
ffffffc050406184:	f8843783          	ld	a5,-120(s0)
ffffffc050406188:	00178713          	addi	a4,a5,1
ffffffc05040618c:	f8e43423          	sd	a4,-120(s0)
ffffffc050406190:	0007c783          	lbu	a5,0(a5)
ffffffc050406194:	fef407a3          	sb	a5,-17(s0)
ffffffc050406198:	fef44783          	lbu	a5,-17(s0)
ffffffc05040619c:	0ff7f793          	andi	a5,a5,255
ffffffc0504061a0:	d0079ce3          	bnez	a5,ffffffc050405eb8 <mini_vsnprintf+0x34>
ffffffc0504061a4:	a031                	j	ffffffc0504061b0 <mini_vsnprintf+0x32c>
ffffffc0504061a6:	0001                	nop
ffffffc0504061a8:	a021                	j	ffffffc0504061b0 <mini_vsnprintf+0x32c>
ffffffc0504061aa:	0001                	nop
ffffffc0504061ac:	a011                	j	ffffffc0504061b0 <mini_vsnprintf+0x32c>
ffffffc0504061ae:	0001                	nop
ffffffc0504061b0:	fc843703          	ld	a4,-56(s0)
ffffffc0504061b4:	fc043783          	ld	a5,-64(s0)
ffffffc0504061b8:	40f707b3          	sub	a5,a4,a5
ffffffc0504061bc:	2781                	sext.w	a5,a5
ffffffc0504061be:	853e                	mv	a0,a5
ffffffc0504061c0:	70e6                	ld	ra,120(sp)
ffffffc0504061c2:	7446                	ld	s0,112(sp)
ffffffc0504061c4:	6109                	addi	sp,sp,128
ffffffc0504061c6:	8082                	ret

ffffffc0504061c8 <_vprint>:
ffffffc0504061c8:	7129                	addi	sp,sp,-320
ffffffc0504061ca:	fe06                	sd	ra,312(sp)
ffffffc0504061cc:	fa22                	sd	s0,304(sp)
ffffffc0504061ce:	0280                	addi	s0,sp,320
ffffffc0504061d0:	eca43c23          	sd	a0,-296(s0)
ffffffc0504061d4:	ecb43823          	sd	a1,-304(s0)
ffffffc0504061d8:	ecc43423          	sd	a2,-312(s0)
ffffffc0504061dc:	8ecfa0ef          	jal	ra,ffffffc0504002c8 <get_current_cpu_id>
ffffffc0504061e0:	87aa                	mv	a5,a0
ffffffc0504061e2:	e791                	bnez	a5,ffffffc0504061ee <_vprint+0x26>
ffffffc0504061e4:	00040797          	auipc	a5,0x40
ffffffc0504061e8:	02c78793          	addi	a5,a5,44 # ffffffc050446210 <current_running_core0>
ffffffc0504061ec:	a029                	j	ffffffc0504061f6 <_vprint+0x2e>
ffffffc0504061ee:	00040797          	auipc	a5,0x40
ffffffc0504061f2:	01a78793          	addi	a5,a5,26 # ffffffc050446208 <current_running_core1>
ffffffc0504061f6:	00041717          	auipc	a4,0x41
ffffffc0504061fa:	7d270713          	addi	a4,a4,2002 # ffffffc0504479c8 <current_running>
ffffffc0504061fe:	e31c                	sd	a5,0(a4)
ffffffc050406200:	ed043783          	ld	a5,-304(s0)
ffffffc050406204:	fef43023          	sd	a5,-32(s0)
ffffffc050406208:	fe043703          	ld	a4,-32(s0)
ffffffc05040620c:	ee040793          	addi	a5,s0,-288
ffffffc050406210:	86ba                	mv	a3,a4
ffffffc050406212:	ed843603          	ld	a2,-296(s0)
ffffffc050406216:	10000593          	li	a1,256
ffffffc05040621a:	853e                	mv	a0,a5
ffffffc05040621c:	c69ff0ef          	jal	ra,ffffffc050405e84 <mini_vsnprintf>
ffffffc050406220:	87aa                	mv	a5,a0
ffffffc050406222:	fef42423          	sw	a5,-24(s0)
ffffffc050406226:	fe842783          	lw	a5,-24(s0)
ffffffc05040622a:	ff040713          	addi	a4,s0,-16
ffffffc05040622e:	97ba                	add	a5,a5,a4
ffffffc050406230:	ee078823          	sb	zero,-272(a5)
ffffffc050406234:	e7df90ef          	jal	ra,ffffffc0504000b0 <disable_preempt>
ffffffc050406238:	ee040793          	addi	a5,s0,-288
ffffffc05040623c:	ec843703          	ld	a4,-312(s0)
ffffffc050406240:	853e                	mv	a0,a5
ffffffc050406242:	9702                	jalr	a4
ffffffc050406244:	fe042623          	sw	zero,-20(s0)
ffffffc050406248:	a031                	j	ffffffc050406254 <_vprint+0x8c>
ffffffc05040624a:	fec42783          	lw	a5,-20(s0)
ffffffc05040624e:	2785                	addiw	a5,a5,1
ffffffc050406250:	fef42623          	sw	a5,-20(s0)
ffffffc050406254:	fec42703          	lw	a4,-20(s0)
ffffffc050406258:	fe842783          	lw	a5,-24(s0)
ffffffc05040625c:	2701                	sext.w	a4,a4
ffffffc05040625e:	2781                	sext.w	a5,a5
ffffffc050406260:	fef745e3          	blt	a4,a5,ffffffc05040624a <_vprint+0x82>
ffffffc050406264:	e15f90ef          	jal	ra,ffffffc050400078 <enable_preempt>
ffffffc050406268:	fe842783          	lw	a5,-24(s0)
ffffffc05040626c:	853e                	mv	a0,a5
ffffffc05040626e:	70f2                	ld	ra,312(sp)
ffffffc050406270:	7452                	ld	s0,304(sp)
ffffffc050406272:	6131                	addi	sp,sp,320
ffffffc050406274:	8082                	ret

ffffffc050406276 <vprintk>:
ffffffc050406276:	1101                	addi	sp,sp,-32
ffffffc050406278:	ec06                	sd	ra,24(sp)
ffffffc05040627a:	e822                	sd	s0,16(sp)
ffffffc05040627c:	1000                	addi	s0,sp,32
ffffffc05040627e:	fea43423          	sd	a0,-24(s0)
ffffffc050406282:	feb43023          	sd	a1,-32(s0)
ffffffc050406286:	ffffa617          	auipc	a2,0xffffa
ffffffc05040628a:	00460613          	addi	a2,a2,4 # ffffffc05040028a <port_write>
ffffffc05040628e:	fe043583          	ld	a1,-32(s0)
ffffffc050406292:	fe843503          	ld	a0,-24(s0)
ffffffc050406296:	f33ff0ef          	jal	ra,ffffffc0504061c8 <_vprint>
ffffffc05040629a:	87aa                	mv	a5,a0
ffffffc05040629c:	853e                	mv	a0,a5
ffffffc05040629e:	60e2                	ld	ra,24(sp)
ffffffc0504062a0:	6442                	ld	s0,16(sp)
ffffffc0504062a2:	6105                	addi	sp,sp,32
ffffffc0504062a4:	8082                	ret

ffffffc0504062a6 <printk>:
ffffffc0504062a6:	7159                	addi	sp,sp,-112
ffffffc0504062a8:	f406                	sd	ra,40(sp)
ffffffc0504062aa:	f022                	sd	s0,32(sp)
ffffffc0504062ac:	1800                	addi	s0,sp,48
ffffffc0504062ae:	fca43c23          	sd	a0,-40(s0)
ffffffc0504062b2:	e40c                	sd	a1,8(s0)
ffffffc0504062b4:	e810                	sd	a2,16(s0)
ffffffc0504062b6:	ec14                	sd	a3,24(s0)
ffffffc0504062b8:	f018                	sd	a4,32(s0)
ffffffc0504062ba:	f41c                	sd	a5,40(s0)
ffffffc0504062bc:	03043823          	sd	a6,48(s0)
ffffffc0504062c0:	03143c23          	sd	a7,56(s0)
ffffffc0504062c4:	fe042623          	sw	zero,-20(s0)
ffffffc0504062c8:	04040793          	addi	a5,s0,64
ffffffc0504062cc:	fcf43823          	sd	a5,-48(s0)
ffffffc0504062d0:	fd043783          	ld	a5,-48(s0)
ffffffc0504062d4:	fc878793          	addi	a5,a5,-56
ffffffc0504062d8:	fef43023          	sd	a5,-32(s0)
ffffffc0504062dc:	fe043783          	ld	a5,-32(s0)
ffffffc0504062e0:	85be                	mv	a1,a5
ffffffc0504062e2:	fd843503          	ld	a0,-40(s0)
ffffffc0504062e6:	f91ff0ef          	jal	ra,ffffffc050406276 <vprintk>
ffffffc0504062ea:	87aa                	mv	a5,a0
ffffffc0504062ec:	fef42623          	sw	a5,-20(s0)
ffffffc0504062f0:	fec42783          	lw	a5,-20(s0)
ffffffc0504062f4:	853e                	mv	a0,a5
ffffffc0504062f6:	70a2                	ld	ra,40(sp)
ffffffc0504062f8:	7402                	ld	s0,32(sp)
ffffffc0504062fa:	6165                	addi	sp,sp,112
ffffffc0504062fc:	8082                	ret

ffffffc0504062fe <vprints>:
ffffffc0504062fe:	1101                	addi	sp,sp,-32
ffffffc050406300:	ec06                	sd	ra,24(sp)
ffffffc050406302:	e822                	sd	s0,16(sp)
ffffffc050406304:	1000                	addi	s0,sp,32
ffffffc050406306:	fea43423          	sd	a0,-24(s0)
ffffffc05040630a:	feb43023          	sd	a1,-32(s0)
ffffffc05040630e:	ffffc617          	auipc	a2,0xffffc
ffffffc050406312:	40660613          	addi	a2,a2,1030 # ffffffc050402714 <screen_write>
ffffffc050406316:	fe043583          	ld	a1,-32(s0)
ffffffc05040631a:	fe843503          	ld	a0,-24(s0)
ffffffc05040631e:	eabff0ef          	jal	ra,ffffffc0504061c8 <_vprint>
ffffffc050406322:	87aa                	mv	a5,a0
ffffffc050406324:	853e                	mv	a0,a5
ffffffc050406326:	60e2                	ld	ra,24(sp)
ffffffc050406328:	6442                	ld	s0,16(sp)
ffffffc05040632a:	6105                	addi	sp,sp,32
ffffffc05040632c:	8082                	ret

ffffffc05040632e <prints>:
ffffffc05040632e:	7159                	addi	sp,sp,-112
ffffffc050406330:	f406                	sd	ra,40(sp)
ffffffc050406332:	f022                	sd	s0,32(sp)
ffffffc050406334:	1800                	addi	s0,sp,48
ffffffc050406336:	fca43c23          	sd	a0,-40(s0)
ffffffc05040633a:	e40c                	sd	a1,8(s0)
ffffffc05040633c:	e810                	sd	a2,16(s0)
ffffffc05040633e:	ec14                	sd	a3,24(s0)
ffffffc050406340:	f018                	sd	a4,32(s0)
ffffffc050406342:	f41c                	sd	a5,40(s0)
ffffffc050406344:	03043823          	sd	a6,48(s0)
ffffffc050406348:	03143c23          	sd	a7,56(s0)
ffffffc05040634c:	fe042623          	sw	zero,-20(s0)
ffffffc050406350:	fd0fc0ef          	jal	ra,ffffffc050402b20 <kernel_screen_scroll_check>
ffffffc050406354:	04040793          	addi	a5,s0,64
ffffffc050406358:	fcf43823          	sd	a5,-48(s0)
ffffffc05040635c:	fd043783          	ld	a5,-48(s0)
ffffffc050406360:	fc878793          	addi	a5,a5,-56
ffffffc050406364:	fef43023          	sd	a5,-32(s0)
ffffffc050406368:	fe043783          	ld	a5,-32(s0)
ffffffc05040636c:	85be                	mv	a1,a5
ffffffc05040636e:	fd843503          	ld	a0,-40(s0)
ffffffc050406372:	f8dff0ef          	jal	ra,ffffffc0504062fe <vprints>
ffffffc050406376:	87aa                	mv	a5,a0
ffffffc050406378:	fef42623          	sw	a5,-20(s0)
ffffffc05040637c:	fec42783          	lw	a5,-20(s0)
ffffffc050406380:	853e                	mv	a0,a5
ffffffc050406382:	70a2                	ld	ra,40(sp)
ffffffc050406384:	7402                	ld	s0,32(sp)
ffffffc050406386:	6165                	addi	sp,sp,112
ffffffc050406388:	8082                	ret

ffffffc05040638a <get_elf_file>:
ffffffc05040638a:	7139                	addi	sp,sp,-64
ffffffc05040638c:	fc06                	sd	ra,56(sp)
ffffffc05040638e:	f822                	sd	s0,48(sp)
ffffffc050406390:	0080                	addi	s0,sp,64
ffffffc050406392:	fca43c23          	sd	a0,-40(s0)
ffffffc050406396:	fcb43823          	sd	a1,-48(s0)
ffffffc05040639a:	fcc43423          	sd	a2,-56(s0)
ffffffc05040639e:	fe042623          	sw	zero,-20(s0)
ffffffc0504063a2:	a895                	j	ffffffc050406416 <get_elf_file+0x8c>
ffffffc0504063a4:	0003e697          	auipc	a3,0x3e
ffffffc0504063a8:	dcc68693          	addi	a3,a3,-564 # ffffffc050444170 <elf_files>
ffffffc0504063ac:	fec42703          	lw	a4,-20(s0)
ffffffc0504063b0:	87ba                	mv	a5,a4
ffffffc0504063b2:	0786                	slli	a5,a5,0x1
ffffffc0504063b4:	97ba                	add	a5,a5,a4
ffffffc0504063b6:	078e                	slli	a5,a5,0x3
ffffffc0504063b8:	97b6                	add	a5,a5,a3
ffffffc0504063ba:	639c                	ld	a5,0(a5)
ffffffc0504063bc:	fd843583          	ld	a1,-40(s0)
ffffffc0504063c0:	853e                	mv	a0,a5
ffffffc0504063c2:	d80ff0ef          	jal	ra,ffffffc050405942 <kstrcmp>
ffffffc0504063c6:	87aa                	mv	a5,a0
ffffffc0504063c8:	e3b1                	bnez	a5,ffffffc05040640c <get_elf_file+0x82>
ffffffc0504063ca:	0003e697          	auipc	a3,0x3e
ffffffc0504063ce:	da668693          	addi	a3,a3,-602 # ffffffc050444170 <elf_files>
ffffffc0504063d2:	fec42703          	lw	a4,-20(s0)
ffffffc0504063d6:	87ba                	mv	a5,a4
ffffffc0504063d8:	0786                	slli	a5,a5,0x1
ffffffc0504063da:	97ba                	add	a5,a5,a4
ffffffc0504063dc:	078e                	slli	a5,a5,0x3
ffffffc0504063de:	97b6                	add	a5,a5,a3
ffffffc0504063e0:	6798                	ld	a4,8(a5)
ffffffc0504063e2:	fd043783          	ld	a5,-48(s0)
ffffffc0504063e6:	e398                	sd	a4,0(a5)
ffffffc0504063e8:	0003e697          	auipc	a3,0x3e
ffffffc0504063ec:	d8868693          	addi	a3,a3,-632 # ffffffc050444170 <elf_files>
ffffffc0504063f0:	fec42703          	lw	a4,-20(s0)
ffffffc0504063f4:	87ba                	mv	a5,a4
ffffffc0504063f6:	0786                	slli	a5,a5,0x1
ffffffc0504063f8:	97ba                	add	a5,a5,a4
ffffffc0504063fa:	078e                	slli	a5,a5,0x3
ffffffc0504063fc:	97b6                	add	a5,a5,a3
ffffffc0504063fe:	6b9c                	ld	a5,16(a5)
ffffffc050406400:	4398                	lw	a4,0(a5)
ffffffc050406402:	fc843783          	ld	a5,-56(s0)
ffffffc050406406:	c398                	sw	a4,0(a5)
ffffffc050406408:	4785                	li	a5,1
ffffffc05040640a:	a831                	j	ffffffc050406426 <get_elf_file+0x9c>
ffffffc05040640c:	fec42783          	lw	a5,-20(s0)
ffffffc050406410:	2785                	addiw	a5,a5,1
ffffffc050406412:	fef42623          	sw	a5,-20(s0)
ffffffc050406416:	fec42783          	lw	a5,-20(s0)
ffffffc05040641a:	0007871b          	sext.w	a4,a5
ffffffc05040641e:	4791                	li	a5,4
ffffffc050406420:	f8e7d2e3          	bge	a5,a4,ffffffc0504063a4 <get_elf_file+0x1a>
ffffffc050406424:	4781                	li	a5,0
ffffffc050406426:	853e                	mv	a0,a5
ffffffc050406428:	70e2                	ld	ra,56(sp)
ffffffc05040642a:	7442                	ld	s0,48(sp)
ffffffc05040642c:	6121                	addi	sp,sp,64
ffffffc05040642e:	8082                	ret
