
main:     file format elf64-littleriscv


Disassembly of section .text:

ffffffc050400000 <_start>:
ffffffc050400000:	10401073          	csrw	sie,zero
ffffffc050400004:	14401073          	csrw	sip,zero
ffffffc050400008:	6299                	lui	t0,0x6
ffffffc05040000a:	1002b073          	csrc	sstatus,t0
ffffffc05040000e:	00072197          	auipc	gp,0x72
ffffffc050400012:	e9a18193          	addi	gp,gp,-358 # ffffffc050471ea8 <__global_pointer$>
ffffffc050400016:	f14022f3          	csrr	t0,mhartid
ffffffc05040001a:	00029b63          	bnez	t0,ffffffc050400030 <setup_core1>

ffffffc05040001e <setup_core0>:
ffffffc05040001e:	0000e217          	auipc	tp,0xe
ffffffc050400022:	a0a20213          	addi	tp,tp,-1526 # ffffffc05040da28 <pid0_pcb_core0>
ffffffc050400026:	00071117          	auipc	sp,0x71
ffffffc05040002a:	68213103          	ld	sp,1666(sp) # ffffffc0504716a8 <pid0_stack_0>
ffffffc05040002e:	a809                	j	ffffffc050400040 <setup_finish>

ffffffc050400030 <setup_core1>:
ffffffc050400030:	0000e217          	auipc	tp,0xe
ffffffc050400034:	ad020213          	addi	tp,tp,-1328 # ffffffc05040db00 <pid0_pcb_core1>
ffffffc050400038:	00071117          	auipc	sp,0x71
ffffffc05040003c:	67813103          	ld	sp,1656(sp) # ffffffc0504716b0 <pid0_stack_1>

ffffffc050400040 <setup_finish>:
ffffffc050400040:	702010ef          	jal	ra,ffffffc050401742 <main>

ffffffc050400044 <loop>:
ffffffc050400044:	10500073          	wfi
ffffffc050400048:	bff5                	j	ffffffc050400044 <loop>
	...

ffffffc05040004c <setup_exception>:
ffffffc05040004c:	00000417          	auipc	s0,0x0
ffffffc050400050:	16040413          	addi	s0,s0,352 # ffffffc0504001ac <exception_handler_entry>
ffffffc050400054:	10541073          	csrw	stvec,s0
ffffffc050400058:	f14022f3          	csrr	t0,mhartid
ffffffc05040005c:	00029463          	bnez	t0,ffffffc050400064 <cond>
ffffffc050400060:	14401073          	csrw	sip,zero

ffffffc050400064 <cond>:
ffffffc050400064:	22200413          	li	s0,546
ffffffc050400068:	10441073          	csrw	sie,s0
ffffffc05040006c:	000402b7          	lui	t0,0x40
ffffffc050400070:	1002a073          	csrs	sstatus,t0
ffffffc050400074:	8082                	ret
ffffffc050400076:	0001                	nop

ffffffc050400078 <read_sip>:
ffffffc050400078:	14402573          	csrr	a0,sip
ffffffc05040007c:	8082                	ret
	...

ffffffc050400080 <enable_preempt>:
ffffffc050400080:	f14022f3          	csrr	t0,mhartid
ffffffc050400084:	00029763          	bnez	t0,ffffffc050400092 <enable_core1>
ffffffc050400088:	00202317          	auipc	t1,0x202
ffffffc05040008c:	f5833303          	ld	t1,-168(t1) # ffffffc050601fe0 <current_running_core0>
ffffffc050400090:	a029                	j	ffffffc05040009a <enable_pre>

ffffffc050400092 <enable_core1>:
ffffffc050400092:	00202317          	auipc	t1,0x202
ffffffc050400096:	f4633303          	ld	t1,-186(t1) # ffffffc050601fd8 <current_running_core1>

ffffffc05040009a <enable_pre>:
ffffffc05040009a:	01033283          	ld	t0,16(t1)
ffffffc05040009e:	00028863          	beqz	t0,ffffffc0504000ae <do_enable>
ffffffc0504000a2:	12fd                	addi	t0,t0,-1
ffffffc0504000a4:	00533823          	sd	t0,16(t1)
ffffffc0504000a8:	00028363          	beqz	t0,ffffffc0504000ae <do_enable>
ffffffc0504000ac:	8082                	ret

ffffffc0504000ae <do_enable>:
ffffffc0504000ae:	fff04293          	not	t0,zero
ffffffc0504000b2:	1042a073          	csrs	sie,t0
ffffffc0504000b6:	8082                	ret

ffffffc0504000b8 <disable_preempt>:
ffffffc0504000b8:	10401073          	csrw	sie,zero
ffffffc0504000bc:	f14022f3          	csrr	t0,mhartid
ffffffc0504000c0:	00029763          	bnez	t0,ffffffc0504000ce <disable_core1>
ffffffc0504000c4:	00202317          	auipc	t1,0x202
ffffffc0504000c8:	f1c33303          	ld	t1,-228(t1) # ffffffc050601fe0 <current_running_core0>
ffffffc0504000cc:	a029                	j	ffffffc0504000d6 <disable_pre>

ffffffc0504000ce <disable_core1>:
ffffffc0504000ce:	00202317          	auipc	t1,0x202
ffffffc0504000d2:	f0a33303          	ld	t1,-246(t1) # ffffffc050601fd8 <current_running_core1>

ffffffc0504000d6 <disable_pre>:
ffffffc0504000d6:	01033283          	ld	t0,16(t1)
ffffffc0504000da:	0285                	addi	t0,t0,1
ffffffc0504000dc:	00533823          	sd	t0,16(t1)
ffffffc0504000e0:	8082                	ret
ffffffc0504000e2:	0001                	nop

ffffffc0504000e4 <enable_interrupt>:
ffffffc0504000e4:	4289                	li	t0,2
ffffffc0504000e6:	1002a073          	csrs	sstatus,t0
ffffffc0504000ea:	8082                	ret

ffffffc0504000ec <disable_interrupt>:
ffffffc0504000ec:	4289                	li	t0,2
ffffffc0504000ee:	1002b073          	csrc	sstatus,t0
ffffffc0504000f2:	8082                	ret

ffffffc0504000f4 <switch_to>:
ffffffc0504000f4:	00053283          	ld	t0,0(a0)
ffffffc0504000f8:	0022b423          	sd	sp,8(t0) # 40008 <_start-0xffffffc0503bfff8>
ffffffc0504000fc:	00053103          	ld	sp,0(a0)
ffffffc050400100:	e006                	sd	ra,0(sp)
ffffffc050400102:	e822                	sd	s0,16(sp)
ffffffc050400104:	ec26                	sd	s1,24(sp)
ffffffc050400106:	f04a                	sd	s2,32(sp)
ffffffc050400108:	f44e                	sd	s3,40(sp)
ffffffc05040010a:	f852                	sd	s4,48(sp)
ffffffc05040010c:	fc56                	sd	s5,56(sp)
ffffffc05040010e:	e0da                	sd	s6,64(sp)
ffffffc050400110:	e4de                	sd	s7,72(sp)
ffffffc050400112:	e8e2                	sd	s8,80(sp)
ffffffc050400114:	ece6                	sd	s9,88(sp)
ffffffc050400116:	f0ea                	sd	s10,96(sp)
ffffffc050400118:	f4ee                	sd	s11,104(sp)
ffffffc05040011a:	0005b103          	ld	sp,0(a1)
ffffffc05040011e:	6082                	ld	ra,0(sp)
ffffffc050400120:	6442                	ld	s0,16(sp)
ffffffc050400122:	64e2                	ld	s1,24(sp)
ffffffc050400124:	7902                	ld	s2,32(sp)
ffffffc050400126:	79a2                	ld	s3,40(sp)
ffffffc050400128:	7a42                	ld	s4,48(sp)
ffffffc05040012a:	7ae2                	ld	s5,56(sp)
ffffffc05040012c:	6b06                	ld	s6,64(sp)
ffffffc05040012e:	6ba6                	ld	s7,72(sp)
ffffffc050400130:	6c46                	ld	s8,80(sp)
ffffffc050400132:	6ce6                	ld	s9,88(sp)
ffffffc050400134:	7d06                	ld	s10,96(sp)
ffffffc050400136:	7da6                	ld	s11,104(sp)
ffffffc050400138:	6122                	ld	sp,8(sp)
ffffffc05040013a:	822e                	mv	tp,a1
ffffffc05040013c:	8082                	ret
ffffffc05040013e:	0001                	nop

ffffffc050400140 <ret_from_exception>:
ffffffc050400140:	00202517          	auipc	a0,0x202
ffffffc050400144:	fa850513          	addi	a0,a0,-88 # ffffffc0506020e8 <kernel_lock>
ffffffc050400148:	58d080ef          	jal	ra,ffffffc050408ed4 <spin_lock_release>
ffffffc05040014c:	00023103          	ld	sp,0(tp) # 0 <_start-0xffffffc050400000>
ffffffc050400150:	6165                	addi	sp,sp,112
ffffffc050400152:	6412                	ld	s0,256(sp)
ffffffc050400154:	64b2                	ld	s1,264(sp)
ffffffc050400156:	6952                	ld	s2,272(sp)
ffffffc050400158:	69f2                	ld	s3,280(sp)
ffffffc05040015a:	10041073          	csrw	sstatus,s0
ffffffc05040015e:	14149073          	csrw	sepc,s1
ffffffc050400162:	14391073          	csrw	stval,s2
ffffffc050400166:	14299073          	csrw	scause,s3
ffffffc05040016a:	60a2                	ld	ra,8(sp)
ffffffc05040016c:	61e2                	ld	gp,24(sp)
ffffffc05040016e:	7202                	ld	tp,32(sp)
ffffffc050400170:	72a2                	ld	t0,40(sp)
ffffffc050400172:	7342                	ld	t1,48(sp)
ffffffc050400174:	73e2                	ld	t2,56(sp)
ffffffc050400176:	6406                	ld	s0,64(sp)
ffffffc050400178:	64a6                	ld	s1,72(sp)
ffffffc05040017a:	6546                	ld	a0,80(sp)
ffffffc05040017c:	65e6                	ld	a1,88(sp)
ffffffc05040017e:	7606                	ld	a2,96(sp)
ffffffc050400180:	76a6                	ld	a3,104(sp)
ffffffc050400182:	7746                	ld	a4,112(sp)
ffffffc050400184:	77e6                	ld	a5,120(sp)
ffffffc050400186:	680a                	ld	a6,128(sp)
ffffffc050400188:	68aa                	ld	a7,136(sp)
ffffffc05040018a:	694a                	ld	s2,144(sp)
ffffffc05040018c:	69ea                	ld	s3,152(sp)
ffffffc05040018e:	7a0a                	ld	s4,160(sp)
ffffffc050400190:	7aaa                	ld	s5,168(sp)
ffffffc050400192:	7b4a                	ld	s6,176(sp)
ffffffc050400194:	7bea                	ld	s7,184(sp)
ffffffc050400196:	6c0e                	ld	s8,192(sp)
ffffffc050400198:	6cae                	ld	s9,200(sp)
ffffffc05040019a:	6d4e                	ld	s10,208(sp)
ffffffc05040019c:	6dee                	ld	s11,216(sp)
ffffffc05040019e:	7e0e                	ld	t3,224(sp)
ffffffc0504001a0:	7eae                	ld	t4,232(sp)
ffffffc0504001a2:	7f4e                	ld	t5,240(sp)
ffffffc0504001a4:	7fee                	ld	t6,248(sp)
ffffffc0504001a6:	6142                	ld	sp,16(sp)
ffffffc0504001a8:	10200073          	sret

ffffffc0504001ac <exception_handler_entry>:
ffffffc0504001ac:	00223423          	sd	sp,8(tp) # 8 <_start-0xffffffc0503ffff8>
ffffffc0504001b0:	00023103          	ld	sp,0(tp) # 0 <_start-0xffffffc050400000>
ffffffc0504001b4:	6165                	addi	sp,sp,112
ffffffc0504001b6:	e406                	sd	ra,8(sp)
ffffffc0504001b8:	ec0e                	sd	gp,24(sp)
ffffffc0504001ba:	f012                	sd	tp,32(sp)
ffffffc0504001bc:	f416                	sd	t0,40(sp)
ffffffc0504001be:	f81a                	sd	t1,48(sp)
ffffffc0504001c0:	fc1e                	sd	t2,56(sp)
ffffffc0504001c2:	e0a2                	sd	s0,64(sp)
ffffffc0504001c4:	e4a6                	sd	s1,72(sp)
ffffffc0504001c6:	e8aa                	sd	a0,80(sp)
ffffffc0504001c8:	ecae                	sd	a1,88(sp)
ffffffc0504001ca:	f0b2                	sd	a2,96(sp)
ffffffc0504001cc:	f4b6                	sd	a3,104(sp)
ffffffc0504001ce:	f8ba                	sd	a4,112(sp)
ffffffc0504001d0:	fcbe                	sd	a5,120(sp)
ffffffc0504001d2:	e142                	sd	a6,128(sp)
ffffffc0504001d4:	e546                	sd	a7,136(sp)
ffffffc0504001d6:	e94a                	sd	s2,144(sp)
ffffffc0504001d8:	ed4e                	sd	s3,152(sp)
ffffffc0504001da:	f152                	sd	s4,160(sp)
ffffffc0504001dc:	f556                	sd	s5,168(sp)
ffffffc0504001de:	f95a                	sd	s6,176(sp)
ffffffc0504001e0:	fd5e                	sd	s7,184(sp)
ffffffc0504001e2:	e1e2                	sd	s8,192(sp)
ffffffc0504001e4:	e5e6                	sd	s9,200(sp)
ffffffc0504001e6:	e9ea                	sd	s10,208(sp)
ffffffc0504001e8:	edee                	sd	s11,216(sp)
ffffffc0504001ea:	f1f2                	sd	t3,224(sp)
ffffffc0504001ec:	f5f6                	sd	t4,232(sp)
ffffffc0504001ee:	f9fa                	sd	t5,240(sp)
ffffffc0504001f0:	fdfe                	sd	t6,248(sp)
ffffffc0504001f2:	00823403          	ld	s0,8(tp) # 8 <_start-0xffffffc0503ffff8>
ffffffc0504001f6:	e822                	sd	s0,16(sp)
ffffffc0504001f8:	6299                	lui	t0,0x6
ffffffc0504001fa:	1002b4f3          	csrrc	s1,sstatus,t0
ffffffc0504001fe:	e226                	sd	s1,256(sp)
ffffffc050400200:	14302473          	csrr	s0,stval
ffffffc050400204:	141024f3          	csrr	s1,sepc
ffffffc050400208:	14202973          	csrr	s2,scause
ffffffc05040020c:	ea22                	sd	s0,272(sp)
ffffffc05040020e:	e626                	sd	s1,264(sp)
ffffffc050400210:	ee4a                	sd	s2,280(sp)
ffffffc050400212:	7159                	addi	sp,sp,-112
ffffffc050400214:	00202517          	auipc	a0,0x202
ffffffc050400218:	ed450513          	addi	a0,a0,-300 # ffffffc0506020e8 <kernel_lock>
ffffffc05040021c:	48d080ef          	jal	ra,ffffffc050408ea8 <spin_lock_acquire>
ffffffc050400220:	14001073          	csrw	sscratch,zero
ffffffc050400224:	00072197          	auipc	gp,0x72
ffffffc050400228:	c8418193          	addi	gp,gp,-892 # ffffffc050471ea8 <__global_pointer$>
ffffffc05040022c:	00023503          	ld	a0,0(tp) # 0 <_start-0xffffffc050400000>
ffffffc050400230:	07050513          	addi	a0,a0,112
ffffffc050400234:	143025f3          	csrr	a1,stval
ffffffc050400238:	14202673          	csrr	a2,scause
ffffffc05040023c:	59d010ef          	jal	ra,ffffffc050401fd8 <interrupt_helper>
ffffffc050400240:	00000097          	auipc	ra,0x0
ffffffc050400244:	f0008093          	addi	ra,ra,-256 # ffffffc050400140 <ret_from_exception>
ffffffc050400248:	8082                	ret

ffffffc05040024a <sbi_console_putchar>:
ffffffc05040024a:	1101                	addi	sp,sp,-32
ffffffc05040024c:	ec22                	sd	s0,24(sp)
ffffffc05040024e:	1000                	addi	s0,sp,32
ffffffc050400250:	87aa                	mv	a5,a0
ffffffc050400252:	fef42623          	sw	a5,-20(s0)
ffffffc050400256:	fec42783          	lw	a5,-20(s0)
ffffffc05040025a:	853e                	mv	a0,a5
ffffffc05040025c:	4581                	li	a1,0
ffffffc05040025e:	4601                	li	a2,0
ffffffc050400260:	4885                	li	a7,1
ffffffc050400262:	00000073          	ecall
ffffffc050400266:	0001                	nop
ffffffc050400268:	6462                	ld	s0,24(sp)
ffffffc05040026a:	6105                	addi	sp,sp,32
ffffffc05040026c:	8082                	ret

ffffffc05040026e <port_write_ch>:
ffffffc05040026e:	1101                	addi	sp,sp,-32
ffffffc050400270:	ec06                	sd	ra,24(sp)
ffffffc050400272:	e822                	sd	s0,16(sp)
ffffffc050400274:	1000                	addi	s0,sp,32
ffffffc050400276:	87aa                	mv	a5,a0
ffffffc050400278:	fef407a3          	sb	a5,-17(s0)
ffffffc05040027c:	fef44783          	lbu	a5,-17(s0)
ffffffc050400280:	2781                	sext.w	a5,a5
ffffffc050400282:	853e                	mv	a0,a5
ffffffc050400284:	fc7ff0ef          	jal	ra,ffffffc05040024a <sbi_console_putchar>
ffffffc050400288:	0001                	nop
ffffffc05040028a:	60e2                	ld	ra,24(sp)
ffffffc05040028c:	6442                	ld	s0,16(sp)
ffffffc05040028e:	6105                	addi	sp,sp,32
ffffffc050400290:	8082                	ret

ffffffc050400292 <port_write>:
ffffffc050400292:	1101                	addi	sp,sp,-32
ffffffc050400294:	ec06                	sd	ra,24(sp)
ffffffc050400296:	e822                	sd	s0,16(sp)
ffffffc050400298:	1000                	addi	s0,sp,32
ffffffc05040029a:	fea43423          	sd	a0,-24(s0)
ffffffc05040029e:	a831                	j	ffffffc0504002ba <port_write+0x28>
ffffffc0504002a0:	fe843783          	ld	a5,-24(s0)
ffffffc0504002a4:	0007c783          	lbu	a5,0(a5)
ffffffc0504002a8:	2781                	sext.w	a5,a5
ffffffc0504002aa:	853e                	mv	a0,a5
ffffffc0504002ac:	f9fff0ef          	jal	ra,ffffffc05040024a <sbi_console_putchar>
ffffffc0504002b0:	fe843783          	ld	a5,-24(s0)
ffffffc0504002b4:	0785                	addi	a5,a5,1
ffffffc0504002b6:	fef43423          	sd	a5,-24(s0)
ffffffc0504002ba:	fe843783          	ld	a5,-24(s0)
ffffffc0504002be:	0007c783          	lbu	a5,0(a5)
ffffffc0504002c2:	fff9                	bnez	a5,ffffffc0504002a0 <port_write+0xe>
ffffffc0504002c4:	0001                	nop
ffffffc0504002c6:	0001                	nop
ffffffc0504002c8:	60e2                	ld	ra,24(sp)
ffffffc0504002ca:	6442                	ld	s0,16(sp)
ffffffc0504002cc:	6105                	addi	sp,sp,32
ffffffc0504002ce:	8082                	ret

ffffffc0504002d0 <get_current_cpu_id>:
ffffffc0504002d0:	f1402573          	csrr	a0,mhartid
ffffffc0504002d4:	8082                	ret

ffffffc0504002d6 <init_list_head>:
ffffffc0504002d6:	1101                	addi	sp,sp,-32
ffffffc0504002d8:	ec22                	sd	s0,24(sp)
ffffffc0504002da:	1000                	addi	s0,sp,32
ffffffc0504002dc:	fea43423          	sd	a0,-24(s0)
ffffffc0504002e0:	fe843783          	ld	a5,-24(s0)
ffffffc0504002e4:	fe843703          	ld	a4,-24(s0)
ffffffc0504002e8:	e398                	sd	a4,0(a5)
ffffffc0504002ea:	fe843783          	ld	a5,-24(s0)
ffffffc0504002ee:	fe843703          	ld	a4,-24(s0)
ffffffc0504002f2:	e798                	sd	a4,8(a5)
ffffffc0504002f4:	0001                	nop
ffffffc0504002f6:	6462                	ld	s0,24(sp)
ffffffc0504002f8:	6105                	addi	sp,sp,32
ffffffc0504002fa:	8082                	ret

ffffffc0504002fc <_list_add>:
ffffffc0504002fc:	7179                	addi	sp,sp,-48
ffffffc0504002fe:	f422                	sd	s0,40(sp)
ffffffc050400300:	1800                	addi	s0,sp,48
ffffffc050400302:	fea43423          	sd	a0,-24(s0)
ffffffc050400306:	feb43023          	sd	a1,-32(s0)
ffffffc05040030a:	fcc43c23          	sd	a2,-40(s0)
ffffffc05040030e:	fd843783          	ld	a5,-40(s0)
ffffffc050400312:	fe843703          	ld	a4,-24(s0)
ffffffc050400316:	e798                	sd	a4,8(a5)
ffffffc050400318:	fe843783          	ld	a5,-24(s0)
ffffffc05040031c:	fd843703          	ld	a4,-40(s0)
ffffffc050400320:	e398                	sd	a4,0(a5)
ffffffc050400322:	fe843783          	ld	a5,-24(s0)
ffffffc050400326:	fe043703          	ld	a4,-32(s0)
ffffffc05040032a:	e798                	sd	a4,8(a5)
ffffffc05040032c:	fe043783          	ld	a5,-32(s0)
ffffffc050400330:	fe843703          	ld	a4,-24(s0)
ffffffc050400334:	e398                	sd	a4,0(a5)
ffffffc050400336:	0001                	nop
ffffffc050400338:	7422                	ld	s0,40(sp)
ffffffc05040033a:	6145                	addi	sp,sp,48
ffffffc05040033c:	8082                	ret

ffffffc05040033e <list_add_tail>:
ffffffc05040033e:	1101                	addi	sp,sp,-32
ffffffc050400340:	ec06                	sd	ra,24(sp)
ffffffc050400342:	e822                	sd	s0,16(sp)
ffffffc050400344:	1000                	addi	s0,sp,32
ffffffc050400346:	fea43423          	sd	a0,-24(s0)
ffffffc05040034a:	feb43023          	sd	a1,-32(s0)
ffffffc05040034e:	fe043783          	ld	a5,-32(s0)
ffffffc050400352:	679c                	ld	a5,8(a5)
ffffffc050400354:	fe043603          	ld	a2,-32(s0)
ffffffc050400358:	85be                	mv	a1,a5
ffffffc05040035a:	fe843503          	ld	a0,-24(s0)
ffffffc05040035e:	f9fff0ef          	jal	ra,ffffffc0504002fc <_list_add>
ffffffc050400362:	0001                	nop
ffffffc050400364:	60e2                	ld	ra,24(sp)
ffffffc050400366:	6442                	ld	s0,16(sp)
ffffffc050400368:	6105                	addi	sp,sp,32
ffffffc05040036a:	8082                	ret

ffffffc05040036c <sbi_set_timer>:
ffffffc05040036c:	1101                	addi	sp,sp,-32
ffffffc05040036e:	ec22                	sd	s0,24(sp)
ffffffc050400370:	1000                	addi	s0,sp,32
ffffffc050400372:	fea43423          	sd	a0,-24(s0)
ffffffc050400376:	fe843503          	ld	a0,-24(s0)
ffffffc05040037a:	4581                	li	a1,0
ffffffc05040037c:	4601                	li	a2,0
ffffffc05040037e:	4881                	li	a7,0
ffffffc050400380:	00000073          	ecall
ffffffc050400384:	0001                	nop
ffffffc050400386:	6462                	ld	s0,24(sp)
ffffffc050400388:	6105                	addi	sp,sp,32
ffffffc05040038a:	8082                	ret

ffffffc05040038c <sbi_send_ipi>:
ffffffc05040038c:	1101                	addi	sp,sp,-32
ffffffc05040038e:	ec22                	sd	s0,24(sp)
ffffffc050400390:	1000                	addi	s0,sp,32
ffffffc050400392:	fea43423          	sd	a0,-24(s0)
ffffffc050400396:	fe843783          	ld	a5,-24(s0)
ffffffc05040039a:	853e                	mv	a0,a5
ffffffc05040039c:	4581                	li	a1,0
ffffffc05040039e:	4601                	li	a2,0
ffffffc0504003a0:	4891                	li	a7,4
ffffffc0504003a2:	00000073          	ecall
ffffffc0504003a6:	0001                	nop
ffffffc0504003a8:	6462                	ld	s0,24(sp)
ffffffc0504003aa:	6105                	addi	sp,sp,32
ffffffc0504003ac:	8082                	ret

ffffffc0504003ae <sbi_read_fdt>:
ffffffc0504003ae:	1101                	addi	sp,sp,-32
ffffffc0504003b0:	ec22                	sd	s0,24(sp)
ffffffc0504003b2:	1000                	addi	s0,sp,32
ffffffc0504003b4:	87aa                	mv	a5,a0
ffffffc0504003b6:	fef42623          	sw	a5,-20(s0)
ffffffc0504003ba:	fec42783          	lw	a5,-20(s0)
ffffffc0504003be:	853e                	mv	a0,a5
ffffffc0504003c0:	4581                	li	a1,0
ffffffc0504003c2:	4601                	li	a2,0
ffffffc0504003c4:	48b1                	li	a7,12
ffffffc0504003c6:	00000073          	ecall
ffffffc0504003ca:	87aa                	mv	a5,a0
ffffffc0504003cc:	2781                	sext.w	a5,a5
ffffffc0504003ce:	853e                	mv	a0,a5
ffffffc0504003d0:	6462                	ld	s0,24(sp)
ffffffc0504003d2:	6105                	addi	sp,sp,32
ffffffc0504003d4:	8082                	ret

ffffffc0504003d6 <local_flush_tlb_all>:
ffffffc0504003d6:	1141                	addi	sp,sp,-16
ffffffc0504003d8:	e422                	sd	s0,8(sp)
ffffffc0504003da:	0800                	addi	s0,sp,16
ffffffc0504003dc:	12000073          	sfence.vma
ffffffc0504003e0:	0001                	nop
ffffffc0504003e2:	6422                	ld	s0,8(sp)
ffffffc0504003e4:	0141                	addi	sp,sp,16
ffffffc0504003e6:	8082                	ret

ffffffc0504003e8 <kva2pa>:
ffffffc0504003e8:	1101                	addi	sp,sp,-32
ffffffc0504003ea:	ec22                	sd	s0,24(sp)
ffffffc0504003ec:	1000                	addi	s0,sp,32
ffffffc0504003ee:	fea43423          	sd	a0,-24(s0)
ffffffc0504003f2:	fe843703          	ld	a4,-24(s0)
ffffffc0504003f6:	4785                	li	a5,1
ffffffc0504003f8:	179a                	slli	a5,a5,0x26
ffffffc0504003fa:	97ba                	add	a5,a5,a4
ffffffc0504003fc:	853e                	mv	a0,a5
ffffffc0504003fe:	6462                	ld	s0,24(sp)
ffffffc050400400:	6105                	addi	sp,sp,32
ffffffc050400402:	8082                	ret

ffffffc050400404 <pa2kva>:
ffffffc050400404:	1101                	addi	sp,sp,-32
ffffffc050400406:	ec22                	sd	s0,24(sp)
ffffffc050400408:	1000                	addi	s0,sp,32
ffffffc05040040a:	fea43423          	sd	a0,-24(s0)
ffffffc05040040e:	fe843703          	ld	a4,-24(s0)
ffffffc050400412:	57fd                	li	a5,-1
ffffffc050400414:	179a                	slli	a5,a5,0x26
ffffffc050400416:	97ba                	add	a5,a5,a4
ffffffc050400418:	853e                	mv	a0,a5
ffffffc05040041a:	6462                	ld	s0,24(sp)
ffffffc05040041c:	6105                	addi	sp,sp,32
ffffffc05040041e:	8082                	ret

ffffffc050400420 <get_pa>:
ffffffc050400420:	7179                	addi	sp,sp,-48
ffffffc050400422:	f422                	sd	s0,40(sp)
ffffffc050400424:	1800                	addi	s0,sp,48
ffffffc050400426:	fca43c23          	sd	a0,-40(s0)
ffffffc05040042a:	57fd                	li	a5,-1
ffffffc05040042c:	fef43423          	sd	a5,-24(s0)
ffffffc050400430:	fd843703          	ld	a4,-40(s0)
ffffffc050400434:	fe843783          	ld	a5,-24(s0)
ffffffc050400438:	8ff9                	and	a5,a5,a4
ffffffc05040043a:	83a9                	srli	a5,a5,0xa
ffffffc05040043c:	07b2                	slli	a5,a5,0xc
ffffffc05040043e:	853e                	mv	a0,a5
ffffffc050400440:	7422                	ld	s0,40(sp)
ffffffc050400442:	6145                	addi	sp,sp,48
ffffffc050400444:	8082                	ret

ffffffc050400446 <load_elf>:
ffffffc050400446:	7159                	addi	sp,sp,-112
ffffffc050400448:	f486                	sd	ra,104(sp)
ffffffc05040044a:	f0a2                	sd	s0,96(sp)
ffffffc05040044c:	1880                	addi	s0,sp,112
ffffffc05040044e:	faa43423          	sd	a0,-88(s0)
ffffffc050400452:	87ae                	mv	a5,a1
ffffffc050400454:	f8c43c23          	sd	a2,-104(s0)
ffffffc050400458:	f8d43823          	sd	a3,-112(s0)
ffffffc05040045c:	faf42223          	sw	a5,-92(s0)
ffffffc050400460:	fa843783          	ld	a5,-88(s0)
ffffffc050400464:	fcf43823          	sd	a5,-48(s0)
ffffffc050400468:	fc043423          	sd	zero,-56(s0)
ffffffc05040046c:	fe043423          	sd	zero,-24(s0)
ffffffc050400470:	fe042023          	sw	zero,-32(s0)
ffffffc050400474:	fd043783          	ld	a5,-48(s0)
ffffffc050400478:	739c                	ld	a5,32(a5)
ffffffc05040047a:	fa843703          	ld	a4,-88(s0)
ffffffc05040047e:	97ba                	add	a5,a5,a4
ffffffc050400480:	fef43423          	sd	a5,-24(s0)
ffffffc050400484:	fd043783          	ld	a5,-48(s0)
ffffffc050400488:	0387d783          	lhu	a5,56(a5)
ffffffc05040048c:	fef41323          	sh	a5,-26(s0)
ffffffc050400490:	fd043783          	ld	a5,-48(s0)
ffffffc050400494:	0367d783          	lhu	a5,54(a5)
ffffffc050400498:	fcf41323          	sh	a5,-58(s0)
ffffffc05040049c:	a299                	j	ffffffc0504005e2 <load_elf+0x19c>
ffffffc05040049e:	fe843783          	ld	a5,-24(s0)
ffffffc0504004a2:	fcf43423          	sd	a5,-56(s0)
ffffffc0504004a6:	fc843783          	ld	a5,-56(s0)
ffffffc0504004aa:	439c                	lw	a5,0(a5)
ffffffc0504004ac:	873e                	mv	a4,a5
ffffffc0504004ae:	4785                	li	a5,1
ffffffc0504004b0:	12f71263          	bne	a4,a5,ffffffc0504005d4 <load_elf+0x18e>
ffffffc0504004b4:	fe042023          	sw	zero,-32(s0)
ffffffc0504004b8:	a239                	j	ffffffc0504005c6 <load_elf+0x180>
ffffffc0504004ba:	fe042703          	lw	a4,-32(s0)
ffffffc0504004be:	fc843783          	ld	a5,-56(s0)
ffffffc0504004c2:	739c                	ld	a5,32(a5)
ffffffc0504004c4:	0af77463          	bgeu	a4,a5,ffffffc05040056c <load_elf+0x126>
ffffffc0504004c8:	fc843783          	ld	a5,-56(s0)
ffffffc0504004cc:	6b98                	ld	a4,16(a5)
ffffffc0504004ce:	fe042783          	lw	a5,-32(s0)
ffffffc0504004d2:	97ba                	add	a5,a5,a4
ffffffc0504004d4:	f9043703          	ld	a4,-112(s0)
ffffffc0504004d8:	f9843583          	ld	a1,-104(s0)
ffffffc0504004dc:	853e                	mv	a0,a5
ffffffc0504004de:	9702                	jalr	a4
ffffffc0504004e0:	87aa                	mv	a5,a0
ffffffc0504004e2:	faf43823          	sd	a5,-80(s0)
ffffffc0504004e6:	fc843783          	ld	a5,-56(s0)
ffffffc0504004ea:	6798                	ld	a4,8(a5)
ffffffc0504004ec:	fe042783          	lw	a5,-32(s0)
ffffffc0504004f0:	97ba                	add	a5,a5,a4
ffffffc0504004f2:	fa843703          	ld	a4,-88(s0)
ffffffc0504004f6:	00f706b3          	add	a3,a4,a5
ffffffc0504004fa:	fc843783          	ld	a5,-56(s0)
ffffffc0504004fe:	7398                	ld	a4,32(a5)
ffffffc050400500:	fe042783          	lw	a5,-32(s0)
ffffffc050400504:	40f707b3          	sub	a5,a4,a5
ffffffc050400508:	6705                	lui	a4,0x1
ffffffc05040050a:	00f77363          	bgeu	a4,a5,ffffffc050400510 <load_elf+0xca>
ffffffc05040050e:	6785                	lui	a5,0x1
ffffffc050400510:	2781                	sext.w	a5,a5
ffffffc050400512:	863e                	mv	a2,a5
ffffffc050400514:	85b6                	mv	a1,a3
ffffffc050400516:	fb043503          	ld	a0,-80(s0)
ffffffc05040051a:	0930b0ef          	jal	ra,ffffffc05040bdac <kmemcpy>
ffffffc05040051e:	fc843783          	ld	a5,-56(s0)
ffffffc050400522:	7398                	ld	a4,32(a5)
ffffffc050400524:	fe042783          	lw	a5,-32(s0)
ffffffc050400528:	8f1d                	sub	a4,a4,a5
ffffffc05040052a:	6785                	lui	a5,0x1
ffffffc05040052c:	08f77663          	bgeu	a4,a5,ffffffc0504005b8 <load_elf+0x172>
ffffffc050400530:	fc843783          	ld	a5,-56(s0)
ffffffc050400534:	739c                	ld	a5,32(a5)
ffffffc050400536:	0007871b          	sext.w	a4,a5
ffffffc05040053a:	6785                	lui	a5,0x1
ffffffc05040053c:	17fd                	addi	a5,a5,-1
ffffffc05040053e:	8ff9                	and	a5,a5,a4
ffffffc050400540:	fcf42e23          	sw	a5,-36(s0)
ffffffc050400544:	a829                	j	ffffffc05040055e <load_elf+0x118>
ffffffc050400546:	fdc42783          	lw	a5,-36(s0)
ffffffc05040054a:	fb043703          	ld	a4,-80(s0)
ffffffc05040054e:	97ba                	add	a5,a5,a4
ffffffc050400550:	00078023          	sb	zero,0(a5) # 1000 <_start-0xffffffc0503ff000>
ffffffc050400554:	fdc42783          	lw	a5,-36(s0)
ffffffc050400558:	2785                	addiw	a5,a5,1
ffffffc05040055a:	fcf42e23          	sw	a5,-36(s0)
ffffffc05040055e:	fdc42783          	lw	a5,-36(s0)
ffffffc050400562:	873e                	mv	a4,a5
ffffffc050400564:	6785                	lui	a5,0x1
ffffffc050400566:	fef760e3          	bltu	a4,a5,ffffffc050400546 <load_elf+0x100>
ffffffc05040056a:	a0b9                	j	ffffffc0504005b8 <load_elf+0x172>
ffffffc05040056c:	fc843783          	ld	a5,-56(s0)
ffffffc050400570:	6b98                	ld	a4,16(a5)
ffffffc050400572:	fe042783          	lw	a5,-32(s0)
ffffffc050400576:	97ba                	add	a5,a5,a4
ffffffc050400578:	f9043703          	ld	a4,-112(s0)
ffffffc05040057c:	f9843583          	ld	a1,-104(s0)
ffffffc050400580:	853e                	mv	a0,a5
ffffffc050400582:	9702                	jalr	a4
ffffffc050400584:	87aa                	mv	a5,a0
ffffffc050400586:	faf43c23          	sd	a5,-72(s0)
ffffffc05040058a:	fc042c23          	sw	zero,-40(s0)
ffffffc05040058e:	a831                	j	ffffffc0504005aa <load_elf+0x164>
ffffffc050400590:	fd842783          	lw	a5,-40(s0)
ffffffc050400594:	078e                	slli	a5,a5,0x3
ffffffc050400596:	fb843703          	ld	a4,-72(s0)
ffffffc05040059a:	97ba                	add	a5,a5,a4
ffffffc05040059c:	0007b023          	sd	zero,0(a5) # 1000 <_start-0xffffffc0503ff000>
ffffffc0504005a0:	fd842783          	lw	a5,-40(s0)
ffffffc0504005a4:	2785                	addiw	a5,a5,1
ffffffc0504005a6:	fcf42c23          	sw	a5,-40(s0)
ffffffc0504005aa:	fd842783          	lw	a5,-40(s0)
ffffffc0504005ae:	873e                	mv	a4,a5
ffffffc0504005b0:	1ff00793          	li	a5,511
ffffffc0504005b4:	fce7fee3          	bgeu	a5,a4,ffffffc050400590 <load_elf+0x14a>
ffffffc0504005b8:	fe042703          	lw	a4,-32(s0)
ffffffc0504005bc:	6785                	lui	a5,0x1
ffffffc0504005be:	9fb9                	addw	a5,a5,a4
ffffffc0504005c0:	2781                	sext.w	a5,a5
ffffffc0504005c2:	fef42023          	sw	a5,-32(s0)
ffffffc0504005c6:	fe042703          	lw	a4,-32(s0)
ffffffc0504005ca:	fc843783          	ld	a5,-56(s0)
ffffffc0504005ce:	779c                	ld	a5,40(a5)
ffffffc0504005d0:	eef765e3          	bltu	a4,a5,ffffffc0504004ba <load_elf+0x74>
ffffffc0504005d4:	fc645783          	lhu	a5,-58(s0)
ffffffc0504005d8:	fe843703          	ld	a4,-24(s0)
ffffffc0504005dc:	97ba                	add	a5,a5,a4
ffffffc0504005de:	fef43423          	sd	a5,-24(s0)
ffffffc0504005e2:	fe645783          	lhu	a5,-26(s0)
ffffffc0504005e6:	fff7871b          	addiw	a4,a5,-1
ffffffc0504005ea:	fee41323          	sh	a4,-26(s0)
ffffffc0504005ee:	ea0798e3          	bnez	a5,ffffffc05040049e <load_elf+0x58>
ffffffc0504005f2:	fd043783          	ld	a5,-48(s0)
ffffffc0504005f6:	6f9c                	ld	a5,24(a5)
ffffffc0504005f8:	853e                	mv	a0,a5
ffffffc0504005fa:	70a6                	ld	ra,104(sp)
ffffffc0504005fc:	7406                	ld	s0,96(sp)
ffffffc0504005fe:	6165                	addi	sp,sp,112
ffffffc050400600:	8082                	ret

ffffffc050400602 <_panic>:
ffffffc050400602:	7179                	addi	sp,sp,-48
ffffffc050400604:	f406                	sd	ra,40(sp)
ffffffc050400606:	f022                	sd	s0,32(sp)
ffffffc050400608:	1800                	addi	s0,sp,48
ffffffc05040060a:	fea43423          	sd	a0,-24(s0)
ffffffc05040060e:	87ae                	mv	a5,a1
ffffffc050400610:	fcc43c23          	sd	a2,-40(s0)
ffffffc050400614:	fef42223          	sw	a5,-28(s0)
ffffffc050400618:	fe442783          	lw	a5,-28(s0)
ffffffc05040061c:	86be                	mv	a3,a5
ffffffc05040061e:	fe843603          	ld	a2,-24(s0)
ffffffc050400622:	fd843583          	ld	a1,-40(s0)
ffffffc050400626:	0000c517          	auipc	a0,0xc
ffffffc05040062a:	3ea50513          	addi	a0,a0,1002 # ffffffc05040ca10 <get_elf_file+0xa8>
ffffffc05040062e:	2560c0ef          	jal	ra,ffffffc05040c884 <printk>
ffffffc050400632:	a001                	j	ffffffc050400632 <_panic+0x30>

ffffffc050400634 <init_pcb_stack>:
ffffffc050400634:	711d                	addi	sp,sp,-96
ffffffc050400636:	eca2                	sd	s0,88(sp)
ffffffc050400638:	1080                	addi	s0,sp,96
ffffffc05040063a:	fca43423          	sd	a0,-56(s0)
ffffffc05040063e:	fcb43023          	sd	a1,-64(s0)
ffffffc050400642:	fac43c23          	sd	a2,-72(s0)
ffffffc050400646:	fad43823          	sd	a3,-80(s0)
ffffffc05040064a:	faf43023          	sd	a5,-96(s0)
ffffffc05040064e:	87ba                	mv	a5,a4
ffffffc050400650:	faf42623          	sw	a5,-84(s0)
ffffffc050400654:	fc843783          	ld	a5,-56(s0)
ffffffc050400658:	ee078793          	addi	a5,a5,-288 # ee0 <_start-0xffffffc0503ff120>
ffffffc05040065c:	fef43023          	sd	a5,-32(s0)
ffffffc050400660:	fe043423          	sd	zero,-24(s0)
ffffffc050400664:	a831                	j	ffffffc050400680 <init_pcb_stack+0x4c>
ffffffc050400666:	fe043703          	ld	a4,-32(s0)
ffffffc05040066a:	fe843783          	ld	a5,-24(s0)
ffffffc05040066e:	078e                	slli	a5,a5,0x3
ffffffc050400670:	97ba                	add	a5,a5,a4
ffffffc050400672:	0007b023          	sd	zero,0(a5)
ffffffc050400676:	fe843783          	ld	a5,-24(s0)
ffffffc05040067a:	0785                	addi	a5,a5,1
ffffffc05040067c:	fef43423          	sd	a5,-24(s0)
ffffffc050400680:	fe843703          	ld	a4,-24(s0)
ffffffc050400684:	47fd                	li	a5,31
ffffffc050400686:	fee7f0e3          	bgeu	a5,a4,ffffffc050400666 <init_pcb_stack+0x32>
ffffffc05040068a:	fb043783          	ld	a5,-80(s0)
ffffffc05040068e:	57dc                	lw	a5,44(a5)
ffffffc050400690:	873e                	mv	a4,a5
ffffffc050400692:	4789                	li	a5,2
ffffffc050400694:	00f70963          	beq	a4,a5,ffffffc0504006a6 <init_pcb_stack+0x72>
ffffffc050400698:	fb043783          	ld	a5,-80(s0)
ffffffc05040069c:	57dc                	lw	a5,44(a5)
ffffffc05040069e:	873e                	mv	a4,a5
ffffffc0504006a0:	478d                	li	a5,3
ffffffc0504006a2:	04f71863          	bne	a4,a5,ffffffc0504006f2 <init_pcb_stack+0xbe>
ffffffc0504006a6:	fe043783          	ld	a5,-32(s0)
ffffffc0504006aa:	3c000737          	lui	a4,0x3c000
ffffffc0504006ae:	3fd70713          	addi	a4,a4,1021 # 3c0003fd <_start-0xffffffc0143ffc03>
ffffffc0504006b2:	071a                	slli	a4,a4,0x6
ffffffc0504006b4:	eb98                	sd	a4,16(a5)
ffffffc0504006b6:	00018713          	mv	a4,gp
ffffffc0504006ba:	fe043783          	ld	a5,-32(s0)
ffffffc0504006be:	ef98                	sd	a4,24(a5)
ffffffc0504006c0:	fb043703          	ld	a4,-80(s0)
ffffffc0504006c4:	fe043783          	ld	a5,-32(s0)
ffffffc0504006c8:	f398                	sd	a4,32(a5)
ffffffc0504006ca:	fe043783          	ld	a5,-32(s0)
ffffffc0504006ce:	fb843703          	ld	a4,-72(s0)
ffffffc0504006d2:	10e7b423          	sd	a4,264(a5)
ffffffc0504006d6:	fe043783          	ld	a5,-32(s0)
ffffffc0504006da:	00040737          	lui	a4,0x40
ffffffc0504006de:	10e7b023          	sd	a4,256(a5)
ffffffc0504006e2:	fe043783          	ld	a5,-32(s0)
ffffffc0504006e6:	1007bc23          	sd	zero,280(a5)
ffffffc0504006ea:	fe043783          	ld	a5,-32(s0)
ffffffc0504006ee:	1007b823          	sd	zero,272(a5)
ffffffc0504006f2:	fac42703          	lw	a4,-84(s0)
ffffffc0504006f6:	fe043783          	ld	a5,-32(s0)
ffffffc0504006fa:	ebb8                	sd	a4,80(a5)
ffffffc0504006fc:	fa043703          	ld	a4,-96(s0)
ffffffc050400700:	fe043783          	ld	a5,-32(s0)
ffffffc050400704:	efb8                	sd	a4,88(a5)
ffffffc050400706:	fc843783          	ld	a5,-56(s0)
ffffffc05040070a:	e7078713          	addi	a4,a5,-400
ffffffc05040070e:	fb043783          	ld	a5,-80(s0)
ffffffc050400712:	e398                	sd	a4,0(a5)
ffffffc050400714:	fb043783          	ld	a5,-80(s0)
ffffffc050400718:	639c                	ld	a5,0(a5)
ffffffc05040071a:	fcf43c23          	sd	a5,-40(s0)
ffffffc05040071e:	fb043783          	ld	a5,-80(s0)
ffffffc050400722:	fc043703          	ld	a4,-64(s0)
ffffffc050400726:	e798                	sd	a4,8(a5)
ffffffc050400728:	fb043783          	ld	a5,-80(s0)
ffffffc05040072c:	57dc                	lw	a5,44(a5)
ffffffc05040072e:	873e                	mv	a4,a5
ffffffc050400730:	4789                	li	a5,2
ffffffc050400732:	00f70963          	beq	a4,a5,ffffffc050400744 <init_pcb_stack+0x110>
ffffffc050400736:	fb043783          	ld	a5,-80(s0)
ffffffc05040073a:	57dc                	lw	a5,44(a5)
ffffffc05040073c:	873e                	mv	a4,a5
ffffffc05040073e:	478d                	li	a5,3
ffffffc050400740:	00f71a63          	bne	a4,a5,ffffffc050400754 <init_pcb_stack+0x120>
ffffffc050400744:	00000717          	auipc	a4,0x0
ffffffc050400748:	9fc70713          	addi	a4,a4,-1540 # ffffffc050400140 <ret_from_exception>
ffffffc05040074c:	fd843783          	ld	a5,-40(s0)
ffffffc050400750:	e398                	sd	a4,0(a5)
ffffffc050400752:	a031                	j	ffffffc05040075e <init_pcb_stack+0x12a>
ffffffc050400754:	fd843783          	ld	a5,-40(s0)
ffffffc050400758:	fb843703          	ld	a4,-72(s0)
ffffffc05040075c:	e398                	sd	a4,0(a5)
ffffffc05040075e:	fd843783          	ld	a5,-40(s0)
ffffffc050400762:	fc043703          	ld	a4,-64(s0)
ffffffc050400766:	e798                	sd	a4,8(a5)
ffffffc050400768:	4789                	li	a5,2
ffffffc05040076a:	fef43423          	sd	a5,-24(s0)
ffffffc05040076e:	a831                	j	ffffffc05040078a <init_pcb_stack+0x156>
ffffffc050400770:	fd843703          	ld	a4,-40(s0)
ffffffc050400774:	fe843783          	ld	a5,-24(s0)
ffffffc050400778:	078e                	slli	a5,a5,0x3
ffffffc05040077a:	97ba                	add	a5,a5,a4
ffffffc05040077c:	0007b023          	sd	zero,0(a5)
ffffffc050400780:	fe843783          	ld	a5,-24(s0)
ffffffc050400784:	0785                	addi	a5,a5,1
ffffffc050400786:	fef43423          	sd	a5,-24(s0)
ffffffc05040078a:	fe843703          	ld	a4,-24(s0)
ffffffc05040078e:	47b5                	li	a5,13
ffffffc050400790:	fee7f0e3          	bgeu	a5,a4,ffffffc050400770 <init_pcb_stack+0x13c>
ffffffc050400794:	0001                	nop
ffffffc050400796:	0001                	nop
ffffffc050400798:	6466                	ld	s0,88(sp)
ffffffc05040079a:	6125                	addi	sp,sp,96
ffffffc05040079c:	8082                	ret

ffffffc05040079e <alloc_page_helper_user>:
ffffffc05040079e:	1101                	addi	sp,sp,-32
ffffffc0504007a0:	ec06                	sd	ra,24(sp)
ffffffc0504007a2:	e822                	sd	s0,16(sp)
ffffffc0504007a4:	1000                	addi	s0,sp,32
ffffffc0504007a6:	fea43423          	sd	a0,-24(s0)
ffffffc0504007aa:	feb43023          	sd	a1,-32(s0)
ffffffc0504007ae:	4605                	li	a2,1
ffffffc0504007b0:	fe043583          	ld	a1,-32(s0)
ffffffc0504007b4:	fe843503          	ld	a0,-24(s0)
ffffffc0504007b8:	74d0a0ef          	jal	ra,ffffffc05040b704 <alloc_page_helper>
ffffffc0504007bc:	87aa                	mv	a5,a0
ffffffc0504007be:	853e                	mv	a0,a5
ffffffc0504007c0:	60e2                	ld	ra,24(sp)
ffffffc0504007c2:	6442                	ld	s0,16(sp)
ffffffc0504007c4:	6105                	addi	sp,sp,32
ffffffc0504007c6:	8082                	ret

ffffffc0504007c8 <init_shell>:
ffffffc0504007c8:	7139                	addi	sp,sp,-64
ffffffc0504007ca:	fc06                	sd	ra,56(sp)
ffffffc0504007cc:	f822                	sd	s0,48(sp)
ffffffc0504007ce:	f426                	sd	s1,40(sp)
ffffffc0504007d0:	0080                	addi	s0,sp,64
ffffffc0504007d2:	affff0ef          	jal	ra,ffffffc0504002d0 <get_current_cpu_id>
ffffffc0504007d6:	87aa                	mv	a5,a0
ffffffc0504007d8:	e791                	bnez	a5,ffffffc0504007e4 <init_shell+0x1c>
ffffffc0504007da:	00202797          	auipc	a5,0x202
ffffffc0504007de:	80678793          	addi	a5,a5,-2042 # ffffffc050601fe0 <current_running_core0>
ffffffc0504007e2:	a029                	j	ffffffc0504007ec <init_shell+0x24>
ffffffc0504007e4:	00201797          	auipc	a5,0x201
ffffffc0504007e8:	7f478793          	addi	a5,a5,2036 # ffffffc050601fd8 <current_running_core1>
ffffffc0504007ec:	00801717          	auipc	a4,0x801
ffffffc0504007f0:	ea470713          	addi	a4,a4,-348 # ffffffc050c01690 <current_running>
ffffffc0504007f4:	e31c                	sd	a5,0(a4)
ffffffc0504007f6:	0000d517          	auipc	a0,0xd
ffffffc0504007fa:	3e250513          	addi	a0,a0,994 # ffffffc05040dbd8 <ready_queue>
ffffffc0504007fe:	ad9ff0ef          	jal	ra,ffffffc0504002d6 <init_list_head>
ffffffc050400802:	0000d517          	auipc	a0,0xd
ffffffc050400806:	3f650513          	addi	a0,a0,1014 # ffffffc05040dbf8 <sleep_queue>
ffffffc05040080a:	acdff0ef          	jal	ra,ffffffc0504002d6 <init_list_head>
ffffffc05040080e:	00801797          	auipc	a5,0x801
ffffffc050400812:	e8a78793          	addi	a5,a5,-374 # ffffffc050c01698 <pcb>
ffffffc050400816:	4705                	li	a4,1
ffffffc050400818:	d798                	sw	a4,40(a5)
ffffffc05040081a:	00801797          	auipc	a5,0x801
ffffffc05040081e:	e7e78793          	addi	a5,a5,-386 # ffffffc050c01698 <pcb>
ffffffc050400822:	4709                	li	a4,2
ffffffc050400824:	db98                	sw	a4,48(a5)
ffffffc050400826:	00801797          	auipc	a5,0x801
ffffffc05040082a:	e7278793          	addi	a5,a5,-398 # ffffffc050c01698 <pcb>
ffffffc05040082e:	4709                	li	a4,2
ffffffc050400830:	d7d8                	sw	a4,44(a5)
ffffffc050400832:	fc043c23          	sd	zero,-40(s0)
ffffffc050400836:	0530a0ef          	jal	ra,ffffffc05040b088 <allocPage>
ffffffc05040083a:	87aa                	mv	a5,a0
ffffffc05040083c:	873e                	mv	a4,a5
ffffffc05040083e:	00801797          	auipc	a5,0x801
ffffffc050400842:	e5a78793          	addi	a5,a5,-422 # ffffffc050c01698 <pcb>
ffffffc050400846:	ffd8                	sd	a4,184(a5)
ffffffc050400848:	00801797          	auipc	a5,0x801
ffffffc05040084c:	e5078793          	addi	a5,a5,-432 # ffffffc050c01698 <pcb>
ffffffc050400850:	7fc4                	ld	s1,184(a5)
ffffffc050400852:	5e000537          	lui	a0,0x5e000
ffffffc050400856:	bafff0ef          	jal	ra,ffffffc050400404 <pa2kva>
ffffffc05040085a:	87aa                	mv	a5,a0
ffffffc05040085c:	6605                	lui	a2,0x1
ffffffc05040085e:	85be                	mv	a1,a5
ffffffc050400860:	8526                	mv	a0,s1
ffffffc050400862:	54a0b0ef          	jal	ra,ffffffc05040bdac <kmemcpy>
ffffffc050400866:	00801797          	auipc	a5,0x801
ffffffc05040086a:	e3278793          	addi	a5,a5,-462 # ffffffc050c01698 <pcb>
ffffffc05040086e:	7fdc                	ld	a5,184(a5)
ffffffc050400870:	4601                	li	a2,0
ffffffc050400872:	85be                	mv	a1,a5
ffffffc050400874:	fc0007b7          	lui	a5,0xfc000
ffffffc050400878:	17fd                	addi	a5,a5,-1
ffffffc05040087a:	00c79513          	slli	a0,a5,0xc
ffffffc05040087e:	6870a0ef          	jal	ra,ffffffc05040b704 <alloc_page_helper>
ffffffc050400882:	872a                	mv	a4,a0
ffffffc050400884:	6785                	lui	a5,0x1
ffffffc050400886:	f8078793          	addi	a5,a5,-128 # f80 <_start-0xffffffc0503ff080>
ffffffc05040088a:	97ba                	add	a5,a5,a4
ffffffc05040088c:	fcf43823          	sd	a5,-48(s0)
ffffffc050400890:	00801797          	auipc	a5,0x801
ffffffc050400894:	e0878793          	addi	a5,a5,-504 # ffffffc050c01698 <pcb>
ffffffc050400898:	7fdc                	ld	a5,184(a5)
ffffffc05040089a:	4605                	li	a2,1
ffffffc05040089c:	85be                	mv	a1,a5
ffffffc05040089e:	00f007b7          	lui	a5,0xf00
ffffffc0504008a2:	07bd                	addi	a5,a5,15
ffffffc0504008a4:	00c79513          	slli	a0,a5,0xc
ffffffc0504008a8:	65d0a0ef          	jal	ra,ffffffc05040b704 <alloc_page_helper>
ffffffc0504008ac:	872a                	mv	a4,a0
ffffffc0504008ae:	6785                	lui	a5,0x1
ffffffc0504008b0:	f8078793          	addi	a5,a5,-128 # f80 <_start-0xffffffc0503ff080>
ffffffc0504008b4:	97ba                	add	a5,a5,a4
ffffffc0504008b6:	fcf43423          	sd	a5,-56(s0)
ffffffc0504008ba:	00801797          	auipc	a5,0x801
ffffffc0504008be:	dde78793          	addi	a5,a5,-546 # ffffffc050c01698 <pcb>
ffffffc0504008c2:	470d                	li	a4,3
ffffffc0504008c4:	0ae78823          	sb	a4,176(a5)
ffffffc0504008c8:	00071797          	auipc	a5,0x71
ffffffc0504008cc:	e3078793          	addi	a5,a5,-464 # ffffffc0504716f8 <_length___test_test_shell_elf>
ffffffc0504008d0:	439c                	lw	a5,0(a5)
ffffffc0504008d2:	0007871b          	sext.w	a4,a5
ffffffc0504008d6:	00801797          	auipc	a5,0x801
ffffffc0504008da:	dc278793          	addi	a5,a5,-574 # ffffffc050c01698 <pcb>
ffffffc0504008de:	7fdc                	ld	a5,184(a5)
ffffffc0504008e0:	00000697          	auipc	a3,0x0
ffffffc0504008e4:	ebe68693          	addi	a3,a3,-322 # ffffffc05040079e <alloc_page_helper_user>
ffffffc0504008e8:	863e                	mv	a2,a5
ffffffc0504008ea:	85ba                	mv	a1,a4
ffffffc0504008ec:	0000d517          	auipc	a0,0xd
ffffffc0504008f0:	32c50513          	addi	a0,a0,812 # ffffffc05040dc18 <_elf___test_test_shell_elf>
ffffffc0504008f4:	b53ff0ef          	jal	ra,ffffffc050400446 <load_elf>
ffffffc0504008f8:	fca43023          	sd	a0,-64(s0)
ffffffc0504008fc:	4781                	li	a5,0
ffffffc0504008fe:	4701                	li	a4,0
ffffffc050400900:	00801697          	auipc	a3,0x801
ffffffc050400904:	d9868693          	addi	a3,a3,-616 # ffffffc050c01698 <pcb>
ffffffc050400908:	fc043603          	ld	a2,-64(s0)
ffffffc05040090c:	fc843583          	ld	a1,-56(s0)
ffffffc050400910:	fd043503          	ld	a0,-48(s0)
ffffffc050400914:	d21ff0ef          	jal	ra,ffffffc050400634 <init_pcb_stack>
ffffffc050400918:	00801797          	auipc	a5,0x801
ffffffc05040091c:	d8078793          	addi	a5,a5,-640 # ffffffc050c01698 <pcb>
ffffffc050400920:	1e000737          	lui	a4,0x1e000
ffffffc050400924:	1ff70713          	addi	a4,a4,511 # 1e0001ff <_start-0xffffffc0323ffe01>
ffffffc050400928:	071e                	slli	a4,a4,0x7
ffffffc05040092a:	e798                	sd	a4,8(a5)
ffffffc05040092c:	00801797          	auipc	a5,0x801
ffffffc050400930:	d6c78793          	addi	a5,a5,-660 # ffffffc050c01698 <pcb>
ffffffc050400934:	7fdc                	ld	a5,184(a5)
ffffffc050400936:	853e                	mv	a0,a5
ffffffc050400938:	ab1ff0ef          	jal	ra,ffffffc0504003e8 <kva2pa>
ffffffc05040093c:	87aa                	mv	a5,a0
ffffffc05040093e:	873e                	mv	a4,a5
ffffffc050400940:	00801797          	auipc	a5,0x801
ffffffc050400944:	d5878793          	addi	a5,a5,-680 # ffffffc050c01698 <pcb>
ffffffc050400948:	ffd8                	sd	a4,184(a5)
ffffffc05040094a:	00801597          	auipc	a1,0x801
ffffffc05040094e:	d4e58593          	addi	a1,a1,-690 # ffffffc050c01698 <pcb>
ffffffc050400952:	0000d517          	auipc	a0,0xd
ffffffc050400956:	28650513          	addi	a0,a0,646 # ffffffc05040dbd8 <ready_queue>
ffffffc05040095a:	09a0a0ef          	jal	ra,ffffffc05040a9f4 <enqueue>
ffffffc05040095e:	0001                	nop
ffffffc050400960:	70e2                	ld	ra,56(sp)
ffffffc050400962:	7442                	ld	s0,48(sp)
ffffffc050400964:	74a2                	ld	s1,40(sp)
ffffffc050400966:	6121                	addi	sp,sp,64
ffffffc050400968:	8082                	ret

ffffffc05040096a <findpid>:
ffffffc05040096a:	1101                	addi	sp,sp,-32
ffffffc05040096c:	ec22                	sd	s0,24(sp)
ffffffc05040096e:	1000                	addi	s0,sp,32
ffffffc050400970:	4785                	li	a5,1
ffffffc050400972:	fef42623          	sw	a5,-20(s0)
ffffffc050400976:	a035                	j	ffffffc0504009a2 <findpid+0x38>
ffffffc050400978:	00801717          	auipc	a4,0x801
ffffffc05040097c:	d2070713          	addi	a4,a4,-736 # ffffffc050c01698 <pcb>
ffffffc050400980:	fec42683          	lw	a3,-20(s0)
ffffffc050400984:	0d800793          	li	a5,216
ffffffc050400988:	02f687b3          	mul	a5,a3,a5
ffffffc05040098c:	97ba                	add	a5,a5,a4
ffffffc05040098e:	579c                	lw	a5,40(a5)
ffffffc050400990:	e781                	bnez	a5,ffffffc050400998 <findpid+0x2e>
ffffffc050400992:	fec42783          	lw	a5,-20(s0)
ffffffc050400996:	a831                	j	ffffffc0504009b2 <findpid+0x48>
ffffffc050400998:	fec42783          	lw	a5,-20(s0)
ffffffc05040099c:	2785                	addiw	a5,a5,1
ffffffc05040099e:	fef42623          	sw	a5,-20(s0)
ffffffc0504009a2:	fec42783          	lw	a5,-20(s0)
ffffffc0504009a6:	0007871b          	sext.w	a4,a5
ffffffc0504009aa:	47bd                	li	a5,15
ffffffc0504009ac:	fce7d6e3          	bge	a5,a4,ffffffc050400978 <findpid+0xe>
ffffffc0504009b0:	57fd                	li	a5,-1
ffffffc0504009b2:	853e                	mv	a0,a5
ffffffc0504009b4:	6462                	ld	s0,24(sp)
ffffffc0504009b6:	6105                	addi	sp,sp,32
ffffffc0504009b8:	8082                	ret

ffffffc0504009ba <init_pcb>:
ffffffc0504009ba:	7139                	addi	sp,sp,-64
ffffffc0504009bc:	fc06                	sd	ra,56(sp)
ffffffc0504009be:	f822                	sd	s0,48(sp)
ffffffc0504009c0:	0080                	addi	s0,sp,64
ffffffc0504009c2:	fca43c23          	sd	a0,-40(s0)
ffffffc0504009c6:	fcb43823          	sd	a1,-48(s0)
ffffffc0504009ca:	87b2                	mv	a5,a2
ffffffc0504009cc:	8736                	mv	a4,a3
ffffffc0504009ce:	fcf42623          	sw	a5,-52(s0)
ffffffc0504009d2:	87ba                	mv	a5,a4
ffffffc0504009d4:	fcf405a3          	sb	a5,-53(s0)
ffffffc0504009d8:	8f9ff0ef          	jal	ra,ffffffc0504002d0 <get_current_cpu_id>
ffffffc0504009dc:	87aa                	mv	a5,a0
ffffffc0504009de:	e791                	bnez	a5,ffffffc0504009ea <init_pcb+0x30>
ffffffc0504009e0:	00201797          	auipc	a5,0x201
ffffffc0504009e4:	60078793          	addi	a5,a5,1536 # ffffffc050601fe0 <current_running_core0>
ffffffc0504009e8:	a029                	j	ffffffc0504009f2 <init_pcb+0x38>
ffffffc0504009ea:	00201797          	auipc	a5,0x201
ffffffc0504009ee:	5ee78793          	addi	a5,a5,1518 # ffffffc050601fd8 <current_running_core1>
ffffffc0504009f2:	00801717          	auipc	a4,0x801
ffffffc0504009f6:	c9e70713          	addi	a4,a4,-866 # ffffffc050c01690 <current_running>
ffffffc0504009fa:	e31c                	sd	a5,0(a4)
ffffffc0504009fc:	f6fff0ef          	jal	ra,ffffffc05040096a <findpid>
ffffffc050400a00:	87aa                	mv	a5,a0
ffffffc050400a02:	fef42623          	sw	a5,-20(s0)
ffffffc050400a06:	fec42783          	lw	a5,-20(s0)
ffffffc050400a0a:	2781                	sext.w	a5,a5
ffffffc050400a0c:	00f04963          	bgtz	a5,ffffffc050400a1e <init_pcb+0x64>
ffffffc050400a10:	0000c517          	auipc	a0,0xc
ffffffc050400a14:	02850513          	addi	a0,a0,40 # ffffffc05040ca38 <get_elf_file+0xd0>
ffffffc050400a18:	66d0b0ef          	jal	ra,ffffffc05040c884 <printk>
ffffffc050400a1c:	a001                	j	ffffffc050400a1c <init_pcb+0x62>
ffffffc050400a1e:	00801717          	auipc	a4,0x801
ffffffc050400a22:	c7a70713          	addi	a4,a4,-902 # ffffffc050c01698 <pcb>
ffffffc050400a26:	fec42683          	lw	a3,-20(s0)
ffffffc050400a2a:	0d800793          	li	a5,216
ffffffc050400a2e:	02f687b3          	mul	a5,a3,a5
ffffffc050400a32:	97ba                	add	a5,a5,a4
ffffffc050400a34:	4709                	li	a4,2
ffffffc050400a36:	db98                	sw	a4,48(a5)
ffffffc050400a38:	fec42783          	lw	a5,-20(s0)
ffffffc050400a3c:	2785                	addiw	a5,a5,1
ffffffc050400a3e:	0007871b          	sext.w	a4,a5
ffffffc050400a42:	00801697          	auipc	a3,0x801
ffffffc050400a46:	c5668693          	addi	a3,a3,-938 # ffffffc050c01698 <pcb>
ffffffc050400a4a:	fec42603          	lw	a2,-20(s0)
ffffffc050400a4e:	0d800793          	li	a5,216
ffffffc050400a52:	02f607b3          	mul	a5,a2,a5
ffffffc050400a56:	97b6                	add	a5,a5,a3
ffffffc050400a58:	d798                	sw	a4,40(a5)
ffffffc050400a5a:	00801717          	auipc	a4,0x801
ffffffc050400a5e:	c3e70713          	addi	a4,a4,-962 # ffffffc050c01698 <pcb>
ffffffc050400a62:	fec42683          	lw	a3,-20(s0)
ffffffc050400a66:	0d800793          	li	a5,216
ffffffc050400a6a:	02f687b3          	mul	a5,a3,a5
ffffffc050400a6e:	97ba                	add	a5,a5,a4
ffffffc050400a70:	fcc42703          	lw	a4,-52(s0)
ffffffc050400a74:	dbd8                	sw	a4,52(a5)
ffffffc050400a76:	fd843783          	ld	a5,-40(s0)
ffffffc050400a7a:	4798                	lw	a4,8(a5)
ffffffc050400a7c:	00801697          	auipc	a3,0x801
ffffffc050400a80:	c1c68693          	addi	a3,a3,-996 # ffffffc050c01698 <pcb>
ffffffc050400a84:	fec42603          	lw	a2,-20(s0)
ffffffc050400a88:	0d800793          	li	a5,216
ffffffc050400a8c:	02f607b3          	mul	a5,a2,a5
ffffffc050400a90:	97b6                	add	a5,a5,a3
ffffffc050400a92:	d7d8                	sw	a4,44(a5)
ffffffc050400a94:	00201717          	auipc	a4,0x201
ffffffc050400a98:	55470713          	addi	a4,a4,1364 # ffffffc050601fe8 <kernel_stack>
ffffffc050400a9c:	fec42783          	lw	a5,-20(s0)
ffffffc050400aa0:	078e                	slli	a5,a5,0x3
ffffffc050400aa2:	97ba                	add	a5,a5,a4
ffffffc050400aa4:	6398                	ld	a4,0(a5)
ffffffc050400aa6:	00801697          	auipc	a3,0x801
ffffffc050400aaa:	bf268693          	addi	a3,a3,-1038 # ffffffc050c01698 <pcb>
ffffffc050400aae:	fec42603          	lw	a2,-20(s0)
ffffffc050400ab2:	0d800793          	li	a5,216
ffffffc050400ab6:	02f607b3          	mul	a5,a2,a5
ffffffc050400aba:	97b6                	add	a5,a5,a3
ffffffc050400abc:	e398                	sd	a4,0(a5)
ffffffc050400abe:	00201717          	auipc	a4,0x201
ffffffc050400ac2:	49270713          	addi	a4,a4,1170 # ffffffc050601f50 <user_stack>
ffffffc050400ac6:	fec42783          	lw	a5,-20(s0)
ffffffc050400aca:	078e                	slli	a5,a5,0x3
ffffffc050400acc:	97ba                	add	a5,a5,a4
ffffffc050400ace:	6398                	ld	a4,0(a5)
ffffffc050400ad0:	00801697          	auipc	a3,0x801
ffffffc050400ad4:	bc868693          	addi	a3,a3,-1080 # ffffffc050c01698 <pcb>
ffffffc050400ad8:	fec42603          	lw	a2,-20(s0)
ffffffc050400adc:	0d800793          	li	a5,216
ffffffc050400ae0:	02f607b3          	mul	a5,a2,a5
ffffffc050400ae4:	97b6                	add	a5,a5,a3
ffffffc050400ae6:	e798                	sd	a4,8(a5)
ffffffc050400ae8:	fcb44783          	lbu	a5,-53(s0)
ffffffc050400aec:	0ff7f793          	andi	a5,a5,255
ffffffc050400af0:	eb99                	bnez	a5,ffffffc050400b06 <init_pcb+0x14c>
ffffffc050400af2:	00801797          	auipc	a5,0x801
ffffffc050400af6:	b9e78793          	addi	a5,a5,-1122 # ffffffc050c01690 <current_running>
ffffffc050400afa:	639c                	ld	a5,0(a5)
ffffffc050400afc:	639c                	ld	a5,0(a5)
ffffffc050400afe:	0b07c783          	lbu	a5,176(a5)
ffffffc050400b02:	fcf405a3          	sb	a5,-53(s0)
ffffffc050400b06:	00801717          	auipc	a4,0x801
ffffffc050400b0a:	b9270713          	addi	a4,a4,-1134 # ffffffc050c01698 <pcb>
ffffffc050400b0e:	fec42683          	lw	a3,-20(s0)
ffffffc050400b12:	0d800793          	li	a5,216
ffffffc050400b16:	02f687b3          	mul	a5,a3,a5
ffffffc050400b1a:	97ba                	add	a5,a5,a4
ffffffc050400b1c:	fcb44703          	lbu	a4,-53(s0)
ffffffc050400b20:	0ae78823          	sb	a4,176(a5)
ffffffc050400b24:	00801717          	auipc	a4,0x801
ffffffc050400b28:	b7470713          	addi	a4,a4,-1164 # ffffffc050c01698 <pcb>
ffffffc050400b2c:	fec42683          	lw	a3,-20(s0)
ffffffc050400b30:	0d800793          	li	a5,216
ffffffc050400b34:	02f687b3          	mul	a5,a3,a5
ffffffc050400b38:	97ba                	add	a5,a5,a4
ffffffc050400b3a:	6388                	ld	a0,0(a5)
ffffffc050400b3c:	00801717          	auipc	a4,0x801
ffffffc050400b40:	b5c70713          	addi	a4,a4,-1188 # ffffffc050c01698 <pcb>
ffffffc050400b44:	fec42683          	lw	a3,-20(s0)
ffffffc050400b48:	0d800793          	li	a5,216
ffffffc050400b4c:	02f687b3          	mul	a5,a3,a5
ffffffc050400b50:	97ba                	add	a5,a5,a4
ffffffc050400b52:	678c                	ld	a1,8(a5)
ffffffc050400b54:	fd843783          	ld	a5,-40(s0)
ffffffc050400b58:	6390                	ld	a2,0(a5)
ffffffc050400b5a:	fec42703          	lw	a4,-20(s0)
ffffffc050400b5e:	0d800793          	li	a5,216
ffffffc050400b62:	02f70733          	mul	a4,a4,a5
ffffffc050400b66:	00801797          	auipc	a5,0x801
ffffffc050400b6a:	b3278793          	addi	a5,a5,-1230 # ffffffc050c01698 <pcb>
ffffffc050400b6e:	00f706b3          	add	a3,a4,a5
ffffffc050400b72:	fd043783          	ld	a5,-48(s0)
ffffffc050400b76:	0007871b          	sext.w	a4,a5
ffffffc050400b7a:	4781                	li	a5,0
ffffffc050400b7c:	ab9ff0ef          	jal	ra,ffffffc050400634 <init_pcb_stack>
ffffffc050400b80:	fec42703          	lw	a4,-20(s0)
ffffffc050400b84:	0d800793          	li	a5,216
ffffffc050400b88:	02f70733          	mul	a4,a4,a5
ffffffc050400b8c:	00801797          	auipc	a5,0x801
ffffffc050400b90:	b0c78793          	addi	a5,a5,-1268 # ffffffc050c01698 <pcb>
ffffffc050400b94:	97ba                	add	a5,a5,a4
ffffffc050400b96:	85be                	mv	a1,a5
ffffffc050400b98:	0000d517          	auipc	a0,0xd
ffffffc050400b9c:	04050513          	addi	a0,a0,64 # ffffffc05040dbd8 <ready_queue>
ffffffc050400ba0:	655090ef          	jal	ra,ffffffc05040a9f4 <enqueue>
ffffffc050400ba4:	fec42783          	lw	a5,-20(s0)
ffffffc050400ba8:	2785                	addiw	a5,a5,1
ffffffc050400baa:	2781                	sext.w	a5,a5
ffffffc050400bac:	853e                	mv	a0,a5
ffffffc050400bae:	70e2                	ld	ra,56(sp)
ffffffc050400bb0:	7442                	ld	s0,48(sp)
ffffffc050400bb2:	6121                	addi	sp,sp,64
ffffffc050400bb4:	8082                	ret

ffffffc050400bb6 <init_all_stack>:
ffffffc050400bb6:	1101                	addi	sp,sp,-32
ffffffc050400bb8:	ec06                	sd	ra,24(sp)
ffffffc050400bba:	e822                	sd	s0,16(sp)
ffffffc050400bbc:	1000                	addi	s0,sp,32
ffffffc050400bbe:	fe042623          	sw	zero,-20(s0)
ffffffc050400bc2:	a081                	j	ffffffc050400c02 <init_all_stack+0x4c>
ffffffc050400bc4:	4505                	li	a0,1
ffffffc050400bc6:	4c20a0ef          	jal	ra,ffffffc05040b088 <allocPage>
ffffffc050400bca:	86aa                	mv	a3,a0
ffffffc050400bcc:	00201717          	auipc	a4,0x201
ffffffc050400bd0:	41c70713          	addi	a4,a4,1052 # ffffffc050601fe8 <kernel_stack>
ffffffc050400bd4:	fec42783          	lw	a5,-20(s0)
ffffffc050400bd8:	078e                	slli	a5,a5,0x3
ffffffc050400bda:	97ba                	add	a5,a5,a4
ffffffc050400bdc:	e394                	sd	a3,0(a5)
ffffffc050400bde:	4505                	li	a0,1
ffffffc050400be0:	4a80a0ef          	jal	ra,ffffffc05040b088 <allocPage>
ffffffc050400be4:	86aa                	mv	a3,a0
ffffffc050400be6:	00201717          	auipc	a4,0x201
ffffffc050400bea:	36a70713          	addi	a4,a4,874 # ffffffc050601f50 <user_stack>
ffffffc050400bee:	fec42783          	lw	a5,-20(s0)
ffffffc050400bf2:	078e                	slli	a5,a5,0x3
ffffffc050400bf4:	97ba                	add	a5,a5,a4
ffffffc050400bf6:	e394                	sd	a3,0(a5)
ffffffc050400bf8:	fec42783          	lw	a5,-20(s0)
ffffffc050400bfc:	2785                	addiw	a5,a5,1
ffffffc050400bfe:	fef42623          	sw	a5,-20(s0)
ffffffc050400c02:	fec42783          	lw	a5,-20(s0)
ffffffc050400c06:	0007871b          	sext.w	a4,a5
ffffffc050400c0a:	47bd                	li	a5,15
ffffffc050400c0c:	fae7dce3          	bge	a5,a4,ffffffc050400bc4 <init_all_stack+0xe>
ffffffc050400c10:	0001                	nop
ffffffc050400c12:	0001                	nop
ffffffc050400c14:	60e2                	ld	ra,24(sp)
ffffffc050400c16:	6442                	ld	s0,16(sp)
ffffffc050400c18:	6105                	addi	sp,sp,32
ffffffc050400c1a:	8082                	ret

ffffffc050400c1c <error_syscall>:
ffffffc050400c1c:	1141                	addi	sp,sp,-16
ffffffc050400c1e:	e406                	sd	ra,8(sp)
ffffffc050400c20:	e022                	sd	s0,0(sp)
ffffffc050400c22:	0800                	addi	s0,sp,16
ffffffc050400c24:	0000c517          	auipc	a0,0xc
ffffffc050400c28:	e2450513          	addi	a0,a0,-476 # ffffffc05040ca48 <get_elf_file+0xe0>
ffffffc050400c2c:	4590b0ef          	jal	ra,ffffffc05040c884 <printk>
ffffffc050400c30:	0000c517          	auipc	a0,0xc
ffffffc050400c34:	e3850513          	addi	a0,a0,-456 # ffffffc05040ca68 <get_elf_file+0x100>
ffffffc050400c38:	44d0b0ef          	jal	ra,ffffffc05040c884 <printk>
ffffffc050400c3c:	a001                	j	ffffffc050400c3c <error_syscall+0x20>

ffffffc050400c3e <kernel_taskset>:
ffffffc050400c3e:	1101                	addi	sp,sp,-32
ffffffc050400c40:	ec06                	sd	ra,24(sp)
ffffffc050400c42:	e822                	sd	s0,16(sp)
ffffffc050400c44:	1000                	addi	s0,sp,32
ffffffc050400c46:	87aa                	mv	a5,a0
ffffffc050400c48:	872e                	mv	a4,a1
ffffffc050400c4a:	fef407a3          	sb	a5,-17(s0)
ffffffc050400c4e:	87ba                	mv	a5,a4
ffffffc050400c50:	fef42423          	sw	a5,-24(s0)
ffffffc050400c54:	fe842783          	lw	a5,-24(s0)
ffffffc050400c58:	37fd                	addiw	a5,a5,-1
ffffffc050400c5a:	0007869b          	sext.w	a3,a5
ffffffc050400c5e:	00801717          	auipc	a4,0x801
ffffffc050400c62:	a3a70713          	addi	a4,a4,-1478 # ffffffc050c01698 <pcb>
ffffffc050400c66:	0d800793          	li	a5,216
ffffffc050400c6a:	02f687b3          	mul	a5,a3,a5
ffffffc050400c6e:	97ba                	add	a5,a5,a4
ffffffc050400c70:	579c                	lw	a5,40(a5)
ffffffc050400c72:	eb99                	bnez	a5,ffffffc050400c88 <kernel_taskset+0x4a>
ffffffc050400c74:	fe842783          	lw	a5,-24(s0)
ffffffc050400c78:	85be                	mv	a1,a5
ffffffc050400c7a:	0000c517          	auipc	a0,0xc
ffffffc050400c7e:	dfe50513          	addi	a0,a0,-514 # ffffffc05040ca78 <get_elf_file+0x110>
ffffffc050400c82:	48b0b0ef          	jal	ra,ffffffc05040c90c <prints>
ffffffc050400c86:	a01d                	j	ffffffc050400cac <kernel_taskset+0x6e>
ffffffc050400c88:	fe842783          	lw	a5,-24(s0)
ffffffc050400c8c:	37fd                	addiw	a5,a5,-1
ffffffc050400c8e:	0007869b          	sext.w	a3,a5
ffffffc050400c92:	00801717          	auipc	a4,0x801
ffffffc050400c96:	a0670713          	addi	a4,a4,-1530 # ffffffc050c01698 <pcb>
ffffffc050400c9a:	0d800793          	li	a5,216
ffffffc050400c9e:	02f687b3          	mul	a5,a3,a5
ffffffc050400ca2:	97ba                	add	a5,a5,a4
ffffffc050400ca4:	fef44703          	lbu	a4,-17(s0)
ffffffc050400ca8:	0ae78823          	sb	a4,176(a5)
ffffffc050400cac:	60e2                	ld	ra,24(sp)
ffffffc050400cae:	6442                	ld	s0,16(sp)
ffffffc050400cb0:	6105                	addi	sp,sp,32
ffffffc050400cb2:	8082                	ret

ffffffc050400cb4 <match_elf>:
ffffffc050400cb4:	7179                	addi	sp,sp,-48
ffffffc050400cb6:	f406                	sd	ra,40(sp)
ffffffc050400cb8:	f022                	sd	s0,32(sp)
ffffffc050400cba:	1800                	addi	s0,sp,48
ffffffc050400cbc:	fca43c23          	sd	a0,-40(s0)
ffffffc050400cc0:	4785                	li	a5,1
ffffffc050400cc2:	fef42623          	sw	a5,-20(s0)
ffffffc050400cc6:	a825                	j	ffffffc050400cfe <match_elf+0x4a>
ffffffc050400cc8:	00071697          	auipc	a3,0x71
ffffffc050400ccc:	92068693          	addi	a3,a3,-1760 # ffffffc0504715e8 <elf_files>
ffffffc050400cd0:	fec42703          	lw	a4,-20(s0)
ffffffc050400cd4:	87ba                	mv	a5,a4
ffffffc050400cd6:	0786                	slli	a5,a5,0x1
ffffffc050400cd8:	97ba                	add	a5,a5,a4
ffffffc050400cda:	078e                	slli	a5,a5,0x3
ffffffc050400cdc:	97b6                	add	a5,a5,a3
ffffffc050400cde:	639c                	ld	a5,0(a5)
ffffffc050400ce0:	85be                	mv	a1,a5
ffffffc050400ce2:	fd843503          	ld	a0,-40(s0)
ffffffc050400ce6:	23a0b0ef          	jal	ra,ffffffc05040bf20 <kstrcmp>
ffffffc050400cea:	87aa                	mv	a5,a0
ffffffc050400cec:	e781                	bnez	a5,ffffffc050400cf4 <match_elf+0x40>
ffffffc050400cee:	fec42783          	lw	a5,-20(s0)
ffffffc050400cf2:	a831                	j	ffffffc050400d0e <match_elf+0x5a>
ffffffc050400cf4:	fec42783          	lw	a5,-20(s0)
ffffffc050400cf8:	2785                	addiw	a5,a5,1
ffffffc050400cfa:	fef42623          	sw	a5,-20(s0)
ffffffc050400cfe:	fec42783          	lw	a5,-20(s0)
ffffffc050400d02:	0007871b          	sext.w	a4,a5
ffffffc050400d06:	479d                	li	a5,7
ffffffc050400d08:	fce7d0e3          	bge	a5,a4,ffffffc050400cc8 <match_elf+0x14>
ffffffc050400d0c:	57fd                	li	a5,-1
ffffffc050400d0e:	853e                	mv	a0,a5
ffffffc050400d10:	70a2                	ld	ra,40(sp)
ffffffc050400d12:	7402                	ld	s0,32(sp)
ffffffc050400d14:	6145                	addi	sp,sp,48
ffffffc050400d16:	8082                	ret

ffffffc050400d18 <do_show_exec>:
ffffffc050400d18:	1101                	addi	sp,sp,-32
ffffffc050400d1a:	ec06                	sd	ra,24(sp)
ffffffc050400d1c:	e822                	sd	s0,16(sp)
ffffffc050400d1e:	1000                	addi	s0,sp,32
ffffffc050400d20:	4785                	li	a5,1
ffffffc050400d22:	fef42623          	sw	a5,-20(s0)
ffffffc050400d26:	a80d                	j	ffffffc050400d58 <do_show_exec+0x40>
ffffffc050400d28:	00071697          	auipc	a3,0x71
ffffffc050400d2c:	8c068693          	addi	a3,a3,-1856 # ffffffc0504715e8 <elf_files>
ffffffc050400d30:	fec42703          	lw	a4,-20(s0)
ffffffc050400d34:	87ba                	mv	a5,a4
ffffffc050400d36:	0786                	slli	a5,a5,0x1
ffffffc050400d38:	97ba                	add	a5,a5,a4
ffffffc050400d3a:	078e                	slli	a5,a5,0x3
ffffffc050400d3c:	97b6                	add	a5,a5,a3
ffffffc050400d3e:	639c                	ld	a5,0(a5)
ffffffc050400d40:	85be                	mv	a1,a5
ffffffc050400d42:	0000c517          	auipc	a0,0xc
ffffffc050400d46:	d5650513          	addi	a0,a0,-682 # ffffffc05040ca98 <get_elf_file+0x130>
ffffffc050400d4a:	3c30b0ef          	jal	ra,ffffffc05040c90c <prints>
ffffffc050400d4e:	fec42783          	lw	a5,-20(s0)
ffffffc050400d52:	2785                	addiw	a5,a5,1
ffffffc050400d54:	fef42623          	sw	a5,-20(s0)
ffffffc050400d58:	fec42783          	lw	a5,-20(s0)
ffffffc050400d5c:	0007871b          	sext.w	a4,a5
ffffffc050400d60:	479d                	li	a5,7
ffffffc050400d62:	fce7d3e3          	bge	a5,a4,ffffffc050400d28 <do_show_exec+0x10>
ffffffc050400d66:	0000c517          	auipc	a0,0xc
ffffffc050400d6a:	d3a50513          	addi	a0,a0,-710 # ffffffc05040caa0 <get_elf_file+0x138>
ffffffc050400d6e:	39f0b0ef          	jal	ra,ffffffc05040c90c <prints>
ffffffc050400d72:	0001                	nop
ffffffc050400d74:	60e2                	ld	ra,24(sp)
ffffffc050400d76:	6442                	ld	s0,16(sp)
ffffffc050400d78:	6105                	addi	sp,sp,32
ffffffc050400d7a:	8082                	ret

ffffffc050400d7c <do_exec>:
ffffffc050400d7c:	7175                	addi	sp,sp,-144
ffffffc050400d7e:	e506                	sd	ra,136(sp)
ffffffc050400d80:	e122                	sd	s0,128(sp)
ffffffc050400d82:	fca6                	sd	s1,120(sp)
ffffffc050400d84:	0900                	addi	s0,sp,144
ffffffc050400d86:	f8a43423          	sd	a0,-120(s0)
ffffffc050400d8a:	87ae                	mv	a5,a1
ffffffc050400d8c:	f6c43c23          	sd	a2,-136(s0)
ffffffc050400d90:	8736                	mv	a4,a3
ffffffc050400d92:	f8f42223          	sw	a5,-124(s0)
ffffffc050400d96:	87ba                	mv	a5,a4
ffffffc050400d98:	f8f42023          	sw	a5,-128(s0)
ffffffc050400d9c:	f8843503          	ld	a0,-120(s0)
ffffffc050400da0:	f15ff0ef          	jal	ra,ffffffc050400cb4 <match_elf>
ffffffc050400da4:	87aa                	mv	a5,a0
ffffffc050400da6:	fcf42c23          	sw	a5,-40(s0)
ffffffc050400daa:	fd842783          	lw	a5,-40(s0)
ffffffc050400dae:	0007871b          	sext.w	a4,a5
ffffffc050400db2:	57fd                	li	a5,-1
ffffffc050400db4:	00f71c63          	bne	a4,a5,ffffffc050400dcc <do_exec+0x50>
ffffffc050400db8:	f8843583          	ld	a1,-120(s0)
ffffffc050400dbc:	0000c517          	auipc	a0,0xc
ffffffc050400dc0:	cec50513          	addi	a0,a0,-788 # ffffffc05040caa8 <get_elf_file+0x140>
ffffffc050400dc4:	3490b0ef          	jal	ra,ffffffc05040c90c <prints>
ffffffc050400dc8:	57fd                	li	a5,-1
ffffffc050400dca:	a989                	j	ffffffc05040121c <do_exec+0x4a0>
ffffffc050400dcc:	d04ff0ef          	jal	ra,ffffffc0504002d0 <get_current_cpu_id>
ffffffc050400dd0:	87aa                	mv	a5,a0
ffffffc050400dd2:	e791                	bnez	a5,ffffffc050400dde <do_exec+0x62>
ffffffc050400dd4:	00201797          	auipc	a5,0x201
ffffffc050400dd8:	20c78793          	addi	a5,a5,524 # ffffffc050601fe0 <current_running_core0>
ffffffc050400ddc:	a029                	j	ffffffc050400de6 <do_exec+0x6a>
ffffffc050400dde:	00201797          	auipc	a5,0x201
ffffffc050400de2:	1fa78793          	addi	a5,a5,506 # ffffffc050601fd8 <current_running_core1>
ffffffc050400de6:	00801717          	auipc	a4,0x801
ffffffc050400dea:	8aa70713          	addi	a4,a4,-1878 # ffffffc050c01690 <current_running>
ffffffc050400dee:	e31c                	sd	a5,0(a4)
ffffffc050400df0:	b7bff0ef          	jal	ra,ffffffc05040096a <findpid>
ffffffc050400df4:	87aa                	mv	a5,a0
ffffffc050400df6:	fcf42a23          	sw	a5,-44(s0)
ffffffc050400dfa:	fd442783          	lw	a5,-44(s0)
ffffffc050400dfe:	2781                	sext.w	a5,a5
ffffffc050400e00:	00f04963          	bgtz	a5,ffffffc050400e12 <do_exec+0x96>
ffffffc050400e04:	0000c517          	auipc	a0,0xc
ffffffc050400e08:	c3450513          	addi	a0,a0,-972 # ffffffc05040ca38 <get_elf_file+0xd0>
ffffffc050400e0c:	3010b0ef          	jal	ra,ffffffc05040c90c <prints>
ffffffc050400e10:	a001                	j	ffffffc050400e10 <do_exec+0x94>
ffffffc050400e12:	00801717          	auipc	a4,0x801
ffffffc050400e16:	88670713          	addi	a4,a4,-1914 # ffffffc050c01698 <pcb>
ffffffc050400e1a:	fd442683          	lw	a3,-44(s0)
ffffffc050400e1e:	0d800793          	li	a5,216
ffffffc050400e22:	02f687b3          	mul	a5,a3,a5
ffffffc050400e26:	97ba                	add	a5,a5,a4
ffffffc050400e28:	4709                	li	a4,2
ffffffc050400e2a:	db98                	sw	a4,48(a5)
ffffffc050400e2c:	00801717          	auipc	a4,0x801
ffffffc050400e30:	86c70713          	addi	a4,a4,-1940 # ffffffc050c01698 <pcb>
ffffffc050400e34:	fd442683          	lw	a3,-44(s0)
ffffffc050400e38:	0d800793          	li	a5,216
ffffffc050400e3c:	02f687b3          	mul	a5,a3,a5
ffffffc050400e40:	97ba                	add	a5,a5,a4
ffffffc050400e42:	4709                	li	a4,2
ffffffc050400e44:	d7d8                	sw	a4,44(a5)
ffffffc050400e46:	fd442783          	lw	a5,-44(s0)
ffffffc050400e4a:	2785                	addiw	a5,a5,1
ffffffc050400e4c:	0007871b          	sext.w	a4,a5
ffffffc050400e50:	00801697          	auipc	a3,0x801
ffffffc050400e54:	84868693          	addi	a3,a3,-1976 # ffffffc050c01698 <pcb>
ffffffc050400e58:	fd442603          	lw	a2,-44(s0)
ffffffc050400e5c:	0d800793          	li	a5,216
ffffffc050400e60:	02f607b3          	mul	a5,a2,a5
ffffffc050400e64:	97b6                	add	a5,a5,a3
ffffffc050400e66:	d798                	sw	a4,40(a5)
ffffffc050400e68:	00801717          	auipc	a4,0x801
ffffffc050400e6c:	83070713          	addi	a4,a4,-2000 # ffffffc050c01698 <pcb>
ffffffc050400e70:	fd442683          	lw	a3,-44(s0)
ffffffc050400e74:	0d800793          	li	a5,216
ffffffc050400e78:	02f687b3          	mul	a5,a3,a5
ffffffc050400e7c:	97ba                	add	a5,a5,a4
ffffffc050400e7e:	f8042703          	lw	a4,-128(s0)
ffffffc050400e82:	dbd8                	sw	a4,52(a5)
ffffffc050400e84:	00801797          	auipc	a5,0x801
ffffffc050400e88:	80c78793          	addi	a5,a5,-2036 # ffffffc050c01690 <current_running>
ffffffc050400e8c:	639c                	ld	a5,0(a5)
ffffffc050400e8e:	639c                	ld	a5,0(a5)
ffffffc050400e90:	0b07c703          	lbu	a4,176(a5)
ffffffc050400e94:	00801697          	auipc	a3,0x801
ffffffc050400e98:	80468693          	addi	a3,a3,-2044 # ffffffc050c01698 <pcb>
ffffffc050400e9c:	fd442603          	lw	a2,-44(s0)
ffffffc050400ea0:	0d800793          	li	a5,216
ffffffc050400ea4:	02f607b3          	mul	a5,a2,a5
ffffffc050400ea8:	97b6                	add	a5,a5,a3
ffffffc050400eaa:	0ae78823          	sb	a4,176(a5)
ffffffc050400eae:	00800717          	auipc	a4,0x800
ffffffc050400eb2:	7ea70713          	addi	a4,a4,2026 # ffffffc050c01698 <pcb>
ffffffc050400eb6:	fd442683          	lw	a3,-44(s0)
ffffffc050400eba:	0d800793          	li	a5,216
ffffffc050400ebe:	02f687b3          	mul	a5,a3,a5
ffffffc050400ec2:	97ba                	add	a5,a5,a4
ffffffc050400ec4:	4709                	li	a4,2
ffffffc050400ec6:	0ce7a823          	sw	a4,208(a5)
ffffffc050400eca:	1be0a0ef          	jal	ra,ffffffc05040b088 <allocPage>
ffffffc050400ece:	87aa                	mv	a5,a0
ffffffc050400ed0:	863e                	mv	a2,a5
ffffffc050400ed2:	00800717          	auipc	a4,0x800
ffffffc050400ed6:	7c670713          	addi	a4,a4,1990 # ffffffc050c01698 <pcb>
ffffffc050400eda:	fd442683          	lw	a3,-44(s0)
ffffffc050400ede:	0d800793          	li	a5,216
ffffffc050400ee2:	02f687b3          	mul	a5,a3,a5
ffffffc050400ee6:	97ba                	add	a5,a5,a4
ffffffc050400ee8:	ffd0                	sd	a2,184(a5)
ffffffc050400eea:	00800717          	auipc	a4,0x800
ffffffc050400eee:	7ae70713          	addi	a4,a4,1966 # ffffffc050c01698 <pcb>
ffffffc050400ef2:	fd442683          	lw	a3,-44(s0)
ffffffc050400ef6:	0d800793          	li	a5,216
ffffffc050400efa:	02f687b3          	mul	a5,a3,a5
ffffffc050400efe:	97ba                	add	a5,a5,a4
ffffffc050400f00:	7fc4                	ld	s1,184(a5)
ffffffc050400f02:	5e000537          	lui	a0,0x5e000
ffffffc050400f06:	cfeff0ef          	jal	ra,ffffffc050400404 <pa2kva>
ffffffc050400f0a:	87aa                	mv	a5,a0
ffffffc050400f0c:	6605                	lui	a2,0x1
ffffffc050400f0e:	85be                	mv	a1,a5
ffffffc050400f10:	8526                	mv	a0,s1
ffffffc050400f12:	69b0a0ef          	jal	ra,ffffffc05040bdac <kmemcpy>
ffffffc050400f16:	00800717          	auipc	a4,0x800
ffffffc050400f1a:	78270713          	addi	a4,a4,1922 # ffffffc050c01698 <pcb>
ffffffc050400f1e:	fd442683          	lw	a3,-44(s0)
ffffffc050400f22:	0d800793          	li	a5,216
ffffffc050400f26:	02f687b3          	mul	a5,a3,a5
ffffffc050400f2a:	97ba                	add	a5,a5,a4
ffffffc050400f2c:	7fdc                	ld	a5,184(a5)
ffffffc050400f2e:	4601                	li	a2,0
ffffffc050400f30:	85be                	mv	a1,a5
ffffffc050400f32:	fc0007b7          	lui	a5,0xfc000
ffffffc050400f36:	17fd                	addi	a5,a5,-1
ffffffc050400f38:	00c79513          	slli	a0,a5,0xc
ffffffc050400f3c:	7c80a0ef          	jal	ra,ffffffc05040b704 <alloc_page_helper>
ffffffc050400f40:	872a                	mv	a4,a0
ffffffc050400f42:	6785                	lui	a5,0x1
ffffffc050400f44:	97ba                	add	a5,a5,a4
ffffffc050400f46:	fcf43423          	sd	a5,-56(s0)
ffffffc050400f4a:	00800717          	auipc	a4,0x800
ffffffc050400f4e:	74e70713          	addi	a4,a4,1870 # ffffffc050c01698 <pcb>
ffffffc050400f52:	fd442683          	lw	a3,-44(s0)
ffffffc050400f56:	0d800793          	li	a5,216
ffffffc050400f5a:	02f687b3          	mul	a5,a3,a5
ffffffc050400f5e:	97ba                	add	a5,a5,a4
ffffffc050400f60:	7fdc                	ld	a5,184(a5)
ffffffc050400f62:	4605                	li	a2,1
ffffffc050400f64:	85be                	mv	a1,a5
ffffffc050400f66:	00f007b7          	lui	a5,0xf00
ffffffc050400f6a:	07bd                	addi	a5,a5,15
ffffffc050400f6c:	00c79513          	slli	a0,a5,0xc
ffffffc050400f70:	7940a0ef          	jal	ra,ffffffc05040b704 <alloc_page_helper>
ffffffc050400f74:	872a                	mv	a4,a0
ffffffc050400f76:	6785                	lui	a5,0x1
ffffffc050400f78:	f4078793          	addi	a5,a5,-192 # f40 <_start-0xffffffc0503ff0c0>
ffffffc050400f7c:	97ba                	add	a5,a5,a4
ffffffc050400f7e:	fcf43023          	sd	a5,-64(s0)
ffffffc050400f82:	fd442703          	lw	a4,-44(s0)
ffffffc050400f86:	0d800793          	li	a5,216
ffffffc050400f8a:	02f707b3          	mul	a5,a4,a5
ffffffc050400f8e:	0c078713          	addi	a4,a5,192
ffffffc050400f92:	00800797          	auipc	a5,0x800
ffffffc050400f96:	70678793          	addi	a5,a5,1798 # ffffffc050c01698 <pcb>
ffffffc050400f9a:	97ba                	add	a5,a5,a4
ffffffc050400f9c:	853e                	mv	a0,a5
ffffffc050400f9e:	b38ff0ef          	jal	ra,ffffffc0504002d6 <init_list_head>
ffffffc050400fa2:	03000513          	li	a0,48
ffffffc050400fa6:	1760a0ef          	jal	ra,ffffffc05040b11c <kmalloc>
ffffffc050400faa:	faa43c23          	sd	a0,-72(s0)
ffffffc050400fae:	03000513          	li	a0,48
ffffffc050400fb2:	16a0a0ef          	jal	ra,ffffffc05040b11c <kmalloc>
ffffffc050400fb6:	faa43823          	sd	a0,-80(s0)
ffffffc050400fba:	fc843703          	ld	a4,-56(s0)
ffffffc050400fbe:	77fd                	lui	a5,0xfffff
ffffffc050400fc0:	97ba                	add	a5,a5,a4
ffffffc050400fc2:	853e                	mv	a0,a5
ffffffc050400fc4:	c24ff0ef          	jal	ra,ffffffc0504003e8 <kva2pa>
ffffffc050400fc8:	872a                	mv	a4,a0
ffffffc050400fca:	fb843783          	ld	a5,-72(s0)
ffffffc050400fce:	e398                	sd	a4,0(a5)
ffffffc050400fd0:	fb843783          	ld	a5,-72(s0)
ffffffc050400fd4:	fc000737          	lui	a4,0xfc000
ffffffc050400fd8:	177d                	addi	a4,a4,-1
ffffffc050400fda:	0732                	slli	a4,a4,0xc
ffffffc050400fdc:	e798                	sd	a4,8(a5)
ffffffc050400fde:	fb843783          	ld	a5,-72(s0)
ffffffc050400fe2:	4705                	li	a4,1
ffffffc050400fe4:	cb98                	sw	a4,16(a5)
ffffffc050400fe6:	fc043703          	ld	a4,-64(s0)
ffffffc050400fea:	77fd                	lui	a5,0xfffff
ffffffc050400fec:	0c078793          	addi	a5,a5,192 # fffffffffffff0c0 <__BSS_END__+0x3faf3fc1a0>
ffffffc050400ff0:	97ba                	add	a5,a5,a4
ffffffc050400ff2:	853e                	mv	a0,a5
ffffffc050400ff4:	bf4ff0ef          	jal	ra,ffffffc0504003e8 <kva2pa>
ffffffc050400ff8:	872a                	mv	a4,a0
ffffffc050400ffa:	fb043783          	ld	a5,-80(s0)
ffffffc050400ffe:	e398                	sd	a4,0(a5)
ffffffc050401000:	fb043783          	ld	a5,-80(s0)
ffffffc050401004:	00f00737          	lui	a4,0xf00
ffffffc050401008:	073d                	addi	a4,a4,15
ffffffc05040100a:	0732                	slli	a4,a4,0xc
ffffffc05040100c:	e798                	sd	a4,8(a5)
ffffffc05040100e:	fb043783          	ld	a5,-80(s0)
ffffffc050401012:	4705                	li	a4,1
ffffffc050401014:	cb98                	sw	a4,16(a5)
ffffffc050401016:	fb843783          	ld	a5,-72(s0)
ffffffc05040101a:	02078693          	addi	a3,a5,32
ffffffc05040101e:	fd442703          	lw	a4,-44(s0)
ffffffc050401022:	0d800793          	li	a5,216
ffffffc050401026:	02f707b3          	mul	a5,a4,a5
ffffffc05040102a:	0c078713          	addi	a4,a5,192
ffffffc05040102e:	00800797          	auipc	a5,0x800
ffffffc050401032:	66a78793          	addi	a5,a5,1642 # ffffffc050c01698 <pcb>
ffffffc050401036:	97ba                	add	a5,a5,a4
ffffffc050401038:	85be                	mv	a1,a5
ffffffc05040103a:	8536                	mv	a0,a3
ffffffc05040103c:	b02ff0ef          	jal	ra,ffffffc05040033e <list_add_tail>
ffffffc050401040:	fb043783          	ld	a5,-80(s0)
ffffffc050401044:	02078693          	addi	a3,a5,32
ffffffc050401048:	fd442703          	lw	a4,-44(s0)
ffffffc05040104c:	0d800793          	li	a5,216
ffffffc050401050:	02f707b3          	mul	a5,a4,a5
ffffffc050401054:	0c078713          	addi	a4,a5,192
ffffffc050401058:	00800797          	auipc	a5,0x800
ffffffc05040105c:	64078793          	addi	a5,a5,1600 # ffffffc050c01698 <pcb>
ffffffc050401060:	97ba                	add	a5,a5,a4
ffffffc050401062:	85be                	mv	a1,a5
ffffffc050401064:	8536                	mv	a0,a3
ffffffc050401066:	ad8ff0ef          	jal	ra,ffffffc05040033e <list_add_tail>
ffffffc05040106a:	00070697          	auipc	a3,0x70
ffffffc05040106e:	57e68693          	addi	a3,a3,1406 # ffffffc0504715e8 <elf_files>
ffffffc050401072:	fd842703          	lw	a4,-40(s0)
ffffffc050401076:	87ba                	mv	a5,a4
ffffffc050401078:	0786                	slli	a5,a5,0x1
ffffffc05040107a:	97ba                	add	a5,a5,a4
ffffffc05040107c:	078e                	slli	a5,a5,0x3
ffffffc05040107e:	97b6                	add	a5,a5,a3
ffffffc050401080:	6788                	ld	a0,8(a5)
ffffffc050401082:	00070697          	auipc	a3,0x70
ffffffc050401086:	56668693          	addi	a3,a3,1382 # ffffffc0504715e8 <elf_files>
ffffffc05040108a:	fd842703          	lw	a4,-40(s0)
ffffffc05040108e:	87ba                	mv	a5,a4
ffffffc050401090:	0786                	slli	a5,a5,0x1
ffffffc050401092:	97ba                	add	a5,a5,a4
ffffffc050401094:	078e                	slli	a5,a5,0x3
ffffffc050401096:	97b6                	add	a5,a5,a3
ffffffc050401098:	6b9c                	ld	a5,16(a5)
ffffffc05040109a:	439c                	lw	a5,0(a5)
ffffffc05040109c:	0007859b          	sext.w	a1,a5
ffffffc0504010a0:	00800717          	auipc	a4,0x800
ffffffc0504010a4:	5f870713          	addi	a4,a4,1528 # ffffffc050c01698 <pcb>
ffffffc0504010a8:	fd442683          	lw	a3,-44(s0)
ffffffc0504010ac:	0d800793          	li	a5,216
ffffffc0504010b0:	02f687b3          	mul	a5,a3,a5
ffffffc0504010b4:	97ba                	add	a5,a5,a4
ffffffc0504010b6:	7fdc                	ld	a5,184(a5)
ffffffc0504010b8:	fffff697          	auipc	a3,0xfffff
ffffffc0504010bc:	6e668693          	addi	a3,a3,1766 # ffffffc05040079e <alloc_page_helper_user>
ffffffc0504010c0:	863e                	mv	a2,a5
ffffffc0504010c2:	b84ff0ef          	jal	ra,ffffffc050400446 <load_elf>
ffffffc0504010c6:	faa43423          	sd	a0,-88(s0)
ffffffc0504010ca:	3c0007b7          	lui	a5,0x3c000
ffffffc0504010ce:	3fd78793          	addi	a5,a5,1021 # 3c0003fd <_start-0xffffffc0143ffc03>
ffffffc0504010d2:	079a                	slli	a5,a5,0x6
ffffffc0504010d4:	faf43023          	sd	a5,-96(s0)
ffffffc0504010d8:	fc043783          	ld	a5,-64(s0)
ffffffc0504010dc:	f8f43c23          	sd	a5,-104(s0)
ffffffc0504010e0:	fc042e23          	sw	zero,-36(s0)
ffffffc0504010e4:	a885                	j	ffffffc050401154 <do_exec+0x3d8>
ffffffc0504010e6:	fdc42783          	lw	a5,-36(s0)
ffffffc0504010ea:	2785                	addiw	a5,a5,1
ffffffc0504010ec:	2781                	sext.w	a5,a5
ffffffc0504010ee:	0047979b          	slliw	a5,a5,0x4
ffffffc0504010f2:	2781                	sext.w	a5,a5
ffffffc0504010f4:	86be                	mv	a3,a5
ffffffc0504010f6:	fdc42783          	lw	a5,-36(s0)
ffffffc0504010fa:	078e                	slli	a5,a5,0x3
ffffffc0504010fc:	f9843703          	ld	a4,-104(s0)
ffffffc050401100:	97ba                	add	a5,a5,a4
ffffffc050401102:	fa043703          	ld	a4,-96(s0)
ffffffc050401106:	9736                	add	a4,a4,a3
ffffffc050401108:	e398                	sd	a4,0(a5)
ffffffc05040110a:	fdc42783          	lw	a5,-36(s0)
ffffffc05040110e:	2785                	addiw	a5,a5,1
ffffffc050401110:	2781                	sext.w	a5,a5
ffffffc050401112:	0047979b          	slliw	a5,a5,0x4
ffffffc050401116:	2781                	sext.w	a5,a5
ffffffc050401118:	873e                	mv	a4,a5
ffffffc05040111a:	fc043783          	ld	a5,-64(s0)
ffffffc05040111e:	97ba                	add	a5,a5,a4
ffffffc050401120:	86be                	mv	a3,a5
ffffffc050401122:	fdc42783          	lw	a5,-36(s0)
ffffffc050401126:	078e                	slli	a5,a5,0x3
ffffffc050401128:	f7843703          	ld	a4,-136(s0)
ffffffc05040112c:	97ba                	add	a5,a5,a4
ffffffc05040112e:	6398                	ld	a4,0(a5)
ffffffc050401130:	fdc42783          	lw	a5,-36(s0)
ffffffc050401134:	2785                	addiw	a5,a5,1
ffffffc050401136:	2781                	sext.w	a5,a5
ffffffc050401138:	0047979b          	slliw	a5,a5,0x4
ffffffc05040113c:	2781                	sext.w	a5,a5
ffffffc05040113e:	2781                	sext.w	a5,a5
ffffffc050401140:	863e                	mv	a2,a5
ffffffc050401142:	85ba                	mv	a1,a4
ffffffc050401144:	8536                	mv	a0,a3
ffffffc050401146:	4670a0ef          	jal	ra,ffffffc05040bdac <kmemcpy>
ffffffc05040114a:	fdc42783          	lw	a5,-36(s0)
ffffffc05040114e:	2785                	addiw	a5,a5,1
ffffffc050401150:	fcf42e23          	sw	a5,-36(s0)
ffffffc050401154:	fdc42703          	lw	a4,-36(s0)
ffffffc050401158:	f8442783          	lw	a5,-124(s0)
ffffffc05040115c:	2701                	sext.w	a4,a4
ffffffc05040115e:	2781                	sext.w	a5,a5
ffffffc050401160:	f8f743e3          	blt	a4,a5,ffffffc0504010e6 <do_exec+0x36a>
ffffffc050401164:	fd442703          	lw	a4,-44(s0)
ffffffc050401168:	0d800793          	li	a5,216
ffffffc05040116c:	02f70733          	mul	a4,a4,a5
ffffffc050401170:	00800797          	auipc	a5,0x800
ffffffc050401174:	52878793          	addi	a5,a5,1320 # ffffffc050c01698 <pcb>
ffffffc050401178:	00f706b3          	add	a3,a4,a5
ffffffc05040117c:	fa043783          	ld	a5,-96(s0)
ffffffc050401180:	f8442703          	lw	a4,-124(s0)
ffffffc050401184:	fa843603          	ld	a2,-88(s0)
ffffffc050401188:	fc043583          	ld	a1,-64(s0)
ffffffc05040118c:	fc843503          	ld	a0,-56(s0)
ffffffc050401190:	ca4ff0ef          	jal	ra,ffffffc050400634 <init_pcb_stack>
ffffffc050401194:	00800717          	auipc	a4,0x800
ffffffc050401198:	50470713          	addi	a4,a4,1284 # ffffffc050c01698 <pcb>
ffffffc05040119c:	fd442683          	lw	a3,-44(s0)
ffffffc0504011a0:	0d800793          	li	a5,216
ffffffc0504011a4:	02f687b3          	mul	a5,a3,a5
ffffffc0504011a8:	97ba                	add	a5,a5,a4
ffffffc0504011aa:	3c000737          	lui	a4,0x3c000
ffffffc0504011ae:	3fd70713          	addi	a4,a4,1021 # 3c0003fd <_start-0xffffffc0143ffc03>
ffffffc0504011b2:	071a                	slli	a4,a4,0x6
ffffffc0504011b4:	e798                	sd	a4,8(a5)
ffffffc0504011b6:	00800717          	auipc	a4,0x800
ffffffc0504011ba:	4e270713          	addi	a4,a4,1250 # ffffffc050c01698 <pcb>
ffffffc0504011be:	fd442683          	lw	a3,-44(s0)
ffffffc0504011c2:	0d800793          	li	a5,216
ffffffc0504011c6:	02f687b3          	mul	a5,a3,a5
ffffffc0504011ca:	97ba                	add	a5,a5,a4
ffffffc0504011cc:	7fdc                	ld	a5,184(a5)
ffffffc0504011ce:	853e                	mv	a0,a5
ffffffc0504011d0:	a18ff0ef          	jal	ra,ffffffc0504003e8 <kva2pa>
ffffffc0504011d4:	87aa                	mv	a5,a0
ffffffc0504011d6:	863e                	mv	a2,a5
ffffffc0504011d8:	00800717          	auipc	a4,0x800
ffffffc0504011dc:	4c070713          	addi	a4,a4,1216 # ffffffc050c01698 <pcb>
ffffffc0504011e0:	fd442683          	lw	a3,-44(s0)
ffffffc0504011e4:	0d800793          	li	a5,216
ffffffc0504011e8:	02f687b3          	mul	a5,a3,a5
ffffffc0504011ec:	97ba                	add	a5,a5,a4
ffffffc0504011ee:	ffd0                	sd	a2,184(a5)
ffffffc0504011f0:	fd442703          	lw	a4,-44(s0)
ffffffc0504011f4:	0d800793          	li	a5,216
ffffffc0504011f8:	02f70733          	mul	a4,a4,a5
ffffffc0504011fc:	00800797          	auipc	a5,0x800
ffffffc050401200:	49c78793          	addi	a5,a5,1180 # ffffffc050c01698 <pcb>
ffffffc050401204:	97ba                	add	a5,a5,a4
ffffffc050401206:	85be                	mv	a1,a5
ffffffc050401208:	0000d517          	auipc	a0,0xd
ffffffc05040120c:	9d050513          	addi	a0,a0,-1584 # ffffffc05040dbd8 <ready_queue>
ffffffc050401210:	7e4090ef          	jal	ra,ffffffc05040a9f4 <enqueue>
ffffffc050401214:	fd442783          	lw	a5,-44(s0)
ffffffc050401218:	2785                	addiw	a5,a5,1
ffffffc05040121a:	2781                	sext.w	a5,a5
ffffffc05040121c:	853e                	mv	a0,a5
ffffffc05040121e:	60aa                	ld	ra,136(sp)
ffffffc050401220:	640a                	ld	s0,128(sp)
ffffffc050401222:	74e6                	ld	s1,120(sp)
ffffffc050401224:	6149                	addi	sp,sp,144
ffffffc050401226:	8082                	ret

ffffffc050401228 <init_syscall>:
ffffffc050401228:	1101                	addi	sp,sp,-32
ffffffc05040122a:	ec22                	sd	s0,24(sp)
ffffffc05040122c:	1000                	addi	s0,sp,32
ffffffc05040122e:	fe042623          	sw	zero,-20(s0)
ffffffc050401232:	a01d                	j	ffffffc050401258 <init_syscall+0x30>
ffffffc050401234:	00802717          	auipc	a4,0x802
ffffffc050401238:	ae470713          	addi	a4,a4,-1308 # ffffffc050c02d18 <syscall>
ffffffc05040123c:	fec42783          	lw	a5,-20(s0)
ffffffc050401240:	078e                	slli	a5,a5,0x3
ffffffc050401242:	97ba                	add	a5,a5,a4
ffffffc050401244:	00000717          	auipc	a4,0x0
ffffffc050401248:	9d870713          	addi	a4,a4,-1576 # ffffffc050400c1c <error_syscall>
ffffffc05040124c:	e398                	sd	a4,0(a5)
ffffffc05040124e:	fec42783          	lw	a5,-20(s0)
ffffffc050401252:	2785                	addiw	a5,a5,1
ffffffc050401254:	fef42623          	sw	a5,-20(s0)
ffffffc050401258:	fec42783          	lw	a5,-20(s0)
ffffffc05040125c:	0007871b          	sext.w	a4,a5
ffffffc050401260:	03f00793          	li	a5,63
ffffffc050401264:	fce7d8e3          	bge	a5,a4,ffffffc050401234 <init_syscall+0xc>
ffffffc050401268:	00802797          	auipc	a5,0x802
ffffffc05040126c:	ab078793          	addi	a5,a5,-1360 # ffffffc050c02d18 <syscall>
ffffffc050401270:	00009717          	auipc	a4,0x9
ffffffc050401274:	68270713          	addi	a4,a4,1666 # ffffffc05040a8f2 <do_sleep>
ffffffc050401278:	eb98                	sd	a4,16(a5)
ffffffc05040127a:	00802797          	auipc	a5,0x802
ffffffc05040127e:	a9e78793          	addi	a5,a5,-1378 # ffffffc050c02d18 <syscall>
ffffffc050401282:	00008717          	auipc	a4,0x8
ffffffc050401286:	d6470713          	addi	a4,a4,-668 # ffffffc050408fe6 <kernel_semget>
ffffffc05040128a:	e3b8                	sd	a4,64(a5)
ffffffc05040128c:	00802797          	auipc	a5,0x802
ffffffc050401290:	a8c78793          	addi	a5,a5,-1396 # ffffffc050c02d18 <syscall>
ffffffc050401294:	00008717          	auipc	a4,0x8
ffffffc050401298:	e4a70713          	addi	a4,a4,-438 # ffffffc0504090de <kernel_binsemop>
ffffffc05040129c:	e7b8                	sd	a4,72(a5)
ffffffc05040129e:	00802797          	auipc	a5,0x802
ffffffc0504012a2:	a7a78793          	addi	a5,a5,-1414 # ffffffc050c02d18 <syscall>
ffffffc0504012a6:	00001717          	auipc	a4,0x1
ffffffc0504012aa:	78070713          	addi	a4,a4,1920 # ffffffc050402a26 <screen_write>
ffffffc0504012ae:	f3d8                	sd	a4,160(a5)
ffffffc0504012b0:	00802797          	auipc	a5,0x802
ffffffc0504012b4:	a6878793          	addi	a5,a5,-1432 # ffffffc050c02d18 <syscall>
ffffffc0504012b8:	00001717          	auipc	a4,0x1
ffffffc0504012bc:	70670713          	addi	a4,a4,1798 # ffffffc0504029be <screen_move_cursor>
ffffffc0504012c0:	fbd8                	sd	a4,176(a5)
ffffffc0504012c2:	00802797          	auipc	a5,0x802
ffffffc0504012c6:	a5678793          	addi	a5,a5,-1450 # ffffffc050c02d18 <syscall>
ffffffc0504012ca:	00001717          	auipc	a4,0x1
ffffffc0504012ce:	7f470713          	addi	a4,a4,2036 # ffffffc050402abe <screen_reflush>
ffffffc0504012d2:	ffd8                	sd	a4,184(a5)
ffffffc0504012d4:	00802797          	auipc	a5,0x802
ffffffc0504012d8:	a4478793          	addi	a5,a5,-1468 # ffffffc050c02d18 <syscall>
ffffffc0504012dc:	00009717          	auipc	a4,0x9
ffffffc0504012e0:	f8470713          	addi	a4,a4,-124 # ffffffc05040a260 <do_scheduler>
ffffffc0504012e4:	ff98                	sd	a4,56(a5)
ffffffc0504012e6:	00802797          	auipc	a5,0x802
ffffffc0504012ea:	a3278793          	addi	a5,a5,-1486 # ffffffc050c02d18 <syscall>
ffffffc0504012ee:	0000a717          	auipc	a4,0xa
ffffffc0504012f2:	bd870713          	addi	a4,a4,-1064 # ffffffc05040aec6 <get_time_base>
ffffffc0504012f6:	fbf8                	sd	a4,240(a5)
ffffffc0504012f8:	00802797          	auipc	a5,0x802
ffffffc0504012fc:	a2078793          	addi	a5,a5,-1504 # ffffffc050c02d18 <syscall>
ffffffc050401300:	0000a717          	auipc	a4,0xa
ffffffc050401304:	b7670713          	addi	a4,a4,-1162 # ffffffc05040ae76 <get_ticks>
ffffffc050401308:	fff8                	sd	a4,248(a5)
ffffffc05040130a:	00802797          	auipc	a5,0x802
ffffffc05040130e:	a0e78793          	addi	a5,a5,-1522 # ffffffc050c02d18 <syscall>
ffffffc050401312:	00001717          	auipc	a4,0x1
ffffffc050401316:	77270713          	addi	a4,a4,1906 # ffffffc050402a84 <serial_getchar>
ffffffc05040131a:	e3f8                	sd	a4,192(a5)
ffffffc05040131c:	00802797          	auipc	a5,0x802
ffffffc050401320:	9fc78793          	addi	a5,a5,-1540 # ffffffc050c02d18 <syscall>
ffffffc050401324:	00001717          	auipc	a4,0x1
ffffffc050401328:	47670713          	addi	a4,a4,1142 # ffffffc05040279a <screen_write_ch>
ffffffc05040132c:	e7f8                	sd	a4,200(a5)
ffffffc05040132e:	00802797          	auipc	a5,0x802
ffffffc050401332:	9ea78793          	addi	a5,a5,-1558 # ffffffc050c02d18 <syscall>
ffffffc050401336:	00001717          	auipc	a4,0x1
ffffffc05040133a:	5c270713          	addi	a4,a4,1474 # ffffffc0504028f8 <screen_clear>
ffffffc05040133e:	eff8                	sd	a4,216(a5)
ffffffc050401340:	00802797          	auipc	a5,0x802
ffffffc050401344:	9d878793          	addi	a5,a5,-1576 # ffffffc050c02d18 <syscall>
ffffffc050401348:	fffff717          	auipc	a4,0xfffff
ffffffc05040134c:	67270713          	addi	a4,a4,1650 # ffffffc0504009ba <init_pcb>
ffffffc050401350:	e398                	sd	a4,0(a5)
ffffffc050401352:	00802797          	auipc	a5,0x802
ffffffc050401356:	9c678793          	addi	a5,a5,-1594 # ffffffc050c02d18 <syscall>
ffffffc05040135a:	00009717          	auipc	a4,0x9
ffffffc05040135e:	0cc70713          	addi	a4,a4,204 # ffffffc05040a426 <do_kill>
ffffffc050401362:	ef98                	sd	a4,24(a5)
ffffffc050401364:	00802797          	auipc	a5,0x802
ffffffc050401368:	9b478793          	addi	a5,a5,-1612 # ffffffc050c02d18 <syscall>
ffffffc05040136c:	00009717          	auipc	a4,0x9
ffffffc050401370:	1cc70713          	addi	a4,a4,460 # ffffffc05040a538 <do_process_show>
ffffffc050401374:	f798                	sd	a4,40(a5)
ffffffc050401376:	00802797          	auipc	a5,0x802
ffffffc05040137a:	9a278793          	addi	a5,a5,-1630 # ffffffc050c02d18 <syscall>
ffffffc05040137e:	00009717          	auipc	a4,0x9
ffffffc050401382:	53070713          	addi	a4,a4,1328 # ffffffc05040a8ae <do_getpid>
ffffffc050401386:	fb98                	sd	a4,48(a5)
ffffffc050401388:	00802797          	auipc	a5,0x802
ffffffc05040138c:	99078793          	addi	a5,a5,-1648 # ffffffc050c02d18 <syscall>
ffffffc050401390:	00009717          	auipc	a4,0x9
ffffffc050401394:	76870713          	addi	a4,a4,1896 # ffffffc05040aaf8 <do_exit>
ffffffc050401398:	e798                	sd	a4,8(a5)
ffffffc05040139a:	00802797          	auipc	a5,0x802
ffffffc05040139e:	97e78793          	addi	a5,a5,-1666 # ffffffc050c02d18 <syscall>
ffffffc0504013a2:	0000a717          	auipc	a4,0xa
ffffffc0504013a6:	81070713          	addi	a4,a4,-2032 # ffffffc05040abb2 <do_waitpid>
ffffffc0504013aa:	f398                	sd	a4,32(a5)
ffffffc0504013ac:	00802797          	auipc	a5,0x802
ffffffc0504013b0:	96c78793          	addi	a5,a5,-1684 # ffffffc050c02d18 <syscall>
ffffffc0504013b4:	00009717          	auipc	a4,0x9
ffffffc0504013b8:	5e270713          	addi	a4,a4,1506 # ffffffc05040a996 <do_block>
ffffffc0504013bc:	ffb8                	sd	a4,120(a5)
ffffffc0504013be:	00802797          	auipc	a5,0x802
ffffffc0504013c2:	95a78793          	addi	a5,a5,-1702 # ffffffc050c02d18 <syscall>
ffffffc0504013c6:	00009717          	auipc	a4,0x9
ffffffc0504013ca:	6a070713          	addi	a4,a4,1696 # ffffffc05040aa66 <do_unblock>
ffffffc0504013ce:	e3d8                	sd	a4,128(a5)
ffffffc0504013d0:	00802797          	auipc	a5,0x802
ffffffc0504013d4:	94878793          	addi	a5,a5,-1720 # ffffffc050c02d18 <syscall>
ffffffc0504013d8:	00008717          	auipc	a4,0x8
ffffffc0504013dc:	ee870713          	addi	a4,a4,-280 # ffffffc0504092c0 <kernel_sem_wait>
ffffffc0504013e0:	14e7b023          	sd	a4,320(a5)
ffffffc0504013e4:	00802797          	auipc	a5,0x802
ffffffc0504013e8:	93478793          	addi	a5,a5,-1740 # ffffffc050c02d18 <syscall>
ffffffc0504013ec:	00008717          	auipc	a4,0x8
ffffffc0504013f0:	f9870713          	addi	a4,a4,-104 # ffffffc050409384 <kernel_sem_signal>
ffffffc0504013f4:	14e7b423          	sd	a4,328(a5)
ffffffc0504013f8:	00802797          	auipc	a5,0x802
ffffffc0504013fc:	92078793          	addi	a5,a5,-1760 # ffffffc050c02d18 <syscall>
ffffffc050401400:	00008717          	auipc	a4,0x8
ffffffc050401404:	fdc70713          	addi	a4,a4,-36 # ffffffc0504093dc <kernel_sem_broadcast>
ffffffc050401408:	14e7b823          	sd	a4,336(a5)
ffffffc05040140c:	00802797          	auipc	a5,0x802
ffffffc050401410:	90c78793          	addi	a5,a5,-1780 # ffffffc050c02d18 <syscall>
ffffffc050401414:	00008717          	auipc	a4,0x8
ffffffc050401418:	03470713          	addi	a4,a4,52 # ffffffc050409448 <kernel_barrier_wait>
ffffffc05040141c:	14e7bc23          	sd	a4,344(a5)
ffffffc050401420:	00802797          	auipc	a5,0x802
ffffffc050401424:	8f878793          	addi	a5,a5,-1800 # ffffffc050c02d18 <syscall>
ffffffc050401428:	00008717          	auipc	a4,0x8
ffffffc05040142c:	16070713          	addi	a4,a4,352 # ffffffc050409588 <kernel_mbox_open>
ffffffc050401430:	16e7b023          	sd	a4,352(a5)
ffffffc050401434:	00802797          	auipc	a5,0x802
ffffffc050401438:	8e478793          	addi	a5,a5,-1820 # ffffffc050c02d18 <syscall>
ffffffc05040143c:	00008717          	auipc	a4,0x8
ffffffc050401440:	35270713          	addi	a4,a4,850 # ffffffc05040978e <kernel_mbox_close>
ffffffc050401444:	16e7b423          	sd	a4,360(a5)
ffffffc050401448:	00802797          	auipc	a5,0x802
ffffffc05040144c:	8d078793          	addi	a5,a5,-1840 # ffffffc050c02d18 <syscall>
ffffffc050401450:	00008717          	auipc	a4,0x8
ffffffc050401454:	36670713          	addi	a4,a4,870 # ffffffc0504097b6 <kernel_mbox_send>
ffffffc050401458:	16e7b823          	sd	a4,368(a5)
ffffffc05040145c:	00802797          	auipc	a5,0x802
ffffffc050401460:	8bc78793          	addi	a5,a5,-1860 # ffffffc050c02d18 <syscall>
ffffffc050401464:	00008717          	auipc	a4,0x8
ffffffc050401468:	4ee70713          	addi	a4,a4,1262 # ffffffc050409952 <kernel_mbox_recv>
ffffffc05040146c:	16e7bc23          	sd	a4,376(a5)
ffffffc050401470:	00802797          	auipc	a5,0x802
ffffffc050401474:	8a878793          	addi	a5,a5,-1880 # ffffffc050c02d18 <syscall>
ffffffc050401478:	00002717          	auipc	a4,0x2
ffffffc05040147c:	9ba70713          	addi	a4,a4,-1606 # ffffffc050402e32 <kernel_screen_scroll_check>
ffffffc050401480:	18e7b023          	sd	a4,384(a5)
ffffffc050401484:	00802797          	auipc	a5,0x802
ffffffc050401488:	89478793          	addi	a5,a5,-1900 # ffffffc050c02d18 <syscall>
ffffffc05040148c:	fffff717          	auipc	a4,0xfffff
ffffffc050401490:	7b270713          	addi	a4,a4,1970 # ffffffc050400c3e <kernel_taskset>
ffffffc050401494:	18e7b423          	sd	a4,392(a5)
ffffffc050401498:	00802797          	auipc	a5,0x802
ffffffc05040149c:	88078793          	addi	a5,a5,-1920 # ffffffc050c02d18 <syscall>
ffffffc0504014a0:	00000717          	auipc	a4,0x0
ffffffc0504014a4:	8dc70713          	addi	a4,a4,-1828 # ffffffc050400d7c <do_exec>
ffffffc0504014a8:	18e7b823          	sd	a4,400(a5)
ffffffc0504014ac:	00802797          	auipc	a5,0x802
ffffffc0504014b0:	86c78793          	addi	a5,a5,-1940 # ffffffc050c02d18 <syscall>
ffffffc0504014b4:	00000717          	auipc	a4,0x0
ffffffc0504014b8:	86470713          	addi	a4,a4,-1948 # ffffffc050400d18 <do_show_exec>
ffffffc0504014bc:	18e7bc23          	sd	a4,408(a5)
ffffffc0504014c0:	00802797          	auipc	a5,0x802
ffffffc0504014c4:	85878793          	addi	a5,a5,-1960 # ffffffc050c02d18 <syscall>
ffffffc0504014c8:	0000a717          	auipc	a4,0xa
ffffffc0504014cc:	c9070713          	addi	a4,a4,-880 # ffffffc05040b158 <shm_page_get>
ffffffc0504014d0:	e7d8                	sd	a4,136(a5)
ffffffc0504014d2:	00802797          	auipc	a5,0x802
ffffffc0504014d6:	84678793          	addi	a5,a5,-1978 # ffffffc050c02d18 <syscall>
ffffffc0504014da:	0000a717          	auipc	a4,0xa
ffffffc0504014de:	f2c70713          	addi	a4,a4,-212 # ffffffc05040b406 <shm_page_dt>
ffffffc0504014e2:	ebd8                	sd	a4,144(a5)
ffffffc0504014e4:	00802797          	auipc	a5,0x802
ffffffc0504014e8:	83478793          	addi	a5,a5,-1996 # ffffffc050c02d18 <syscall>
ffffffc0504014ec:	00002717          	auipc	a4,0x2
ffffffc0504014f0:	9c870713          	addi	a4,a4,-1592 # ffffffc050402eb4 <do_net_recv>
ffffffc0504014f4:	1ae7bc23          	sd	a4,440(a5)
ffffffc0504014f8:	00802797          	auipc	a5,0x802
ffffffc0504014fc:	82078793          	addi	a5,a5,-2016 # ffffffc050c02d18 <syscall>
ffffffc050401500:	00002717          	auipc	a4,0x2
ffffffc050401504:	af070713          	addi	a4,a4,-1296 # ffffffc050402ff0 <do_net_send>
ffffffc050401508:	1ce7b023          	sd	a4,448(a5)
ffffffc05040150c:	00802797          	auipc	a5,0x802
ffffffc050401510:	80c78793          	addi	a5,a5,-2036 # ffffffc050c02d18 <syscall>
ffffffc050401514:	00002717          	auipc	a4,0x2
ffffffc050401518:	b3e70713          	addi	a4,a4,-1218 # ffffffc050403052 <do_net_irq_mode>
ffffffc05040151c:	1ce7b423          	sd	a4,456(a5)
ffffffc050401520:	0001                	nop
ffffffc050401522:	6462                	ld	s0,24(sp)
ffffffc050401524:	6105                	addi	sp,sp,32
ffffffc050401526:	8082                	ret

ffffffc050401528 <cancel_id_mapping>:
ffffffc050401528:	715d                	addi	sp,sp,-80
ffffffc05040152a:	e486                	sd	ra,72(sp)
ffffffc05040152c:	e0a2                	sd	s0,64(sp)
ffffffc05040152e:	fc26                	sd	s1,56(sp)
ffffffc050401530:	0880                	addi	s0,sp,80
ffffffc050401532:	502007b7          	lui	a5,0x50200
ffffffc050401536:	fcf43c23          	sd	a5,-40(s0)
ffffffc05040153a:	fe02f7b7          	lui	a5,0xfe02f
ffffffc05040153e:	07b6                	slli	a5,a5,0xd
ffffffc050401540:	fcf43823          	sd	a5,-48(s0)
ffffffc050401544:	fd843783          	ld	a5,-40(s0)
ffffffc050401548:	83f9                	srli	a5,a5,0x1e
ffffffc05040154a:	1ff7f793          	andi	a5,a5,511
ffffffc05040154e:	fcf43423          	sd	a5,-56(s0)
ffffffc050401552:	fd843783          	ld	a5,-40(s0)
ffffffc050401556:	83d5                	srli	a5,a5,0x15
ffffffc050401558:	1ff7f793          	andi	a5,a5,511
ffffffc05040155c:	fcf43023          	sd	a5,-64(s0)
ffffffc050401560:	fc843783          	ld	a5,-56(s0)
ffffffc050401564:	00379713          	slli	a4,a5,0x3
ffffffc050401568:	fd043783          	ld	a5,-48(s0)
ffffffc05040156c:	97ba                	add	a5,a5,a4
ffffffc05040156e:	faf43c23          	sd	a5,-72(s0)
ffffffc050401572:	fc043783          	ld	a5,-64(s0)
ffffffc050401576:	00379493          	slli	s1,a5,0x3
ffffffc05040157a:	fb843783          	ld	a5,-72(s0)
ffffffc05040157e:	639c                	ld	a5,0(a5)
ffffffc050401580:	853e                	mv	a0,a5
ffffffc050401582:	e9ffe0ef          	jal	ra,ffffffc050400420 <get_pa>
ffffffc050401586:	87aa                	mv	a5,a0
ffffffc050401588:	853e                	mv	a0,a5
ffffffc05040158a:	e7bfe0ef          	jal	ra,ffffffc050400404 <pa2kva>
ffffffc05040158e:	87aa                	mv	a5,a0
ffffffc050401590:	97a6                	add	a5,a5,s1
ffffffc050401592:	faf43823          	sd	a5,-80(s0)
ffffffc050401596:	fb843783          	ld	a5,-72(s0)
ffffffc05040159a:	0007b023          	sd	zero,0(a5) # fffffffffe02f000 <__BSS_END__+0x3fad42c0e0>
ffffffc05040159e:	fb043783          	ld	a5,-80(s0)
ffffffc0504015a2:	0007b023          	sd	zero,0(a5)
ffffffc0504015a6:	0001                	nop
ffffffc0504015a8:	60a6                	ld	ra,72(sp)
ffffffc0504015aa:	6406                	ld	s0,64(sp)
ffffffc0504015ac:	74e2                	ld	s1,56(sp)
ffffffc0504015ae:	6161                	addi	sp,sp,80
ffffffc0504015b0:	8082                	ret

ffffffc0504015b2 <setup_ethernet>:
ffffffc0504015b2:	7179                	addi	sp,sp,-48
ffffffc0504015b4:	f406                	sd	ra,40(sp)
ffffffc0504015b6:	f022                	sd	s0,32(sp)
ffffffc0504015b8:	1800                	addi	s0,sp,48
ffffffc0504015ba:	fe042623          	sw	zero,-20(s0)
ffffffc0504015be:	fe042423          	sw	zero,-24(s0)
ffffffc0504015c2:	4505                	li	a0,1
ffffffc0504015c4:	debfe0ef          	jal	ra,ffffffc0504003ae <sbi_read_fdt>
ffffffc0504015c8:	87aa                	mv	a5,a0
ffffffc0504015ca:	fef42623          	sw	a5,-20(s0)
ffffffc0504015ce:	fec42783          	lw	a5,-20(s0)
ffffffc0504015d2:	85be                	mv	a1,a5
ffffffc0504015d4:	0000b517          	auipc	a0,0xb
ffffffc0504015d8:	4f450513          	addi	a0,a0,1268 # ffffffc05040cac8 <get_elf_file+0x160>
ffffffc0504015dc:	2a80b0ef          	jal	ra,ffffffc05040c884 <printk>
ffffffc0504015e0:	4509                	li	a0,2
ffffffc0504015e2:	dcdfe0ef          	jal	ra,ffffffc0504003ae <sbi_read_fdt>
ffffffc0504015e6:	87aa                	mv	a5,a0
ffffffc0504015e8:	fef42423          	sw	a5,-24(s0)
ffffffc0504015ec:	fe842783          	lw	a5,-24(s0)
ffffffc0504015f0:	85be                	mv	a1,a5
ffffffc0504015f2:	0000b517          	auipc	a0,0xb
ffffffc0504015f6:	4ee50513          	addi	a0,a0,1262 # ffffffc05040cae0 <get_elf_file+0x178>
ffffffc0504015fa:	28a0b0ef          	jal	ra,ffffffc05040c884 <printk>
ffffffc0504015fe:	fe042223          	sw	zero,-28(s0)
ffffffc050401602:	450d                	li	a0,3
ffffffc050401604:	dabfe0ef          	jal	ra,ffffffc0504003ae <sbi_read_fdt>
ffffffc050401608:	87aa                	mv	a5,a0
ffffffc05040160a:	fef42223          	sw	a5,-28(s0)
ffffffc05040160e:	fe442783          	lw	a5,-28(s0)
ffffffc050401612:	85be                	mv	a1,a5
ffffffc050401614:	0000b517          	auipc	a0,0xb
ffffffc050401618:	4e450513          	addi	a0,a0,1252 # ffffffc05040caf8 <get_elf_file+0x190>
ffffffc05040161c:	2680b0ef          	jal	ra,ffffffc05040c884 <printk>
ffffffc050401620:	4511                	li	a0,4
ffffffc050401622:	d8dfe0ef          	jal	ra,ffffffc0504003ae <sbi_read_fdt>
ffffffc050401626:	87aa                	mv	a5,a0
ffffffc050401628:	fef42023          	sw	a5,-32(s0)
ffffffc05040162c:	fe042783          	lw	a5,-32(s0)
ffffffc050401630:	85be                	mv	a1,a5
ffffffc050401632:	0000b517          	auipc	a0,0xb
ffffffc050401636:	4de50513          	addi	a0,a0,1246 # ffffffc05040cb10 <get_elf_file+0x1a8>
ffffffc05040163a:	24a0b0ef          	jal	ra,ffffffc05040c884 <printk>
ffffffc05040163e:	fec46783          	lwu	a5,-20(s0)
ffffffc050401642:	6585                	lui	a1,0x1
ffffffc050401644:	853e                	mv	a0,a5
ffffffc050401646:	4de0a0ef          	jal	ra,ffffffc05040bb24 <ioremap>
ffffffc05040164a:	87aa                	mv	a5,a0
ffffffc05040164c:	873e                	mv	a4,a5
ffffffc05040164e:	003ff797          	auipc	a5,0x3ff
ffffffc050401652:	5fa78793          	addi	a5,a5,1530 # ffffffc050800c48 <XPS_SYS_CTRL_BASEADDR>
ffffffc050401656:	e398                	sd	a4,0(a5)
ffffffc050401658:	fe846783          	lwu	a5,-24(s0)
ffffffc05040165c:	6585                	lui	a1,0x1
ffffffc05040165e:	853e                	mv	a0,a5
ffffffc050401660:	4c40a0ef          	jal	ra,ffffffc05040bb24 <ioremap>
ffffffc050401664:	87aa                	mv	a5,a0
ffffffc050401666:	873e                	mv	a4,a5
ffffffc050401668:	007ff797          	auipc	a5,0x7ff
ffffffc05040166c:	9b078793          	addi	a5,a5,-1616 # ffffffc050c00018 <xemacps_config>
ffffffc050401670:	e798                	sd	a4,8(a5)
ffffffc050401672:	fe446783          	lwu	a5,-28(s0)
ffffffc050401676:	040005b7          	lui	a1,0x4000
ffffffc05040167a:	853e                	mv	a0,a5
ffffffc05040167c:	4a80a0ef          	jal	ra,ffffffc05040bb24 <ioremap>
ffffffc050401680:	87aa                	mv	a5,a0
ffffffc050401682:	fcf43c23          	sd	a5,-40(s0)
ffffffc050401686:	007ff797          	auipc	a5,0x7ff
ffffffc05040168a:	99278793          	addi	a5,a5,-1646 # ffffffc050c00018 <xemacps_config>
ffffffc05040168e:	00079023          	sh	zero,0(a5)
ffffffc050401692:	007ff797          	auipc	a5,0x7ff
ffffffc050401696:	98678793          	addi	a5,a5,-1658 # ffffffc050c00018 <xemacps_config>
ffffffc05040169a:	00078823          	sb	zero,16(a5)
ffffffc05040169e:	003ff797          	auipc	a5,0x3ff
ffffffc0504016a2:	5aa78793          	addi	a5,a5,1450 # ffffffc050800c48 <XPS_SYS_CTRL_BASEADDR>
ffffffc0504016a6:	6398                	ld	a4,0(a5)
ffffffc0504016a8:	fec42783          	lw	a5,-20(s0)
ffffffc0504016ac:	863a                	mv	a2,a4
ffffffc0504016ae:	85be                	mv	a1,a5
ffffffc0504016b0:	0000b517          	auipc	a0,0xb
ffffffc0504016b4:	47850513          	addi	a0,a0,1144 # ffffffc05040cb28 <get_elf_file+0x1c0>
ffffffc0504016b8:	1cc0b0ef          	jal	ra,ffffffc05040c884 <printk>
ffffffc0504016bc:	007ff797          	auipc	a5,0x7ff
ffffffc0504016c0:	95c78793          	addi	a5,a5,-1700 # ffffffc050c00018 <xemacps_config>
ffffffc0504016c4:	6798                	ld	a4,8(a5)
ffffffc0504016c6:	fe842783          	lw	a5,-24(s0)
ffffffc0504016ca:	863a                	mv	a2,a4
ffffffc0504016cc:	85be                	mv	a1,a5
ffffffc0504016ce:	0000b517          	auipc	a0,0xb
ffffffc0504016d2:	48250513          	addi	a0,a0,1154 # ffffffc05040cb50 <get_elf_file+0x1e8>
ffffffc0504016d6:	1ae0b0ef          	jal	ra,ffffffc05040c884 <printk>
ffffffc0504016da:	fe442783          	lw	a5,-28(s0)
ffffffc0504016de:	fd843603          	ld	a2,-40(s0)
ffffffc0504016e2:	85be                	mv	a1,a5
ffffffc0504016e4:	0000b517          	auipc	a0,0xb
ffffffc0504016e8:	49450513          	addi	a0,a0,1172 # ffffffc05040cb78 <get_elf_file+0x210>
ffffffc0504016ec:	1980b0ef          	jal	ra,ffffffc05040c884 <printk>
ffffffc0504016f0:	fe042783          	lw	a5,-32(s0)
ffffffc0504016f4:	85be                	mv	a1,a5
ffffffc0504016f6:	fd843503          	ld	a0,-40(s0)
ffffffc0504016fa:	403010ef          	jal	ra,ffffffc0504032fc <plic_init>
ffffffc0504016fe:	0020d517          	auipc	a0,0x20d
ffffffc050401702:	15a50513          	addi	a0,a0,346 # ffffffc05060e858 <EmacPsInstance>
ffffffc050401706:	64e060ef          	jal	ra,ffffffc050407d54 <EmacPsInit>
ffffffc05040170a:	fca43823          	sd	a0,-48(s0)
ffffffc05040170e:	fd043783          	ld	a5,-48(s0)
ffffffc050401712:	c39d                	beqz	a5,ffffffc050401738 <setup_ethernet+0x186>
ffffffc050401714:	0000b517          	auipc	a0,0xb
ffffffc050401718:	48450513          	addi	a0,a0,1156 # ffffffc05040cb98 <get_elf_file+0x230>
ffffffc05040171c:	1680b0ef          	jal	ra,ffffffc05040c884 <printk>
ffffffc050401720:	0000b617          	auipc	a2,0xb
ffffffc050401724:	4e860613          	addi	a2,a2,1256 # ffffffc05040cc08 <__FUNCTION__.2179>
ffffffc050401728:	18500593          	li	a1,389
ffffffc05040172c:	0000b517          	auipc	a0,0xb
ffffffc050401730:	49c50513          	addi	a0,a0,1180 # ffffffc05040cbc8 <get_elf_file+0x260>
ffffffc050401734:	ecffe0ef          	jal	ra,ffffffc050400602 <_panic>
ffffffc050401738:	0001                	nop
ffffffc05040173a:	70a2                	ld	ra,40(sp)
ffffffc05040173c:	7402                	ld	s0,32(sp)
ffffffc05040173e:	6145                	addi	sp,sp,48
ffffffc050401740:	8082                	ret

ffffffc050401742 <main>:
ffffffc050401742:	1141                	addi	sp,sp,-16
ffffffc050401744:	e406                	sd	ra,8(sp)
ffffffc050401746:	e022                	sd	s0,0(sp)
ffffffc050401748:	0800                	addi	s0,sp,16
ffffffc05040174a:	adfff0ef          	jal	ra,ffffffc050401228 <init_syscall>
ffffffc05040174e:	4501                	li	a0,0
ffffffc050401750:	c5ffe0ef          	jal	ra,ffffffc0504003ae <sbi_read_fdt>
ffffffc050401754:	87aa                	mv	a5,a0
ffffffc050401756:	0007871b          	sext.w	a4,a5
ffffffc05040175a:	00070797          	auipc	a5,0x70
ffffffc05040175e:	fd678793          	addi	a5,a5,-42 # ffffffc050471730 <time_base>
ffffffc050401762:	c398                	sw	a4,0(a5)
ffffffc050401764:	b6dfe0ef          	jal	ra,ffffffc0504002d0 <get_current_cpu_id>
ffffffc050401768:	87aa                	mv	a5,a0
ffffffc05040176a:	e3a5                	bnez	a5,ffffffc0504017ca <main+0x88>
ffffffc05040176c:	00201517          	auipc	a0,0x201
ffffffc050401770:	97c50513          	addi	a0,a0,-1668 # ffffffc0506020e8 <kernel_lock>
ffffffc050401774:	6f4070ef          	jal	ra,ffffffc050408e68 <spin_lock_init>
ffffffc050401778:	00201517          	auipc	a0,0x201
ffffffc05040177c:	97050513          	addi	a0,a0,-1680 # ffffffc0506020e8 <kernel_lock>
ffffffc050401780:	728070ef          	jal	ra,ffffffc050408ea8 <spin_lock_acquire>
ffffffc050401784:	00800797          	auipc	a5,0x800
ffffffc050401788:	f0c78793          	addi	a5,a5,-244 # ffffffc050c01690 <current_running>
ffffffc05040178c:	00201717          	auipc	a4,0x201
ffffffc050401790:	85470713          	addi	a4,a4,-1964 # ffffffc050601fe0 <current_running_core0>
ffffffc050401794:	e398                	sd	a4,0(a5)
ffffffc050401796:	00800797          	auipc	a5,0x800
ffffffc05040179a:	efa78793          	addi	a5,a5,-262 # ffffffc050c01690 <current_running>
ffffffc05040179e:	639c                	ld	a5,0(a5)
ffffffc0504017a0:	0000c717          	auipc	a4,0xc
ffffffc0504017a4:	28870713          	addi	a4,a4,648 # ffffffc05040da28 <pid0_pcb_core0>
ffffffc0504017a8:	e398                	sd	a4,0(a5)
ffffffc0504017aa:	e09ff0ef          	jal	ra,ffffffc0504015b2 <setup_ethernet>
ffffffc0504017ae:	c29fe0ef          	jal	ra,ffffffc0504003d6 <local_flush_tlb_all>
ffffffc0504017b2:	816ff0ef          	jal	ra,ffffffc0504007c8 <init_shell>
ffffffc0504017b6:	0000b517          	auipc	a0,0xb
ffffffc0504017ba:	42250513          	addi	a0,a0,1058 # ffffffc05040cbd8 <get_elf_file+0x270>
ffffffc0504017be:	0c60b0ef          	jal	ra,ffffffc05040c884 <printk>
ffffffc0504017c2:	4501                	li	a0,0
ffffffc0504017c4:	bc9fe0ef          	jal	ra,ffffffc05040038c <sbi_send_ipi>
ffffffc0504017c8:	a815                	j	ffffffc0504017fc <main+0xba>
ffffffc0504017ca:	00800797          	auipc	a5,0x800
ffffffc0504017ce:	ec678793          	addi	a5,a5,-314 # ffffffc050c01690 <current_running>
ffffffc0504017d2:	00201717          	auipc	a4,0x201
ffffffc0504017d6:	80670713          	addi	a4,a4,-2042 # ffffffc050601fd8 <current_running_core1>
ffffffc0504017da:	e398                	sd	a4,0(a5)
ffffffc0504017dc:	00800797          	auipc	a5,0x800
ffffffc0504017e0:	eb478793          	addi	a5,a5,-332 # ffffffc050c01690 <current_running>
ffffffc0504017e4:	639c                	ld	a5,0(a5)
ffffffc0504017e6:	0000c717          	auipc	a4,0xc
ffffffc0504017ea:	31a70713          	addi	a4,a4,794 # ffffffc05040db00 <pid0_pcb_core1>
ffffffc0504017ee:	e398                	sd	a4,0(a5)
ffffffc0504017f0:	0000b517          	auipc	a0,0xb
ffffffc0504017f4:	40050513          	addi	a0,a0,1024 # ffffffc05040cbf0 <get_elf_file+0x288>
ffffffc0504017f8:	08c0b0ef          	jal	ra,ffffffc05040c884 <printk>
ffffffc0504017fc:	403000ef          	jal	ra,ffffffc0504023fe <init_exception>
ffffffc050401800:	d29ff0ef          	jal	ra,ffffffc050401528 <cancel_id_mapping>
ffffffc050401804:	acdfe0ef          	jal	ra,ffffffc0504002d0 <get_current_cpu_id>
ffffffc050401808:	87aa                	mv	a5,a0
ffffffc05040180a:	e399                	bnez	a5,ffffffc050401810 <main+0xce>
ffffffc05040180c:	0d2010ef          	jal	ra,ffffffc0504028de <init_screen>
ffffffc050401810:	666090ef          	jal	ra,ffffffc05040ae76 <get_ticks>
ffffffc050401814:	872a                	mv	a4,a0
ffffffc050401816:	00070797          	auipc	a5,0x70
ffffffc05040181a:	f1a78793          	addi	a5,a5,-230 # ffffffc050471730 <time_base>
ffffffc05040181e:	439c                	lw	a5,0(a5)
ffffffc050401820:	86be                	mv	a3,a5
ffffffc050401822:	0c800793          	li	a5,200
ffffffc050401826:	02f6d7bb          	divuw	a5,a3,a5
ffffffc05040182a:	2781                	sext.w	a5,a5
ffffffc05040182c:	1782                	slli	a5,a5,0x20
ffffffc05040182e:	9381                	srli	a5,a5,0x20
ffffffc050401830:	97ba                	add	a5,a5,a4
ffffffc050401832:	853e                	mv	a0,a5
ffffffc050401834:	b39fe0ef          	jal	ra,ffffffc05040036c <sbi_set_timer>
ffffffc050401838:	00201517          	auipc	a0,0x201
ffffffc05040183c:	8b050513          	addi	a0,a0,-1872 # ffffffc0506020e8 <kernel_lock>
ffffffc050401840:	694070ef          	jal	ra,ffffffc050408ed4 <spin_lock_release>
ffffffc050401844:	8a1fe0ef          	jal	ra,ffffffc0504000e4 <enable_interrupt>
ffffffc050401848:	10500073          	wfi
ffffffc05040184c:	bfe5                	j	ffffffc050401844 <main+0x102>

ffffffc05040184e <_list_add>:
ffffffc05040184e:	7179                	addi	sp,sp,-48
ffffffc050401850:	f422                	sd	s0,40(sp)
ffffffc050401852:	1800                	addi	s0,sp,48
ffffffc050401854:	fea43423          	sd	a0,-24(s0)
ffffffc050401858:	feb43023          	sd	a1,-32(s0)
ffffffc05040185c:	fcc43c23          	sd	a2,-40(s0)
ffffffc050401860:	fd843783          	ld	a5,-40(s0)
ffffffc050401864:	fe843703          	ld	a4,-24(s0)
ffffffc050401868:	e798                	sd	a4,8(a5)
ffffffc05040186a:	fe843783          	ld	a5,-24(s0)
ffffffc05040186e:	fd843703          	ld	a4,-40(s0)
ffffffc050401872:	e398                	sd	a4,0(a5)
ffffffc050401874:	fe843783          	ld	a5,-24(s0)
ffffffc050401878:	fe043703          	ld	a4,-32(s0)
ffffffc05040187c:	e798                	sd	a4,8(a5)
ffffffc05040187e:	fe043783          	ld	a5,-32(s0)
ffffffc050401882:	fe843703          	ld	a4,-24(s0)
ffffffc050401886:	e398                	sd	a4,0(a5)
ffffffc050401888:	0001                	nop
ffffffc05040188a:	7422                	ld	s0,40(sp)
ffffffc05040188c:	6145                	addi	sp,sp,48
ffffffc05040188e:	8082                	ret

ffffffc050401890 <list_add_tail>:
ffffffc050401890:	1101                	addi	sp,sp,-32
ffffffc050401892:	ec06                	sd	ra,24(sp)
ffffffc050401894:	e822                	sd	s0,16(sp)
ffffffc050401896:	1000                	addi	s0,sp,32
ffffffc050401898:	fea43423          	sd	a0,-24(s0)
ffffffc05040189c:	feb43023          	sd	a1,-32(s0)
ffffffc0504018a0:	fe043783          	ld	a5,-32(s0)
ffffffc0504018a4:	679c                	ld	a5,8(a5)
ffffffc0504018a6:	fe043603          	ld	a2,-32(s0)
ffffffc0504018aa:	85be                	mv	a1,a5
ffffffc0504018ac:	fe843503          	ld	a0,-24(s0)
ffffffc0504018b0:	f9fff0ef          	jal	ra,ffffffc05040184e <_list_add>
ffffffc0504018b4:	0001                	nop
ffffffc0504018b6:	60e2                	ld	ra,24(sp)
ffffffc0504018b8:	6442                	ld	s0,16(sp)
ffffffc0504018ba:	6105                	addi	sp,sp,32
ffffffc0504018bc:	8082                	ret

ffffffc0504018be <list_empty>:
ffffffc0504018be:	1101                	addi	sp,sp,-32
ffffffc0504018c0:	ec22                	sd	s0,24(sp)
ffffffc0504018c2:	1000                	addi	s0,sp,32
ffffffc0504018c4:	fea43423          	sd	a0,-24(s0)
ffffffc0504018c8:	fe843783          	ld	a5,-24(s0)
ffffffc0504018cc:	639c                	ld	a5,0(a5)
ffffffc0504018ce:	fe843703          	ld	a4,-24(s0)
ffffffc0504018d2:	40f707b3          	sub	a5,a4,a5
ffffffc0504018d6:	0017b793          	seqz	a5,a5
ffffffc0504018da:	0ff7f793          	andi	a5,a5,255
ffffffc0504018de:	2781                	sext.w	a5,a5
ffffffc0504018e0:	853e                	mv	a0,a5
ffffffc0504018e2:	6462                	ld	s0,24(sp)
ffffffc0504018e4:	6105                	addi	sp,sp,32
ffffffc0504018e6:	8082                	ret

ffffffc0504018e8 <sbi_sd_write>:
ffffffc0504018e8:	1101                	addi	sp,sp,-32
ffffffc0504018ea:	ec22                	sd	s0,24(sp)
ffffffc0504018ec:	1000                	addi	s0,sp,32
ffffffc0504018ee:	87aa                	mv	a5,a0
ffffffc0504018f0:	86ae                	mv	a3,a1
ffffffc0504018f2:	8732                	mv	a4,a2
ffffffc0504018f4:	fef42623          	sw	a5,-20(s0)
ffffffc0504018f8:	87b6                	mv	a5,a3
ffffffc0504018fa:	fef42423          	sw	a5,-24(s0)
ffffffc0504018fe:	87ba                	mv	a5,a4
ffffffc050401900:	fef42223          	sw	a5,-28(s0)
ffffffc050401904:	fec46783          	lwu	a5,-20(s0)
ffffffc050401908:	853e                	mv	a0,a5
ffffffc05040190a:	fe846783          	lwu	a5,-24(s0)
ffffffc05040190e:	85be                	mv	a1,a5
ffffffc050401910:	fe446783          	lwu	a5,-28(s0)
ffffffc050401914:	863e                	mv	a2,a5
ffffffc050401916:	48a9                	li	a7,10
ffffffc050401918:	00000073          	ecall
ffffffc05040191c:	87aa                	mv	a5,a0
ffffffc05040191e:	853e                	mv	a0,a5
ffffffc050401920:	6462                	ld	s0,24(sp)
ffffffc050401922:	6105                	addi	sp,sp,32
ffffffc050401924:	8082                	ret

ffffffc050401926 <sbi_sd_read>:
ffffffc050401926:	1101                	addi	sp,sp,-32
ffffffc050401928:	ec22                	sd	s0,24(sp)
ffffffc05040192a:	1000                	addi	s0,sp,32
ffffffc05040192c:	87aa                	mv	a5,a0
ffffffc05040192e:	86ae                	mv	a3,a1
ffffffc050401930:	8732                	mv	a4,a2
ffffffc050401932:	fef42623          	sw	a5,-20(s0)
ffffffc050401936:	87b6                	mv	a5,a3
ffffffc050401938:	fef42423          	sw	a5,-24(s0)
ffffffc05040193c:	87ba                	mv	a5,a4
ffffffc05040193e:	fef42223          	sw	a5,-28(s0)
ffffffc050401942:	fec46783          	lwu	a5,-20(s0)
ffffffc050401946:	853e                	mv	a0,a5
ffffffc050401948:	fe846783          	lwu	a5,-24(s0)
ffffffc05040194c:	85be                	mv	a1,a5
ffffffc05040194e:	fe446783          	lwu	a5,-28(s0)
ffffffc050401952:	863e                	mv	a2,a5
ffffffc050401954:	48ad                	li	a7,11
ffffffc050401956:	00000073          	ecall
ffffffc05040195a:	87aa                	mv	a5,a0
ffffffc05040195c:	853e                	mv	a0,a5
ffffffc05040195e:	6462                	ld	s0,24(sp)
ffffffc050401960:	6105                	addi	sp,sp,32
ffffffc050401962:	8082                	ret

ffffffc050401964 <sbi_set_timer>:
ffffffc050401964:	1101                	addi	sp,sp,-32
ffffffc050401966:	ec22                	sd	s0,24(sp)
ffffffc050401968:	1000                	addi	s0,sp,32
ffffffc05040196a:	fea43423          	sd	a0,-24(s0)
ffffffc05040196e:	fe843503          	ld	a0,-24(s0)
ffffffc050401972:	4581                	li	a1,0
ffffffc050401974:	4601                	li	a2,0
ffffffc050401976:	4881                	li	a7,0
ffffffc050401978:	00000073          	ecall
ffffffc05040197c:	0001                	nop
ffffffc05040197e:	6462                	ld	s0,24(sp)
ffffffc050401980:	6105                	addi	sp,sp,32
ffffffc050401982:	8082                	ret

ffffffc050401984 <local_flush_tlb_all>:
ffffffc050401984:	1141                	addi	sp,sp,-16
ffffffc050401986:	e422                	sd	s0,8(sp)
ffffffc050401988:	0800                	addi	s0,sp,16
ffffffc05040198a:	12000073          	sfence.vma
ffffffc05040198e:	0001                	nop
ffffffc050401990:	6422                	ld	s0,8(sp)
ffffffc050401992:	0141                	addi	sp,sp,16
ffffffc050401994:	8082                	ret

ffffffc050401996 <kva2pa>:
ffffffc050401996:	1101                	addi	sp,sp,-32
ffffffc050401998:	ec22                	sd	s0,24(sp)
ffffffc05040199a:	1000                	addi	s0,sp,32
ffffffc05040199c:	fea43423          	sd	a0,-24(s0)
ffffffc0504019a0:	fe843703          	ld	a4,-24(s0)
ffffffc0504019a4:	4785                	li	a5,1
ffffffc0504019a6:	179a                	slli	a5,a5,0x26
ffffffc0504019a8:	97ba                	add	a5,a5,a4
ffffffc0504019aa:	853e                	mv	a0,a5
ffffffc0504019ac:	6462                	ld	s0,24(sp)
ffffffc0504019ae:	6105                	addi	sp,sp,32
ffffffc0504019b0:	8082                	ret

ffffffc0504019b2 <pa2kva>:
ffffffc0504019b2:	1101                	addi	sp,sp,-32
ffffffc0504019b4:	ec22                	sd	s0,24(sp)
ffffffc0504019b6:	1000                	addi	s0,sp,32
ffffffc0504019b8:	fea43423          	sd	a0,-24(s0)
ffffffc0504019bc:	fe843703          	ld	a4,-24(s0)
ffffffc0504019c0:	57fd                	li	a5,-1
ffffffc0504019c2:	179a                	slli	a5,a5,0x26
ffffffc0504019c4:	97ba                	add	a5,a5,a4
ffffffc0504019c6:	853e                	mv	a0,a5
ffffffc0504019c8:	6462                	ld	s0,24(sp)
ffffffc0504019ca:	6105                	addi	sp,sp,32
ffffffc0504019cc:	8082                	ret

ffffffc0504019ce <set_attribute>:
ffffffc0504019ce:	1101                	addi	sp,sp,-32
ffffffc0504019d0:	ec22                	sd	s0,24(sp)
ffffffc0504019d2:	1000                	addi	s0,sp,32
ffffffc0504019d4:	fea43423          	sd	a0,-24(s0)
ffffffc0504019d8:	feb43023          	sd	a1,-32(s0)
ffffffc0504019dc:	fe843783          	ld	a5,-24(s0)
ffffffc0504019e0:	6398                	ld	a4,0(a5)
ffffffc0504019e2:	fe043783          	ld	a5,-32(s0)
ffffffc0504019e6:	8f5d                	or	a4,a4,a5
ffffffc0504019e8:	fe843783          	ld	a5,-24(s0)
ffffffc0504019ec:	e398                	sd	a4,0(a5)
ffffffc0504019ee:	0001                	nop
ffffffc0504019f0:	6462                	ld	s0,24(sp)
ffffffc0504019f2:	6105                	addi	sp,sp,32
ffffffc0504019f4:	8082                	ret

ffffffc0504019f6 <_panic>:
ffffffc0504019f6:	7179                	addi	sp,sp,-48
ffffffc0504019f8:	f406                	sd	ra,40(sp)
ffffffc0504019fa:	f022                	sd	s0,32(sp)
ffffffc0504019fc:	1800                	addi	s0,sp,48
ffffffc0504019fe:	fea43423          	sd	a0,-24(s0)
ffffffc050401a02:	87ae                	mv	a5,a1
ffffffc050401a04:	fcc43c23          	sd	a2,-40(s0)
ffffffc050401a08:	fef42223          	sw	a5,-28(s0)
ffffffc050401a0c:	fe442783          	lw	a5,-28(s0)
ffffffc050401a10:	86be                	mv	a3,a5
ffffffc050401a12:	fe843603          	ld	a2,-24(s0)
ffffffc050401a16:	fd843583          	ld	a1,-40(s0)
ffffffc050401a1a:	0000b517          	auipc	a0,0xb
ffffffc050401a1e:	2fe50513          	addi	a0,a0,766 # ffffffc05040cd18 <__FUNCTION__.2179+0x110>
ffffffc050401a22:	6630a0ef          	jal	ra,ffffffc05040c884 <printk>
ffffffc050401a26:	a001                	j	ffffffc050401a26 <_panic+0x30>

ffffffc050401a28 <handle_irq>:
ffffffc050401a28:	7179                	addi	sp,sp,-48
ffffffc050401a2a:	f406                	sd	ra,40(sp)
ffffffc050401a2c:	f022                	sd	s0,32(sp)
ffffffc050401a2e:	1800                	addi	s0,sp,48
ffffffc050401a30:	fca43c23          	sd	a0,-40(s0)
ffffffc050401a34:	87ae                	mv	a5,a1
ffffffc050401a36:	fcf42a23          	sw	a5,-44(s0)
ffffffc050401a3a:	0020d517          	auipc	a0,0x20d
ffffffc050401a3e:	e1e50513          	addi	a0,a0,-482 # ffffffc05060e858 <EmacPsInstance>
ffffffc050401a42:	295060ef          	jal	ra,ffffffc0504084d6 <JudgeIntr>
ffffffc050401a46:	87aa                	mv	a5,a0
ffffffc050401a48:	fef42623          	sw	a5,-20(s0)
ffffffc050401a4c:	0020d517          	auipc	a0,0x20d
ffffffc050401a50:	e0c50513          	addi	a0,a0,-500 # ffffffc05060e858 <EmacPsInstance>
ffffffc050401a54:	305060ef          	jal	ra,ffffffc050408558 <ReadRXSR>
ffffffc050401a58:	87aa                	mv	a5,a0
ffffffc050401a5a:	c799                	beqz	a5,ffffffc050401a68 <handle_irq+0x40>
ffffffc050401a5c:	0020d517          	auipc	a0,0x20d
ffffffc050401a60:	dfc50513          	addi	a0,a0,-516 # ffffffc05060e858 <EmacPsInstance>
ffffffc050401a64:	37b060ef          	jal	ra,ffffffc0504085de <ClearRXSR>
ffffffc050401a68:	0020d517          	auipc	a0,0x20d
ffffffc050401a6c:	df050513          	addi	a0,a0,-528 # ffffffc05060e858 <EmacPsInstance>
ffffffc050401a70:	2b9060ef          	jal	ra,ffffffc050408528 <ReadTXSR>
ffffffc050401a74:	87aa                	mv	a5,a0
ffffffc050401a76:	c799                	beqz	a5,ffffffc050401a84 <handle_irq+0x5c>
ffffffc050401a78:	0020d517          	auipc	a0,0x20d
ffffffc050401a7c:	de050513          	addi	a0,a0,-544 # ffffffc05060e858 <EmacPsInstance>
ffffffc050401a80:	309060ef          	jal	ra,ffffffc050408588 <ClearTXSR>
ffffffc050401a84:	fec42783          	lw	a5,-20(s0)
ffffffc050401a88:	8b85                	andi	a5,a5,1
ffffffc050401a8a:	2781                	sext.w	a5,a5
ffffffc050401a8c:	e38d                	bnez	a5,ffffffc050401aae <handle_irq+0x86>
ffffffc050401a8e:	0000c517          	auipc	a0,0xc
ffffffc050401a92:	f8a50513          	addi	a0,a0,-118 # ffffffc05040da18 <net_send_queue>
ffffffc050401a96:	e29ff0ef          	jal	ra,ffffffc0504018be <list_empty>
ffffffc050401a9a:	87aa                	mv	a5,a0
ffffffc050401a9c:	eb89                	bnez	a5,ffffffc050401aae <handle_irq+0x86>
ffffffc050401a9e:	0000c797          	auipc	a5,0xc
ffffffc050401aa2:	f7a78793          	addi	a5,a5,-134 # ffffffc05040da18 <net_send_queue>
ffffffc050401aa6:	639c                	ld	a5,0(a5)
ffffffc050401aa8:	853e                	mv	a0,a5
ffffffc050401aaa:	7bd080ef          	jal	ra,ffffffc05040aa66 <do_unblock>
ffffffc050401aae:	fec42783          	lw	a5,-20(s0)
ffffffc050401ab2:	2781                	sext.w	a5,a5
ffffffc050401ab4:	c38d                	beqz	a5,ffffffc050401ad6 <handle_irq+0xae>
ffffffc050401ab6:	0000c517          	auipc	a0,0xc
ffffffc050401aba:	f5250513          	addi	a0,a0,-174 # ffffffc05040da08 <net_recv_queue>
ffffffc050401abe:	e01ff0ef          	jal	ra,ffffffc0504018be <list_empty>
ffffffc050401ac2:	87aa                	mv	a5,a0
ffffffc050401ac4:	eb89                	bnez	a5,ffffffc050401ad6 <handle_irq+0xae>
ffffffc050401ac6:	0000c797          	auipc	a5,0xc
ffffffc050401aca:	f4278793          	addi	a5,a5,-190 # ffffffc05040da08 <net_recv_queue>
ffffffc050401ace:	639c                	ld	a5,0(a5)
ffffffc050401ad0:	853e                	mv	a0,a5
ffffffc050401ad2:	795080ef          	jal	ra,ffffffc05040aa66 <do_unblock>
ffffffc050401ad6:	fd442783          	lw	a5,-44(s0)
ffffffc050401ada:	853e                	mv	a0,a5
ffffffc050401adc:	772010ef          	jal	ra,ffffffc05040324e <plic_irq_eoi>
ffffffc050401ae0:	0001                	nop
ffffffc050401ae2:	70a2                	ld	ra,40(sp)
ffffffc050401ae4:	7402                	ld	s0,32(sp)
ffffffc050401ae6:	6145                	addi	sp,sp,48
ffffffc050401ae8:	8082                	ret

ffffffc050401aea <disk2mem>:
ffffffc050401aea:	7179                	addi	sp,sp,-48
ffffffc050401aec:	f406                	sd	ra,40(sp)
ffffffc050401aee:	f022                	sd	s0,32(sp)
ffffffc050401af0:	1800                	addi	s0,sp,48
ffffffc050401af2:	87aa                	mv	a5,a0
ffffffc050401af4:	872e                	mv	a4,a1
ffffffc050401af6:	fec43023          	sd	a2,-32(s0)
ffffffc050401afa:	fcd43c23          	sd	a3,-40(s0)
ffffffc050401afe:	fef42623          	sw	a5,-20(s0)
ffffffc050401b02:	87ba                	mv	a5,a4
ffffffc050401b04:	fef42423          	sw	a5,-24(s0)
ffffffc050401b08:	fe043783          	ld	a5,-32(s0)
ffffffc050401b0c:	2781                	sext.w	a5,a5
ffffffc050401b0e:	fe842703          	lw	a4,-24(s0)
ffffffc050401b12:	fec42683          	lw	a3,-20(s0)
ffffffc050401b16:	8636                	mv	a2,a3
ffffffc050401b18:	85ba                	mv	a1,a4
ffffffc050401b1a:	853e                	mv	a0,a5
ffffffc050401b1c:	e0bff0ef          	jal	ra,ffffffc050401926 <sbi_sd_read>
ffffffc050401b20:	fe842703          	lw	a4,-24(s0)
ffffffc050401b24:	fec42783          	lw	a5,-20(s0)
ffffffc050401b28:	fd843683          	ld	a3,-40(s0)
ffffffc050401b2c:	fe043603          	ld	a2,-32(s0)
ffffffc050401b30:	85be                	mv	a1,a5
ffffffc050401b32:	0000b517          	auipc	a0,0xb
ffffffc050401b36:	20e50513          	addi	a0,a0,526 # ffffffc05040cd40 <__FUNCTION__.2179+0x138>
ffffffc050401b3a:	5d30a0ef          	jal	ra,ffffffc05040c90c <prints>
ffffffc050401b3e:	781000ef          	jal	ra,ffffffc050402abe <screen_reflush>
ffffffc050401b42:	0001                	nop
ffffffc050401b44:	70a2                	ld	ra,40(sp)
ffffffc050401b46:	7402                	ld	s0,32(sp)
ffffffc050401b48:	6145                	addi	sp,sp,48
ffffffc050401b4a:	8082                	ret

ffffffc050401b4c <mem2disk>:
ffffffc050401b4c:	7179                	addi	sp,sp,-48
ffffffc050401b4e:	f406                	sd	ra,40(sp)
ffffffc050401b50:	f022                	sd	s0,32(sp)
ffffffc050401b52:	1800                	addi	s0,sp,48
ffffffc050401b54:	87aa                	mv	a5,a0
ffffffc050401b56:	872e                	mv	a4,a1
ffffffc050401b58:	fec43023          	sd	a2,-32(s0)
ffffffc050401b5c:	fcd43c23          	sd	a3,-40(s0)
ffffffc050401b60:	fef42623          	sw	a5,-20(s0)
ffffffc050401b64:	87ba                	mv	a5,a4
ffffffc050401b66:	fef42423          	sw	a5,-24(s0)
ffffffc050401b6a:	fe043783          	ld	a5,-32(s0)
ffffffc050401b6e:	2781                	sext.w	a5,a5
ffffffc050401b70:	fe842703          	lw	a4,-24(s0)
ffffffc050401b74:	fec42683          	lw	a3,-20(s0)
ffffffc050401b78:	8636                	mv	a2,a3
ffffffc050401b7a:	85ba                	mv	a1,a4
ffffffc050401b7c:	853e                	mv	a0,a5
ffffffc050401b7e:	d6bff0ef          	jal	ra,ffffffc0504018e8 <sbi_sd_write>
ffffffc050401b82:	fe842703          	lw	a4,-24(s0)
ffffffc050401b86:	fec42783          	lw	a5,-20(s0)
ffffffc050401b8a:	86be                	mv	a3,a5
ffffffc050401b8c:	fd843603          	ld	a2,-40(s0)
ffffffc050401b90:	fe043583          	ld	a1,-32(s0)
ffffffc050401b94:	0000b517          	auipc	a0,0xb
ffffffc050401b98:	1ec50513          	addi	a0,a0,492 # ffffffc05040cd80 <__FUNCTION__.2179+0x178>
ffffffc050401b9c:	5710a0ef          	jal	ra,ffffffc05040c90c <prints>
ffffffc050401ba0:	71f000ef          	jal	ra,ffffffc050402abe <screen_reflush>
ffffffc050401ba4:	0001                	nop
ffffffc050401ba6:	70a2                	ld	ra,40(sp)
ffffffc050401ba8:	7402                	ld	s0,32(sp)
ffffffc050401baa:	6145                	addi	sp,sp,48
ffffffc050401bac:	8082                	ret

ffffffc050401bae <clock_unblock>:
ffffffc050401bae:	7139                	addi	sp,sp,-64
ffffffc050401bb0:	fc06                	sd	ra,56(sp)
ffffffc050401bb2:	f822                	sd	s0,48(sp)
ffffffc050401bb4:	0080                	addi	s0,sp,64
ffffffc050401bb6:	fca43423          	sd	a0,-56(s0)
ffffffc050401bba:	fcb43023          	sd	a1,-64(s0)
ffffffc050401bbe:	fc843783          	ld	a5,-56(s0)
ffffffc050401bc2:	63fc                	ld	a5,192(a5)
ffffffc050401bc4:	fef43423          	sd	a5,-24(s0)
ffffffc050401bc8:	fe043023          	sd	zero,-32(s0)
ffffffc050401bcc:	a061                	j	ffffffc050401c54 <clock_unblock+0xa6>
ffffffc050401bce:	fe843783          	ld	a5,-24(s0)
ffffffc050401bd2:	fcf43c23          	sd	a5,-40(s0)
ffffffc050401bd6:	fd843783          	ld	a5,-40(s0)
ffffffc050401bda:	1781                	addi	a5,a5,-32
ffffffc050401bdc:	fef43023          	sd	a5,-32(s0)
ffffffc050401be0:	fe043783          	ld	a5,-32(s0)
ffffffc050401be4:	679c                	ld	a5,8(a5)
ffffffc050401be6:	fc043703          	ld	a4,-64(s0)
ffffffc050401bea:	06f71063          	bne	a4,a5,ffffffc050401c4a <clock_unblock+0x9c>
ffffffc050401bee:	fc843783          	ld	a5,-56(s0)
ffffffc050401bf2:	0d07a783          	lw	a5,208(a5)
ffffffc050401bf6:	2785                	addiw	a5,a5,1
ffffffc050401bf8:	0007871b          	sext.w	a4,a5
ffffffc050401bfc:	fc843783          	ld	a5,-56(s0)
ffffffc050401c00:	0ce7a823          	sw	a4,208(a5)
ffffffc050401c04:	fe043783          	ld	a5,-32(s0)
ffffffc050401c08:	4bd8                	lw	a4,20(a5)
ffffffc050401c0a:	fe043783          	ld	a5,-32(s0)
ffffffc050401c0e:	6390                	ld	a2,0(a5)
ffffffc050401c10:	fe043783          	ld	a5,-32(s0)
ffffffc050401c14:	679c                	ld	a5,8(a5)
ffffffc050401c16:	86be                	mv	a3,a5
ffffffc050401c18:	45a1                	li	a1,8
ffffffc050401c1a:	853a                	mv	a0,a4
ffffffc050401c1c:	ecfff0ef          	jal	ra,ffffffc050401aea <disk2mem>
ffffffc050401c20:	fe043783          	ld	a5,-32(s0)
ffffffc050401c24:	6f9c                	ld	a5,24(a5)
ffffffc050401c26:	fcf43823          	sd	a5,-48(s0)
ffffffc050401c2a:	0c100593          	li	a1,193
ffffffc050401c2e:	fd043503          	ld	a0,-48(s0)
ffffffc050401c32:	d9dff0ef          	jal	ra,ffffffc0504019ce <set_attribute>
ffffffc050401c36:	fe043783          	ld	a5,-32(s0)
ffffffc050401c3a:	0007a823          	sw	zero,16(a5)
ffffffc050401c3e:	fe043783          	ld	a5,-32(s0)
ffffffc050401c42:	0007aa23          	sw	zero,20(a5)
ffffffc050401c46:	4785                	li	a5,1
ffffffc050401c48:	a839                	j	ffffffc050401c66 <clock_unblock+0xb8>
ffffffc050401c4a:	fe843783          	ld	a5,-24(s0)
ffffffc050401c4e:	639c                	ld	a5,0(a5)
ffffffc050401c50:	fef43423          	sd	a5,-24(s0)
ffffffc050401c54:	fc843783          	ld	a5,-56(s0)
ffffffc050401c58:	0c078793          	addi	a5,a5,192
ffffffc050401c5c:	fe843703          	ld	a4,-24(s0)
ffffffc050401c60:	f6f717e3          	bne	a4,a5,ffffffc050401bce <clock_unblock+0x20>
ffffffc050401c64:	4781                	li	a5,0
ffffffc050401c66:	853e                	mv	a0,a5
ffffffc050401c68:	70e2                	ld	ra,56(sp)
ffffffc050401c6a:	7442                	ld	s0,48(sp)
ffffffc050401c6c:	6121                	addi	sp,sp,64
ffffffc050401c6e:	8082                	ret

ffffffc050401c70 <clock_block>:
ffffffc050401c70:	7159                	addi	sp,sp,-112
ffffffc050401c72:	f486                	sd	ra,104(sp)
ffffffc050401c74:	f0a2                	sd	s0,96(sp)
ffffffc050401c76:	eca6                	sd	s1,88(sp)
ffffffc050401c78:	1880                	addi	s0,sp,112
ffffffc050401c7a:	f8a43c23          	sd	a0,-104(s0)
ffffffc050401c7e:	f9843783          	ld	a5,-104(s0)
ffffffc050401c82:	63fc                	ld	a5,192(a5)
ffffffc050401c84:	fcf43c23          	sd	a5,-40(s0)
ffffffc050401c88:	fc043823          	sd	zero,-48(s0)
ffffffc050401c8c:	a8f5                	j	ffffffc050401d88 <clock_block+0x118>
ffffffc050401c8e:	fd843783          	ld	a5,-40(s0)
ffffffc050401c92:	faf43423          	sd	a5,-88(s0)
ffffffc050401c96:	fa843783          	ld	a5,-88(s0)
ffffffc050401c9a:	1781                	addi	a5,a5,-32
ffffffc050401c9c:	fcf43823          	sd	a5,-48(s0)
ffffffc050401ca0:	fd043783          	ld	a5,-48(s0)
ffffffc050401ca4:	4b9c                	lw	a5,16(a5)
ffffffc050401ca6:	efe1                	bnez	a5,ffffffc050401d7e <clock_block+0x10e>
ffffffc050401ca8:	fd043783          	ld	a5,-48(s0)
ffffffc050401cac:	6784                	ld	s1,8(a5)
ffffffc050401cae:	f9843783          	ld	a5,-104(s0)
ffffffc050401cb2:	7fdc                	ld	a5,184(a5)
ffffffc050401cb4:	853e                	mv	a0,a5
ffffffc050401cb6:	cfdff0ef          	jal	ra,ffffffc0504019b2 <pa2kva>
ffffffc050401cba:	87aa                	mv	a5,a0
ffffffc050401cbc:	85be                	mv	a1,a5
ffffffc050401cbe:	8526                	mv	a0,s1
ffffffc050401cc0:	491090ef          	jal	ra,ffffffc05040b950 <check_page_helper>
ffffffc050401cc4:	87aa                	mv	a5,a0
ffffffc050401cc6:	faf43023          	sd	a5,-96(s0)
ffffffc050401cca:	fd043783          	ld	a5,-48(s0)
ffffffc050401cce:	4b9c                	lw	a5,16(a5)
ffffffc050401cd0:	efd9                	bnez	a5,ffffffc050401d6e <clock_block+0xfe>
ffffffc050401cd2:	fa043783          	ld	a5,-96(s0)
ffffffc050401cd6:	639c                	ld	a5,0(a5)
ffffffc050401cd8:	0407f793          	andi	a5,a5,64
ffffffc050401cdc:	ebc9                	bnez	a5,ffffffc050401d6e <clock_block+0xfe>
ffffffc050401cde:	fa043783          	ld	a5,-96(s0)
ffffffc050401ce2:	639c                	ld	a5,0(a5)
ffffffc050401ce4:	0807f793          	andi	a5,a5,128
ffffffc050401ce8:	e3d9                	bnez	a5,ffffffc050401d6e <clock_block+0xfe>
ffffffc050401cea:	00070797          	auipc	a5,0x70
ffffffc050401cee:	9ce78793          	addi	a5,a5,-1586 # ffffffc0504716b8 <bid>
ffffffc050401cf2:	4398                	lw	a4,0(a5)
ffffffc050401cf4:	fd043783          	ld	a5,-48(s0)
ffffffc050401cf8:	6390                	ld	a2,0(a5)
ffffffc050401cfa:	fd043783          	ld	a5,-48(s0)
ffffffc050401cfe:	679c                	ld	a5,8(a5)
ffffffc050401d00:	86be                	mv	a3,a5
ffffffc050401d02:	45a1                	li	a1,8
ffffffc050401d04:	853a                	mv	a0,a4
ffffffc050401d06:	e47ff0ef          	jal	ra,ffffffc050401b4c <mem2disk>
ffffffc050401d0a:	fd043783          	ld	a5,-48(s0)
ffffffc050401d0e:	4705                	li	a4,1
ffffffc050401d10:	cb98                	sw	a4,16(a5)
ffffffc050401d12:	00070797          	auipc	a5,0x70
ffffffc050401d16:	9a678793          	addi	a5,a5,-1626 # ffffffc0504716b8 <bid>
ffffffc050401d1a:	4398                	lw	a4,0(a5)
ffffffc050401d1c:	fd043783          	ld	a5,-48(s0)
ffffffc050401d20:	cbd8                	sw	a4,20(a5)
ffffffc050401d22:	fa043703          	ld	a4,-96(s0)
ffffffc050401d26:	fd043783          	ld	a5,-48(s0)
ffffffc050401d2a:	ef98                	sd	a4,24(a5)
ffffffc050401d2c:	00070797          	auipc	a5,0x70
ffffffc050401d30:	98c78793          	addi	a5,a5,-1652 # ffffffc0504716b8 <bid>
ffffffc050401d34:	439c                	lw	a5,0(a5)
ffffffc050401d36:	27a1                	addiw	a5,a5,8
ffffffc050401d38:	0007871b          	sext.w	a4,a5
ffffffc050401d3c:	00070797          	auipc	a5,0x70
ffffffc050401d40:	97c78793          	addi	a5,a5,-1668 # ffffffc0504716b8 <bid>
ffffffc050401d44:	c398                	sw	a4,0(a5)
ffffffc050401d46:	fa043783          	ld	a5,-96(s0)
ffffffc050401d4a:	639c                	ld	a5,0(a5)
ffffffc050401d4c:	ffe7f713          	andi	a4,a5,-2
ffffffc050401d50:	fa043783          	ld	a5,-96(s0)
ffffffc050401d54:	e398                	sd	a4,0(a5)
ffffffc050401d56:	f9843783          	ld	a5,-104(s0)
ffffffc050401d5a:	0d07a783          	lw	a5,208(a5)
ffffffc050401d5e:	37fd                	addiw	a5,a5,-1
ffffffc050401d60:	0007871b          	sext.w	a4,a5
ffffffc050401d64:	f9843783          	ld	a5,-104(s0)
ffffffc050401d68:	0ce7a823          	sw	a4,208(a5)
ffffffc050401d6c:	ac05                	j	ffffffc050401f9c <clock_block+0x32c>
ffffffc050401d6e:	fa043783          	ld	a5,-96(s0)
ffffffc050401d72:	639c                	ld	a5,0(a5)
ffffffc050401d74:	fbf7f713          	andi	a4,a5,-65
ffffffc050401d78:	fa043783          	ld	a5,-96(s0)
ffffffc050401d7c:	e398                	sd	a4,0(a5)
ffffffc050401d7e:	fd843783          	ld	a5,-40(s0)
ffffffc050401d82:	639c                	ld	a5,0(a5)
ffffffc050401d84:	fcf43c23          	sd	a5,-40(s0)
ffffffc050401d88:	f9843783          	ld	a5,-104(s0)
ffffffc050401d8c:	0c078793          	addi	a5,a5,192
ffffffc050401d90:	fd843703          	ld	a4,-40(s0)
ffffffc050401d94:	eef71de3          	bne	a4,a5,ffffffc050401c8e <clock_block+0x1e>
ffffffc050401d98:	f9843783          	ld	a5,-104(s0)
ffffffc050401d9c:	63fc                	ld	a5,192(a5)
ffffffc050401d9e:	fcf43c23          	sd	a5,-40(s0)
ffffffc050401da2:	a8c5                	j	ffffffc050401e92 <clock_block+0x222>
ffffffc050401da4:	fd843783          	ld	a5,-40(s0)
ffffffc050401da8:	faf43c23          	sd	a5,-72(s0)
ffffffc050401dac:	fb843783          	ld	a5,-72(s0)
ffffffc050401db0:	1781                	addi	a5,a5,-32
ffffffc050401db2:	fcf43823          	sd	a5,-48(s0)
ffffffc050401db6:	fd043783          	ld	a5,-48(s0)
ffffffc050401dba:	4b9c                	lw	a5,16(a5)
ffffffc050401dbc:	e7f1                	bnez	a5,ffffffc050401e88 <clock_block+0x218>
ffffffc050401dbe:	fd043783          	ld	a5,-48(s0)
ffffffc050401dc2:	6784                	ld	s1,8(a5)
ffffffc050401dc4:	f9843783          	ld	a5,-104(s0)
ffffffc050401dc8:	7fdc                	ld	a5,184(a5)
ffffffc050401dca:	853e                	mv	a0,a5
ffffffc050401dcc:	be7ff0ef          	jal	ra,ffffffc0504019b2 <pa2kva>
ffffffc050401dd0:	87aa                	mv	a5,a0
ffffffc050401dd2:	85be                	mv	a1,a5
ffffffc050401dd4:	8526                	mv	a0,s1
ffffffc050401dd6:	37b090ef          	jal	ra,ffffffc05040b950 <check_page_helper>
ffffffc050401dda:	87aa                	mv	a5,a0
ffffffc050401ddc:	faf43823          	sd	a5,-80(s0)
ffffffc050401de0:	fd043783          	ld	a5,-48(s0)
ffffffc050401de4:	4b9c                	lw	a5,16(a5)
ffffffc050401de6:	ebc9                	bnez	a5,ffffffc050401e78 <clock_block+0x208>
ffffffc050401de8:	fb043783          	ld	a5,-80(s0)
ffffffc050401dec:	639c                	ld	a5,0(a5)
ffffffc050401dee:	0807f793          	andi	a5,a5,128
ffffffc050401df2:	e3d9                	bnez	a5,ffffffc050401e78 <clock_block+0x208>
ffffffc050401df4:	00070797          	auipc	a5,0x70
ffffffc050401df8:	8c478793          	addi	a5,a5,-1852 # ffffffc0504716b8 <bid>
ffffffc050401dfc:	4398                	lw	a4,0(a5)
ffffffc050401dfe:	fd043783          	ld	a5,-48(s0)
ffffffc050401e02:	6390                	ld	a2,0(a5)
ffffffc050401e04:	fd043783          	ld	a5,-48(s0)
ffffffc050401e08:	679c                	ld	a5,8(a5)
ffffffc050401e0a:	86be                	mv	a3,a5
ffffffc050401e0c:	45a1                	li	a1,8
ffffffc050401e0e:	853a                	mv	a0,a4
ffffffc050401e10:	d3dff0ef          	jal	ra,ffffffc050401b4c <mem2disk>
ffffffc050401e14:	fd043783          	ld	a5,-48(s0)
ffffffc050401e18:	4705                	li	a4,1
ffffffc050401e1a:	cb98                	sw	a4,16(a5)
ffffffc050401e1c:	00070797          	auipc	a5,0x70
ffffffc050401e20:	89c78793          	addi	a5,a5,-1892 # ffffffc0504716b8 <bid>
ffffffc050401e24:	4398                	lw	a4,0(a5)
ffffffc050401e26:	fd043783          	ld	a5,-48(s0)
ffffffc050401e2a:	cbd8                	sw	a4,20(a5)
ffffffc050401e2c:	fb043703          	ld	a4,-80(s0)
ffffffc050401e30:	fd043783          	ld	a5,-48(s0)
ffffffc050401e34:	ef98                	sd	a4,24(a5)
ffffffc050401e36:	00070797          	auipc	a5,0x70
ffffffc050401e3a:	88278793          	addi	a5,a5,-1918 # ffffffc0504716b8 <bid>
ffffffc050401e3e:	439c                	lw	a5,0(a5)
ffffffc050401e40:	27a1                	addiw	a5,a5,8
ffffffc050401e42:	0007871b          	sext.w	a4,a5
ffffffc050401e46:	00070797          	auipc	a5,0x70
ffffffc050401e4a:	87278793          	addi	a5,a5,-1934 # ffffffc0504716b8 <bid>
ffffffc050401e4e:	c398                	sw	a4,0(a5)
ffffffc050401e50:	fb043783          	ld	a5,-80(s0)
ffffffc050401e54:	639c                	ld	a5,0(a5)
ffffffc050401e56:	ffe7f713          	andi	a4,a5,-2
ffffffc050401e5a:	fb043783          	ld	a5,-80(s0)
ffffffc050401e5e:	e398                	sd	a4,0(a5)
ffffffc050401e60:	f9843783          	ld	a5,-104(s0)
ffffffc050401e64:	0d07a783          	lw	a5,208(a5)
ffffffc050401e68:	37fd                	addiw	a5,a5,-1
ffffffc050401e6a:	0007871b          	sext.w	a4,a5
ffffffc050401e6e:	f9843783          	ld	a5,-104(s0)
ffffffc050401e72:	0ce7a823          	sw	a4,208(a5)
ffffffc050401e76:	a21d                	j	ffffffc050401f9c <clock_block+0x32c>
ffffffc050401e78:	fb043783          	ld	a5,-80(s0)
ffffffc050401e7c:	639c                	ld	a5,0(a5)
ffffffc050401e7e:	f7f7f713          	andi	a4,a5,-129
ffffffc050401e82:	fb043783          	ld	a5,-80(s0)
ffffffc050401e86:	e398                	sd	a4,0(a5)
ffffffc050401e88:	fd843783          	ld	a5,-40(s0)
ffffffc050401e8c:	639c                	ld	a5,0(a5)
ffffffc050401e8e:	fcf43c23          	sd	a5,-40(s0)
ffffffc050401e92:	f9843783          	ld	a5,-104(s0)
ffffffc050401e96:	0c078793          	addi	a5,a5,192
ffffffc050401e9a:	fd843703          	ld	a4,-40(s0)
ffffffc050401e9e:	f0f713e3          	bne	a4,a5,ffffffc050401da4 <clock_block+0x134>
ffffffc050401ea2:	f9843783          	ld	a5,-104(s0)
ffffffc050401ea6:	67fc                	ld	a5,200(a5)
ffffffc050401ea8:	fcf43c23          	sd	a5,-40(s0)
ffffffc050401eac:	a0c5                	j	ffffffc050401f8c <clock_block+0x31c>
ffffffc050401eae:	fd843783          	ld	a5,-40(s0)
ffffffc050401eb2:	fcf43423          	sd	a5,-56(s0)
ffffffc050401eb6:	fc843783          	ld	a5,-56(s0)
ffffffc050401eba:	1781                	addi	a5,a5,-32
ffffffc050401ebc:	fcf43823          	sd	a5,-48(s0)
ffffffc050401ec0:	fd043783          	ld	a5,-48(s0)
ffffffc050401ec4:	4b9c                	lw	a5,16(a5)
ffffffc050401ec6:	efd5                	bnez	a5,ffffffc050401f82 <clock_block+0x312>
ffffffc050401ec8:	fd043783          	ld	a5,-48(s0)
ffffffc050401ecc:	6784                	ld	s1,8(a5)
ffffffc050401ece:	f9843783          	ld	a5,-104(s0)
ffffffc050401ed2:	7fdc                	ld	a5,184(a5)
ffffffc050401ed4:	853e                	mv	a0,a5
ffffffc050401ed6:	addff0ef          	jal	ra,ffffffc0504019b2 <pa2kva>
ffffffc050401eda:	87aa                	mv	a5,a0
ffffffc050401edc:	85be                	mv	a1,a5
ffffffc050401ede:	8526                	mv	a0,s1
ffffffc050401ee0:	271090ef          	jal	ra,ffffffc05040b950 <check_page_helper>
ffffffc050401ee4:	87aa                	mv	a5,a0
ffffffc050401ee6:	fcf43023          	sd	a5,-64(s0)
ffffffc050401eea:	fd043783          	ld	a5,-48(s0)
ffffffc050401eee:	4b9c                	lw	a5,16(a5)
ffffffc050401ef0:	ebc9                	bnez	a5,ffffffc050401f82 <clock_block+0x312>
ffffffc050401ef2:	fc043783          	ld	a5,-64(s0)
ffffffc050401ef6:	639c                	ld	a5,0(a5)
ffffffc050401ef8:	0807f793          	andi	a5,a5,128
ffffffc050401efc:	e3d9                	bnez	a5,ffffffc050401f82 <clock_block+0x312>
ffffffc050401efe:	0006f797          	auipc	a5,0x6f
ffffffc050401f02:	7ba78793          	addi	a5,a5,1978 # ffffffc0504716b8 <bid>
ffffffc050401f06:	4398                	lw	a4,0(a5)
ffffffc050401f08:	fd043783          	ld	a5,-48(s0)
ffffffc050401f0c:	6390                	ld	a2,0(a5)
ffffffc050401f0e:	fd043783          	ld	a5,-48(s0)
ffffffc050401f12:	679c                	ld	a5,8(a5)
ffffffc050401f14:	86be                	mv	a3,a5
ffffffc050401f16:	45a1                	li	a1,8
ffffffc050401f18:	853a                	mv	a0,a4
ffffffc050401f1a:	c33ff0ef          	jal	ra,ffffffc050401b4c <mem2disk>
ffffffc050401f1e:	fd043783          	ld	a5,-48(s0)
ffffffc050401f22:	4705                	li	a4,1
ffffffc050401f24:	cb98                	sw	a4,16(a5)
ffffffc050401f26:	0006f797          	auipc	a5,0x6f
ffffffc050401f2a:	79278793          	addi	a5,a5,1938 # ffffffc0504716b8 <bid>
ffffffc050401f2e:	4398                	lw	a4,0(a5)
ffffffc050401f30:	fd043783          	ld	a5,-48(s0)
ffffffc050401f34:	cbd8                	sw	a4,20(a5)
ffffffc050401f36:	fc043703          	ld	a4,-64(s0)
ffffffc050401f3a:	fd043783          	ld	a5,-48(s0)
ffffffc050401f3e:	ef98                	sd	a4,24(a5)
ffffffc050401f40:	0006f797          	auipc	a5,0x6f
ffffffc050401f44:	77878793          	addi	a5,a5,1912 # ffffffc0504716b8 <bid>
ffffffc050401f48:	439c                	lw	a5,0(a5)
ffffffc050401f4a:	27a1                	addiw	a5,a5,8
ffffffc050401f4c:	0007871b          	sext.w	a4,a5
ffffffc050401f50:	0006f797          	auipc	a5,0x6f
ffffffc050401f54:	76878793          	addi	a5,a5,1896 # ffffffc0504716b8 <bid>
ffffffc050401f58:	c398                	sw	a4,0(a5)
ffffffc050401f5a:	fc043783          	ld	a5,-64(s0)
ffffffc050401f5e:	639c                	ld	a5,0(a5)
ffffffc050401f60:	ffe7f713          	andi	a4,a5,-2
ffffffc050401f64:	fc043783          	ld	a5,-64(s0)
ffffffc050401f68:	e398                	sd	a4,0(a5)
ffffffc050401f6a:	f9843783          	ld	a5,-104(s0)
ffffffc050401f6e:	0d07a783          	lw	a5,208(a5)
ffffffc050401f72:	37fd                	addiw	a5,a5,-1
ffffffc050401f74:	0007871b          	sext.w	a4,a5
ffffffc050401f78:	f9843783          	ld	a5,-104(s0)
ffffffc050401f7c:	0ce7a823          	sw	a4,208(a5)
ffffffc050401f80:	a831                	j	ffffffc050401f9c <clock_block+0x32c>
ffffffc050401f82:	fd843783          	ld	a5,-40(s0)
ffffffc050401f86:	679c                	ld	a5,8(a5)
ffffffc050401f88:	fcf43c23          	sd	a5,-40(s0)
ffffffc050401f8c:	f9843783          	ld	a5,-104(s0)
ffffffc050401f90:	0c078793          	addi	a5,a5,192
ffffffc050401f94:	fd843703          	ld	a4,-40(s0)
ffffffc050401f98:	f0f71be3          	bne	a4,a5,ffffffc050401eae <clock_block+0x23e>
ffffffc050401f9c:	70a6                	ld	ra,104(sp)
ffffffc050401f9e:	7406                	ld	s0,96(sp)
ffffffc050401fa0:	64e6                	ld	s1,88(sp)
ffffffc050401fa2:	6165                	addi	sp,sp,112
ffffffc050401fa4:	8082                	ret

ffffffc050401fa6 <reset_irq_timer>:
ffffffc050401fa6:	1141                	addi	sp,sp,-16
ffffffc050401fa8:	e406                	sd	ra,8(sp)
ffffffc050401faa:	e022                	sd	s0,0(sp)
ffffffc050401fac:	0800                	addi	s0,sp,16
ffffffc050401fae:	311000ef          	jal	ra,ffffffc050402abe <screen_reflush>
ffffffc050401fb2:	631080ef          	jal	ra,ffffffc05040ade2 <timer_check>
ffffffc050401fb6:	6c1080ef          	jal	ra,ffffffc05040ae76 <get_ticks>
ffffffc050401fba:	872a                	mv	a4,a0
ffffffc050401fbc:	6789                	lui	a5,0x2
ffffffc050401fbe:	71078793          	addi	a5,a5,1808 # 2710 <_start-0xffffffc0503fd8f0>
ffffffc050401fc2:	97ba                	add	a5,a5,a4
ffffffc050401fc4:	853e                	mv	a0,a5
ffffffc050401fc6:	99fff0ef          	jal	ra,ffffffc050401964 <sbi_set_timer>
ffffffc050401fca:	296080ef          	jal	ra,ffffffc05040a260 <do_scheduler>
ffffffc050401fce:	0001                	nop
ffffffc050401fd0:	60a2                	ld	ra,8(sp)
ffffffc050401fd2:	6402                	ld	s0,0(sp)
ffffffc050401fd4:	0141                	addi	sp,sp,16
ffffffc050401fd6:	8082                	ret

ffffffc050401fd8 <interrupt_helper>:
ffffffc050401fd8:	7139                	addi	sp,sp,-64
ffffffc050401fda:	fc06                	sd	ra,56(sp)
ffffffc050401fdc:	f822                	sd	s0,48(sp)
ffffffc050401fde:	0080                	addi	s0,sp,64
ffffffc050401fe0:	fca43c23          	sd	a0,-40(s0)
ffffffc050401fe4:	fcb43823          	sd	a1,-48(s0)
ffffffc050401fe8:	fcc43423          	sd	a2,-56(s0)
ffffffc050401fec:	fc843783          	ld	a5,-56(s0)
ffffffc050401ff0:	0007d763          	bgez	a5,ffffffc050401ffe <interrupt_helper+0x26>
ffffffc050401ff4:	00200797          	auipc	a5,0x200
ffffffc050401ff8:	10478793          	addi	a5,a5,260 # ffffffc0506020f8 <irq_table>
ffffffc050401ffc:	a029                	j	ffffffc050402006 <interrupt_helper+0x2e>
ffffffc050401ffe:	00200797          	auipc	a5,0x200
ffffffc050402002:	06a78793          	addi	a5,a5,106 # ffffffc050602068 <exc_table>
ffffffc050402006:	fef43423          	sd	a5,-24(s0)
ffffffc05040200a:	fc843703          	ld	a4,-56(s0)
ffffffc05040200e:	67c1                	lui	a5,0x10
ffffffc050402010:	17fd                	addi	a5,a5,-1
ffffffc050402012:	8ff9                	and	a5,a5,a4
ffffffc050402014:	fef43023          	sd	a5,-32(s0)
ffffffc050402018:	fe043783          	ld	a5,-32(s0)
ffffffc05040201c:	078e                	slli	a5,a5,0x3
ffffffc05040201e:	fe843703          	ld	a4,-24(s0)
ffffffc050402022:	97ba                	add	a5,a5,a4
ffffffc050402024:	639c                	ld	a5,0(a5)
ffffffc050402026:	fc843603          	ld	a2,-56(s0)
ffffffc05040202a:	fd043583          	ld	a1,-48(s0)
ffffffc05040202e:	fd843503          	ld	a0,-40(s0)
ffffffc050402032:	9782                	jalr	a5
ffffffc050402034:	0001                	nop
ffffffc050402036:	70e2                	ld	ra,56(sp)
ffffffc050402038:	7442                	ld	s0,48(sp)
ffffffc05040203a:	6121                	addi	sp,sp,64
ffffffc05040203c:	8082                	ret

ffffffc05040203e <handle_int>:
ffffffc05040203e:	7179                	addi	sp,sp,-48
ffffffc050402040:	f406                	sd	ra,40(sp)
ffffffc050402042:	f022                	sd	s0,32(sp)
ffffffc050402044:	1800                	addi	s0,sp,48
ffffffc050402046:	fea43423          	sd	a0,-24(s0)
ffffffc05040204a:	feb43023          	sd	a1,-32(s0)
ffffffc05040204e:	fcc43c23          	sd	a2,-40(s0)
ffffffc050402052:	f55ff0ef          	jal	ra,ffffffc050401fa6 <reset_irq_timer>
ffffffc050402056:	0001                	nop
ffffffc050402058:	70a2                	ld	ra,40(sp)
ffffffc05040205a:	7402                	ld	s0,32(sp)
ffffffc05040205c:	6145                	addi	sp,sp,48
ffffffc05040205e:	8082                	ret

ffffffc050402060 <handle_inst_pagefault>:
ffffffc050402060:	7139                	addi	sp,sp,-64
ffffffc050402062:	fc06                	sd	ra,56(sp)
ffffffc050402064:	f822                	sd	s0,48(sp)
ffffffc050402066:	0080                	addi	s0,sp,64
ffffffc050402068:	fca43c23          	sd	a0,-40(s0)
ffffffc05040206c:	fcb43823          	sd	a1,-48(s0)
ffffffc050402070:	fcc43423          	sd	a2,-56(s0)
ffffffc050402074:	a5cfe0ef          	jal	ra,ffffffc0504002d0 <get_current_cpu_id>
ffffffc050402078:	87aa                	mv	a5,a0
ffffffc05040207a:	e791                	bnez	a5,ffffffc050402086 <handle_inst_pagefault+0x26>
ffffffc05040207c:	00200797          	auipc	a5,0x200
ffffffc050402080:	f6478793          	addi	a5,a5,-156 # ffffffc050601fe0 <current_running_core0>
ffffffc050402084:	a029                	j	ffffffc05040208e <handle_inst_pagefault+0x2e>
ffffffc050402086:	00200797          	auipc	a5,0x200
ffffffc05040208a:	f5278793          	addi	a5,a5,-174 # ffffffc050601fd8 <current_running_core1>
ffffffc05040208e:	007ff717          	auipc	a4,0x7ff
ffffffc050402092:	60270713          	addi	a4,a4,1538 # ffffffc050c01690 <current_running>
ffffffc050402096:	e31c                	sd	a5,0(a4)
ffffffc050402098:	007ff797          	auipc	a5,0x7ff
ffffffc05040209c:	5f878793          	addi	a5,a5,1528 # ffffffc050c01690 <current_running>
ffffffc0504020a0:	639c                	ld	a5,0(a5)
ffffffc0504020a2:	639c                	ld	a5,0(a5)
ffffffc0504020a4:	7fdc                	ld	a5,184(a5)
ffffffc0504020a6:	853e                	mv	a0,a5
ffffffc0504020a8:	90bff0ef          	jal	ra,ffffffc0504019b2 <pa2kva>
ffffffc0504020ac:	87aa                	mv	a5,a0
ffffffc0504020ae:	85be                	mv	a1,a5
ffffffc0504020b0:	fd043503          	ld	a0,-48(s0)
ffffffc0504020b4:	09d090ef          	jal	ra,ffffffc05040b950 <check_page_helper>
ffffffc0504020b8:	fea43423          	sd	a0,-24(s0)
ffffffc0504020bc:	fe843783          	ld	a5,-24(s0)
ffffffc0504020c0:	cb99                	beqz	a5,ffffffc0504020d6 <handle_inst_pagefault+0x76>
ffffffc0504020c2:	fe843783          	ld	a5,-24(s0)
ffffffc0504020c6:	0c000593          	li	a1,192
ffffffc0504020ca:	853e                	mv	a0,a5
ffffffc0504020cc:	903ff0ef          	jal	ra,ffffffc0504019ce <set_attribute>
ffffffc0504020d0:	8b5ff0ef          	jal	ra,ffffffc050401984 <local_flush_tlb_all>
ffffffc0504020d4:	a801                	j	ffffffc0504020e4 <handle_inst_pagefault+0x84>
ffffffc0504020d6:	0000b517          	auipc	a0,0xb
ffffffc0504020da:	cea50513          	addi	a0,a0,-790 # ffffffc05040cdc0 <__FUNCTION__.2179+0x1b8>
ffffffc0504020de:	7a60a0ef          	jal	ra,ffffffc05040c884 <printk>
ffffffc0504020e2:	a001                	j	ffffffc0504020e2 <handle_inst_pagefault+0x82>
ffffffc0504020e4:	70e2                	ld	ra,56(sp)
ffffffc0504020e6:	7442                	ld	s0,48(sp)
ffffffc0504020e8:	6121                	addi	sp,sp,64
ffffffc0504020ea:	8082                	ret

ffffffc0504020ec <handle_load_pagefault>:
ffffffc0504020ec:	7139                	addi	sp,sp,-64
ffffffc0504020ee:	fc06                	sd	ra,56(sp)
ffffffc0504020f0:	f822                	sd	s0,48(sp)
ffffffc0504020f2:	0080                	addi	s0,sp,64
ffffffc0504020f4:	fca43c23          	sd	a0,-40(s0)
ffffffc0504020f8:	fcb43823          	sd	a1,-48(s0)
ffffffc0504020fc:	fcc43423          	sd	a2,-56(s0)
ffffffc050402100:	9d0fe0ef          	jal	ra,ffffffc0504002d0 <get_current_cpu_id>
ffffffc050402104:	87aa                	mv	a5,a0
ffffffc050402106:	e791                	bnez	a5,ffffffc050402112 <handle_load_pagefault+0x26>
ffffffc050402108:	00200797          	auipc	a5,0x200
ffffffc05040210c:	ed878793          	addi	a5,a5,-296 # ffffffc050601fe0 <current_running_core0>
ffffffc050402110:	a029                	j	ffffffc05040211a <handle_load_pagefault+0x2e>
ffffffc050402112:	00200797          	auipc	a5,0x200
ffffffc050402116:	ec678793          	addi	a5,a5,-314 # ffffffc050601fd8 <current_running_core1>
ffffffc05040211a:	007ff717          	auipc	a4,0x7ff
ffffffc05040211e:	57670713          	addi	a4,a4,1398 # ffffffc050c01690 <current_running>
ffffffc050402122:	e31c                	sd	a5,0(a4)
ffffffc050402124:	007ff797          	auipc	a5,0x7ff
ffffffc050402128:	56c78793          	addi	a5,a5,1388 # ffffffc050c01690 <current_running>
ffffffc05040212c:	639c                	ld	a5,0(a5)
ffffffc05040212e:	639c                	ld	a5,0(a5)
ffffffc050402130:	7fdc                	ld	a5,184(a5)
ffffffc050402132:	853e                	mv	a0,a5
ffffffc050402134:	87fff0ef          	jal	ra,ffffffc0504019b2 <pa2kva>
ffffffc050402138:	87aa                	mv	a5,a0
ffffffc05040213a:	85be                	mv	a1,a5
ffffffc05040213c:	fd043503          	ld	a0,-48(s0)
ffffffc050402140:	011090ef          	jal	ra,ffffffc05040b950 <check_page_helper>
ffffffc050402144:	fea43423          	sd	a0,-24(s0)
ffffffc050402148:	fe843783          	ld	a5,-24(s0)
ffffffc05040214c:	cb99                	beqz	a5,ffffffc050402162 <handle_load_pagefault+0x76>
ffffffc05040214e:	fe843783          	ld	a5,-24(s0)
ffffffc050402152:	04000593          	li	a1,64
ffffffc050402156:	853e                	mv	a0,a5
ffffffc050402158:	877ff0ef          	jal	ra,ffffffc0504019ce <set_attribute>
ffffffc05040215c:	829ff0ef          	jal	ra,ffffffc050401984 <local_flush_tlb_all>
ffffffc050402160:	a231                	j	ffffffc05040226c <handle_load_pagefault+0x180>
ffffffc050402162:	007ff797          	auipc	a5,0x7ff
ffffffc050402166:	52e78793          	addi	a5,a5,1326 # ffffffc050c01690 <current_running>
ffffffc05040216a:	639c                	ld	a5,0(a5)
ffffffc05040216c:	6394                	ld	a3,0(a5)
ffffffc05040216e:	fd043703          	ld	a4,-48(s0)
ffffffc050402172:	77fd                	lui	a5,0xfffff
ffffffc050402174:	8ff9                	and	a5,a5,a4
ffffffc050402176:	85be                	mv	a1,a5
ffffffc050402178:	8536                	mv	a0,a3
ffffffc05040217a:	a35ff0ef          	jal	ra,ffffffc050401bae <clock_unblock>
ffffffc05040217e:	87aa                	mv	a5,a0
ffffffc050402180:	cb8d                	beqz	a5,ffffffc0504021b2 <handle_load_pagefault+0xc6>
ffffffc050402182:	007ff797          	auipc	a5,0x7ff
ffffffc050402186:	50e78793          	addi	a5,a5,1294 # ffffffc050c01690 <current_running>
ffffffc05040218a:	639c                	ld	a5,0(a5)
ffffffc05040218c:	639c                	ld	a5,0(a5)
ffffffc05040218e:	0d07a783          	lw	a5,208(a5)
ffffffc050402192:	873e                	mv	a4,a5
ffffffc050402194:	478d                	li	a5,3
ffffffc050402196:	00e7db63          	bge	a5,a4,ffffffc0504021ac <handle_load_pagefault+0xc0>
ffffffc05040219a:	007ff797          	auipc	a5,0x7ff
ffffffc05040219e:	4f678793          	addi	a5,a5,1270 # ffffffc050c01690 <current_running>
ffffffc0504021a2:	639c                	ld	a5,0(a5)
ffffffc0504021a4:	639c                	ld	a5,0(a5)
ffffffc0504021a6:	853e                	mv	a0,a5
ffffffc0504021a8:	ac9ff0ef          	jal	ra,ffffffc050401c70 <clock_block>
ffffffc0504021ac:	fd8ff0ef          	jal	ra,ffffffc050401984 <local_flush_tlb_all>
ffffffc0504021b0:	a875                	j	ffffffc05040226c <handle_load_pagefault+0x180>
ffffffc0504021b2:	007ff797          	auipc	a5,0x7ff
ffffffc0504021b6:	4de78793          	addi	a5,a5,1246 # ffffffc050c01690 <current_running>
ffffffc0504021ba:	639c                	ld	a5,0(a5)
ffffffc0504021bc:	639c                	ld	a5,0(a5)
ffffffc0504021be:	0d07a783          	lw	a5,208(a5)
ffffffc0504021c2:	873e                	mv	a4,a5
ffffffc0504021c4:	6789                	lui	a5,0x2
ffffffc0504021c6:	70f78793          	addi	a5,a5,1807 # 270f <_start-0xffffffc0503fd8f1>
ffffffc0504021ca:	00e7db63          	bge	a5,a4,ffffffc0504021e0 <handle_load_pagefault+0xf4>
ffffffc0504021ce:	007ff797          	auipc	a5,0x7ff
ffffffc0504021d2:	4c278793          	addi	a5,a5,1218 # ffffffc050c01690 <current_running>
ffffffc0504021d6:	639c                	ld	a5,0(a5)
ffffffc0504021d8:	639c                	ld	a5,0(a5)
ffffffc0504021da:	853e                	mv	a0,a5
ffffffc0504021dc:	a95ff0ef          	jal	ra,ffffffc050401c70 <clock_block>
ffffffc0504021e0:	007ff797          	auipc	a5,0x7ff
ffffffc0504021e4:	4b078793          	addi	a5,a5,1200 # ffffffc050c01690 <current_running>
ffffffc0504021e8:	639c                	ld	a5,0(a5)
ffffffc0504021ea:	639c                	ld	a5,0(a5)
ffffffc0504021ec:	7fdc                	ld	a5,184(a5)
ffffffc0504021ee:	853e                	mv	a0,a5
ffffffc0504021f0:	fc2ff0ef          	jal	ra,ffffffc0504019b2 <pa2kva>
ffffffc0504021f4:	87aa                	mv	a5,a0
ffffffc0504021f6:	4605                	li	a2,1
ffffffc0504021f8:	85be                	mv	a1,a5
ffffffc0504021fa:	fd043503          	ld	a0,-48(s0)
ffffffc0504021fe:	506090ef          	jal	ra,ffffffc05040b704 <alloc_page_helper>
ffffffc050402202:	fea43423          	sd	a0,-24(s0)
ffffffc050402206:	007ff797          	auipc	a5,0x7ff
ffffffc05040220a:	48a78793          	addi	a5,a5,1162 # ffffffc050c01690 <current_running>
ffffffc05040220e:	639c                	ld	a5,0(a5)
ffffffc050402210:	639c                	ld	a5,0(a5)
ffffffc050402212:	0d07a703          	lw	a4,208(a5)
ffffffc050402216:	2705                	addiw	a4,a4,1
ffffffc050402218:	2701                	sext.w	a4,a4
ffffffc05040221a:	0ce7a823          	sw	a4,208(a5)
ffffffc05040221e:	03000513          	li	a0,48
ffffffc050402222:	6fb080ef          	jal	ra,ffffffc05040b11c <kmalloc>
ffffffc050402226:	fea43023          	sd	a0,-32(s0)
ffffffc05040222a:	fe843503          	ld	a0,-24(s0)
ffffffc05040222e:	f68ff0ef          	jal	ra,ffffffc050401996 <kva2pa>
ffffffc050402232:	872a                	mv	a4,a0
ffffffc050402234:	fe043783          	ld	a5,-32(s0)
ffffffc050402238:	e398                	sd	a4,0(a5)
ffffffc05040223a:	fd043703          	ld	a4,-48(s0)
ffffffc05040223e:	77fd                	lui	a5,0xfffff
ffffffc050402240:	8f7d                	and	a4,a4,a5
ffffffc050402242:	fe043783          	ld	a5,-32(s0)
ffffffc050402246:	e798                	sd	a4,8(a5)
ffffffc050402248:	fe043783          	ld	a5,-32(s0)
ffffffc05040224c:	02078713          	addi	a4,a5,32 # fffffffffffff020 <__BSS_END__+0x3faf3fc100>
ffffffc050402250:	007ff797          	auipc	a5,0x7ff
ffffffc050402254:	44078793          	addi	a5,a5,1088 # ffffffc050c01690 <current_running>
ffffffc050402258:	639c                	ld	a5,0(a5)
ffffffc05040225a:	639c                	ld	a5,0(a5)
ffffffc05040225c:	0c078793          	addi	a5,a5,192
ffffffc050402260:	85be                	mv	a1,a5
ffffffc050402262:	853a                	mv	a0,a4
ffffffc050402264:	e2cff0ef          	jal	ra,ffffffc050401890 <list_add_tail>
ffffffc050402268:	f1cff0ef          	jal	ra,ffffffc050401984 <local_flush_tlb_all>
ffffffc05040226c:	70e2                	ld	ra,56(sp)
ffffffc05040226e:	7442                	ld	s0,48(sp)
ffffffc050402270:	6121                	addi	sp,sp,64
ffffffc050402272:	8082                	ret

ffffffc050402274 <handle_store_pagefault>:
ffffffc050402274:	7139                	addi	sp,sp,-64
ffffffc050402276:	fc06                	sd	ra,56(sp)
ffffffc050402278:	f822                	sd	s0,48(sp)
ffffffc05040227a:	0080                	addi	s0,sp,64
ffffffc05040227c:	fca43c23          	sd	a0,-40(s0)
ffffffc050402280:	fcb43823          	sd	a1,-48(s0)
ffffffc050402284:	fcc43423          	sd	a2,-56(s0)
ffffffc050402288:	848fe0ef          	jal	ra,ffffffc0504002d0 <get_current_cpu_id>
ffffffc05040228c:	87aa                	mv	a5,a0
ffffffc05040228e:	e791                	bnez	a5,ffffffc05040229a <handle_store_pagefault+0x26>
ffffffc050402290:	00200797          	auipc	a5,0x200
ffffffc050402294:	d5078793          	addi	a5,a5,-688 # ffffffc050601fe0 <current_running_core0>
ffffffc050402298:	a029                	j	ffffffc0504022a2 <handle_store_pagefault+0x2e>
ffffffc05040229a:	00200797          	auipc	a5,0x200
ffffffc05040229e:	d3e78793          	addi	a5,a5,-706 # ffffffc050601fd8 <current_running_core1>
ffffffc0504022a2:	007ff717          	auipc	a4,0x7ff
ffffffc0504022a6:	3ee70713          	addi	a4,a4,1006 # ffffffc050c01690 <current_running>
ffffffc0504022aa:	e31c                	sd	a5,0(a4)
ffffffc0504022ac:	007ff797          	auipc	a5,0x7ff
ffffffc0504022b0:	3e478793          	addi	a5,a5,996 # ffffffc050c01690 <current_running>
ffffffc0504022b4:	639c                	ld	a5,0(a5)
ffffffc0504022b6:	639c                	ld	a5,0(a5)
ffffffc0504022b8:	7fdc                	ld	a5,184(a5)
ffffffc0504022ba:	853e                	mv	a0,a5
ffffffc0504022bc:	ef6ff0ef          	jal	ra,ffffffc0504019b2 <pa2kva>
ffffffc0504022c0:	87aa                	mv	a5,a0
ffffffc0504022c2:	85be                	mv	a1,a5
ffffffc0504022c4:	fd043503          	ld	a0,-48(s0)
ffffffc0504022c8:	688090ef          	jal	ra,ffffffc05040b950 <check_page_helper>
ffffffc0504022cc:	fea43423          	sd	a0,-24(s0)
ffffffc0504022d0:	fe843783          	ld	a5,-24(s0)
ffffffc0504022d4:	cb99                	beqz	a5,ffffffc0504022ea <handle_store_pagefault+0x76>
ffffffc0504022d6:	fe843783          	ld	a5,-24(s0)
ffffffc0504022da:	0c000593          	li	a1,192
ffffffc0504022de:	853e                	mv	a0,a5
ffffffc0504022e0:	eeeff0ef          	jal	ra,ffffffc0504019ce <set_attribute>
ffffffc0504022e4:	ea0ff0ef          	jal	ra,ffffffc050401984 <local_flush_tlb_all>
ffffffc0504022e8:	a239                	j	ffffffc0504023f6 <handle_store_pagefault+0x182>
ffffffc0504022ea:	007ff797          	auipc	a5,0x7ff
ffffffc0504022ee:	3a678793          	addi	a5,a5,934 # ffffffc050c01690 <current_running>
ffffffc0504022f2:	639c                	ld	a5,0(a5)
ffffffc0504022f4:	6394                	ld	a3,0(a5)
ffffffc0504022f6:	fd043703          	ld	a4,-48(s0)
ffffffc0504022fa:	77fd                	lui	a5,0xfffff
ffffffc0504022fc:	8ff9                	and	a5,a5,a4
ffffffc0504022fe:	85be                	mv	a1,a5
ffffffc050402300:	8536                	mv	a0,a3
ffffffc050402302:	8adff0ef          	jal	ra,ffffffc050401bae <clock_unblock>
ffffffc050402306:	87aa                	mv	a5,a0
ffffffc050402308:	cb95                	beqz	a5,ffffffc05040233c <handle_store_pagefault+0xc8>
ffffffc05040230a:	007ff797          	auipc	a5,0x7ff
ffffffc05040230e:	38678793          	addi	a5,a5,902 # ffffffc050c01690 <current_running>
ffffffc050402312:	639c                	ld	a5,0(a5)
ffffffc050402314:	639c                	ld	a5,0(a5)
ffffffc050402316:	0d07a783          	lw	a5,208(a5)
ffffffc05040231a:	873e                	mv	a4,a5
ffffffc05040231c:	02700793          	li	a5,39
ffffffc050402320:	00e7db63          	bge	a5,a4,ffffffc050402336 <handle_store_pagefault+0xc2>
ffffffc050402324:	007ff797          	auipc	a5,0x7ff
ffffffc050402328:	36c78793          	addi	a5,a5,876 # ffffffc050c01690 <current_running>
ffffffc05040232c:	639c                	ld	a5,0(a5)
ffffffc05040232e:	639c                	ld	a5,0(a5)
ffffffc050402330:	853e                	mv	a0,a5
ffffffc050402332:	93fff0ef          	jal	ra,ffffffc050401c70 <clock_block>
ffffffc050402336:	e4eff0ef          	jal	ra,ffffffc050401984 <local_flush_tlb_all>
ffffffc05040233a:	a875                	j	ffffffc0504023f6 <handle_store_pagefault+0x182>
ffffffc05040233c:	007ff797          	auipc	a5,0x7ff
ffffffc050402340:	35478793          	addi	a5,a5,852 # ffffffc050c01690 <current_running>
ffffffc050402344:	639c                	ld	a5,0(a5)
ffffffc050402346:	639c                	ld	a5,0(a5)
ffffffc050402348:	0d07a783          	lw	a5,208(a5)
ffffffc05040234c:	873e                	mv	a4,a5
ffffffc05040234e:	6789                	lui	a5,0x2
ffffffc050402350:	70f78793          	addi	a5,a5,1807 # 270f <_start-0xffffffc0503fd8f1>
ffffffc050402354:	00e7db63          	bge	a5,a4,ffffffc05040236a <handle_store_pagefault+0xf6>
ffffffc050402358:	007ff797          	auipc	a5,0x7ff
ffffffc05040235c:	33878793          	addi	a5,a5,824 # ffffffc050c01690 <current_running>
ffffffc050402360:	639c                	ld	a5,0(a5)
ffffffc050402362:	639c                	ld	a5,0(a5)
ffffffc050402364:	853e                	mv	a0,a5
ffffffc050402366:	90bff0ef          	jal	ra,ffffffc050401c70 <clock_block>
ffffffc05040236a:	007ff797          	auipc	a5,0x7ff
ffffffc05040236e:	32678793          	addi	a5,a5,806 # ffffffc050c01690 <current_running>
ffffffc050402372:	639c                	ld	a5,0(a5)
ffffffc050402374:	639c                	ld	a5,0(a5)
ffffffc050402376:	7fdc                	ld	a5,184(a5)
ffffffc050402378:	853e                	mv	a0,a5
ffffffc05040237a:	e38ff0ef          	jal	ra,ffffffc0504019b2 <pa2kva>
ffffffc05040237e:	87aa                	mv	a5,a0
ffffffc050402380:	4605                	li	a2,1
ffffffc050402382:	85be                	mv	a1,a5
ffffffc050402384:	fd043503          	ld	a0,-48(s0)
ffffffc050402388:	37c090ef          	jal	ra,ffffffc05040b704 <alloc_page_helper>
ffffffc05040238c:	fea43423          	sd	a0,-24(s0)
ffffffc050402390:	007ff797          	auipc	a5,0x7ff
ffffffc050402394:	30078793          	addi	a5,a5,768 # ffffffc050c01690 <current_running>
ffffffc050402398:	639c                	ld	a5,0(a5)
ffffffc05040239a:	639c                	ld	a5,0(a5)
ffffffc05040239c:	0d07a703          	lw	a4,208(a5)
ffffffc0504023a0:	2705                	addiw	a4,a4,1
ffffffc0504023a2:	2701                	sext.w	a4,a4
ffffffc0504023a4:	0ce7a823          	sw	a4,208(a5)
ffffffc0504023a8:	03000513          	li	a0,48
ffffffc0504023ac:	571080ef          	jal	ra,ffffffc05040b11c <kmalloc>
ffffffc0504023b0:	fea43023          	sd	a0,-32(s0)
ffffffc0504023b4:	fe843503          	ld	a0,-24(s0)
ffffffc0504023b8:	ddeff0ef          	jal	ra,ffffffc050401996 <kva2pa>
ffffffc0504023bc:	872a                	mv	a4,a0
ffffffc0504023be:	fe043783          	ld	a5,-32(s0)
ffffffc0504023c2:	e398                	sd	a4,0(a5)
ffffffc0504023c4:	fd043703          	ld	a4,-48(s0)
ffffffc0504023c8:	77fd                	lui	a5,0xfffff
ffffffc0504023ca:	8f7d                	and	a4,a4,a5
ffffffc0504023cc:	fe043783          	ld	a5,-32(s0)
ffffffc0504023d0:	e798                	sd	a4,8(a5)
ffffffc0504023d2:	fe043783          	ld	a5,-32(s0)
ffffffc0504023d6:	02078713          	addi	a4,a5,32 # fffffffffffff020 <__BSS_END__+0x3faf3fc100>
ffffffc0504023da:	007ff797          	auipc	a5,0x7ff
ffffffc0504023de:	2b678793          	addi	a5,a5,694 # ffffffc050c01690 <current_running>
ffffffc0504023e2:	639c                	ld	a5,0(a5)
ffffffc0504023e4:	639c                	ld	a5,0(a5)
ffffffc0504023e6:	0c078793          	addi	a5,a5,192
ffffffc0504023ea:	85be                	mv	a1,a5
ffffffc0504023ec:	853a                	mv	a0,a4
ffffffc0504023ee:	ca2ff0ef          	jal	ra,ffffffc050401890 <list_add_tail>
ffffffc0504023f2:	d92ff0ef          	jal	ra,ffffffc050401984 <local_flush_tlb_all>
ffffffc0504023f6:	70e2                	ld	ra,56(sp)
ffffffc0504023f8:	7442                	ld	s0,48(sp)
ffffffc0504023fa:	6121                	addi	sp,sp,64
ffffffc0504023fc:	8082                	ret

ffffffc0504023fe <init_exception>:
ffffffc0504023fe:	1101                	addi	sp,sp,-32
ffffffc050402400:	ec06                	sd	ra,24(sp)
ffffffc050402402:	e822                	sd	s0,16(sp)
ffffffc050402404:	1000                	addi	s0,sp,32
ffffffc050402406:	fe042623          	sw	zero,-20(s0)
ffffffc05040240a:	a01d                	j	ffffffc050402430 <init_exception+0x32>
ffffffc05040240c:	00200717          	auipc	a4,0x200
ffffffc050402410:	cec70713          	addi	a4,a4,-788 # ffffffc0506020f8 <irq_table>
ffffffc050402414:	fec42783          	lw	a5,-20(s0)
ffffffc050402418:	078e                	slli	a5,a5,0x3
ffffffc05040241a:	97ba                	add	a5,a5,a4
ffffffc05040241c:	00000717          	auipc	a4,0x0
ffffffc050402420:	0d470713          	addi	a4,a4,212 # ffffffc0504024f0 <handle_other>
ffffffc050402424:	e398                	sd	a4,0(a5)
ffffffc050402426:	fec42783          	lw	a5,-20(s0)
ffffffc05040242a:	2785                	addiw	a5,a5,1
ffffffc05040242c:	fef42623          	sw	a5,-20(s0)
ffffffc050402430:	fec42783          	lw	a5,-20(s0)
ffffffc050402434:	0007871b          	sext.w	a4,a5
ffffffc050402438:	47ad                	li	a5,11
ffffffc05040243a:	fce7d9e3          	bge	a5,a4,ffffffc05040240c <init_exception+0xe>
ffffffc05040243e:	fe042623          	sw	zero,-20(s0)
ffffffc050402442:	a01d                	j	ffffffc050402468 <init_exception+0x6a>
ffffffc050402444:	00200717          	auipc	a4,0x200
ffffffc050402448:	c2470713          	addi	a4,a4,-988 # ffffffc050602068 <exc_table>
ffffffc05040244c:	fec42783          	lw	a5,-20(s0)
ffffffc050402450:	078e                	slli	a5,a5,0x3
ffffffc050402452:	97ba                	add	a5,a5,a4
ffffffc050402454:	00000717          	auipc	a4,0x0
ffffffc050402458:	09c70713          	addi	a4,a4,156 # ffffffc0504024f0 <handle_other>
ffffffc05040245c:	e398                	sd	a4,0(a5)
ffffffc05040245e:	fec42783          	lw	a5,-20(s0)
ffffffc050402462:	2785                	addiw	a5,a5,1
ffffffc050402464:	fef42623          	sw	a5,-20(s0)
ffffffc050402468:	fec42783          	lw	a5,-20(s0)
ffffffc05040246c:	0007871b          	sext.w	a4,a5
ffffffc050402470:	47bd                	li	a5,15
ffffffc050402472:	fce7d9e3          	bge	a5,a4,ffffffc050402444 <init_exception+0x46>
ffffffc050402476:	00200797          	auipc	a5,0x200
ffffffc05040247a:	c8278793          	addi	a5,a5,-894 # ffffffc0506020f8 <irq_table>
ffffffc05040247e:	00000717          	auipc	a4,0x0
ffffffc050402482:	bc070713          	addi	a4,a4,-1088 # ffffffc05040203e <handle_int>
ffffffc050402486:	f798                	sd	a4,40(a5)
ffffffc050402488:	00200797          	auipc	a5,0x200
ffffffc05040248c:	c7078793          	addi	a5,a5,-912 # ffffffc0506020f8 <irq_table>
ffffffc050402490:	00001717          	auipc	a4,0x1
ffffffc050402494:	df670713          	addi	a4,a4,-522 # ffffffc050403286 <plic_handle_irq>
ffffffc050402498:	e7b8                	sd	a4,72(a5)
ffffffc05040249a:	00200797          	auipc	a5,0x200
ffffffc05040249e:	bce78793          	addi	a5,a5,-1074 # ffffffc050602068 <exc_table>
ffffffc0504024a2:	0000a717          	auipc	a4,0xa
ffffffc0504024a6:	86470713          	addi	a4,a4,-1948 # ffffffc05040bd06 <handle_syscall>
ffffffc0504024aa:	e3b8                	sd	a4,64(a5)
ffffffc0504024ac:	00200797          	auipc	a5,0x200
ffffffc0504024b0:	bbc78793          	addi	a5,a5,-1092 # ffffffc050602068 <exc_table>
ffffffc0504024b4:	00000717          	auipc	a4,0x0
ffffffc0504024b8:	bac70713          	addi	a4,a4,-1108 # ffffffc050402060 <handle_inst_pagefault>
ffffffc0504024bc:	f3b8                	sd	a4,96(a5)
ffffffc0504024be:	00200797          	auipc	a5,0x200
ffffffc0504024c2:	baa78793          	addi	a5,a5,-1110 # ffffffc050602068 <exc_table>
ffffffc0504024c6:	00000717          	auipc	a4,0x0
ffffffc0504024ca:	c2670713          	addi	a4,a4,-986 # ffffffc0504020ec <handle_load_pagefault>
ffffffc0504024ce:	f7b8                	sd	a4,104(a5)
ffffffc0504024d0:	00200797          	auipc	a5,0x200
ffffffc0504024d4:	b9878793          	addi	a5,a5,-1128 # ffffffc050602068 <exc_table>
ffffffc0504024d8:	00000717          	auipc	a4,0x0
ffffffc0504024dc:	d9c70713          	addi	a4,a4,-612 # ffffffc050402274 <handle_store_pagefault>
ffffffc0504024e0:	ffb8                	sd	a4,120(a5)
ffffffc0504024e2:	b6bfd0ef          	jal	ra,ffffffc05040004c <setup_exception>
ffffffc0504024e6:	0001                	nop
ffffffc0504024e8:	60e2                	ld	ra,24(sp)
ffffffc0504024ea:	6442                	ld	s0,16(sp)
ffffffc0504024ec:	6105                	addi	sp,sp,32
ffffffc0504024ee:	8082                	ret

ffffffc0504024f0 <handle_other>:
ffffffc0504024f0:	710d                	addi	sp,sp,-352
ffffffc0504024f2:	ee86                	sd	ra,344(sp)
ffffffc0504024f4:	eaa2                	sd	s0,336(sp)
ffffffc0504024f6:	1280                	addi	s0,sp,352
ffffffc0504024f8:	eaa43c23          	sd	a0,-328(s0)
ffffffc0504024fc:	eab43823          	sd	a1,-336(s0)
ffffffc050402500:	eac43423          	sd	a2,-344(s0)
ffffffc050402504:	0000b717          	auipc	a4,0xb
ffffffc050402508:	97c70713          	addi	a4,a4,-1668 # ffffffc05040ce80 <__FUNCTION__.2179+0x278>
ffffffc05040250c:	ec840793          	addi	a5,s0,-312
ffffffc050402510:	86ba                	mv	a3,a4
ffffffc050402512:	10000713          	li	a4,256
ffffffc050402516:	863a                	mv	a2,a4
ffffffc050402518:	85b6                	mv	a1,a3
ffffffc05040251a:	853e                	mv	a0,a5
ffffffc05040251c:	0e3090ef          	jal	ra,ffffffc05040bdfe <memcpy>
ffffffc050402520:	fe042623          	sw	zero,-20(s0)
ffffffc050402524:	a061                	j	ffffffc0504025ac <handle_other+0xbc>
ffffffc050402526:	fe042423          	sw	zero,-24(s0)
ffffffc05040252a:	a0a9                	j	ffffffc050402574 <handle_other+0x84>
ffffffc05040252c:	fec42703          	lw	a4,-20(s0)
ffffffc050402530:	fe842783          	lw	a5,-24(s0)
ffffffc050402534:	9fb9                	addw	a5,a5,a4
ffffffc050402536:	2781                	sext.w	a5,a5
ffffffc050402538:	078e                	slli	a5,a5,0x3
ffffffc05040253a:	ff040713          	addi	a4,s0,-16
ffffffc05040253e:	97ba                	add	a5,a5,a4
ffffffc050402540:	ed87b683          	ld	a3,-296(a5)
ffffffc050402544:	fec42703          	lw	a4,-20(s0)
ffffffc050402548:	fe842783          	lw	a5,-24(s0)
ffffffc05040254c:	9fb9                	addw	a5,a5,a4
ffffffc05040254e:	2781                	sext.w	a5,a5
ffffffc050402550:	eb843703          	ld	a4,-328(s0)
ffffffc050402554:	078e                	slli	a5,a5,0x3
ffffffc050402556:	97ba                	add	a5,a5,a4
ffffffc050402558:	639c                	ld	a5,0(a5)
ffffffc05040255a:	863e                	mv	a2,a5
ffffffc05040255c:	85b6                	mv	a1,a3
ffffffc05040255e:	0000b517          	auipc	a0,0xb
ffffffc050402562:	88250513          	addi	a0,a0,-1918 # ffffffc05040cde0 <__FUNCTION__.2179+0x1d8>
ffffffc050402566:	31e0a0ef          	jal	ra,ffffffc05040c884 <printk>
ffffffc05040256a:	fe842783          	lw	a5,-24(s0)
ffffffc05040256e:	2785                	addiw	a5,a5,1
ffffffc050402570:	fef42423          	sw	a5,-24(s0)
ffffffc050402574:	fe842783          	lw	a5,-24(s0)
ffffffc050402578:	0007871b          	sext.w	a4,a5
ffffffc05040257c:	4789                	li	a5,2
ffffffc05040257e:	00e7cc63          	blt	a5,a4,ffffffc050402596 <handle_other+0xa6>
ffffffc050402582:	fec42703          	lw	a4,-20(s0)
ffffffc050402586:	fe842783          	lw	a5,-24(s0)
ffffffc05040258a:	9fb9                	addw	a5,a5,a4
ffffffc05040258c:	2781                	sext.w	a5,a5
ffffffc05040258e:	873e                	mv	a4,a5
ffffffc050402590:	47fd                	li	a5,31
ffffffc050402592:	f8e7dde3          	bge	a5,a4,ffffffc05040252c <handle_other+0x3c>
ffffffc050402596:	0000b517          	auipc	a0,0xb
ffffffc05040259a:	85a50513          	addi	a0,a0,-1958 # ffffffc05040cdf0 <__FUNCTION__.2179+0x1e8>
ffffffc05040259e:	2e60a0ef          	jal	ra,ffffffc05040c884 <printk>
ffffffc0504025a2:	fec42783          	lw	a5,-20(s0)
ffffffc0504025a6:	278d                	addiw	a5,a5,3
ffffffc0504025a8:	fef42623          	sw	a5,-20(s0)
ffffffc0504025ac:	fec42783          	lw	a5,-20(s0)
ffffffc0504025b0:	0007871b          	sext.w	a4,a5
ffffffc0504025b4:	47fd                	li	a5,31
ffffffc0504025b6:	f6e7d8e3          	bge	a5,a4,ffffffc050402526 <handle_other+0x36>
ffffffc0504025ba:	eb843783          	ld	a5,-328(s0)
ffffffc0504025be:	1007b703          	ld	a4,256(a5)
ffffffc0504025c2:	eb843783          	ld	a5,-328(s0)
ffffffc0504025c6:	1107b603          	ld	a2,272(a5)
ffffffc0504025ca:	eb843783          	ld	a5,-328(s0)
ffffffc0504025ce:	1187b783          	ld	a5,280(a5)
ffffffc0504025d2:	86be                	mv	a3,a5
ffffffc0504025d4:	85ba                	mv	a1,a4
ffffffc0504025d6:	0000b517          	auipc	a0,0xb
ffffffc0504025da:	82250513          	addi	a0,a0,-2014 # ffffffc05040cdf8 <__FUNCTION__.2179+0x1f0>
ffffffc0504025de:	2a60a0ef          	jal	ra,ffffffc05040c884 <printk>
ffffffc0504025e2:	eb843783          	ld	a5,-328(s0)
ffffffc0504025e6:	1087b783          	ld	a5,264(a5)
ffffffc0504025ea:	85be                	mv	a1,a5
ffffffc0504025ec:	0000b517          	auipc	a0,0xb
ffffffc0504025f0:	83c50513          	addi	a0,a0,-1988 # ffffffc05040ce28 <__FUNCTION__.2179+0x220>
ffffffc0504025f4:	2900a0ef          	jal	ra,ffffffc05040c884 <printk>
ffffffc0504025f8:	eb843783          	ld	a5,-328(s0)
ffffffc0504025fc:	63bc                	ld	a5,64(a5)
ffffffc0504025fe:	fef43023          	sd	a5,-32(s0)
ffffffc050402602:	eb843783          	ld	a5,-328(s0)
ffffffc050402606:	6b9c                	ld	a5,16(a5)
ffffffc050402608:	fcf43c23          	sd	a5,-40(s0)
ffffffc05040260c:	0000b517          	auipc	a0,0xb
ffffffc050402610:	82c50513          	addi	a0,a0,-2004 # ffffffc05040ce38 <__FUNCTION__.2179+0x230>
ffffffc050402614:	2700a0ef          	jal	ra,ffffffc05040c884 <printk>
ffffffc050402618:	eb843783          	ld	a5,-328(s0)
ffffffc05040261c:	679c                	ld	a5,8(a5)
ffffffc05040261e:	17f1                	addi	a5,a5,-4
ffffffc050402620:	fe043683          	ld	a3,-32(s0)
ffffffc050402624:	fd843603          	ld	a2,-40(s0)
ffffffc050402628:	85be                	mv	a1,a5
ffffffc05040262a:	0000b517          	auipc	a0,0xb
ffffffc05040262e:	81e50513          	addi	a0,a0,-2018 # ffffffc05040ce48 <__FUNCTION__.2179+0x240>
ffffffc050402632:	2520a0ef          	jal	ra,ffffffc05040c884 <printk>
ffffffc050402636:	a83d                	j	ffffffc050402674 <handle_other+0x184>
ffffffc050402638:	fe043783          	ld	a5,-32(s0)
ffffffc05040263c:	17e1                	addi	a5,a5,-8
ffffffc05040263e:	639c                	ld	a5,0(a5)
ffffffc050402640:	fcf43823          	sd	a5,-48(s0)
ffffffc050402644:	fe043783          	ld	a5,-32(s0)
ffffffc050402648:	17c1                	addi	a5,a5,-16
ffffffc05040264a:	639c                	ld	a5,0(a5)
ffffffc05040264c:	fcf43423          	sd	a5,-56(s0)
ffffffc050402650:	fd043783          	ld	a5,-48(s0)
ffffffc050402654:	17f1                	addi	a5,a5,-4
ffffffc050402656:	fc843683          	ld	a3,-56(s0)
ffffffc05040265a:	fe043603          	ld	a2,-32(s0)
ffffffc05040265e:	85be                	mv	a1,a5
ffffffc050402660:	0000a517          	auipc	a0,0xa
ffffffc050402664:	7e850513          	addi	a0,a0,2024 # ffffffc05040ce48 <__FUNCTION__.2179+0x240>
ffffffc050402668:	21c0a0ef          	jal	ra,ffffffc05040c884 <printk>
ffffffc05040266c:	fc843783          	ld	a5,-56(s0)
ffffffc050402670:	fef43023          	sd	a5,-32(s0)
ffffffc050402674:	fe043703          	ld	a4,-32(s0)
ffffffc050402678:	67c1                	lui	a5,0x10
ffffffc05040267a:	fae7efe3          	bltu	a5,a4,ffffffc050402638 <handle_other+0x148>
ffffffc05040267e:	0000b617          	auipc	a2,0xb
ffffffc050402682:	90260613          	addi	a2,a2,-1790 # ffffffc05040cf80 <__FUNCTION__.2047>
ffffffc050402686:	13100593          	li	a1,305
ffffffc05040268a:	0000a517          	auipc	a0,0xa
ffffffc05040268e:	7de50513          	addi	a0,a0,2014 # ffffffc05040ce68 <__FUNCTION__.2179+0x260>
ffffffc050402692:	b64ff0ef          	jal	ra,ffffffc0504019f6 <_panic>
ffffffc050402696:	0001                	nop
ffffffc050402698:	60f6                	ld	ra,344(sp)
ffffffc05040269a:	6456                	ld	s0,336(sp)
ffffffc05040269c:	6135                	addi	sp,sp,352
ffffffc05040269e:	8082                	ret

ffffffc0504026a0 <sbi_console_putchar>:
ffffffc0504026a0:	1101                	addi	sp,sp,-32
ffffffc0504026a2:	ec22                	sd	s0,24(sp)
ffffffc0504026a4:	1000                	addi	s0,sp,32
ffffffc0504026a6:	87aa                	mv	a5,a0
ffffffc0504026a8:	fef42623          	sw	a5,-20(s0)
ffffffc0504026ac:	fec42783          	lw	a5,-20(s0)
ffffffc0504026b0:	853e                	mv	a0,a5
ffffffc0504026b2:	4581                	li	a1,0
ffffffc0504026b4:	4601                	li	a2,0
ffffffc0504026b6:	4885                	li	a7,1
ffffffc0504026b8:	00000073          	ecall
ffffffc0504026bc:	0001                	nop
ffffffc0504026be:	6462                	ld	s0,24(sp)
ffffffc0504026c0:	6105                	addi	sp,sp,32
ffffffc0504026c2:	8082                	ret

ffffffc0504026c4 <sbi_console_getchar>:
ffffffc0504026c4:	1141                	addi	sp,sp,-16
ffffffc0504026c6:	e422                	sd	s0,8(sp)
ffffffc0504026c8:	0800                	addi	s0,sp,16
ffffffc0504026ca:	4501                	li	a0,0
ffffffc0504026cc:	4581                	li	a1,0
ffffffc0504026ce:	4601                	li	a2,0
ffffffc0504026d0:	4889                	li	a7,2
ffffffc0504026d2:	00000073          	ecall
ffffffc0504026d6:	87aa                	mv	a5,a0
ffffffc0504026d8:	2781                	sext.w	a5,a5
ffffffc0504026da:	853e                	mv	a0,a5
ffffffc0504026dc:	6422                	ld	s0,8(sp)
ffffffc0504026de:	0141                	addi	sp,sp,16
ffffffc0504026e0:	8082                	ret

ffffffc0504026e2 <vt100_move_cursor>:
ffffffc0504026e2:	1101                	addi	sp,sp,-32
ffffffc0504026e4:	ec06                	sd	ra,24(sp)
ffffffc0504026e6:	e822                	sd	s0,16(sp)
ffffffc0504026e8:	1000                	addi	s0,sp,32
ffffffc0504026ea:	87aa                	mv	a5,a0
ffffffc0504026ec:	872e                	mv	a4,a1
ffffffc0504026ee:	fef42623          	sw	a5,-20(s0)
ffffffc0504026f2:	87ba                	mv	a5,a4
ffffffc0504026f4:	fef42423          	sw	a5,-24(s0)
ffffffc0504026f8:	bd9fd0ef          	jal	ra,ffffffc0504002d0 <get_current_cpu_id>
ffffffc0504026fc:	87aa                	mv	a5,a0
ffffffc0504026fe:	e791                	bnez	a5,ffffffc05040270a <vt100_move_cursor+0x28>
ffffffc050402700:	00200797          	auipc	a5,0x200
ffffffc050402704:	8e078793          	addi	a5,a5,-1824 # ffffffc050601fe0 <current_running_core0>
ffffffc050402708:	a029                	j	ffffffc050402712 <vt100_move_cursor+0x30>
ffffffc05040270a:	00200797          	auipc	a5,0x200
ffffffc05040270e:	8ce78793          	addi	a5,a5,-1842 # ffffffc050601fd8 <current_running_core1>
ffffffc050402712:	007ff717          	auipc	a4,0x7ff
ffffffc050402716:	f7e70713          	addi	a4,a4,-130 # ffffffc050c01690 <current_running>
ffffffc05040271a:	e31c                	sd	a5,0(a4)
ffffffc05040271c:	99dfd0ef          	jal	ra,ffffffc0504000b8 <disable_preempt>
ffffffc050402720:	fec42703          	lw	a4,-20(s0)
ffffffc050402724:	fe842783          	lw	a5,-24(s0)
ffffffc050402728:	86ba                	mv	a3,a4
ffffffc05040272a:	863e                	mv	a2,a5
ffffffc05040272c:	45ed                	li	a1,27
ffffffc05040272e:	0000b517          	auipc	a0,0xb
ffffffc050402732:	86250513          	addi	a0,a0,-1950 # ffffffc05040cf90 <__FUNCTION__.2047+0x10>
ffffffc050402736:	14e0a0ef          	jal	ra,ffffffc05040c884 <printk>
ffffffc05040273a:	007ff797          	auipc	a5,0x7ff
ffffffc05040273e:	f5678793          	addi	a5,a5,-170 # ffffffc050c01690 <current_running>
ffffffc050402742:	639c                	ld	a5,0(a5)
ffffffc050402744:	639c                	ld	a5,0(a5)
ffffffc050402746:	fec42703          	lw	a4,-20(s0)
ffffffc05040274a:	df98                	sw	a4,56(a5)
ffffffc05040274c:	007ff797          	auipc	a5,0x7ff
ffffffc050402750:	f4478793          	addi	a5,a5,-188 # ffffffc050c01690 <current_running>
ffffffc050402754:	639c                	ld	a5,0(a5)
ffffffc050402756:	639c                	ld	a5,0(a5)
ffffffc050402758:	fe842703          	lw	a4,-24(s0)
ffffffc05040275c:	dfd8                	sw	a4,60(a5)
ffffffc05040275e:	923fd0ef          	jal	ra,ffffffc050400080 <enable_preempt>
ffffffc050402762:	0001                	nop
ffffffc050402764:	60e2                	ld	ra,24(sp)
ffffffc050402766:	6442                	ld	s0,16(sp)
ffffffc050402768:	6105                	addi	sp,sp,32
ffffffc05040276a:	8082                	ret

ffffffc05040276c <vt100_clear>:
ffffffc05040276c:	1141                	addi	sp,sp,-16
ffffffc05040276e:	e406                	sd	ra,8(sp)
ffffffc050402770:	e022                	sd	s0,0(sp)
ffffffc050402772:	0800                	addi	s0,sp,16
ffffffc050402774:	45ed                	li	a1,27
ffffffc050402776:	0000b517          	auipc	a0,0xb
ffffffc05040277a:	82a50513          	addi	a0,a0,-2006 # ffffffc05040cfa0 <__FUNCTION__.2047+0x20>
ffffffc05040277e:	1060a0ef          	jal	ra,ffffffc05040c884 <printk>
ffffffc050402782:	0001                	nop
ffffffc050402784:	60a2                	ld	ra,8(sp)
ffffffc050402786:	6402                	ld	s0,0(sp)
ffffffc050402788:	0141                	addi	sp,sp,16
ffffffc05040278a:	8082                	ret

ffffffc05040278c <vt100_hidden_cursor>:
ffffffc05040278c:	1141                	addi	sp,sp,-16
ffffffc05040278e:	e422                	sd	s0,8(sp)
ffffffc050402790:	0800                	addi	s0,sp,16
ffffffc050402792:	0001                	nop
ffffffc050402794:	6422                	ld	s0,8(sp)
ffffffc050402796:	0141                	addi	sp,sp,16
ffffffc050402798:	8082                	ret

ffffffc05040279a <screen_write_ch>:
ffffffc05040279a:	1101                	addi	sp,sp,-32
ffffffc05040279c:	ec06                	sd	ra,24(sp)
ffffffc05040279e:	e822                	sd	s0,16(sp)
ffffffc0504027a0:	1000                	addi	s0,sp,32
ffffffc0504027a2:	87aa                	mv	a5,a0
ffffffc0504027a4:	fef407a3          	sb	a5,-17(s0)
ffffffc0504027a8:	b29fd0ef          	jal	ra,ffffffc0504002d0 <get_current_cpu_id>
ffffffc0504027ac:	87aa                	mv	a5,a0
ffffffc0504027ae:	e791                	bnez	a5,ffffffc0504027ba <screen_write_ch+0x20>
ffffffc0504027b0:	00200797          	auipc	a5,0x200
ffffffc0504027b4:	83078793          	addi	a5,a5,-2000 # ffffffc050601fe0 <current_running_core0>
ffffffc0504027b8:	a029                	j	ffffffc0504027c2 <screen_write_ch+0x28>
ffffffc0504027ba:	00200797          	auipc	a5,0x200
ffffffc0504027be:	81e78793          	addi	a5,a5,-2018 # ffffffc050601fd8 <current_running_core1>
ffffffc0504027c2:	007ff717          	auipc	a4,0x7ff
ffffffc0504027c6:	ece70713          	addi	a4,a4,-306 # ffffffc050c01690 <current_running>
ffffffc0504027ca:	e31c                	sd	a5,0(a4)
ffffffc0504027cc:	fef44783          	lbu	a5,-17(s0)
ffffffc0504027d0:	0ff7f713          	andi	a4,a5,255
ffffffc0504027d4:	47a9                	li	a5,10
ffffffc0504027d6:	02f71463          	bne	a4,a5,ffffffc0504027fe <screen_write_ch+0x64>
ffffffc0504027da:	007ff797          	auipc	a5,0x7ff
ffffffc0504027de:	eb678793          	addi	a5,a5,-330 # ffffffc050c01690 <current_running>
ffffffc0504027e2:	639c                	ld	a5,0(a5)
ffffffc0504027e4:	639c                	ld	a5,0(a5)
ffffffc0504027e6:	4705                	li	a4,1
ffffffc0504027e8:	df98                	sw	a4,56(a5)
ffffffc0504027ea:	007ff797          	auipc	a5,0x7ff
ffffffc0504027ee:	ea678793          	addi	a5,a5,-346 # ffffffc050c01690 <current_running>
ffffffc0504027f2:	639c                	ld	a5,0(a5)
ffffffc0504027f4:	639c                	ld	a5,0(a5)
ffffffc0504027f6:	5fd8                	lw	a4,60(a5)
ffffffc0504027f8:	2705                	addiw	a4,a4,1
ffffffc0504027fa:	2701                	sext.w	a4,a4
ffffffc0504027fc:	dfd8                	sw	a4,60(a5)
ffffffc0504027fe:	fef44783          	lbu	a5,-17(s0)
ffffffc050402802:	0ff7f713          	andi	a4,a5,255
ffffffc050402806:	47a1                	li	a5,8
ffffffc050402808:	00f70a63          	beq	a4,a5,ffffffc05040281c <screen_write_ch+0x82>
ffffffc05040280c:	fef44783          	lbu	a5,-17(s0)
ffffffc050402810:	0ff7f713          	andi	a4,a5,255
ffffffc050402814:	07f00793          	li	a5,127
ffffffc050402818:	04f71d63          	bne	a4,a5,ffffffc050402872 <screen_write_ch+0xd8>
ffffffc05040281c:	007ff797          	auipc	a5,0x7ff
ffffffc050402820:	e7478793          	addi	a5,a5,-396 # ffffffc050c01690 <current_running>
ffffffc050402824:	639c                	ld	a5,0(a5)
ffffffc050402826:	639c                	ld	a5,0(a5)
ffffffc050402828:	5fdc                	lw	a5,60(a5)
ffffffc05040282a:	37fd                	addiw	a5,a5,-1
ffffffc05040282c:	2781                	sext.w	a5,a5
ffffffc05040282e:	873e                	mv	a4,a5
ffffffc050402830:	87ba                	mv	a5,a4
ffffffc050402832:	0027979b          	slliw	a5,a5,0x2
ffffffc050402836:	9fb9                	addw	a5,a5,a4
ffffffc050402838:	0047979b          	slliw	a5,a5,0x4
ffffffc05040283c:	0007871b          	sext.w	a4,a5
ffffffc050402840:	007ff797          	auipc	a5,0x7ff
ffffffc050402844:	e5078793          	addi	a5,a5,-432 # ffffffc050c01690 <current_running>
ffffffc050402848:	639c                	ld	a5,0(a5)
ffffffc05040284a:	639c                	ld	a5,0(a5)
ffffffc05040284c:	5f94                	lw	a3,56(a5)
ffffffc05040284e:	36fd                	addiw	a3,a3,-1
ffffffc050402850:	2681                	sext.w	a3,a3
ffffffc050402852:	df94                	sw	a3,56(a5)
ffffffc050402854:	5f9c                	lw	a5,56(a5)
ffffffc050402856:	37fd                	addiw	a5,a5,-1
ffffffc050402858:	2781                	sext.w	a5,a5
ffffffc05040285a:	9fb9                	addw	a5,a5,a4
ffffffc05040285c:	2781                	sext.w	a5,a5
ffffffc05040285e:	001fd717          	auipc	a4,0x1fd
ffffffc050402862:	7a270713          	addi	a4,a4,1954 # ffffffc050600000 <new_screen>
ffffffc050402866:	97ba                	add	a5,a5,a4
ffffffc050402868:	02000713          	li	a4,32
ffffffc05040286c:	00e78023          	sb	a4,0(a5)
ffffffc050402870:	a095                	j	ffffffc0504028d4 <screen_write_ch+0x13a>
ffffffc050402872:	007ff797          	auipc	a5,0x7ff
ffffffc050402876:	e1e78793          	addi	a5,a5,-482 # ffffffc050c01690 <current_running>
ffffffc05040287a:	639c                	ld	a5,0(a5)
ffffffc05040287c:	639c                	ld	a5,0(a5)
ffffffc05040287e:	5fdc                	lw	a5,60(a5)
ffffffc050402880:	37fd                	addiw	a5,a5,-1
ffffffc050402882:	2781                	sext.w	a5,a5
ffffffc050402884:	873e                	mv	a4,a5
ffffffc050402886:	87ba                	mv	a5,a4
ffffffc050402888:	0027979b          	slliw	a5,a5,0x2
ffffffc05040288c:	9fb9                	addw	a5,a5,a4
ffffffc05040288e:	0047979b          	slliw	a5,a5,0x4
ffffffc050402892:	0007871b          	sext.w	a4,a5
ffffffc050402896:	007ff797          	auipc	a5,0x7ff
ffffffc05040289a:	dfa78793          	addi	a5,a5,-518 # ffffffc050c01690 <current_running>
ffffffc05040289e:	639c                	ld	a5,0(a5)
ffffffc0504028a0:	639c                	ld	a5,0(a5)
ffffffc0504028a2:	5f9c                	lw	a5,56(a5)
ffffffc0504028a4:	37fd                	addiw	a5,a5,-1
ffffffc0504028a6:	2781                	sext.w	a5,a5
ffffffc0504028a8:	9fb9                	addw	a5,a5,a4
ffffffc0504028aa:	2781                	sext.w	a5,a5
ffffffc0504028ac:	001fd717          	auipc	a4,0x1fd
ffffffc0504028b0:	75470713          	addi	a4,a4,1876 # ffffffc050600000 <new_screen>
ffffffc0504028b4:	97ba                	add	a5,a5,a4
ffffffc0504028b6:	fef44703          	lbu	a4,-17(s0)
ffffffc0504028ba:	00e78023          	sb	a4,0(a5)
ffffffc0504028be:	007ff797          	auipc	a5,0x7ff
ffffffc0504028c2:	dd278793          	addi	a5,a5,-558 # ffffffc050c01690 <current_running>
ffffffc0504028c6:	639c                	ld	a5,0(a5)
ffffffc0504028c8:	639c                	ld	a5,0(a5)
ffffffc0504028ca:	5f98                	lw	a4,56(a5)
ffffffc0504028cc:	2705                	addiw	a4,a4,1
ffffffc0504028ce:	2701                	sext.w	a4,a4
ffffffc0504028d0:	df98                	sw	a4,56(a5)
ffffffc0504028d2:	0001                	nop
ffffffc0504028d4:	0001                	nop
ffffffc0504028d6:	60e2                	ld	ra,24(sp)
ffffffc0504028d8:	6442                	ld	s0,16(sp)
ffffffc0504028da:	6105                	addi	sp,sp,32
ffffffc0504028dc:	8082                	ret

ffffffc0504028de <init_screen>:
ffffffc0504028de:	1141                	addi	sp,sp,-16
ffffffc0504028e0:	e406                	sd	ra,8(sp)
ffffffc0504028e2:	e022                	sd	s0,0(sp)
ffffffc0504028e4:	0800                	addi	s0,sp,16
ffffffc0504028e6:	ea7ff0ef          	jal	ra,ffffffc05040278c <vt100_hidden_cursor>
ffffffc0504028ea:	e83ff0ef          	jal	ra,ffffffc05040276c <vt100_clear>
ffffffc0504028ee:	0001                	nop
ffffffc0504028f0:	60a2                	ld	ra,8(sp)
ffffffc0504028f2:	6402                	ld	s0,0(sp)
ffffffc0504028f4:	0141                	addi	sp,sp,16
ffffffc0504028f6:	8082                	ret

ffffffc0504028f8 <screen_clear>:
ffffffc0504028f8:	1101                	addi	sp,sp,-32
ffffffc0504028fa:	ec06                	sd	ra,24(sp)
ffffffc0504028fc:	e822                	sd	s0,16(sp)
ffffffc0504028fe:	1000                	addi	s0,sp,32
ffffffc050402900:	9d1fd0ef          	jal	ra,ffffffc0504002d0 <get_current_cpu_id>
ffffffc050402904:	87aa                	mv	a5,a0
ffffffc050402906:	e791                	bnez	a5,ffffffc050402912 <screen_clear+0x1a>
ffffffc050402908:	001ff797          	auipc	a5,0x1ff
ffffffc05040290c:	6d878793          	addi	a5,a5,1752 # ffffffc050601fe0 <current_running_core0>
ffffffc050402910:	a029                	j	ffffffc05040291a <screen_clear+0x22>
ffffffc050402912:	001ff797          	auipc	a5,0x1ff
ffffffc050402916:	6c678793          	addi	a5,a5,1734 # ffffffc050601fd8 <current_running_core1>
ffffffc05040291a:	007ff717          	auipc	a4,0x7ff
ffffffc05040291e:	d7670713          	addi	a4,a4,-650 # ffffffc050c01690 <current_running>
ffffffc050402922:	e31c                	sd	a5,0(a4)
ffffffc050402924:	fe042623          	sw	zero,-20(s0)
ffffffc050402928:	a8a1                	j	ffffffc050402980 <screen_clear+0x88>
ffffffc05040292a:	fe042423          	sw	zero,-24(s0)
ffffffc05040292e:	a825                	j	ffffffc050402966 <screen_clear+0x6e>
ffffffc050402930:	fec42703          	lw	a4,-20(s0)
ffffffc050402934:	87ba                	mv	a5,a4
ffffffc050402936:	0027979b          	slliw	a5,a5,0x2
ffffffc05040293a:	9fb9                	addw	a5,a5,a4
ffffffc05040293c:	0047979b          	slliw	a5,a5,0x4
ffffffc050402940:	2781                	sext.w	a5,a5
ffffffc050402942:	fe842703          	lw	a4,-24(s0)
ffffffc050402946:	9fb9                	addw	a5,a5,a4
ffffffc050402948:	2781                	sext.w	a5,a5
ffffffc05040294a:	001fd717          	auipc	a4,0x1fd
ffffffc05040294e:	6b670713          	addi	a4,a4,1718 # ffffffc050600000 <new_screen>
ffffffc050402952:	97ba                	add	a5,a5,a4
ffffffc050402954:	02000713          	li	a4,32
ffffffc050402958:	00e78023          	sb	a4,0(a5)
ffffffc05040295c:	fe842783          	lw	a5,-24(s0)
ffffffc050402960:	2785                	addiw	a5,a5,1
ffffffc050402962:	fef42423          	sw	a5,-24(s0)
ffffffc050402966:	fe842783          	lw	a5,-24(s0)
ffffffc05040296a:	0007871b          	sext.w	a4,a5
ffffffc05040296e:	04f00793          	li	a5,79
ffffffc050402972:	fae7dfe3          	bge	a5,a4,ffffffc050402930 <screen_clear+0x38>
ffffffc050402976:	fec42783          	lw	a5,-20(s0)
ffffffc05040297a:	2785                	addiw	a5,a5,1
ffffffc05040297c:	fef42623          	sw	a5,-20(s0)
ffffffc050402980:	fec42783          	lw	a5,-20(s0)
ffffffc050402984:	0007871b          	sext.w	a4,a5
ffffffc050402988:	03100793          	li	a5,49
ffffffc05040298c:	f8e7dfe3          	bge	a5,a4,ffffffc05040292a <screen_clear+0x32>
ffffffc050402990:	007ff797          	auipc	a5,0x7ff
ffffffc050402994:	d0078793          	addi	a5,a5,-768 # ffffffc050c01690 <current_running>
ffffffc050402998:	639c                	ld	a5,0(a5)
ffffffc05040299a:	639c                	ld	a5,0(a5)
ffffffc05040299c:	4705                	li	a4,1
ffffffc05040299e:	df98                	sw	a4,56(a5)
ffffffc0504029a0:	007ff797          	auipc	a5,0x7ff
ffffffc0504029a4:	cf078793          	addi	a5,a5,-784 # ffffffc050c01690 <current_running>
ffffffc0504029a8:	639c                	ld	a5,0(a5)
ffffffc0504029aa:	639c                	ld	a5,0(a5)
ffffffc0504029ac:	4705                	li	a4,1
ffffffc0504029ae:	dfd8                	sw	a4,60(a5)
ffffffc0504029b0:	10e000ef          	jal	ra,ffffffc050402abe <screen_reflush>
ffffffc0504029b4:	0001                	nop
ffffffc0504029b6:	60e2                	ld	ra,24(sp)
ffffffc0504029b8:	6442                	ld	s0,16(sp)
ffffffc0504029ba:	6105                	addi	sp,sp,32
ffffffc0504029bc:	8082                	ret

ffffffc0504029be <screen_move_cursor>:
ffffffc0504029be:	1101                	addi	sp,sp,-32
ffffffc0504029c0:	ec06                	sd	ra,24(sp)
ffffffc0504029c2:	e822                	sd	s0,16(sp)
ffffffc0504029c4:	1000                	addi	s0,sp,32
ffffffc0504029c6:	87aa                	mv	a5,a0
ffffffc0504029c8:	872e                	mv	a4,a1
ffffffc0504029ca:	fef42623          	sw	a5,-20(s0)
ffffffc0504029ce:	87ba                	mv	a5,a4
ffffffc0504029d0:	fef42423          	sw	a5,-24(s0)
ffffffc0504029d4:	8fdfd0ef          	jal	ra,ffffffc0504002d0 <get_current_cpu_id>
ffffffc0504029d8:	87aa                	mv	a5,a0
ffffffc0504029da:	e791                	bnez	a5,ffffffc0504029e6 <screen_move_cursor+0x28>
ffffffc0504029dc:	001ff797          	auipc	a5,0x1ff
ffffffc0504029e0:	60478793          	addi	a5,a5,1540 # ffffffc050601fe0 <current_running_core0>
ffffffc0504029e4:	a029                	j	ffffffc0504029ee <screen_move_cursor+0x30>
ffffffc0504029e6:	001ff797          	auipc	a5,0x1ff
ffffffc0504029ea:	5f278793          	addi	a5,a5,1522 # ffffffc050601fd8 <current_running_core1>
ffffffc0504029ee:	007ff717          	auipc	a4,0x7ff
ffffffc0504029f2:	ca270713          	addi	a4,a4,-862 # ffffffc050c01690 <current_running>
ffffffc0504029f6:	e31c                	sd	a5,0(a4)
ffffffc0504029f8:	007ff797          	auipc	a5,0x7ff
ffffffc0504029fc:	c9878793          	addi	a5,a5,-872 # ffffffc050c01690 <current_running>
ffffffc050402a00:	639c                	ld	a5,0(a5)
ffffffc050402a02:	639c                	ld	a5,0(a5)
ffffffc050402a04:	fec42703          	lw	a4,-20(s0)
ffffffc050402a08:	df98                	sw	a4,56(a5)
ffffffc050402a0a:	007ff797          	auipc	a5,0x7ff
ffffffc050402a0e:	c8678793          	addi	a5,a5,-890 # ffffffc050c01690 <current_running>
ffffffc050402a12:	639c                	ld	a5,0(a5)
ffffffc050402a14:	639c                	ld	a5,0(a5)
ffffffc050402a16:	fe842703          	lw	a4,-24(s0)
ffffffc050402a1a:	dfd8                	sw	a4,60(a5)
ffffffc050402a1c:	0001                	nop
ffffffc050402a1e:	60e2                	ld	ra,24(sp)
ffffffc050402a20:	6442                	ld	s0,16(sp)
ffffffc050402a22:	6105                	addi	sp,sp,32
ffffffc050402a24:	8082                	ret

ffffffc050402a26 <screen_write>:
ffffffc050402a26:	7179                	addi	sp,sp,-48
ffffffc050402a28:	f406                	sd	ra,40(sp)
ffffffc050402a2a:	f022                	sd	s0,32(sp)
ffffffc050402a2c:	1800                	addi	s0,sp,48
ffffffc050402a2e:	fca43c23          	sd	a0,-40(s0)
ffffffc050402a32:	fe042623          	sw	zero,-20(s0)
ffffffc050402a36:	fd843503          	ld	a0,-40(s0)
ffffffc050402a3a:	33c090ef          	jal	ra,ffffffc05040bd76 <kstrlen>
ffffffc050402a3e:	87aa                	mv	a5,a0
ffffffc050402a40:	fef42423          	sw	a5,-24(s0)
ffffffc050402a44:	fe042623          	sw	zero,-20(s0)
ffffffc050402a48:	a005                	j	ffffffc050402a68 <screen_write+0x42>
ffffffc050402a4a:	fec42783          	lw	a5,-20(s0)
ffffffc050402a4e:	fd843703          	ld	a4,-40(s0)
ffffffc050402a52:	97ba                	add	a5,a5,a4
ffffffc050402a54:	0007c783          	lbu	a5,0(a5)
ffffffc050402a58:	853e                	mv	a0,a5
ffffffc050402a5a:	d41ff0ef          	jal	ra,ffffffc05040279a <screen_write_ch>
ffffffc050402a5e:	fec42783          	lw	a5,-20(s0)
ffffffc050402a62:	2785                	addiw	a5,a5,1
ffffffc050402a64:	fef42623          	sw	a5,-20(s0)
ffffffc050402a68:	fec42703          	lw	a4,-20(s0)
ffffffc050402a6c:	fe842783          	lw	a5,-24(s0)
ffffffc050402a70:	2701                	sext.w	a4,a4
ffffffc050402a72:	2781                	sext.w	a5,a5
ffffffc050402a74:	fcf74be3          	blt	a4,a5,ffffffc050402a4a <screen_write+0x24>
ffffffc050402a78:	0001                	nop
ffffffc050402a7a:	0001                	nop
ffffffc050402a7c:	70a2                	ld	ra,40(sp)
ffffffc050402a7e:	7402                	ld	s0,32(sp)
ffffffc050402a80:	6145                	addi	sp,sp,48
ffffffc050402a82:	8082                	ret

ffffffc050402a84 <serial_getchar>:
ffffffc050402a84:	1141                	addi	sp,sp,-16
ffffffc050402a86:	e406                	sd	ra,8(sp)
ffffffc050402a88:	e022                	sd	s0,0(sp)
ffffffc050402a8a:	0800                	addi	s0,sp,16
ffffffc050402a8c:	c39ff0ef          	jal	ra,ffffffc0504026c4 <sbi_console_getchar>
ffffffc050402a90:	87aa                	mv	a5,a0
ffffffc050402a92:	853e                	mv	a0,a5
ffffffc050402a94:	60a2                	ld	ra,8(sp)
ffffffc050402a96:	6402                	ld	s0,0(sp)
ffffffc050402a98:	0141                	addi	sp,sp,16
ffffffc050402a9a:	8082                	ret

ffffffc050402a9c <serial_putchar>:
ffffffc050402a9c:	1101                	addi	sp,sp,-32
ffffffc050402a9e:	ec06                	sd	ra,24(sp)
ffffffc050402aa0:	e822                	sd	s0,16(sp)
ffffffc050402aa2:	1000                	addi	s0,sp,32
ffffffc050402aa4:	87aa                	mv	a5,a0
ffffffc050402aa6:	fef42623          	sw	a5,-20(s0)
ffffffc050402aaa:	fec42783          	lw	a5,-20(s0)
ffffffc050402aae:	853e                	mv	a0,a5
ffffffc050402ab0:	bf1ff0ef          	jal	ra,ffffffc0504026a0 <sbi_console_putchar>
ffffffc050402ab4:	0001                	nop
ffffffc050402ab6:	60e2                	ld	ra,24(sp)
ffffffc050402ab8:	6442                	ld	s0,16(sp)
ffffffc050402aba:	6105                	addi	sp,sp,32
ffffffc050402abc:	8082                	ret

ffffffc050402abe <screen_reflush>:
ffffffc050402abe:	1101                	addi	sp,sp,-32
ffffffc050402ac0:	ec06                	sd	ra,24(sp)
ffffffc050402ac2:	e822                	sd	s0,16(sp)
ffffffc050402ac4:	1000                	addi	s0,sp,32
ffffffc050402ac6:	80bfd0ef          	jal	ra,ffffffc0504002d0 <get_current_cpu_id>
ffffffc050402aca:	87aa                	mv	a5,a0
ffffffc050402acc:	e791                	bnez	a5,ffffffc050402ad8 <screen_reflush+0x1a>
ffffffc050402ace:	001ff797          	auipc	a5,0x1ff
ffffffc050402ad2:	51278793          	addi	a5,a5,1298 # ffffffc050601fe0 <current_running_core0>
ffffffc050402ad6:	a029                	j	ffffffc050402ae0 <screen_reflush+0x22>
ffffffc050402ad8:	001ff797          	auipc	a5,0x1ff
ffffffc050402adc:	50078793          	addi	a5,a5,1280 # ffffffc050601fd8 <current_running_core1>
ffffffc050402ae0:	007ff717          	auipc	a4,0x7ff
ffffffc050402ae4:	bb070713          	addi	a4,a4,-1104 # ffffffc050c01690 <current_running>
ffffffc050402ae8:	e31c                	sd	a5,0(a4)
ffffffc050402aea:	007ff797          	auipc	a5,0x7ff
ffffffc050402aee:	ba678793          	addi	a5,a5,-1114 # ffffffc050c01690 <current_running>
ffffffc050402af2:	639c                	ld	a5,0(a5)
ffffffc050402af4:	639c                	ld	a5,0(a5)
ffffffc050402af6:	5f9c                	lw	a5,56(a5)
ffffffc050402af8:	fef42223          	sw	a5,-28(s0)
ffffffc050402afc:	007ff797          	auipc	a5,0x7ff
ffffffc050402b00:	b9478793          	addi	a5,a5,-1132 # ffffffc050c01690 <current_running>
ffffffc050402b04:	639c                	ld	a5,0(a5)
ffffffc050402b06:	639c                	ld	a5,0(a5)
ffffffc050402b08:	5fdc                	lw	a5,60(a5)
ffffffc050402b0a:	fef42023          	sw	a5,-32(s0)
ffffffc050402b0e:	fe042623          	sw	zero,-20(s0)
ffffffc050402b12:	aa31                	j	ffffffc050402c2e <screen_reflush+0x170>
ffffffc050402b14:	fe042423          	sw	zero,-24(s0)
ffffffc050402b18:	a8f5                	j	ffffffc050402c14 <screen_reflush+0x156>
ffffffc050402b1a:	fec42703          	lw	a4,-20(s0)
ffffffc050402b1e:	87ba                	mv	a5,a4
ffffffc050402b20:	0027979b          	slliw	a5,a5,0x2
ffffffc050402b24:	9fb9                	addw	a5,a5,a4
ffffffc050402b26:	0047979b          	slliw	a5,a5,0x4
ffffffc050402b2a:	2781                	sext.w	a5,a5
ffffffc050402b2c:	fe842703          	lw	a4,-24(s0)
ffffffc050402b30:	9fb9                	addw	a5,a5,a4
ffffffc050402b32:	2781                	sext.w	a5,a5
ffffffc050402b34:	001fd717          	auipc	a4,0x1fd
ffffffc050402b38:	4cc70713          	addi	a4,a4,1228 # ffffffc050600000 <new_screen>
ffffffc050402b3c:	97ba                	add	a5,a5,a4
ffffffc050402b3e:	0007c683          	lbu	a3,0(a5)
ffffffc050402b42:	fec42703          	lw	a4,-20(s0)
ffffffc050402b46:	87ba                	mv	a5,a4
ffffffc050402b48:	0027979b          	slliw	a5,a5,0x2
ffffffc050402b4c:	9fb9                	addw	a5,a5,a4
ffffffc050402b4e:	0047979b          	slliw	a5,a5,0x4
ffffffc050402b52:	2781                	sext.w	a5,a5
ffffffc050402b54:	fe842703          	lw	a4,-24(s0)
ffffffc050402b58:	9fb9                	addw	a5,a5,a4
ffffffc050402b5a:	2781                	sext.w	a5,a5
ffffffc050402b5c:	001fe717          	auipc	a4,0x1fe
ffffffc050402b60:	44470713          	addi	a4,a4,1092 # ffffffc050600fa0 <old_screen>
ffffffc050402b64:	97ba                	add	a5,a5,a4
ffffffc050402b66:	0007c783          	lbu	a5,0(a5)
ffffffc050402b6a:	8736                	mv	a4,a3
ffffffc050402b6c:	08f70f63          	beq	a4,a5,ffffffc050402c0a <screen_reflush+0x14c>
ffffffc050402b70:	fe842783          	lw	a5,-24(s0)
ffffffc050402b74:	2785                	addiw	a5,a5,1
ffffffc050402b76:	0007871b          	sext.w	a4,a5
ffffffc050402b7a:	fec42783          	lw	a5,-20(s0)
ffffffc050402b7e:	2785                	addiw	a5,a5,1
ffffffc050402b80:	2781                	sext.w	a5,a5
ffffffc050402b82:	85be                	mv	a1,a5
ffffffc050402b84:	853a                	mv	a0,a4
ffffffc050402b86:	b5dff0ef          	jal	ra,ffffffc0504026e2 <vt100_move_cursor>
ffffffc050402b8a:	fec42703          	lw	a4,-20(s0)
ffffffc050402b8e:	87ba                	mv	a5,a4
ffffffc050402b90:	0027979b          	slliw	a5,a5,0x2
ffffffc050402b94:	9fb9                	addw	a5,a5,a4
ffffffc050402b96:	0047979b          	slliw	a5,a5,0x4
ffffffc050402b9a:	2781                	sext.w	a5,a5
ffffffc050402b9c:	fe842703          	lw	a4,-24(s0)
ffffffc050402ba0:	9fb9                	addw	a5,a5,a4
ffffffc050402ba2:	2781                	sext.w	a5,a5
ffffffc050402ba4:	001fd717          	auipc	a4,0x1fd
ffffffc050402ba8:	45c70713          	addi	a4,a4,1116 # ffffffc050600000 <new_screen>
ffffffc050402bac:	97ba                	add	a5,a5,a4
ffffffc050402bae:	0007c783          	lbu	a5,0(a5)
ffffffc050402bb2:	853e                	mv	a0,a5
ffffffc050402bb4:	ebafd0ef          	jal	ra,ffffffc05040026e <port_write_ch>
ffffffc050402bb8:	fec42703          	lw	a4,-20(s0)
ffffffc050402bbc:	87ba                	mv	a5,a4
ffffffc050402bbe:	0027979b          	slliw	a5,a5,0x2
ffffffc050402bc2:	9fb9                	addw	a5,a5,a4
ffffffc050402bc4:	0047979b          	slliw	a5,a5,0x4
ffffffc050402bc8:	2781                	sext.w	a5,a5
ffffffc050402bca:	fe842703          	lw	a4,-24(s0)
ffffffc050402bce:	9fb9                	addw	a5,a5,a4
ffffffc050402bd0:	0007869b          	sext.w	a3,a5
ffffffc050402bd4:	fec42703          	lw	a4,-20(s0)
ffffffc050402bd8:	87ba                	mv	a5,a4
ffffffc050402bda:	0027979b          	slliw	a5,a5,0x2
ffffffc050402bde:	9fb9                	addw	a5,a5,a4
ffffffc050402be0:	0047979b          	slliw	a5,a5,0x4
ffffffc050402be4:	2781                	sext.w	a5,a5
ffffffc050402be6:	fe842703          	lw	a4,-24(s0)
ffffffc050402bea:	9fb9                	addw	a5,a5,a4
ffffffc050402bec:	2781                	sext.w	a5,a5
ffffffc050402bee:	001fd717          	auipc	a4,0x1fd
ffffffc050402bf2:	41270713          	addi	a4,a4,1042 # ffffffc050600000 <new_screen>
ffffffc050402bf6:	9736                	add	a4,a4,a3
ffffffc050402bf8:	00074703          	lbu	a4,0(a4)
ffffffc050402bfc:	001fe697          	auipc	a3,0x1fe
ffffffc050402c00:	3a468693          	addi	a3,a3,932 # ffffffc050600fa0 <old_screen>
ffffffc050402c04:	97b6                	add	a5,a5,a3
ffffffc050402c06:	00e78023          	sb	a4,0(a5)
ffffffc050402c0a:	fe842783          	lw	a5,-24(s0)
ffffffc050402c0e:	2785                	addiw	a5,a5,1
ffffffc050402c10:	fef42423          	sw	a5,-24(s0)
ffffffc050402c14:	fe842783          	lw	a5,-24(s0)
ffffffc050402c18:	0007871b          	sext.w	a4,a5
ffffffc050402c1c:	04f00793          	li	a5,79
ffffffc050402c20:	eee7dde3          	bge	a5,a4,ffffffc050402b1a <screen_reflush+0x5c>
ffffffc050402c24:	fec42783          	lw	a5,-20(s0)
ffffffc050402c28:	2785                	addiw	a5,a5,1
ffffffc050402c2a:	fef42623          	sw	a5,-20(s0)
ffffffc050402c2e:	fec42783          	lw	a5,-20(s0)
ffffffc050402c32:	0007871b          	sext.w	a4,a5
ffffffc050402c36:	03100793          	li	a5,49
ffffffc050402c3a:	ece7dde3          	bge	a5,a4,ffffffc050402b14 <screen_reflush+0x56>
ffffffc050402c3e:	007ff797          	auipc	a5,0x7ff
ffffffc050402c42:	a5278793          	addi	a5,a5,-1454 # ffffffc050c01690 <current_running>
ffffffc050402c46:	639c                	ld	a5,0(a5)
ffffffc050402c48:	639c                	ld	a5,0(a5)
ffffffc050402c4a:	fe442703          	lw	a4,-28(s0)
ffffffc050402c4e:	df98                	sw	a4,56(a5)
ffffffc050402c50:	007ff797          	auipc	a5,0x7ff
ffffffc050402c54:	a4078793          	addi	a5,a5,-1472 # ffffffc050c01690 <current_running>
ffffffc050402c58:	639c                	ld	a5,0(a5)
ffffffc050402c5a:	639c                	ld	a5,0(a5)
ffffffc050402c5c:	fe042703          	lw	a4,-32(s0)
ffffffc050402c60:	dfd8                	sw	a4,60(a5)
ffffffc050402c62:	007ff797          	auipc	a5,0x7ff
ffffffc050402c66:	a2e78793          	addi	a5,a5,-1490 # ffffffc050c01690 <current_running>
ffffffc050402c6a:	639c                	ld	a5,0(a5)
ffffffc050402c6c:	639c                	ld	a5,0(a5)
ffffffc050402c6e:	5f98                	lw	a4,56(a5)
ffffffc050402c70:	007ff797          	auipc	a5,0x7ff
ffffffc050402c74:	a2078793          	addi	a5,a5,-1504 # ffffffc050c01690 <current_running>
ffffffc050402c78:	639c                	ld	a5,0(a5)
ffffffc050402c7a:	639c                	ld	a5,0(a5)
ffffffc050402c7c:	5fdc                	lw	a5,60(a5)
ffffffc050402c7e:	85be                	mv	a1,a5
ffffffc050402c80:	853a                	mv	a0,a4
ffffffc050402c82:	a61ff0ef          	jal	ra,ffffffc0504026e2 <vt100_move_cursor>
ffffffc050402c86:	0001                	nop
ffffffc050402c88:	60e2                	ld	ra,24(sp)
ffffffc050402c8a:	6442                	ld	s0,16(sp)
ffffffc050402c8c:	6105                	addi	sp,sp,32
ffffffc050402c8e:	8082                	ret

ffffffc050402c90 <screen_scroll>:
ffffffc050402c90:	7179                	addi	sp,sp,-48
ffffffc050402c92:	f406                	sd	ra,40(sp)
ffffffc050402c94:	f022                	sd	s0,32(sp)
ffffffc050402c96:	1800                	addi	s0,sp,48
ffffffc050402c98:	87aa                	mv	a5,a0
ffffffc050402c9a:	872e                	mv	a4,a1
ffffffc050402c9c:	fcf42e23          	sw	a5,-36(s0)
ffffffc050402ca0:	87ba                	mv	a5,a4
ffffffc050402ca2:	fcf42c23          	sw	a5,-40(s0)
ffffffc050402ca6:	e2afd0ef          	jal	ra,ffffffc0504002d0 <get_current_cpu_id>
ffffffc050402caa:	87aa                	mv	a5,a0
ffffffc050402cac:	e791                	bnez	a5,ffffffc050402cb8 <screen_scroll+0x28>
ffffffc050402cae:	001ff797          	auipc	a5,0x1ff
ffffffc050402cb2:	33278793          	addi	a5,a5,818 # ffffffc050601fe0 <current_running_core0>
ffffffc050402cb6:	a029                	j	ffffffc050402cc0 <screen_scroll+0x30>
ffffffc050402cb8:	001ff797          	auipc	a5,0x1ff
ffffffc050402cbc:	32078793          	addi	a5,a5,800 # ffffffc050601fd8 <current_running_core1>
ffffffc050402cc0:	007ff717          	auipc	a4,0x7ff
ffffffc050402cc4:	9d070713          	addi	a4,a4,-1584 # ffffffc050c01690 <current_running>
ffffffc050402cc8:	e31c                	sd	a5,0(a4)
ffffffc050402cca:	fdc42783          	lw	a5,-36(s0)
ffffffc050402cce:	fef42623          	sw	a5,-20(s0)
ffffffc050402cd2:	a891                	j	ffffffc050402d26 <screen_scroll+0x96>
ffffffc050402cd4:	fe042423          	sw	zero,-24(s0)
ffffffc050402cd8:	a815                	j	ffffffc050402d0c <screen_scroll+0x7c>
ffffffc050402cda:	fec42703          	lw	a4,-20(s0)
ffffffc050402cde:	87ba                	mv	a5,a4
ffffffc050402ce0:	0027979b          	slliw	a5,a5,0x2
ffffffc050402ce4:	9fb9                	addw	a5,a5,a4
ffffffc050402ce6:	0047979b          	slliw	a5,a5,0x4
ffffffc050402cea:	2781                	sext.w	a5,a5
ffffffc050402cec:	fe842703          	lw	a4,-24(s0)
ffffffc050402cf0:	9fb9                	addw	a5,a5,a4
ffffffc050402cf2:	2781                	sext.w	a5,a5
ffffffc050402cf4:	001fe717          	auipc	a4,0x1fe
ffffffc050402cf8:	2ac70713          	addi	a4,a4,684 # ffffffc050600fa0 <old_screen>
ffffffc050402cfc:	97ba                	add	a5,a5,a4
ffffffc050402cfe:	00078023          	sb	zero,0(a5)
ffffffc050402d02:	fe842783          	lw	a5,-24(s0)
ffffffc050402d06:	2785                	addiw	a5,a5,1
ffffffc050402d08:	fef42423          	sw	a5,-24(s0)
ffffffc050402d0c:	fe842783          	lw	a5,-24(s0)
ffffffc050402d10:	0007871b          	sext.w	a4,a5
ffffffc050402d14:	04f00793          	li	a5,79
ffffffc050402d18:	fce7d1e3          	bge	a5,a4,ffffffc050402cda <screen_scroll+0x4a>
ffffffc050402d1c:	fec42783          	lw	a5,-20(s0)
ffffffc050402d20:	2785                	addiw	a5,a5,1
ffffffc050402d22:	fef42623          	sw	a5,-20(s0)
ffffffc050402d26:	fec42703          	lw	a4,-20(s0)
ffffffc050402d2a:	fd842783          	lw	a5,-40(s0)
ffffffc050402d2e:	2701                	sext.w	a4,a4
ffffffc050402d30:	2781                	sext.w	a5,a5
ffffffc050402d32:	fae7d1e3          	bge	a5,a4,ffffffc050402cd4 <screen_scroll+0x44>
ffffffc050402d36:	fdc42783          	lw	a5,-36(s0)
ffffffc050402d3a:	fef42623          	sw	a5,-20(s0)
ffffffc050402d3e:	a0c9                	j	ffffffc050402e00 <screen_scroll+0x170>
ffffffc050402d40:	fe042423          	sw	zero,-24(s0)
ffffffc050402d44:	a04d                	j	ffffffc050402de6 <screen_scroll+0x156>
ffffffc050402d46:	fec42703          	lw	a4,-20(s0)
ffffffc050402d4a:	fd842783          	lw	a5,-40(s0)
ffffffc050402d4e:	2701                	sext.w	a4,a4
ffffffc050402d50:	2781                	sext.w	a5,a5
ffffffc050402d52:	02f71963          	bne	a4,a5,ffffffc050402d84 <screen_scroll+0xf4>
ffffffc050402d56:	fec42703          	lw	a4,-20(s0)
ffffffc050402d5a:	87ba                	mv	a5,a4
ffffffc050402d5c:	0027979b          	slliw	a5,a5,0x2
ffffffc050402d60:	9fb9                	addw	a5,a5,a4
ffffffc050402d62:	0047979b          	slliw	a5,a5,0x4
ffffffc050402d66:	2781                	sext.w	a5,a5
ffffffc050402d68:	fe842703          	lw	a4,-24(s0)
ffffffc050402d6c:	9fb9                	addw	a5,a5,a4
ffffffc050402d6e:	2781                	sext.w	a5,a5
ffffffc050402d70:	001fd717          	auipc	a4,0x1fd
ffffffc050402d74:	29070713          	addi	a4,a4,656 # ffffffc050600000 <new_screen>
ffffffc050402d78:	97ba                	add	a5,a5,a4
ffffffc050402d7a:	02000713          	li	a4,32
ffffffc050402d7e:	00e78023          	sb	a4,0(a5)
ffffffc050402d82:	a8a9                	j	ffffffc050402ddc <screen_scroll+0x14c>
ffffffc050402d84:	fec42783          	lw	a5,-20(s0)
ffffffc050402d88:	2785                	addiw	a5,a5,1
ffffffc050402d8a:	2781                	sext.w	a5,a5
ffffffc050402d8c:	873e                	mv	a4,a5
ffffffc050402d8e:	87ba                	mv	a5,a4
ffffffc050402d90:	0027979b          	slliw	a5,a5,0x2
ffffffc050402d94:	9fb9                	addw	a5,a5,a4
ffffffc050402d96:	0047979b          	slliw	a5,a5,0x4
ffffffc050402d9a:	2781                	sext.w	a5,a5
ffffffc050402d9c:	fe842703          	lw	a4,-24(s0)
ffffffc050402da0:	9fb9                	addw	a5,a5,a4
ffffffc050402da2:	0007869b          	sext.w	a3,a5
ffffffc050402da6:	fec42703          	lw	a4,-20(s0)
ffffffc050402daa:	87ba                	mv	a5,a4
ffffffc050402dac:	0027979b          	slliw	a5,a5,0x2
ffffffc050402db0:	9fb9                	addw	a5,a5,a4
ffffffc050402db2:	0047979b          	slliw	a5,a5,0x4
ffffffc050402db6:	2781                	sext.w	a5,a5
ffffffc050402db8:	fe842703          	lw	a4,-24(s0)
ffffffc050402dbc:	9fb9                	addw	a5,a5,a4
ffffffc050402dbe:	2781                	sext.w	a5,a5
ffffffc050402dc0:	001fd717          	auipc	a4,0x1fd
ffffffc050402dc4:	24070713          	addi	a4,a4,576 # ffffffc050600000 <new_screen>
ffffffc050402dc8:	9736                	add	a4,a4,a3
ffffffc050402dca:	00074703          	lbu	a4,0(a4)
ffffffc050402dce:	001fd697          	auipc	a3,0x1fd
ffffffc050402dd2:	23268693          	addi	a3,a3,562 # ffffffc050600000 <new_screen>
ffffffc050402dd6:	97b6                	add	a5,a5,a3
ffffffc050402dd8:	00e78023          	sb	a4,0(a5)
ffffffc050402ddc:	fe842783          	lw	a5,-24(s0)
ffffffc050402de0:	2785                	addiw	a5,a5,1
ffffffc050402de2:	fef42423          	sw	a5,-24(s0)
ffffffc050402de6:	fe842783          	lw	a5,-24(s0)
ffffffc050402dea:	0007871b          	sext.w	a4,a5
ffffffc050402dee:	04f00793          	li	a5,79
ffffffc050402df2:	f4e7dae3          	bge	a5,a4,ffffffc050402d46 <screen_scroll+0xb6>
ffffffc050402df6:	fec42783          	lw	a5,-20(s0)
ffffffc050402dfa:	2785                	addiw	a5,a5,1
ffffffc050402dfc:	fef42623          	sw	a5,-20(s0)
ffffffc050402e00:	fec42703          	lw	a4,-20(s0)
ffffffc050402e04:	fd842783          	lw	a5,-40(s0)
ffffffc050402e08:	2701                	sext.w	a4,a4
ffffffc050402e0a:	2781                	sext.w	a5,a5
ffffffc050402e0c:	f2e7dae3          	bge	a5,a4,ffffffc050402d40 <screen_scroll+0xb0>
ffffffc050402e10:	007ff797          	auipc	a5,0x7ff
ffffffc050402e14:	88078793          	addi	a5,a5,-1920 # ffffffc050c01690 <current_running>
ffffffc050402e18:	639c                	ld	a5,0(a5)
ffffffc050402e1a:	639c                	ld	a5,0(a5)
ffffffc050402e1c:	5fd8                	lw	a4,60(a5)
ffffffc050402e1e:	377d                	addiw	a4,a4,-1
ffffffc050402e20:	2701                	sext.w	a4,a4
ffffffc050402e22:	dfd8                	sw	a4,60(a5)
ffffffc050402e24:	c9bff0ef          	jal	ra,ffffffc050402abe <screen_reflush>
ffffffc050402e28:	0001                	nop
ffffffc050402e2a:	70a2                	ld	ra,40(sp)
ffffffc050402e2c:	7402                	ld	s0,32(sp)
ffffffc050402e2e:	6145                	addi	sp,sp,48
ffffffc050402e30:	8082                	ret

ffffffc050402e32 <kernel_screen_scroll_check>:
ffffffc050402e32:	1141                	addi	sp,sp,-16
ffffffc050402e34:	e406                	sd	ra,8(sp)
ffffffc050402e36:	e022                	sd	s0,0(sp)
ffffffc050402e38:	0800                	addi	s0,sp,16
ffffffc050402e3a:	c96fd0ef          	jal	ra,ffffffc0504002d0 <get_current_cpu_id>
ffffffc050402e3e:	87aa                	mv	a5,a0
ffffffc050402e40:	e791                	bnez	a5,ffffffc050402e4c <kernel_screen_scroll_check+0x1a>
ffffffc050402e42:	001ff797          	auipc	a5,0x1ff
ffffffc050402e46:	19e78793          	addi	a5,a5,414 # ffffffc050601fe0 <current_running_core0>
ffffffc050402e4a:	a029                	j	ffffffc050402e54 <kernel_screen_scroll_check+0x22>
ffffffc050402e4c:	001ff797          	auipc	a5,0x1ff
ffffffc050402e50:	18c78793          	addi	a5,a5,396 # ffffffc050601fd8 <current_running_core1>
ffffffc050402e54:	007ff717          	auipc	a4,0x7ff
ffffffc050402e58:	83c70713          	addi	a4,a4,-1988 # ffffffc050c01690 <current_running>
ffffffc050402e5c:	e31c                	sd	a5,0(a4)
ffffffc050402e5e:	007ff797          	auipc	a5,0x7ff
ffffffc050402e62:	83278793          	addi	a5,a5,-1998 # ffffffc050c01690 <current_running>
ffffffc050402e66:	639c                	ld	a5,0(a5)
ffffffc050402e68:	639c                	ld	a5,0(a5)
ffffffc050402e6a:	5fdc                	lw	a5,60(a5)
ffffffc050402e6c:	873e                	mv	a4,a5
ffffffc050402e6e:	47f9                	li	a5,30
ffffffc050402e70:	00e7df63          	bge	a5,a4,ffffffc050402e8e <kernel_screen_scroll_check+0x5c>
ffffffc050402e74:	007ff797          	auipc	a5,0x7ff
ffffffc050402e78:	81c78793          	addi	a5,a5,-2020 # ffffffc050c01690 <current_running>
ffffffc050402e7c:	639c                	ld	a5,0(a5)
ffffffc050402e7e:	639c                	ld	a5,0(a5)
ffffffc050402e80:	5fdc                	lw	a5,60(a5)
ffffffc050402e82:	37fd                	addiw	a5,a5,-1
ffffffc050402e84:	2781                	sext.w	a5,a5
ffffffc050402e86:	85be                	mv	a1,a5
ffffffc050402e88:	454d                	li	a0,19
ffffffc050402e8a:	e07ff0ef          	jal	ra,ffffffc050402c90 <screen_scroll>
ffffffc050402e8e:	0001                	nop
ffffffc050402e90:	60a2                	ld	ra,8(sp)
ffffffc050402e92:	6402                	ld	s0,0(sp)
ffffffc050402e94:	0141                	addi	sp,sp,16
ffffffc050402e96:	8082                	ret

ffffffc050402e98 <kva2pa>:
ffffffc050402e98:	1101                	addi	sp,sp,-32
ffffffc050402e9a:	ec22                	sd	s0,24(sp)
ffffffc050402e9c:	1000                	addi	s0,sp,32
ffffffc050402e9e:	fea43423          	sd	a0,-24(s0)
ffffffc050402ea2:	fe843703          	ld	a4,-24(s0)
ffffffc050402ea6:	4785                	li	a5,1
ffffffc050402ea8:	179a                	slli	a5,a5,0x26
ffffffc050402eaa:	97ba                	add	a5,a5,a4
ffffffc050402eac:	853e                	mv	a0,a5
ffffffc050402eae:	6462                	ld	s0,24(sp)
ffffffc050402eb0:	6105                	addi	sp,sp,32
ffffffc050402eb2:	8082                	ret

ffffffc050402eb4 <do_net_recv>:
ffffffc050402eb4:	7139                	addi	sp,sp,-64
ffffffc050402eb6:	fc06                	sd	ra,56(sp)
ffffffc050402eb8:	f822                	sd	s0,48(sp)
ffffffc050402eba:	0080                	addi	s0,sp,64
ffffffc050402ebc:	fca43c23          	sd	a0,-40(s0)
ffffffc050402ec0:	fcb43823          	sd	a1,-48(s0)
ffffffc050402ec4:	87b2                	mv	a5,a2
ffffffc050402ec6:	fcd43023          	sd	a3,-64(s0)
ffffffc050402eca:	fcf42623          	sw	a5,-52(s0)
ffffffc050402ece:	fcc42783          	lw	a5,-52(s0)
ffffffc050402ed2:	fef42623          	sw	a5,-20(s0)
ffffffc050402ed6:	a211                	j	ffffffc050402fda <do_net_recv+0x126>
ffffffc050402ed8:	fec42783          	lw	a5,-20(s0)
ffffffc050402edc:	0007869b          	sext.w	a3,a5
ffffffc050402ee0:	02000713          	li	a4,32
ffffffc050402ee4:	00d75463          	bge	a4,a3,ffffffc050402eec <do_net_recv+0x38>
ffffffc050402ee8:	02000793          	li	a5,32
ffffffc050402eec:	fef42223          	sw	a5,-28(s0)
ffffffc050402ef0:	001ff797          	auipc	a5,0x1ff
ffffffc050402ef4:	29078793          	addi	a5,a5,656 # ffffffc050602180 <rx_buffers>
ffffffc050402ef8:	853e                	mv	a0,a5
ffffffc050402efa:	f9fff0ef          	jal	ra,ffffffc050402e98 <kva2pa>
ffffffc050402efe:	87aa                	mv	a5,a0
ffffffc050402f00:	873e                	mv	a4,a5
ffffffc050402f02:	fe442783          	lw	a5,-28(s0)
ffffffc050402f06:	863e                	mv	a2,a5
ffffffc050402f08:	85ba                	mv	a1,a4
ffffffc050402f0a:	0020c517          	auipc	a0,0x20c
ffffffc050402f0e:	94e50513          	addi	a0,a0,-1714 # ffffffc05060e858 <EmacPsInstance>
ffffffc050402f12:	230050ef          	jal	ra,ffffffc050408142 <EmacPsRecv>
ffffffc050402f16:	fe442783          	lw	a5,-28(s0)
ffffffc050402f1a:	0020c617          	auipc	a2,0x20c
ffffffc050402f1e:	8a660613          	addi	a2,a2,-1882 # ffffffc05060e7c0 <rx_len>
ffffffc050402f22:	85be                	mv	a1,a5
ffffffc050402f24:	0020c517          	auipc	a0,0x20c
ffffffc050402f28:	93450513          	addi	a0,a0,-1740 # ffffffc05060e858 <EmacPsInstance>
ffffffc050402f2c:	3ce050ef          	jal	ra,ffffffc0504082fa <EmacPsWaitRecv>
ffffffc050402f30:	fe042423          	sw	zero,-24(s0)
ffffffc050402f34:	a071                	j	ffffffc050402fc0 <do_net_recv+0x10c>
ffffffc050402f36:	fd843683          	ld	a3,-40(s0)
ffffffc050402f3a:	fe842703          	lw	a4,-24(s0)
ffffffc050402f3e:	87ba                	mv	a5,a4
ffffffc050402f40:	0786                	slli	a5,a5,0x1
ffffffc050402f42:	97ba                	add	a5,a5,a4
ffffffc050402f44:	07a6                	slli	a5,a5,0x9
ffffffc050402f46:	873e                	mv	a4,a5
ffffffc050402f48:	001ff797          	auipc	a5,0x1ff
ffffffc050402f4c:	23878793          	addi	a5,a5,568 # ffffffc050602180 <rx_buffers>
ffffffc050402f50:	00f705b3          	add	a1,a4,a5
ffffffc050402f54:	0020c717          	auipc	a4,0x20c
ffffffc050402f58:	86c70713          	addi	a4,a4,-1940 # ffffffc05060e7c0 <rx_len>
ffffffc050402f5c:	fe842783          	lw	a5,-24(s0)
ffffffc050402f60:	078a                	slli	a5,a5,0x2
ffffffc050402f62:	97ba                	add	a5,a5,a4
ffffffc050402f64:	439c                	lw	a5,0(a5)
ffffffc050402f66:	863e                	mv	a2,a5
ffffffc050402f68:	8536                	mv	a0,a3
ffffffc050402f6a:	643080ef          	jal	ra,ffffffc05040bdac <kmemcpy>
ffffffc050402f6e:	0020c717          	auipc	a4,0x20c
ffffffc050402f72:	85270713          	addi	a4,a4,-1966 # ffffffc05060e7c0 <rx_len>
ffffffc050402f76:	fe842783          	lw	a5,-24(s0)
ffffffc050402f7a:	078a                	slli	a5,a5,0x2
ffffffc050402f7c:	97ba                	add	a5,a5,a4
ffffffc050402f7e:	439c                	lw	a5,0(a5)
ffffffc050402f80:	02079713          	slli	a4,a5,0x20
ffffffc050402f84:	9301                	srli	a4,a4,0x20
ffffffc050402f86:	fc043783          	ld	a5,-64(s0)
ffffffc050402f8a:	e398                	sd	a4,0(a5)
ffffffc050402f8c:	fc043783          	ld	a5,-64(s0)
ffffffc050402f90:	07a1                	addi	a5,a5,8
ffffffc050402f92:	fcf43023          	sd	a5,-64(s0)
ffffffc050402f96:	0020c717          	auipc	a4,0x20c
ffffffc050402f9a:	82a70713          	addi	a4,a4,-2006 # ffffffc05060e7c0 <rx_len>
ffffffc050402f9e:	fe842783          	lw	a5,-24(s0)
ffffffc050402fa2:	078a                	slli	a5,a5,0x2
ffffffc050402fa4:	97ba                	add	a5,a5,a4
ffffffc050402fa6:	439c                	lw	a5,0(a5)
ffffffc050402fa8:	1782                	slli	a5,a5,0x20
ffffffc050402faa:	9381                	srli	a5,a5,0x20
ffffffc050402fac:	fd843703          	ld	a4,-40(s0)
ffffffc050402fb0:	97ba                	add	a5,a5,a4
ffffffc050402fb2:	fcf43c23          	sd	a5,-40(s0)
ffffffc050402fb6:	fe842783          	lw	a5,-24(s0)
ffffffc050402fba:	2785                	addiw	a5,a5,1
ffffffc050402fbc:	fef42423          	sw	a5,-24(s0)
ffffffc050402fc0:	fe842703          	lw	a4,-24(s0)
ffffffc050402fc4:	fe442783          	lw	a5,-28(s0)
ffffffc050402fc8:	2701                	sext.w	a4,a4
ffffffc050402fca:	2781                	sext.w	a5,a5
ffffffc050402fcc:	f6f745e3          	blt	a4,a5,ffffffc050402f36 <do_net_recv+0x82>
ffffffc050402fd0:	fec42783          	lw	a5,-20(s0)
ffffffc050402fd4:	3781                	addiw	a5,a5,-32
ffffffc050402fd6:	fef42623          	sw	a5,-20(s0)
ffffffc050402fda:	fec42783          	lw	a5,-20(s0)
ffffffc050402fde:	2781                	sext.w	a5,a5
ffffffc050402fe0:	eef04ce3          	bgtz	a5,ffffffc050402ed8 <do_net_recv+0x24>
ffffffc050402fe4:	4785                	li	a5,1
ffffffc050402fe6:	853e                	mv	a0,a5
ffffffc050402fe8:	70e2                	ld	ra,56(sp)
ffffffc050402fea:	7442                	ld	s0,48(sp)
ffffffc050402fec:	6121                	addi	sp,sp,64
ffffffc050402fee:	8082                	ret

ffffffc050402ff0 <do_net_send>:
ffffffc050402ff0:	1101                	addi	sp,sp,-32
ffffffc050402ff2:	ec06                	sd	ra,24(sp)
ffffffc050402ff4:	e822                	sd	s0,16(sp)
ffffffc050402ff6:	1000                	addi	s0,sp,32
ffffffc050402ff8:	fea43423          	sd	a0,-24(s0)
ffffffc050402ffc:	feb43023          	sd	a1,-32(s0)
ffffffc050403000:	fe843783          	ld	a5,-24(s0)
ffffffc050403004:	fe043703          	ld	a4,-32(s0)
ffffffc050403008:	2701                	sext.w	a4,a4
ffffffc05040300a:	863a                	mv	a2,a4
ffffffc05040300c:	85be                	mv	a1,a5
ffffffc05040300e:	0020b517          	auipc	a0,0x20b
ffffffc050403012:	1b250513          	addi	a0,a0,434 # ffffffc05060e1c0 <tx_buffer>
ffffffc050403016:	597080ef          	jal	ra,ffffffc05040bdac <kmemcpy>
ffffffc05040301a:	0020b797          	auipc	a5,0x20b
ffffffc05040301e:	1a678793          	addi	a5,a5,422 # ffffffc05060e1c0 <tx_buffer>
ffffffc050403022:	853e                	mv	a0,a5
ffffffc050403024:	e75ff0ef          	jal	ra,ffffffc050402e98 <kva2pa>
ffffffc050403028:	87aa                	mv	a5,a0
ffffffc05040302a:	fe043603          	ld	a2,-32(s0)
ffffffc05040302e:	85be                	mv	a1,a5
ffffffc050403030:	0020c517          	auipc	a0,0x20c
ffffffc050403034:	82850513          	addi	a0,a0,-2008 # ffffffc05060e858 <EmacPsInstance>
ffffffc050403038:	65d040ef          	jal	ra,ffffffc050407e94 <EmacPsSend>
ffffffc05040303c:	0020c517          	auipc	a0,0x20c
ffffffc050403040:	81c50513          	addi	a0,a0,-2020 # ffffffc05060e858 <EmacPsInstance>
ffffffc050403044:	7c5040ef          	jal	ra,ffffffc050408008 <EmacPsWaitSend>
ffffffc050403048:	0001                	nop
ffffffc05040304a:	60e2                	ld	ra,24(sp)
ffffffc05040304c:	6442                	ld	s0,16(sp)
ffffffc05040304e:	6105                	addi	sp,sp,32
ffffffc050403050:	8082                	ret

ffffffc050403052 <do_net_irq_mode>:
ffffffc050403052:	1101                	addi	sp,sp,-32
ffffffc050403054:	ec06                	sd	ra,24(sp)
ffffffc050403056:	e822                	sd	s0,16(sp)
ffffffc050403058:	1000                	addi	s0,sp,32
ffffffc05040305a:	87aa                	mv	a5,a0
ffffffc05040305c:	fef42623          	sw	a5,-20(s0)
ffffffc050403060:	fec42783          	lw	a5,-20(s0)
ffffffc050403064:	85be                	mv	a1,a5
ffffffc050403066:	0020b517          	auipc	a0,0x20b
ffffffc05040306a:	7f250513          	addi	a0,a0,2034 # ffffffc05060e858 <EmacPsInstance>
ffffffc05040306e:	5ab040ef          	jal	ra,ffffffc050407e18 <set_irq_mode>
ffffffc050403072:	0001                	nop
ffffffc050403074:	60e2                	ld	ra,24(sp)
ffffffc050403076:	6442                	ld	s0,16(sp)
ffffffc050403078:	6105                	addi	sp,sp,32
ffffffc05040307a:	8082                	ret

ffffffc05040307c <writel>:
ffffffc05040307c:	1101                	addi	sp,sp,-32
ffffffc05040307e:	ec22                	sd	s0,24(sp)
ffffffc050403080:	1000                	addi	s0,sp,32
ffffffc050403082:	87aa                	mv	a5,a0
ffffffc050403084:	feb43023          	sd	a1,-32(s0)
ffffffc050403088:	fef42623          	sw	a5,-20(s0)
ffffffc05040308c:	0550000f          	fence	ow,ow
ffffffc050403090:	fe043783          	ld	a5,-32(s0)
ffffffc050403094:	fec42703          	lw	a4,-20(s0)
ffffffc050403098:	c398                	sw	a4,0(a5)
ffffffc05040309a:	0001                	nop
ffffffc05040309c:	6462                	ld	s0,24(sp)
ffffffc05040309e:	6105                	addi	sp,sp,32
ffffffc0504030a0:	8082                	ret

ffffffc0504030a2 <readl>:
ffffffc0504030a2:	7179                	addi	sp,sp,-48
ffffffc0504030a4:	f422                	sd	s0,40(sp)
ffffffc0504030a6:	1800                	addi	s0,sp,48
ffffffc0504030a8:	fca43c23          	sd	a0,-40(s0)
ffffffc0504030ac:	fd843783          	ld	a5,-40(s0)
ffffffc0504030b0:	439c                	lw	a5,0(a5)
ffffffc0504030b2:	fef42623          	sw	a5,-20(s0)
ffffffc0504030b6:	0aa0000f          	fence	ir,ir
ffffffc0504030ba:	fec42783          	lw	a5,-20(s0)
ffffffc0504030be:	2781                	sext.w	a5,a5
ffffffc0504030c0:	853e                	mv	a0,a5
ffffffc0504030c2:	7422                	ld	s0,40(sp)
ffffffc0504030c4:	6145                	addi	sp,sp,48
ffffffc0504030c6:	8082                	ret

ffffffc0504030c8 <plic_toggle>:
ffffffc0504030c8:	7179                	addi	sp,sp,-48
ffffffc0504030ca:	f406                	sd	ra,40(sp)
ffffffc0504030cc:	f022                	sd	s0,32(sp)
ffffffc0504030ce:	1800                	addi	s0,sp,48
ffffffc0504030d0:	fca43c23          	sd	a0,-40(s0)
ffffffc0504030d4:	87ae                	mv	a5,a1
ffffffc0504030d6:	8732                	mv	a4,a2
ffffffc0504030d8:	fcf42a23          	sw	a5,-44(s0)
ffffffc0504030dc:	87ba                	mv	a5,a4
ffffffc0504030de:	fcf42823          	sw	a5,-48(s0)
ffffffc0504030e2:	fd843783          	ld	a5,-40(s0)
ffffffc0504030e6:	6b98                	ld	a4,16(a5)
ffffffc0504030e8:	fd442783          	lw	a5,-44(s0)
ffffffc0504030ec:	41f7d69b          	sraiw	a3,a5,0x1f
ffffffc0504030f0:	01b6d69b          	srliw	a3,a3,0x1b
ffffffc0504030f4:	9fb5                	addw	a5,a5,a3
ffffffc0504030f6:	4057d79b          	sraiw	a5,a5,0x5
ffffffc0504030fa:	2781                	sext.w	a5,a5
ffffffc0504030fc:	078a                	slli	a5,a5,0x2
ffffffc0504030fe:	97ba                	add	a5,a5,a4
ffffffc050403100:	fef43423          	sd	a5,-24(s0)
ffffffc050403104:	fd442703          	lw	a4,-44(s0)
ffffffc050403108:	41f7579b          	sraiw	a5,a4,0x1f
ffffffc05040310c:	01b7d79b          	srliw	a5,a5,0x1b
ffffffc050403110:	9f3d                	addw	a4,a4,a5
ffffffc050403112:	8b7d                	andi	a4,a4,31
ffffffc050403114:	40f707bb          	subw	a5,a4,a5
ffffffc050403118:	2781                	sext.w	a5,a5
ffffffc05040311a:	4705                	li	a4,1
ffffffc05040311c:	00f717bb          	sllw	a5,a4,a5
ffffffc050403120:	2781                	sext.w	a5,a5
ffffffc050403122:	fef42223          	sw	a5,-28(s0)
ffffffc050403126:	fd042783          	lw	a5,-48(s0)
ffffffc05040312a:	2781                	sext.w	a5,a5
ffffffc05040312c:	c395                	beqz	a5,ffffffc050403150 <plic_toggle+0x88>
ffffffc05040312e:	fe843503          	ld	a0,-24(s0)
ffffffc050403132:	f71ff0ef          	jal	ra,ffffffc0504030a2 <readl>
ffffffc050403136:	87aa                	mv	a5,a0
ffffffc050403138:	0007871b          	sext.w	a4,a5
ffffffc05040313c:	fe442783          	lw	a5,-28(s0)
ffffffc050403140:	8fd9                	or	a5,a5,a4
ffffffc050403142:	2781                	sext.w	a5,a5
ffffffc050403144:	fe843583          	ld	a1,-24(s0)
ffffffc050403148:	853e                	mv	a0,a5
ffffffc05040314a:	f33ff0ef          	jal	ra,ffffffc05040307c <writel>
ffffffc05040314e:	a025                	j	ffffffc050403176 <plic_toggle+0xae>
ffffffc050403150:	fe843503          	ld	a0,-24(s0)
ffffffc050403154:	f4fff0ef          	jal	ra,ffffffc0504030a2 <readl>
ffffffc050403158:	87aa                	mv	a5,a0
ffffffc05040315a:	0007871b          	sext.w	a4,a5
ffffffc05040315e:	fe442783          	lw	a5,-28(s0)
ffffffc050403162:	fff7c793          	not	a5,a5
ffffffc050403166:	2781                	sext.w	a5,a5
ffffffc050403168:	8ff9                	and	a5,a5,a4
ffffffc05040316a:	2781                	sext.w	a5,a5
ffffffc05040316c:	fe843583          	ld	a1,-24(s0)
ffffffc050403170:	853e                	mv	a0,a5
ffffffc050403172:	f0bff0ef          	jal	ra,ffffffc05040307c <writel>
ffffffc050403176:	0001                	nop
ffffffc050403178:	70a2                	ld	ra,40(sp)
ffffffc05040317a:	7402                	ld	s0,32(sp)
ffffffc05040317c:	6145                	addi	sp,sp,48
ffffffc05040317e:	8082                	ret

ffffffc050403180 <plic_irq_unmask>:
ffffffc050403180:	7179                	addi	sp,sp,-48
ffffffc050403182:	f406                	sd	ra,40(sp)
ffffffc050403184:	f022                	sd	s0,32(sp)
ffffffc050403186:	1800                	addi	s0,sp,48
ffffffc050403188:	87aa                	mv	a5,a0
ffffffc05040318a:	fcf42e23          	sw	a5,-36(s0)
ffffffc05040318e:	4785                	li	a5,1
ffffffc050403190:	fef42623          	sw	a5,-20(s0)
ffffffc050403194:	fec42683          	lw	a3,-20(s0)
ffffffc050403198:	001ff797          	auipc	a5,0x1ff
ffffffc05040319c:	da878793          	addi	a5,a5,-600 # ffffffc050601f40 <plic_regs>
ffffffc0504031a0:	639c                	ld	a5,0(a5)
ffffffc0504031a2:	fdc42703          	lw	a4,-36(s0)
ffffffc0504031a6:	0027171b          	slliw	a4,a4,0x2
ffffffc0504031aa:	2701                	sext.w	a4,a4
ffffffc0504031ac:	97ba                	add	a5,a5,a4
ffffffc0504031ae:	85be                	mv	a1,a5
ffffffc0504031b0:	8536                	mv	a0,a3
ffffffc0504031b2:	ecbff0ef          	jal	ra,ffffffc05040307c <writel>
ffffffc0504031b6:	0020b797          	auipc	a5,0x20b
ffffffc0504031ba:	68a78793          	addi	a5,a5,1674 # ffffffc05060e840 <plic_handlers>
ffffffc0504031be:	fef43023          	sd	a5,-32(s0)
ffffffc0504031c2:	fe043783          	ld	a5,-32(s0)
ffffffc0504031c6:	439c                	lw	a5,0(a5)
ffffffc0504031c8:	cb99                	beqz	a5,ffffffc0504031de <plic_irq_unmask+0x5e>
ffffffc0504031ca:	fec42703          	lw	a4,-20(s0)
ffffffc0504031ce:	fdc42783          	lw	a5,-36(s0)
ffffffc0504031d2:	863a                	mv	a2,a4
ffffffc0504031d4:	85be                	mv	a1,a5
ffffffc0504031d6:	fe043503          	ld	a0,-32(s0)
ffffffc0504031da:	eefff0ef          	jal	ra,ffffffc0504030c8 <plic_toggle>
ffffffc0504031de:	0001                	nop
ffffffc0504031e0:	70a2                	ld	ra,40(sp)
ffffffc0504031e2:	7402                	ld	s0,32(sp)
ffffffc0504031e4:	6145                	addi	sp,sp,48
ffffffc0504031e6:	8082                	ret

ffffffc0504031e8 <plic_irq_mask>:
ffffffc0504031e8:	7179                	addi	sp,sp,-48
ffffffc0504031ea:	f406                	sd	ra,40(sp)
ffffffc0504031ec:	f022                	sd	s0,32(sp)
ffffffc0504031ee:	1800                	addi	s0,sp,48
ffffffc0504031f0:	87aa                	mv	a5,a0
ffffffc0504031f2:	fcf42e23          	sw	a5,-36(s0)
ffffffc0504031f6:	fe042623          	sw	zero,-20(s0)
ffffffc0504031fa:	fec42683          	lw	a3,-20(s0)
ffffffc0504031fe:	001ff797          	auipc	a5,0x1ff
ffffffc050403202:	d4278793          	addi	a5,a5,-702 # ffffffc050601f40 <plic_regs>
ffffffc050403206:	639c                	ld	a5,0(a5)
ffffffc050403208:	fdc42703          	lw	a4,-36(s0)
ffffffc05040320c:	0027171b          	slliw	a4,a4,0x2
ffffffc050403210:	2701                	sext.w	a4,a4
ffffffc050403212:	97ba                	add	a5,a5,a4
ffffffc050403214:	85be                	mv	a1,a5
ffffffc050403216:	8536                	mv	a0,a3
ffffffc050403218:	e65ff0ef          	jal	ra,ffffffc05040307c <writel>
ffffffc05040321c:	0020b797          	auipc	a5,0x20b
ffffffc050403220:	62478793          	addi	a5,a5,1572 # ffffffc05060e840 <plic_handlers>
ffffffc050403224:	fef43023          	sd	a5,-32(s0)
ffffffc050403228:	fe043783          	ld	a5,-32(s0)
ffffffc05040322c:	439c                	lw	a5,0(a5)
ffffffc05040322e:	cb99                	beqz	a5,ffffffc050403244 <plic_irq_mask+0x5c>
ffffffc050403230:	fec42703          	lw	a4,-20(s0)
ffffffc050403234:	fdc42783          	lw	a5,-36(s0)
ffffffc050403238:	863a                	mv	a2,a4
ffffffc05040323a:	85be                	mv	a1,a5
ffffffc05040323c:	fe043503          	ld	a0,-32(s0)
ffffffc050403240:	e89ff0ef          	jal	ra,ffffffc0504030c8 <plic_toggle>
ffffffc050403244:	0001                	nop
ffffffc050403246:	70a2                	ld	ra,40(sp)
ffffffc050403248:	7402                	ld	s0,32(sp)
ffffffc05040324a:	6145                	addi	sp,sp,48
ffffffc05040324c:	8082                	ret

ffffffc05040324e <plic_irq_eoi>:
ffffffc05040324e:	7179                	addi	sp,sp,-48
ffffffc050403250:	f406                	sd	ra,40(sp)
ffffffc050403252:	f022                	sd	s0,32(sp)
ffffffc050403254:	1800                	addi	s0,sp,48
ffffffc050403256:	87aa                	mv	a5,a0
ffffffc050403258:	fcf42e23          	sw	a5,-36(s0)
ffffffc05040325c:	0020b797          	auipc	a5,0x20b
ffffffc050403260:	5e478793          	addi	a5,a5,1508 # ffffffc05060e840 <plic_handlers>
ffffffc050403264:	fef43423          	sd	a5,-24(s0)
ffffffc050403268:	fdc42703          	lw	a4,-36(s0)
ffffffc05040326c:	fe843783          	ld	a5,-24(s0)
ffffffc050403270:	679c                	ld	a5,8(a5)
ffffffc050403272:	0791                	addi	a5,a5,4
ffffffc050403274:	85be                	mv	a1,a5
ffffffc050403276:	853a                	mv	a0,a4
ffffffc050403278:	e05ff0ef          	jal	ra,ffffffc05040307c <writel>
ffffffc05040327c:	0001                	nop
ffffffc05040327e:	70a2                	ld	ra,40(sp)
ffffffc050403280:	7402                	ld	s0,32(sp)
ffffffc050403282:	6145                	addi	sp,sp,48
ffffffc050403284:	8082                	ret

ffffffc050403286 <plic_handle_irq>:
ffffffc050403286:	715d                	addi	sp,sp,-80
ffffffc050403288:	e486                	sd	ra,72(sp)
ffffffc05040328a:	e0a2                	sd	s0,64(sp)
ffffffc05040328c:	0880                	addi	s0,sp,80
ffffffc05040328e:	faa43c23          	sd	a0,-72(s0)
ffffffc050403292:	0020b797          	auipc	a5,0x20b
ffffffc050403296:	5ae78793          	addi	a5,a5,1454 # ffffffc05060e840 <plic_handlers>
ffffffc05040329a:	fef43423          	sd	a5,-24(s0)
ffffffc05040329e:	fe843783          	ld	a5,-24(s0)
ffffffc0504032a2:	679c                	ld	a5,8(a5)
ffffffc0504032a4:	0791                	addi	a5,a5,4
ffffffc0504032a6:	fef43023          	sd	a5,-32(s0)
ffffffc0504032aa:	20000793          	li	a5,512
ffffffc0504032ae:	fcf43c23          	sd	a5,-40(s0)
ffffffc0504032b2:	fd843783          	ld	a5,-40(s0)
ffffffc0504032b6:	1047b073          	csrc	sie,a5
ffffffc0504032ba:	a801                	j	ffffffc0504032ca <plic_handle_irq+0x44>
ffffffc0504032bc:	fd442783          	lw	a5,-44(s0)
ffffffc0504032c0:	85be                	mv	a1,a5
ffffffc0504032c2:	fb843503          	ld	a0,-72(s0)
ffffffc0504032c6:	f62fe0ef          	jal	ra,ffffffc050401a28 <handle_irq>
ffffffc0504032ca:	fe043503          	ld	a0,-32(s0)
ffffffc0504032ce:	dd5ff0ef          	jal	ra,ffffffc0504030a2 <readl>
ffffffc0504032d2:	87aa                	mv	a5,a0
ffffffc0504032d4:	2781                	sext.w	a5,a5
ffffffc0504032d6:	fcf42a23          	sw	a5,-44(s0)
ffffffc0504032da:	fd442783          	lw	a5,-44(s0)
ffffffc0504032de:	2781                	sext.w	a5,a5
ffffffc0504032e0:	fff1                	bnez	a5,ffffffc0504032bc <plic_handle_irq+0x36>
ffffffc0504032e2:	20000793          	li	a5,512
ffffffc0504032e6:	fcf43423          	sd	a5,-56(s0)
ffffffc0504032ea:	fc843783          	ld	a5,-56(s0)
ffffffc0504032ee:	1047a073          	csrs	sie,a5
ffffffc0504032f2:	0001                	nop
ffffffc0504032f4:	60a6                	ld	ra,72(sp)
ffffffc0504032f6:	6406                	ld	s0,64(sp)
ffffffc0504032f8:	6161                	addi	sp,sp,80
ffffffc0504032fa:	8082                	ret

ffffffc0504032fc <plic_init>:
ffffffc0504032fc:	7179                	addi	sp,sp,-48
ffffffc0504032fe:	f406                	sd	ra,40(sp)
ffffffc050403300:	f022                	sd	s0,32(sp)
ffffffc050403302:	1800                	addi	s0,sp,48
ffffffc050403304:	fca43c23          	sd	a0,-40(s0)
ffffffc050403308:	87ae                	mv	a5,a1
ffffffc05040330a:	fcf42a23          	sw	a5,-44(s0)
ffffffc05040330e:	fd843703          	ld	a4,-40(s0)
ffffffc050403312:	001ff797          	auipc	a5,0x1ff
ffffffc050403316:	c2e78793          	addi	a5,a5,-978 # ffffffc050601f40 <plic_regs>
ffffffc05040331a:	e398                	sd	a4,0(a5)
ffffffc05040331c:	fe042423          	sw	zero,-24(s0)
ffffffc050403320:	0020b797          	auipc	a5,0x20b
ffffffc050403324:	52078793          	addi	a5,a5,1312 # ffffffc05060e840 <plic_handlers>
ffffffc050403328:	fef43023          	sd	a5,-32(s0)
ffffffc05040332c:	fe043783          	ld	a5,-32(s0)
ffffffc050403330:	439c                	lw	a5,0(a5)
ffffffc050403332:	cb99                	beqz	a5,ffffffc050403348 <plic_init+0x4c>
ffffffc050403334:	0000a517          	auipc	a0,0xa
ffffffc050403338:	c7450513          	addi	a0,a0,-908 # ffffffc05040cfa8 <__FUNCTION__.2047+0x28>
ffffffc05040333c:	548090ef          	jal	ra,ffffffc05040c884 <printk>
ffffffc050403340:	57fd                	li	a5,-1
ffffffc050403342:	fef42423          	sw	a5,-24(s0)
ffffffc050403346:	a815                	j	ffffffc05040337a <plic_init+0x7e>
ffffffc050403348:	fe043783          	ld	a5,-32(s0)
ffffffc05040334c:	4705                	li	a4,1
ffffffc05040334e:	c398                	sw	a4,0(a5)
ffffffc050403350:	001ff797          	auipc	a5,0x1ff
ffffffc050403354:	bf078793          	addi	a5,a5,-1040 # ffffffc050601f40 <plic_regs>
ffffffc050403358:	6398                	ld	a4,0(a5)
ffffffc05040335a:	002007b7          	lui	a5,0x200
ffffffc05040335e:	973e                	add	a4,a4,a5
ffffffc050403360:	fe043783          	ld	a5,-32(s0)
ffffffc050403364:	e798                	sd	a4,8(a5)
ffffffc050403366:	001ff797          	auipc	a5,0x1ff
ffffffc05040336a:	bda78793          	addi	a5,a5,-1062 # ffffffc050601f40 <plic_regs>
ffffffc05040336e:	6398                	ld	a4,0(a5)
ffffffc050403370:	6789                	lui	a5,0x2
ffffffc050403372:	973e                	add	a4,a4,a5
ffffffc050403374:	fe043783          	ld	a5,-32(s0)
ffffffc050403378:	eb98                	sd	a4,16(a5)
ffffffc05040337a:	fe043783          	ld	a5,-32(s0)
ffffffc05040337e:	6798                	ld	a4,8(a5)
ffffffc050403380:	fe842783          	lw	a5,-24(s0)
ffffffc050403384:	85ba                	mv	a1,a4
ffffffc050403386:	853e                	mv	a0,a5
ffffffc050403388:	cf5ff0ef          	jal	ra,ffffffc05040307c <writel>
ffffffc05040338c:	4785                	li	a5,1
ffffffc05040338e:	fef42623          	sw	a5,-20(s0)
ffffffc050403392:	a831                	j	ffffffc0504033ae <plic_init+0xb2>
ffffffc050403394:	fec42783          	lw	a5,-20(s0)
ffffffc050403398:	4605                	li	a2,1
ffffffc05040339a:	85be                	mv	a1,a5
ffffffc05040339c:	fe043503          	ld	a0,-32(s0)
ffffffc0504033a0:	d29ff0ef          	jal	ra,ffffffc0504030c8 <plic_toggle>
ffffffc0504033a4:	fec42783          	lw	a5,-20(s0)
ffffffc0504033a8:	2785                	addiw	a5,a5,1
ffffffc0504033aa:	fef42623          	sw	a5,-20(s0)
ffffffc0504033ae:	fec42703          	lw	a4,-20(s0)
ffffffc0504033b2:	fd442783          	lw	a5,-44(s0)
ffffffc0504033b6:	2781                	sext.w	a5,a5
ffffffc0504033b8:	fce7fee3          	bgeu	a5,a4,ffffffc050403394 <plic_init+0x98>
ffffffc0504033bc:	02100513          	li	a0,33
ffffffc0504033c0:	dc1ff0ef          	jal	ra,ffffffc050403180 <plic_irq_unmask>
ffffffc0504033c4:	4781                	li	a5,0
ffffffc0504033c6:	853e                	mv	a0,a5
ffffffc0504033c8:	70a2                	ld	ra,40(sp)
ffffffc0504033ca:	7402                	ld	s0,32(sp)
ffffffc0504033cc:	6145                	addi	sp,sp,48
ffffffc0504033ce:	8082                	ret

ffffffc0504033d0 <writel>:
ffffffc0504033d0:	1101                	addi	sp,sp,-32
ffffffc0504033d2:	ec22                	sd	s0,24(sp)
ffffffc0504033d4:	1000                	addi	s0,sp,32
ffffffc0504033d6:	87aa                	mv	a5,a0
ffffffc0504033d8:	feb43023          	sd	a1,-32(s0)
ffffffc0504033dc:	fef42623          	sw	a5,-20(s0)
ffffffc0504033e0:	0550000f          	fence	ow,ow
ffffffc0504033e4:	fe043783          	ld	a5,-32(s0)
ffffffc0504033e8:	fec42703          	lw	a4,-20(s0)
ffffffc0504033ec:	c398                	sw	a4,0(a5)
ffffffc0504033ee:	0001                	nop
ffffffc0504033f0:	6462                	ld	s0,24(sp)
ffffffc0504033f2:	6105                	addi	sp,sp,32
ffffffc0504033f4:	8082                	ret

ffffffc0504033f6 <readl>:
ffffffc0504033f6:	7179                	addi	sp,sp,-48
ffffffc0504033f8:	f422                	sd	s0,40(sp)
ffffffc0504033fa:	1800                	addi	s0,sp,48
ffffffc0504033fc:	fca43c23          	sd	a0,-40(s0)
ffffffc050403400:	fd843783          	ld	a5,-40(s0)
ffffffc050403404:	439c                	lw	a5,0(a5)
ffffffc050403406:	fef42623          	sw	a5,-20(s0)
ffffffc05040340a:	0aa0000f          	fence	ir,ir
ffffffc05040340e:	fec42783          	lw	a5,-20(s0)
ffffffc050403412:	2781                	sext.w	a5,a5
ffffffc050403414:	853e                	mv	a0,a5
ffffffc050403416:	7422                	ld	s0,40(sp)
ffffffc050403418:	6145                	addi	sp,sp,48
ffffffc05040341a:	8082                	ret

ffffffc05040341c <kva2pa>:
ffffffc05040341c:	1101                	addi	sp,sp,-32
ffffffc05040341e:	ec22                	sd	s0,24(sp)
ffffffc050403420:	1000                	addi	s0,sp,32
ffffffc050403422:	fea43423          	sd	a0,-24(s0)
ffffffc050403426:	fe843703          	ld	a4,-24(s0)
ffffffc05040342a:	4785                	li	a5,1
ffffffc05040342c:	179a                	slli	a5,a5,0x26
ffffffc05040342e:	97ba                	add	a5,a5,a4
ffffffc050403430:	853e                	mv	a0,a5
ffffffc050403432:	6462                	ld	s0,24(sp)
ffffffc050403434:	6105                	addi	sp,sp,32
ffffffc050403436:	8082                	ret

ffffffc050403438 <Xil_Out32>:
ffffffc050403438:	1101                	addi	sp,sp,-32
ffffffc05040343a:	ec06                	sd	ra,24(sp)
ffffffc05040343c:	e822                	sd	s0,16(sp)
ffffffc05040343e:	1000                	addi	s0,sp,32
ffffffc050403440:	fea43423          	sd	a0,-24(s0)
ffffffc050403444:	87ae                	mv	a5,a1
ffffffc050403446:	fef42223          	sw	a5,-28(s0)
ffffffc05040344a:	fe843703          	ld	a4,-24(s0)
ffffffc05040344e:	fe442783          	lw	a5,-28(s0)
ffffffc050403452:	85ba                	mv	a1,a4
ffffffc050403454:	853e                	mv	a0,a5
ffffffc050403456:	f7bff0ef          	jal	ra,ffffffc0504033d0 <writel>
ffffffc05040345a:	0001                	nop
ffffffc05040345c:	60e2                	ld	ra,24(sp)
ffffffc05040345e:	6442                	ld	s0,16(sp)
ffffffc050403460:	6105                	addi	sp,sp,32
ffffffc050403462:	8082                	ret

ffffffc050403464 <Xil_In32>:
ffffffc050403464:	1101                	addi	sp,sp,-32
ffffffc050403466:	ec06                	sd	ra,24(sp)
ffffffc050403468:	e822                	sd	s0,16(sp)
ffffffc05040346a:	1000                	addi	s0,sp,32
ffffffc05040346c:	fea43423          	sd	a0,-24(s0)
ffffffc050403470:	fe843783          	ld	a5,-24(s0)
ffffffc050403474:	853e                	mv	a0,a5
ffffffc050403476:	f81ff0ef          	jal	ra,ffffffc0504033f6 <readl>
ffffffc05040347a:	87aa                	mv	a5,a0
ffffffc05040347c:	2781                	sext.w	a5,a5
ffffffc05040347e:	853e                	mv	a0,a5
ffffffc050403480:	60e2                	ld	ra,24(sp)
ffffffc050403482:	6442                	ld	s0,16(sp)
ffffffc050403484:	6105                	addi	sp,sp,32
ffffffc050403486:	8082                	ret

ffffffc050403488 <XEmacPs_CfgInitialize>:
ffffffc050403488:	7179                	addi	sp,sp,-48
ffffffc05040348a:	f406                	sd	ra,40(sp)
ffffffc05040348c:	f022                	sd	s0,32(sp)
ffffffc05040348e:	1800                	addi	s0,sp,48
ffffffc050403490:	fea43423          	sd	a0,-24(s0)
ffffffc050403494:	feb43023          	sd	a1,-32(s0)
ffffffc050403498:	fcc43c23          	sd	a2,-40(s0)
ffffffc05040349c:	fe043783          	ld	a5,-32(s0)
ffffffc0504034a0:	0007d703          	lhu	a4,0(a5) # 2000 <_start-0xffffffc0503fe000>
ffffffc0504034a4:	fe843783          	ld	a5,-24(s0)
ffffffc0504034a8:	00e79023          	sh	a4,0(a5)
ffffffc0504034ac:	fe843783          	ld	a5,-24(s0)
ffffffc0504034b0:	fd843703          	ld	a4,-40(s0)
ffffffc0504034b4:	e798                	sd	a4,8(a5)
ffffffc0504034b6:	fe043783          	ld	a5,-32(s0)
ffffffc0504034ba:	0107c703          	lbu	a4,16(a5)
ffffffc0504034be:	fe843783          	ld	a5,-24(s0)
ffffffc0504034c2:	00e78823          	sb	a4,16(a5)
ffffffc0504034c6:	fe843783          	ld	a5,-24(s0)
ffffffc0504034ca:	00000717          	auipc	a4,0x0
ffffffc0504034ce:	4ea70713          	addi	a4,a4,1258 # ffffffc0504039b4 <XEmacPs_StubHandler>
ffffffc0504034d2:	10e7b423          	sd	a4,264(a5)
ffffffc0504034d6:	fe843783          	ld	a5,-24(s0)
ffffffc0504034da:	00000717          	auipc	a4,0x0
ffffffc0504034de:	4da70713          	addi	a4,a4,1242 # ffffffc0504039b4 <XEmacPs_StubHandler>
ffffffc0504034e2:	10e7b823          	sd	a4,272(a5)
ffffffc0504034e6:	fe843783          	ld	a5,-24(s0)
ffffffc0504034ea:	00000717          	auipc	a4,0x0
ffffffc0504034ee:	4ca70713          	addi	a4,a4,1226 # ffffffc0504039b4 <XEmacPs_StubHandler>
ffffffc0504034f2:	12e7b423          	sd	a4,296(a5)
ffffffc0504034f6:	fe843783          	ld	a5,-24(s0)
ffffffc0504034fa:	11111737          	lui	a4,0x11111
ffffffc0504034fe:	11170713          	addi	a4,a4,273 # 11111111 <_start-0xffffffc03f2eeeef>
ffffffc050403502:	cfd8                	sw	a4,28(a5)
ffffffc050403504:	fe843503          	ld	a0,-24(s0)
ffffffc050403508:	194000ef          	jal	ra,ffffffc05040369c <XEmacPs_Reset>
ffffffc05040350c:	4781                	li	a5,0
ffffffc05040350e:	853e                	mv	a0,a5
ffffffc050403510:	70a2                	ld	ra,40(sp)
ffffffc050403512:	7402                	ld	s0,32(sp)
ffffffc050403514:	6145                	addi	sp,sp,48
ffffffc050403516:	8082                	ret

ffffffc050403518 <XEmacPs_Start>:
ffffffc050403518:	7179                	addi	sp,sp,-48
ffffffc05040351a:	f406                	sd	ra,40(sp)
ffffffc05040351c:	f022                	sd	s0,32(sp)
ffffffc05040351e:	1800                	addi	s0,sp,48
ffffffc050403520:	fca43c23          	sd	a0,-40(s0)
ffffffc050403524:	fd843783          	ld	a5,-40(s0)
ffffffc050403528:	1387a783          	lw	a5,312(a5)
ffffffc05040352c:	873e                	mv	a4,a5
ffffffc05040352e:	4789                	li	a5,2
ffffffc050403530:	02f71c63          	bne	a4,a5,ffffffc050403568 <XEmacPs_Start+0x50>
ffffffc050403534:	fd843783          	ld	a5,-40(s0)
ffffffc050403538:	679c                	ld	a5,8(a5)
ffffffc05040353a:	01878713          	addi	a4,a5,24
ffffffc05040353e:	fd843783          	ld	a5,-40(s0)
ffffffc050403542:	73dc                	ld	a5,160(a5)
ffffffc050403544:	2781                	sext.w	a5,a5
ffffffc050403546:	85be                	mv	a1,a5
ffffffc050403548:	853a                	mv	a0,a4
ffffffc05040354a:	eefff0ef          	jal	ra,ffffffc050403438 <Xil_Out32>
ffffffc05040354e:	fd843783          	ld	a5,-40(s0)
ffffffc050403552:	679c                	ld	a5,8(a5)
ffffffc050403554:	01c78713          	addi	a4,a5,28
ffffffc050403558:	fd843783          	ld	a5,-40(s0)
ffffffc05040355c:	7b9c                	ld	a5,48(a5)
ffffffc05040355e:	2781                	sext.w	a5,a5
ffffffc050403560:	85be                	mv	a1,a5
ffffffc050403562:	853a                	mv	a0,a4
ffffffc050403564:	ed5ff0ef          	jal	ra,ffffffc050403438 <Xil_Out32>
ffffffc050403568:	fd843783          	ld	a5,-40(s0)
ffffffc05040356c:	679c                	ld	a5,8(a5)
ffffffc05040356e:	02478713          	addi	a4,a5,36
ffffffc050403572:	67a1                	lui	a5,0x8
ffffffc050403574:	fff78593          	addi	a1,a5,-1 # 7fff <_start-0xffffffc0503f8001>
ffffffc050403578:	853a                	mv	a0,a4
ffffffc05040357a:	ebfff0ef          	jal	ra,ffffffc050403438 <Xil_Out32>
ffffffc05040357e:	fd843783          	ld	a5,-40(s0)
ffffffc050403582:	539c                	lw	a5,32(a5)
ffffffc050403584:	1007f793          	andi	a5,a5,256
ffffffc050403588:	2781                	sext.w	a5,a5
ffffffc05040358a:	cb9d                	beqz	a5,ffffffc0504035c0 <XEmacPs_Start+0xa8>
ffffffc05040358c:	fd843783          	ld	a5,-40(s0)
ffffffc050403590:	679c                	ld	a5,8(a5)
ffffffc050403592:	853e                	mv	a0,a5
ffffffc050403594:	ed1ff0ef          	jal	ra,ffffffc050403464 <Xil_In32>
ffffffc050403598:	87aa                	mv	a5,a0
ffffffc05040359a:	fef42623          	sw	a5,-20(s0)
ffffffc05040359e:	fec42783          	lw	a5,-20(s0)
ffffffc0504035a2:	8ba1                	andi	a5,a5,8
ffffffc0504035a4:	2781                	sext.w	a5,a5
ffffffc0504035a6:	ef89                	bnez	a5,ffffffc0504035c0 <XEmacPs_Start+0xa8>
ffffffc0504035a8:	fd843783          	ld	a5,-40(s0)
ffffffc0504035ac:	6798                	ld	a4,8(a5)
ffffffc0504035ae:	fec42783          	lw	a5,-20(s0)
ffffffc0504035b2:	0087e793          	ori	a5,a5,8
ffffffc0504035b6:	2781                	sext.w	a5,a5
ffffffc0504035b8:	85be                	mv	a1,a5
ffffffc0504035ba:	853a                	mv	a0,a4
ffffffc0504035bc:	e7dff0ef          	jal	ra,ffffffc050403438 <Xil_Out32>
ffffffc0504035c0:	fd843783          	ld	a5,-40(s0)
ffffffc0504035c4:	539c                	lw	a5,32(a5)
ffffffc0504035c6:	2007f793          	andi	a5,a5,512
ffffffc0504035ca:	2781                	sext.w	a5,a5
ffffffc0504035cc:	cb9d                	beqz	a5,ffffffc050403602 <XEmacPs_Start+0xea>
ffffffc0504035ce:	fd843783          	ld	a5,-40(s0)
ffffffc0504035d2:	679c                	ld	a5,8(a5)
ffffffc0504035d4:	853e                	mv	a0,a5
ffffffc0504035d6:	e8fff0ef          	jal	ra,ffffffc050403464 <Xil_In32>
ffffffc0504035da:	87aa                	mv	a5,a0
ffffffc0504035dc:	fef42623          	sw	a5,-20(s0)
ffffffc0504035e0:	fec42783          	lw	a5,-20(s0)
ffffffc0504035e4:	8b91                	andi	a5,a5,4
ffffffc0504035e6:	2781                	sext.w	a5,a5
ffffffc0504035e8:	ef89                	bnez	a5,ffffffc050403602 <XEmacPs_Start+0xea>
ffffffc0504035ea:	fd843783          	ld	a5,-40(s0)
ffffffc0504035ee:	6798                	ld	a4,8(a5)
ffffffc0504035f0:	fec42783          	lw	a5,-20(s0)
ffffffc0504035f4:	0047e793          	ori	a5,a5,4
ffffffc0504035f8:	2781                	sext.w	a5,a5
ffffffc0504035fa:	85be                	mv	a1,a5
ffffffc0504035fc:	853a                	mv	a0,a4
ffffffc0504035fe:	e3bff0ef          	jal	ra,ffffffc050403438 <Xil_Out32>
ffffffc050403602:	fd843783          	ld	a5,-40(s0)
ffffffc050403606:	679c                	ld	a5,8(a5)
ffffffc050403608:	02878713          	addi	a4,a5,40
ffffffc05040360c:	6785                	lui	a5,0x1
ffffffc05040360e:	cf678593          	addi	a1,a5,-778 # cf6 <_start-0xffffffc0503ff30a>
ffffffc050403612:	853a                	mv	a0,a4
ffffffc050403614:	e25ff0ef          	jal	ra,ffffffc050403438 <Xil_Out32>
ffffffc050403618:	fd843783          	ld	a5,-40(s0)
ffffffc05040361c:	22222737          	lui	a4,0x22222
ffffffc050403620:	22270713          	addi	a4,a4,546 # 22222222 <_start-0xffffffc02e1dddde>
ffffffc050403624:	cf98                	sw	a4,24(a5)
ffffffc050403626:	0001                	nop
ffffffc050403628:	70a2                	ld	ra,40(sp)
ffffffc05040362a:	7402                	ld	s0,32(sp)
ffffffc05040362c:	6145                	addi	sp,sp,48
ffffffc05040362e:	8082                	ret

ffffffc050403630 <XEmacPs_Stop>:
ffffffc050403630:	7179                	addi	sp,sp,-48
ffffffc050403632:	f406                	sd	ra,40(sp)
ffffffc050403634:	f022                	sd	s0,32(sp)
ffffffc050403636:	1800                	addi	s0,sp,48
ffffffc050403638:	fca43c23          	sd	a0,-40(s0)
ffffffc05040363c:	fd843783          	ld	a5,-40(s0)
ffffffc050403640:	679c                	ld	a5,8(a5)
ffffffc050403642:	02c78713          	addi	a4,a5,44
ffffffc050403646:	67a1                	lui	a5,0x8
ffffffc050403648:	fff78593          	addi	a1,a5,-1 # 7fff <_start-0xffffffc0503f8001>
ffffffc05040364c:	853a                	mv	a0,a4
ffffffc05040364e:	debff0ef          	jal	ra,ffffffc050403438 <Xil_Out32>
ffffffc050403652:	fd843783          	ld	a5,-40(s0)
ffffffc050403656:	679c                	ld	a5,8(a5)
ffffffc050403658:	853e                	mv	a0,a5
ffffffc05040365a:	e0bff0ef          	jal	ra,ffffffc050403464 <Xil_In32>
ffffffc05040365e:	87aa                	mv	a5,a0
ffffffc050403660:	fef42623          	sw	a5,-20(s0)
ffffffc050403664:	fec42783          	lw	a5,-20(s0)
ffffffc050403668:	9bed                	andi	a5,a5,-5
ffffffc05040366a:	fef42623          	sw	a5,-20(s0)
ffffffc05040366e:	fec42783          	lw	a5,-20(s0)
ffffffc050403672:	9bdd                	andi	a5,a5,-9
ffffffc050403674:	fef42623          	sw	a5,-20(s0)
ffffffc050403678:	fd843783          	ld	a5,-40(s0)
ffffffc05040367c:	679c                	ld	a5,8(a5)
ffffffc05040367e:	fec42703          	lw	a4,-20(s0)
ffffffc050403682:	85ba                	mv	a1,a4
ffffffc050403684:	853e                	mv	a0,a5
ffffffc050403686:	db3ff0ef          	jal	ra,ffffffc050403438 <Xil_Out32>
ffffffc05040368a:	fd843783          	ld	a5,-40(s0)
ffffffc05040368e:	0007ac23          	sw	zero,24(a5)
ffffffc050403692:	0001                	nop
ffffffc050403694:	70a2                	ld	ra,40(sp)
ffffffc050403696:	7402                	ld	s0,32(sp)
ffffffc050403698:	6145                	addi	sp,sp,48
ffffffc05040369a:	8082                	ret

ffffffc05040369c <XEmacPs_Reset>:
ffffffc05040369c:	7139                	addi	sp,sp,-64
ffffffc05040369e:	fc06                	sd	ra,56(sp)
ffffffc0504036a0:	f822                	sd	s0,48(sp)
ffffffc0504036a2:	f426                	sd	s1,40(sp)
ffffffc0504036a4:	0080                	addi	s0,sp,64
ffffffc0504036a6:	fca43423          	sd	a0,-56(s0)
ffffffc0504036aa:	fc042823          	sw	zero,-48(s0)
ffffffc0504036ae:	fc041a23          	sh	zero,-44(s0)
ffffffc0504036b2:	fc843503          	ld	a0,-56(s0)
ffffffc0504036b6:	f7bff0ef          	jal	ra,ffffffc050403630 <XEmacPs_Stop>
ffffffc0504036ba:	fc843783          	ld	a5,-56(s0)
ffffffc0504036be:	6705                	lui	a4,0x1
ffffffc0504036c0:	1741                	addi	a4,a4,-16
ffffffc0504036c2:	d398                	sw	a4,32(a5)
ffffffc0504036c4:	fc843783          	ld	a5,-56(s0)
ffffffc0504036c8:	679c                	ld	a5,8(a5)
ffffffc0504036ca:	0fc78793          	addi	a5,a5,252
ffffffc0504036ce:	853e                	mv	a0,a5
ffffffc0504036d0:	d95ff0ef          	jal	ra,ffffffc050403464 <Xil_In32>
ffffffc0504036d4:	87aa                	mv	a5,a0
ffffffc0504036d6:	0007871b          	sext.w	a4,a5
ffffffc0504036da:	fc843783          	ld	a5,-56(s0)
ffffffc0504036de:	12e7ac23          	sw	a4,312(a5)
ffffffc0504036e2:	fc843783          	ld	a5,-56(s0)
ffffffc0504036e6:	1387a783          	lw	a5,312(a5)
ffffffc0504036ea:	0107d79b          	srliw	a5,a5,0x10
ffffffc0504036ee:	2781                	sext.w	a5,a5
ffffffc0504036f0:	873e                	mv	a4,a5
ffffffc0504036f2:	6785                	lui	a5,0x1
ffffffc0504036f4:	17fd                	addi	a5,a5,-1
ffffffc0504036f6:	8ff9                	and	a5,a5,a4
ffffffc0504036f8:	0007871b          	sext.w	a4,a5
ffffffc0504036fc:	fc843783          	ld	a5,-56(s0)
ffffffc050403700:	12e7ac23          	sw	a4,312(a5) # 1138 <_start-0xffffffc0503feec8>
ffffffc050403704:	fc843783          	ld	a5,-56(s0)
ffffffc050403708:	5dc00713          	li	a4,1500
ffffffc05040370c:	14e7a023          	sw	a4,320(a5)
ffffffc050403710:	fc843783          	ld	a5,-56(s0)
ffffffc050403714:	5ee00713          	li	a4,1518
ffffffc050403718:	14e7a223          	sw	a4,324(a5)
ffffffc05040371c:	fc843783          	ld	a5,-56(s0)
ffffffc050403720:	1447a783          	lw	a5,324(a5)
ffffffc050403724:	27c9                	addiw	a5,a5,18
ffffffc050403726:	0007871b          	sext.w	a4,a5
ffffffc05040372a:	fc843783          	ld	a5,-56(s0)
ffffffc05040372e:	14e7a423          	sw	a4,328(a5)
ffffffc050403732:	fc843783          	ld	a5,-56(s0)
ffffffc050403736:	6709                	lui	a4,0x2
ffffffc050403738:	177d                	addi	a4,a4,-1
ffffffc05040373a:	12e7ae23          	sw	a4,316(a5)
ffffffc05040373e:	fc843783          	ld	a5,-56(s0)
ffffffc050403742:	679c                	ld	a5,8(a5)
ffffffc050403744:	03000593          	li	a1,48
ffffffc050403748:	853e                	mv	a0,a5
ffffffc05040374a:	cefff0ef          	jal	ra,ffffffc050403438 <Xil_Out32>
ffffffc05040374e:	fc843783          	ld	a5,-56(s0)
ffffffc050403752:	679c                	ld	a5,8(a5)
ffffffc050403754:	0791                	addi	a5,a5,4
ffffffc050403756:	853e                	mv	a0,a5
ffffffc050403758:	d0dff0ef          	jal	ra,ffffffc050403464 <Xil_In32>
ffffffc05040375c:	87aa                	mv	a5,a0
ffffffc05040375e:	fcf42c23          	sw	a5,-40(s0)
ffffffc050403762:	fd842703          	lw	a4,-40(s0)
ffffffc050403766:	001c07b7          	lui	a5,0x1c0
ffffffc05040376a:	8ff9                	and	a5,a5,a4
ffffffc05040376c:	fcf42c23          	sw	a5,-40(s0)
ffffffc050403770:	fd842783          	lw	a5,-40(s0)
ffffffc050403774:	0837e793          	ori	a5,a5,131
ffffffc050403778:	fcf42c23          	sw	a5,-40(s0)
ffffffc05040377c:	fc843783          	ld	a5,-56(s0)
ffffffc050403780:	679c                	ld	a5,8(a5)
ffffffc050403782:	0791                	addi	a5,a5,4
ffffffc050403784:	fd842703          	lw	a4,-40(s0)
ffffffc050403788:	85ba                	mv	a1,a4
ffffffc05040378a:	853e                	mv	a0,a5
ffffffc05040378c:	cadff0ef          	jal	ra,ffffffc050403438 <Xil_Out32>
ffffffc050403790:	fc843783          	ld	a5,-56(s0)
ffffffc050403794:	1387a783          	lw	a5,312(a5) # 1c0138 <_start-0xffffffc05023fec8>
ffffffc050403798:	873e                	mv	a4,a5
ffffffc05040379a:	4789                	li	a5,2
ffffffc05040379c:	02e7f963          	bgeu	a5,a4,ffffffc0504037ce <XEmacPs_Reset+0x132>
ffffffc0504037a0:	fc843783          	ld	a5,-56(s0)
ffffffc0504037a4:	679c                	ld	a5,8(a5)
ffffffc0504037a6:	00478493          	addi	s1,a5,4
ffffffc0504037aa:	fc843783          	ld	a5,-56(s0)
ffffffc0504037ae:	679c                	ld	a5,8(a5)
ffffffc0504037b0:	0791                	addi	a5,a5,4
ffffffc0504037b2:	853e                	mv	a0,a5
ffffffc0504037b4:	cb1ff0ef          	jal	ra,ffffffc050403464 <Xil_In32>
ffffffc0504037b8:	87aa                	mv	a5,a0
ffffffc0504037ba:	2781                	sext.w	a5,a5
ffffffc0504037bc:	873e                	mv	a4,a5
ffffffc0504037be:	002007b7          	lui	a5,0x200
ffffffc0504037c2:	8fd9                	or	a5,a5,a4
ffffffc0504037c4:	2781                	sext.w	a5,a5
ffffffc0504037c6:	85be                	mv	a1,a5
ffffffc0504037c8:	8526                	mv	a0,s1
ffffffc0504037ca:	c6fff0ef          	jal	ra,ffffffc050403438 <Xil_Out32>
ffffffc0504037ce:	fc843783          	ld	a5,-56(s0)
ffffffc0504037d2:	679c                	ld	a5,8(a5)
ffffffc0504037d4:	01078713          	addi	a4,a5,16 # 200010 <_start-0xffffffc0501ffff0>
ffffffc0504037d8:	001807b7          	lui	a5,0x180
ffffffc0504037dc:	70078593          	addi	a1,a5,1792 # 180700 <_start-0xffffffc05027f900>
ffffffc0504037e0:	853a                	mv	a0,a4
ffffffc0504037e2:	c57ff0ef          	jal	ra,ffffffc050403438 <Xil_Out32>
ffffffc0504037e6:	fc843783          	ld	a5,-56(s0)
ffffffc0504037ea:	1387a783          	lw	a5,312(a5)
ffffffc0504037ee:	873e                	mv	a4,a5
ffffffc0504037f0:	4789                	li	a5,2
ffffffc0504037f2:	02e7f763          	bgeu	a5,a4,ffffffc050403820 <XEmacPs_Reset+0x184>
ffffffc0504037f6:	fc843783          	ld	a5,-56(s0)
ffffffc0504037fa:	679c                	ld	a5,8(a5)
ffffffc0504037fc:	01078493          	addi	s1,a5,16
ffffffc050403800:	fc843783          	ld	a5,-56(s0)
ffffffc050403804:	679c                	ld	a5,8(a5)
ffffffc050403806:	07c1                	addi	a5,a5,16
ffffffc050403808:	853e                	mv	a0,a5
ffffffc05040380a:	c5bff0ef          	jal	ra,ffffffc050403464 <Xil_In32>
ffffffc05040380e:	87aa                	mv	a5,a0
ffffffc050403810:	2781                	sext.w	a5,a5
ffffffc050403812:	0107e793          	ori	a5,a5,16
ffffffc050403816:	2781                	sext.w	a5,a5
ffffffc050403818:	85be                	mv	a1,a5
ffffffc05040381a:	8526                	mv	a0,s1
ffffffc05040381c:	c1dff0ef          	jal	ra,ffffffc050403438 <Xil_Out32>
ffffffc050403820:	fc843783          	ld	a5,-56(s0)
ffffffc050403824:	679c                	ld	a5,8(a5)
ffffffc050403826:	07d1                	addi	a5,a5,20
ffffffc050403828:	4581                	li	a1,0
ffffffc05040382a:	853e                	mv	a0,a5
ffffffc05040382c:	c0dff0ef          	jal	ra,ffffffc050403438 <Xil_Out32>
ffffffc050403830:	4685                	li	a3,1
ffffffc050403832:	4601                	li	a2,0
ffffffc050403834:	4581                	li	a1,0
ffffffc050403836:	fc843503          	ld	a0,-56(s0)
ffffffc05040383a:	188000ef          	jal	ra,ffffffc0504039c2 <XEmacPs_SetQueuePtr>
ffffffc05040383e:	fc843783          	ld	a5,-56(s0)
ffffffc050403842:	1387a783          	lw	a5,312(a5)
ffffffc050403846:	873e                	mv	a4,a5
ffffffc050403848:	4789                	li	a5,2
ffffffc05040384a:	00e7f963          	bgeu	a5,a4,ffffffc05040385c <XEmacPs_Reset+0x1c0>
ffffffc05040384e:	4685                	li	a3,1
ffffffc050403850:	4605                	li	a2,1
ffffffc050403852:	4581                	li	a1,0
ffffffc050403854:	fc843503          	ld	a0,-56(s0)
ffffffc050403858:	16a000ef          	jal	ra,ffffffc0504039c2 <XEmacPs_SetQueuePtr>
ffffffc05040385c:	4689                	li	a3,2
ffffffc05040385e:	4601                	li	a2,0
ffffffc050403860:	4581                	li	a1,0
ffffffc050403862:	fc843503          	ld	a0,-56(s0)
ffffffc050403866:	15c000ef          	jal	ra,ffffffc0504039c2 <XEmacPs_SetQueuePtr>
ffffffc05040386a:	fc843783          	ld	a5,-56(s0)
ffffffc05040386e:	679c                	ld	a5,8(a5)
ffffffc050403870:	02078793          	addi	a5,a5,32
ffffffc050403874:	4581                	li	a1,0
ffffffc050403876:	853e                	mv	a0,a5
ffffffc050403878:	bc1ff0ef          	jal	ra,ffffffc050403438 <Xil_Out32>
ffffffc05040387c:	fc843783          	ld	a5,-56(s0)
ffffffc050403880:	679c                	ld	a5,8(a5)
ffffffc050403882:	02c78713          	addi	a4,a5,44
ffffffc050403886:	67a1                	lui	a5,0x8
ffffffc050403888:	fff78593          	addi	a1,a5,-1 # 7fff <_start-0xffffffc0503f8001>
ffffffc05040388c:	853a                	mv	a0,a4
ffffffc05040388e:	babff0ef          	jal	ra,ffffffc050403438 <Xil_Out32>
ffffffc050403892:	fc843783          	ld	a5,-56(s0)
ffffffc050403896:	679c                	ld	a5,8(a5)
ffffffc050403898:	02478793          	addi	a5,a5,36
ffffffc05040389c:	853e                	mv	a0,a5
ffffffc05040389e:	bc7ff0ef          	jal	ra,ffffffc050403464 <Xil_In32>
ffffffc0504038a2:	87aa                	mv	a5,a0
ffffffc0504038a4:	fcf42c23          	sw	a5,-40(s0)
ffffffc0504038a8:	fc843783          	ld	a5,-56(s0)
ffffffc0504038ac:	679c                	ld	a5,8(a5)
ffffffc0504038ae:	02478793          	addi	a5,a5,36
ffffffc0504038b2:	fd842703          	lw	a4,-40(s0)
ffffffc0504038b6:	85ba                	mv	a1,a4
ffffffc0504038b8:	853e                	mv	a0,a5
ffffffc0504038ba:	b7fff0ef          	jal	ra,ffffffc050403438 <Xil_Out32>
ffffffc0504038be:	fc843503          	ld	a0,-56(s0)
ffffffc0504038c2:	750010ef          	jal	ra,ffffffc050405012 <XEmacPs_ClearHash>
ffffffc0504038c6:	4785                	li	a5,1
ffffffc0504038c8:	fcf40fa3          	sb	a5,-33(s0)
ffffffc0504038cc:	a805                	j	ffffffc0504038fc <XEmacPs_Reset+0x260>
ffffffc0504038ce:	fdf44703          	lbu	a4,-33(s0)
ffffffc0504038d2:	fd040793          	addi	a5,s0,-48
ffffffc0504038d6:	863a                	mv	a2,a4
ffffffc0504038d8:	85be                	mv	a1,a5
ffffffc0504038da:	fc843503          	ld	a0,-56(s0)
ffffffc0504038de:	7e5000ef          	jal	ra,ffffffc0504048c2 <XEmacPs_SetMacAddress>
ffffffc0504038e2:	fdf44783          	lbu	a5,-33(s0)
ffffffc0504038e6:	863e                	mv	a2,a5
ffffffc0504038e8:	4581                	li	a1,0
ffffffc0504038ea:	fc843503          	ld	a0,-56(s0)
ffffffc0504038ee:	7be010ef          	jal	ra,ffffffc0504050ac <XEmacPs_SetTypeIdCheck>
ffffffc0504038f2:	fdf44783          	lbu	a5,-33(s0)
ffffffc0504038f6:	2785                	addiw	a5,a5,1
ffffffc0504038f8:	fcf40fa3          	sb	a5,-33(s0)
ffffffc0504038fc:	fdf44783          	lbu	a5,-33(s0)
ffffffc050403900:	0ff7f713          	andi	a4,a5,255
ffffffc050403904:	4791                	li	a5,4
ffffffc050403906:	fce7f4e3          	bgeu	a5,a4,ffffffc0504038ce <XEmacPs_Reset+0x232>
ffffffc05040390a:	fc040fa3          	sb	zero,-33(s0)
ffffffc05040390e:	a805                	j	ffffffc05040393e <XEmacPs_Reset+0x2a2>
ffffffc050403910:	fc843783          	ld	a5,-56(s0)
ffffffc050403914:	6798                	ld	a4,8(a5)
ffffffc050403916:	fdf44783          	lbu	a5,-33(s0)
ffffffc05040391a:	2781                	sext.w	a5,a5
ffffffc05040391c:	0407879b          	addiw	a5,a5,64
ffffffc050403920:	2781                	sext.w	a5,a5
ffffffc050403922:	0027979b          	slliw	a5,a5,0x2
ffffffc050403926:	2781                	sext.w	a5,a5
ffffffc050403928:	1782                	slli	a5,a5,0x20
ffffffc05040392a:	9381                	srli	a5,a5,0x20
ffffffc05040392c:	97ba                	add	a5,a5,a4
ffffffc05040392e:	853e                	mv	a0,a5
ffffffc050403930:	b35ff0ef          	jal	ra,ffffffc050403464 <Xil_In32>
ffffffc050403934:	fdf44783          	lbu	a5,-33(s0)
ffffffc050403938:	2785                	addiw	a5,a5,1
ffffffc05040393a:	fcf40fa3          	sb	a5,-33(s0)
ffffffc05040393e:	fdf44783          	lbu	a5,-33(s0)
ffffffc050403942:	0ff7f713          	andi	a4,a5,255
ffffffc050403946:	02c00793          	li	a5,44
ffffffc05040394a:	fce7f3e3          	bgeu	a5,a4,ffffffc050403910 <XEmacPs_Reset+0x274>
ffffffc05040394e:	fc843783          	ld	a5,-56(s0)
ffffffc050403952:	679c                	ld	a5,8(a5)
ffffffc050403954:	853e                	mv	a0,a5
ffffffc050403956:	b0fff0ef          	jal	ra,ffffffc050403464 <Xil_In32>
ffffffc05040395a:	87aa                	mv	a5,a0
ffffffc05040395c:	fcf42c23          	sw	a5,-40(s0)
ffffffc050403960:	fd842783          	lw	a5,-40(s0)
ffffffc050403964:	9bed                	andi	a5,a5,-5
ffffffc050403966:	fcf42c23          	sw	a5,-40(s0)
ffffffc05040396a:	fc843783          	ld	a5,-56(s0)
ffffffc05040396e:	679c                	ld	a5,8(a5)
ffffffc050403970:	fd842703          	lw	a4,-40(s0)
ffffffc050403974:	85ba                	mv	a1,a4
ffffffc050403976:	853e                	mv	a0,a5
ffffffc050403978:	ac1ff0ef          	jal	ra,ffffffc050403438 <Xil_Out32>
ffffffc05040397c:	fc843783          	ld	a5,-56(s0)
ffffffc050403980:	539c                	lw	a5,32(a5)
ffffffc050403982:	cff7f793          	andi	a5,a5,-769
ffffffc050403986:	2781                	sext.w	a5,a5
ffffffc050403988:	85be                	mv	a1,a5
ffffffc05040398a:	fc843503          	ld	a0,-56(s0)
ffffffc05040398e:	7a2010ef          	jal	ra,ffffffc050405130 <XEmacPs_SetOptions>
ffffffc050403992:	fc843783          	ld	a5,-56(s0)
ffffffc050403996:	539c                	lw	a5,32(a5)
ffffffc050403998:	fff7c793          	not	a5,a5
ffffffc05040399c:	2781                	sext.w	a5,a5
ffffffc05040399e:	85be                	mv	a1,a5
ffffffc0504039a0:	fc843503          	ld	a0,-56(s0)
ffffffc0504039a4:	2b9010ef          	jal	ra,ffffffc05040545c <XEmacPs_ClearOptions>
ffffffc0504039a8:	0001                	nop
ffffffc0504039aa:	70e2                	ld	ra,56(sp)
ffffffc0504039ac:	7442                	ld	s0,48(sp)
ffffffc0504039ae:	74a2                	ld	s1,40(sp)
ffffffc0504039b0:	6121                	addi	sp,sp,64
ffffffc0504039b2:	8082                	ret

ffffffc0504039b4 <XEmacPs_StubHandler>:
ffffffc0504039b4:	1141                	addi	sp,sp,-16
ffffffc0504039b6:	e422                	sd	s0,8(sp)
ffffffc0504039b8:	0800                	addi	s0,sp,16
ffffffc0504039ba:	0001                	nop
ffffffc0504039bc:	6422                	ld	s0,8(sp)
ffffffc0504039be:	0141                	addi	sp,sp,16
ffffffc0504039c0:	8082                	ret

ffffffc0504039c2 <XEmacPs_SetQueuePtr>:
ffffffc0504039c2:	7179                	addi	sp,sp,-48
ffffffc0504039c4:	f406                	sd	ra,40(sp)
ffffffc0504039c6:	f022                	sd	s0,32(sp)
ffffffc0504039c8:	1800                	addi	s0,sp,48
ffffffc0504039ca:	fea43423          	sd	a0,-24(s0)
ffffffc0504039ce:	feb43023          	sd	a1,-32(s0)
ffffffc0504039d2:	87b2                	mv	a5,a2
ffffffc0504039d4:	8736                	mv	a4,a3
ffffffc0504039d6:	fcf40fa3          	sb	a5,-33(s0)
ffffffc0504039da:	87ba                	mv	a5,a4
ffffffc0504039dc:	fcf41e23          	sh	a5,-36(s0)
ffffffc0504039e0:	fe843783          	ld	a5,-24(s0)
ffffffc0504039e4:	4f9c                	lw	a5,24(a5)
ffffffc0504039e6:	873e                	mv	a4,a5
ffffffc0504039e8:	222227b7          	lui	a5,0x22222
ffffffc0504039ec:	22278793          	addi	a5,a5,546 # 22222222 <_start-0xffffffc02e1dddde>
ffffffc0504039f0:	06f70f63          	beq	a4,a5,ffffffc050403a6e <XEmacPs_SetQueuePtr+0xac>
ffffffc0504039f4:	fe043503          	ld	a0,-32(s0)
ffffffc0504039f8:	a25ff0ef          	jal	ra,ffffffc05040341c <kva2pa>
ffffffc0504039fc:	fea43023          	sd	a0,-32(s0)
ffffffc050403a00:	fdc45783          	lhu	a5,-36(s0)
ffffffc050403a04:	0007871b          	sext.w	a4,a5
ffffffc050403a08:	4785                	li	a5,1
ffffffc050403a0a:	02f71a63          	bne	a4,a5,ffffffc050403a3e <XEmacPs_SetQueuePtr+0x7c>
ffffffc050403a0e:	fe843783          	ld	a5,-24(s0)
ffffffc050403a12:	679c                	ld	a5,8(a5)
ffffffc050403a14:	01c78713          	addi	a4,a5,28
ffffffc050403a18:	fe043783          	ld	a5,-32(s0)
ffffffc050403a1c:	2781                	sext.w	a5,a5
ffffffc050403a1e:	86be                	mv	a3,a5
ffffffc050403a20:	100007b7          	lui	a5,0x10000
ffffffc050403a24:	17fd                	addi	a5,a5,-1
ffffffc050403a26:	8ff5                	and	a5,a5,a3
ffffffc050403a28:	2781                	sext.w	a5,a5
ffffffc050403a2a:	86be                	mv	a3,a5
ffffffc050403a2c:	500007b7          	lui	a5,0x50000
ffffffc050403a30:	8fd5                	or	a5,a5,a3
ffffffc050403a32:	2781                	sext.w	a5,a5
ffffffc050403a34:	85be                	mv	a1,a5
ffffffc050403a36:	853a                	mv	a0,a4
ffffffc050403a38:	a01ff0ef          	jal	ra,ffffffc050403438 <Xil_Out32>
ffffffc050403a3c:	a815                	j	ffffffc050403a70 <XEmacPs_SetQueuePtr+0xae>
ffffffc050403a3e:	fe843783          	ld	a5,-24(s0)
ffffffc050403a42:	679c                	ld	a5,8(a5)
ffffffc050403a44:	01878713          	addi	a4,a5,24 # 50000018 <_start-0xffffffc0003fffe8>
ffffffc050403a48:	fe043783          	ld	a5,-32(s0)
ffffffc050403a4c:	2781                	sext.w	a5,a5
ffffffc050403a4e:	86be                	mv	a3,a5
ffffffc050403a50:	100007b7          	lui	a5,0x10000
ffffffc050403a54:	17fd                	addi	a5,a5,-1
ffffffc050403a56:	8ff5                	and	a5,a5,a3
ffffffc050403a58:	2781                	sext.w	a5,a5
ffffffc050403a5a:	86be                	mv	a3,a5
ffffffc050403a5c:	500007b7          	lui	a5,0x50000
ffffffc050403a60:	8fd5                	or	a5,a5,a3
ffffffc050403a62:	2781                	sext.w	a5,a5
ffffffc050403a64:	85be                	mv	a1,a5
ffffffc050403a66:	853a                	mv	a0,a4
ffffffc050403a68:	9d1ff0ef          	jal	ra,ffffffc050403438 <Xil_Out32>
ffffffc050403a6c:	a011                	j	ffffffc050403a70 <XEmacPs_SetQueuePtr+0xae>
ffffffc050403a6e:	0001                	nop
ffffffc050403a70:	70a2                	ld	ra,40(sp)
ffffffc050403a72:	7402                	ld	s0,32(sp)
ffffffc050403a74:	6145                	addi	sp,sp,48
ffffffc050403a76:	8082                	ret

ffffffc050403a78 <XEmacPs_BdRingCreate>:
ffffffc050403a78:	711d                	addi	sp,sp,-96
ffffffc050403a7a:	ec86                	sd	ra,88(sp)
ffffffc050403a7c:	e8a2                	sd	s0,80(sp)
ffffffc050403a7e:	1080                	addi	s0,sp,96
ffffffc050403a80:	fca43423          	sd	a0,-56(s0)
ffffffc050403a84:	fcb43023          	sd	a1,-64(s0)
ffffffc050403a88:	fac43c23          	sd	a2,-72(s0)
ffffffc050403a8c:	faf43423          	sd	a5,-88(s0)
ffffffc050403a90:	87b6                	mv	a5,a3
ffffffc050403a92:	faf42a23          	sw	a5,-76(s0)
ffffffc050403a96:	87ba                	mv	a5,a4
ffffffc050403a98:	faf42823          	sw	a5,-80(s0)
ffffffc050403a9c:	fb843783          	ld	a5,-72(s0)
ffffffc050403aa0:	fcf43823          	sd	a5,-48(s0)
ffffffc050403aa4:	fc843783          	ld	a5,-56(s0)
ffffffc050403aa8:	0607a423          	sw	zero,104(a5) # 50000068 <_start-0xffffffc0003fff98>
ffffffc050403aac:	fc843783          	ld	a5,-56(s0)
ffffffc050403ab0:	0607a023          	sw	zero,96(a5)
ffffffc050403ab4:	fc843783          	ld	a5,-56(s0)
ffffffc050403ab8:	0407ac23          	sw	zero,88(a5)
ffffffc050403abc:	fc843783          	ld	a5,-56(s0)
ffffffc050403ac0:	0407ae23          	sw	zero,92(a5)
ffffffc050403ac4:	fc843783          	ld	a5,-56(s0)
ffffffc050403ac8:	0607a223          	sw	zero,100(a5)
ffffffc050403acc:	fb442783          	lw	a5,-76(s0)
ffffffc050403ad0:	0007871b          	sext.w	a4,a5
ffffffc050403ad4:	03f00793          	li	a5,63
ffffffc050403ad8:	00e7e463          	bltu	a5,a4,ffffffc050403ae0 <XEmacPs_BdRingCreate+0x68>
ffffffc050403adc:	47bd                	li	a5,15
ffffffc050403ade:	a255                	j	ffffffc050403c82 <XEmacPs_BdRingCreate+0x20a>
ffffffc050403ae0:	fb442783          	lw	a5,-76(s0)
ffffffc050403ae4:	37fd                	addiw	a5,a5,-1
ffffffc050403ae6:	0007871b          	sext.w	a4,a5
ffffffc050403aea:	fb442783          	lw	a5,-76(s0)
ffffffc050403aee:	8ff9                	and	a5,a5,a4
ffffffc050403af0:	2781                	sext.w	a5,a5
ffffffc050403af2:	c399                	beqz	a5,ffffffc050403af8 <XEmacPs_BdRingCreate+0x80>
ffffffc050403af4:	47bd                	li	a5,15
ffffffc050403af6:	a271                	j	ffffffc050403c82 <XEmacPs_BdRingCreate+0x20a>
ffffffc050403af8:	fb446783          	lwu	a5,-76(s0)
ffffffc050403afc:	fc043703          	ld	a4,-64(s0)
ffffffc050403b00:	02f777b3          	remu	a5,a4,a5
ffffffc050403b04:	eb81                	bnez	a5,ffffffc050403b14 <XEmacPs_BdRingCreate+0x9c>
ffffffc050403b06:	fb446783          	lwu	a5,-76(s0)
ffffffc050403b0a:	fd043703          	ld	a4,-48(s0)
ffffffc050403b0e:	02f777b3          	remu	a5,a4,a5
ffffffc050403b12:	c399                	beqz	a5,ffffffc050403b18 <XEmacPs_BdRingCreate+0xa0>
ffffffc050403b14:	47bd                	li	a5,15
ffffffc050403b16:	a2b5                	j	ffffffc050403c82 <XEmacPs_BdRingCreate+0x20a>
ffffffc050403b18:	fb042783          	lw	a5,-80(s0)
ffffffc050403b1c:	2781                	sext.w	a5,a5
ffffffc050403b1e:	e399                	bnez	a5,ffffffc050403b24 <XEmacPs_BdRingCreate+0xac>
ffffffc050403b20:	47bd                	li	a5,15
ffffffc050403b22:	a285                	j	ffffffc050403c82 <XEmacPs_BdRingCreate+0x20a>
ffffffc050403b24:	fc843783          	ld	a5,-56(s0)
ffffffc050403b28:	4721                	li	a4,8
ffffffc050403b2a:	d398                	sw	a4,32(a5)
ffffffc050403b2c:	fc843783          	ld	a5,-56(s0)
ffffffc050403b30:	539c                	lw	a5,32(a5)
ffffffc050403b32:	fb042703          	lw	a4,-80(s0)
ffffffc050403b36:	02f707bb          	mulw	a5,a4,a5
ffffffc050403b3a:	2781                	sext.w	a5,a5
ffffffc050403b3c:	02079713          	slli	a4,a5,0x20
ffffffc050403b40:	9301                	srli	a4,a4,0x20
ffffffc050403b42:	fd043783          	ld	a5,-48(s0)
ffffffc050403b46:	97ba                	add	a5,a5,a4
ffffffc050403b48:	17fd                	addi	a5,a5,-1
ffffffc050403b4a:	fd043703          	ld	a4,-48(s0)
ffffffc050403b4e:	00e7f563          	bgeu	a5,a4,ffffffc050403b58 <XEmacPs_BdRingCreate+0xe0>
ffffffc050403b52:	20e00793          	li	a5,526
ffffffc050403b56:	a235                	j	ffffffc050403c82 <XEmacPs_BdRingCreate+0x20a>
ffffffc050403b58:	fd043683          	ld	a3,-48(s0)
ffffffc050403b5c:	fc843783          	ld	a5,-56(s0)
ffffffc050403b60:	539c                	lw	a5,32(a5)
ffffffc050403b62:	fb042703          	lw	a4,-80(s0)
ffffffc050403b66:	02f707bb          	mulw	a5,a4,a5
ffffffc050403b6a:	2781                	sext.w	a5,a5
ffffffc050403b6c:	863e                	mv	a2,a5
ffffffc050403b6e:	4581                	li	a1,0
ffffffc050403b70:	8536                	mv	a0,a3
ffffffc050403b72:	2de080ef          	jal	ra,ffffffc05040be50 <memset>
ffffffc050403b76:	fd043783          	ld	a5,-48(s0)
ffffffc050403b7a:	fef43023          	sd	a5,-32(s0)
ffffffc050403b7e:	fc843783          	ld	a5,-56(s0)
ffffffc050403b82:	539c                	lw	a5,32(a5)
ffffffc050403b84:	1782                	slli	a5,a5,0x20
ffffffc050403b86:	9381                	srli	a5,a5,0x20
ffffffc050403b88:	fc043703          	ld	a4,-64(s0)
ffffffc050403b8c:	97ba                	add	a5,a5,a4
ffffffc050403b8e:	fcf43c23          	sd	a5,-40(s0)
ffffffc050403b92:	4785                	li	a5,1
ffffffc050403b94:	fef42623          	sw	a5,-20(s0)
ffffffc050403b98:	a815                	j	ffffffc050403bcc <XEmacPs_BdRingCreate+0x154>
ffffffc050403b9a:	fc843783          	ld	a5,-56(s0)
ffffffc050403b9e:	539c                	lw	a5,32(a5)
ffffffc050403ba0:	1782                	slli	a5,a5,0x20
ffffffc050403ba2:	9381                	srli	a5,a5,0x20
ffffffc050403ba4:	fe043703          	ld	a4,-32(s0)
ffffffc050403ba8:	97ba                	add	a5,a5,a4
ffffffc050403baa:	fef43023          	sd	a5,-32(s0)
ffffffc050403bae:	fc843783          	ld	a5,-56(s0)
ffffffc050403bb2:	539c                	lw	a5,32(a5)
ffffffc050403bb4:	1782                	slli	a5,a5,0x20
ffffffc050403bb6:	9381                	srli	a5,a5,0x20
ffffffc050403bb8:	fd843703          	ld	a4,-40(s0)
ffffffc050403bbc:	97ba                	add	a5,a5,a4
ffffffc050403bbe:	fcf43c23          	sd	a5,-40(s0)
ffffffc050403bc2:	fec42783          	lw	a5,-20(s0)
ffffffc050403bc6:	2785                	addiw	a5,a5,1
ffffffc050403bc8:	fef42623          	sw	a5,-20(s0)
ffffffc050403bcc:	fec42703          	lw	a4,-20(s0)
ffffffc050403bd0:	fb042783          	lw	a5,-80(s0)
ffffffc050403bd4:	2701                	sext.w	a4,a4
ffffffc050403bd6:	2781                	sext.w	a5,a5
ffffffc050403bd8:	fcf761e3          	bltu	a4,a5,ffffffc050403b9a <XEmacPs_BdRingCreate+0x122>
ffffffc050403bdc:	fc843783          	ld	a5,-56(s0)
ffffffc050403be0:	20300713          	li	a4,515
ffffffc050403be4:	cfd8                	sw	a4,28(a5)
ffffffc050403be6:	fc843783          	ld	a5,-56(s0)
ffffffc050403bea:	fd043703          	ld	a4,-48(s0)
ffffffc050403bee:	e798                	sd	a4,8(a5)
ffffffc050403bf0:	fc843783          	ld	a5,-56(s0)
ffffffc050403bf4:	fc043703          	ld	a4,-64(s0)
ffffffc050403bf8:	e398                	sd	a4,0(a5)
ffffffc050403bfa:	fc843783          	ld	a5,-56(s0)
ffffffc050403bfe:	fe043703          	ld	a4,-32(s0)
ffffffc050403c02:	eb98                	sd	a4,16(a5)
ffffffc050403c04:	fc843783          	ld	a5,-56(s0)
ffffffc050403c08:	6b9c                	ld	a5,16(a5)
ffffffc050403c0a:	0007871b          	sext.w	a4,a5
ffffffc050403c0e:	fc843783          	ld	a5,-56(s0)
ffffffc050403c12:	679c                	ld	a5,8(a5)
ffffffc050403c14:	2781                	sext.w	a5,a5
ffffffc050403c16:	40f707bb          	subw	a5,a4,a5
ffffffc050403c1a:	0007871b          	sext.w	a4,a5
ffffffc050403c1e:	fc843783          	ld	a5,-56(s0)
ffffffc050403c22:	539c                	lw	a5,32(a5)
ffffffc050403c24:	9fb9                	addw	a5,a5,a4
ffffffc050403c26:	0007871b          	sext.w	a4,a5
ffffffc050403c2a:	fc843783          	ld	a5,-56(s0)
ffffffc050403c2e:	cf98                	sw	a4,24(a5)
ffffffc050403c30:	fc843783          	ld	a5,-56(s0)
ffffffc050403c34:	fb042703          	lw	a4,-80(s0)
ffffffc050403c38:	d7b8                	sw	a4,104(a5)
ffffffc050403c3a:	fc843783          	ld	a5,-56(s0)
ffffffc050403c3e:	fb042703          	lw	a4,-80(s0)
ffffffc050403c42:	d3b8                	sw	a4,96(a5)
ffffffc050403c44:	fd043703          	ld	a4,-48(s0)
ffffffc050403c48:	fc843783          	ld	a5,-56(s0)
ffffffc050403c4c:	f798                	sd	a4,40(a5)
ffffffc050403c4e:	fd043703          	ld	a4,-48(s0)
ffffffc050403c52:	fc843783          	ld	a5,-56(s0)
ffffffc050403c56:	fb98                	sd	a4,48(a5)
ffffffc050403c58:	fd043703          	ld	a4,-48(s0)
ffffffc050403c5c:	fc843783          	ld	a5,-56(s0)
ffffffc050403c60:	ff98                	sd	a4,56(a5)
ffffffc050403c62:	fd043703          	ld	a4,-48(s0)
ffffffc050403c66:	fc843783          	ld	a5,-56(s0)
ffffffc050403c6a:	e3b8                	sd	a4,64(a5)
ffffffc050403c6c:	fd043703          	ld	a4,-48(s0)
ffffffc050403c70:	fc843783          	ld	a5,-56(s0)
ffffffc050403c74:	e7b8                	sd	a4,72(a5)
ffffffc050403c76:	fc043703          	ld	a4,-64(s0)
ffffffc050403c7a:	fc843783          	ld	a5,-56(s0)
ffffffc050403c7e:	ebb8                	sd	a4,80(a5)
ffffffc050403c80:	4781                	li	a5,0
ffffffc050403c82:	853e                	mv	a0,a5
ffffffc050403c84:	60e6                	ld	ra,88(sp)
ffffffc050403c86:	6446                	ld	s0,80(sp)
ffffffc050403c88:	6125                	addi	sp,sp,96
ffffffc050403c8a:	8082                	ret

ffffffc050403c8c <XEmacPs_BdRingClone>:
ffffffc050403c8c:	7139                	addi	sp,sp,-64
ffffffc050403c8e:	fc06                	sd	ra,56(sp)
ffffffc050403c90:	f822                	sd	s0,48(sp)
ffffffc050403c92:	0080                	addi	s0,sp,64
ffffffc050403c94:	fca43c23          	sd	a0,-40(s0)
ffffffc050403c98:	fcb43823          	sd	a1,-48(s0)
ffffffc050403c9c:	87b2                	mv	a5,a2
ffffffc050403c9e:	fcf407a3          	sb	a5,-49(s0)
ffffffc050403ca2:	fd843783          	ld	a5,-40(s0)
ffffffc050403ca6:	57bc                	lw	a5,104(a5)
ffffffc050403ca8:	e781                	bnez	a5,ffffffc050403cb0 <XEmacPs_BdRingClone+0x24>
ffffffc050403caa:	20b00793          	li	a5,523
ffffffc050403cae:	a8c9                	j	ffffffc050403d80 <XEmacPs_BdRingClone+0xf4>
ffffffc050403cb0:	fd843783          	ld	a5,-40(s0)
ffffffc050403cb4:	4fdc                	lw	a5,28(a5)
ffffffc050403cb6:	873e                	mv	a4,a5
ffffffc050403cb8:	20200793          	li	a5,514
ffffffc050403cbc:	00f71463          	bne	a4,a5,ffffffc050403cc4 <XEmacPs_BdRingClone+0x38>
ffffffc050403cc0:	4795                	li	a5,5
ffffffc050403cc2:	a87d                	j	ffffffc050403d80 <XEmacPs_BdRingClone+0xf4>
ffffffc050403cc4:	fd843783          	ld	a5,-40(s0)
ffffffc050403cc8:	53b8                	lw	a4,96(a5)
ffffffc050403cca:	fd843783          	ld	a5,-40(s0)
ffffffc050403cce:	57bc                	lw	a5,104(a5)
ffffffc050403cd0:	00f70563          	beq	a4,a5,ffffffc050403cda <XEmacPs_BdRingClone+0x4e>
ffffffc050403cd4:	20e00793          	li	a5,526
ffffffc050403cd8:	a065                	j	ffffffc050403d80 <XEmacPs_BdRingClone+0xf4>
ffffffc050403cda:	fcf44783          	lbu	a5,-49(s0)
ffffffc050403cde:	0ff7f713          	andi	a4,a5,255
ffffffc050403ce2:	4785                	li	a5,1
ffffffc050403ce4:	00f70b63          	beq	a4,a5,ffffffc050403cfa <XEmacPs_BdRingClone+0x6e>
ffffffc050403ce8:	fcf44783          	lbu	a5,-49(s0)
ffffffc050403cec:	0ff7f713          	andi	a4,a5,255
ffffffc050403cf0:	4789                	li	a5,2
ffffffc050403cf2:	00f70463          	beq	a4,a5,ffffffc050403cfa <XEmacPs_BdRingClone+0x6e>
ffffffc050403cf6:	47bd                	li	a5,15
ffffffc050403cf8:	a061                	j	ffffffc050403d80 <XEmacPs_BdRingClone+0xf4>
ffffffc050403cfa:	fd843783          	ld	a5,-40(s0)
ffffffc050403cfe:	679c                	ld	a5,8(a5)
ffffffc050403d00:	fef43023          	sd	a5,-32(s0)
ffffffc050403d04:	fe042623          	sw	zero,-20(s0)
ffffffc050403d08:	a805                	j	ffffffc050403d38 <XEmacPs_BdRingClone+0xac>
ffffffc050403d0a:	fe043783          	ld	a5,-32(s0)
ffffffc050403d0e:	4621                	li	a2,8
ffffffc050403d10:	fd043583          	ld	a1,-48(s0)
ffffffc050403d14:	853e                	mv	a0,a5
ffffffc050403d16:	0e8080ef          	jal	ra,ffffffc05040bdfe <memcpy>
ffffffc050403d1a:	fd843783          	ld	a5,-40(s0)
ffffffc050403d1e:	539c                	lw	a5,32(a5)
ffffffc050403d20:	1782                	slli	a5,a5,0x20
ffffffc050403d22:	9381                	srli	a5,a5,0x20
ffffffc050403d24:	fe043703          	ld	a4,-32(s0)
ffffffc050403d28:	97ba                	add	a5,a5,a4
ffffffc050403d2a:	fef43023          	sd	a5,-32(s0)
ffffffc050403d2e:	fec42783          	lw	a5,-20(s0)
ffffffc050403d32:	2785                	addiw	a5,a5,1
ffffffc050403d34:	fef42623          	sw	a5,-20(s0)
ffffffc050403d38:	fd843783          	ld	a5,-40(s0)
ffffffc050403d3c:	57b8                	lw	a4,104(a5)
ffffffc050403d3e:	fec42783          	lw	a5,-20(s0)
ffffffc050403d42:	2781                	sext.w	a5,a5
ffffffc050403d44:	fce7e3e3          	bltu	a5,a4,ffffffc050403d0a <XEmacPs_BdRingClone+0x7e>
ffffffc050403d48:	fd843783          	ld	a5,-40(s0)
ffffffc050403d4c:	539c                	lw	a5,32(a5)
ffffffc050403d4e:	1782                	slli	a5,a5,0x20
ffffffc050403d50:	9381                	srli	a5,a5,0x20
ffffffc050403d52:	fe043703          	ld	a4,-32(s0)
ffffffc050403d56:	40f707b3          	sub	a5,a4,a5
ffffffc050403d5a:	fef43023          	sd	a5,-32(s0)
ffffffc050403d5e:	fcf44783          	lbu	a5,-49(s0)
ffffffc050403d62:	0ff7f713          	andi	a4,a5,255
ffffffc050403d66:	4789                	li	a5,2
ffffffc050403d68:	00f71763          	bne	a4,a5,ffffffc050403d76 <XEmacPs_BdRingClone+0xea>
ffffffc050403d6c:	fe043503          	ld	a0,-32(s0)
ffffffc050403d70:	1e3000ef          	jal	ra,ffffffc050404752 <XEmacPs_BdSetRxWrap>
ffffffc050403d74:	a029                	j	ffffffc050403d7e <XEmacPs_BdRingClone+0xf2>
ffffffc050403d76:	fe043503          	ld	a0,-32(s0)
ffffffc050403d7a:	219000ef          	jal	ra,ffffffc050404792 <XEmacPs_BdSetTxWrap>
ffffffc050403d7e:	4781                	li	a5,0
ffffffc050403d80:	853e                	mv	a0,a5
ffffffc050403d82:	70e2                	ld	ra,56(sp)
ffffffc050403d84:	7442                	ld	s0,48(sp)
ffffffc050403d86:	6121                	addi	sp,sp,64
ffffffc050403d88:	8082                	ret

ffffffc050403d8a <XEmacPs_BdRingAlloc>:
ffffffc050403d8a:	7139                	addi	sp,sp,-64
ffffffc050403d8c:	fc22                	sd	s0,56(sp)
ffffffc050403d8e:	0080                	addi	s0,sp,64
ffffffc050403d90:	fca43c23          	sd	a0,-40(s0)
ffffffc050403d94:	87ae                	mv	a5,a1
ffffffc050403d96:	fcc43423          	sd	a2,-56(s0)
ffffffc050403d9a:	fcf42a23          	sw	a5,-44(s0)
ffffffc050403d9e:	fd843783          	ld	a5,-40(s0)
ffffffc050403da2:	53b8                	lw	a4,96(a5)
ffffffc050403da4:	fd442783          	lw	a5,-44(s0)
ffffffc050403da8:	2781                	sext.w	a5,a5
ffffffc050403daa:	00f77663          	bgeu	a4,a5,ffffffc050403db6 <XEmacPs_BdRingAlloc+0x2c>
ffffffc050403dae:	4785                	li	a5,1
ffffffc050403db0:	fef43423          	sd	a5,-24(s0)
ffffffc050403db4:	a05d                	j	ffffffc050403e5a <XEmacPs_BdRingAlloc+0xd0>
ffffffc050403db6:	fd843783          	ld	a5,-40(s0)
ffffffc050403dba:	7798                	ld	a4,40(a5)
ffffffc050403dbc:	fc843783          	ld	a5,-56(s0)
ffffffc050403dc0:	e398                	sd	a4,0(a5)
ffffffc050403dc2:	fd843783          	ld	a5,-40(s0)
ffffffc050403dc6:	779c                	ld	a5,40(a5)
ffffffc050403dc8:	fef43023          	sd	a5,-32(s0)
ffffffc050403dcc:	fd843783          	ld	a5,-40(s0)
ffffffc050403dd0:	539c                	lw	a5,32(a5)
ffffffc050403dd2:	fd442703          	lw	a4,-44(s0)
ffffffc050403dd6:	02f707bb          	mulw	a5,a4,a5
ffffffc050403dda:	2781                	sext.w	a5,a5
ffffffc050403ddc:	1782                	slli	a5,a5,0x20
ffffffc050403dde:	9381                	srli	a5,a5,0x20
ffffffc050403de0:	fe043703          	ld	a4,-32(s0)
ffffffc050403de4:	97ba                	add	a5,a5,a4
ffffffc050403de6:	fef43023          	sd	a5,-32(s0)
ffffffc050403dea:	fd843783          	ld	a5,-40(s0)
ffffffc050403dee:	6b9c                	ld	a5,16(a5)
ffffffc050403df0:	fe043703          	ld	a4,-32(s0)
ffffffc050403df4:	00e7ea63          	bltu	a5,a4,ffffffc050403e08 <XEmacPs_BdRingAlloc+0x7e>
ffffffc050403df8:	fd843783          	ld	a5,-40(s0)
ffffffc050403dfc:	779c                	ld	a5,40(a5)
ffffffc050403dfe:	873e                	mv	a4,a5
ffffffc050403e00:	fe043783          	ld	a5,-32(s0)
ffffffc050403e04:	00e7fd63          	bgeu	a5,a4,ffffffc050403e1e <XEmacPs_BdRingAlloc+0x94>
ffffffc050403e08:	fd843783          	ld	a5,-40(s0)
ffffffc050403e0c:	4f9c                	lw	a5,24(a5)
ffffffc050403e0e:	1782                	slli	a5,a5,0x20
ffffffc050403e10:	9381                	srli	a5,a5,0x20
ffffffc050403e12:	fe043703          	ld	a4,-32(s0)
ffffffc050403e16:	40f707b3          	sub	a5,a4,a5
ffffffc050403e1a:	fef43023          	sd	a5,-32(s0)
ffffffc050403e1e:	fe043703          	ld	a4,-32(s0)
ffffffc050403e22:	fd843783          	ld	a5,-40(s0)
ffffffc050403e26:	f798                	sd	a4,40(a5)
ffffffc050403e28:	fd843783          	ld	a5,-40(s0)
ffffffc050403e2c:	53b8                	lw	a4,96(a5)
ffffffc050403e2e:	fd442783          	lw	a5,-44(s0)
ffffffc050403e32:	40f707bb          	subw	a5,a4,a5
ffffffc050403e36:	0007871b          	sext.w	a4,a5
ffffffc050403e3a:	fd843783          	ld	a5,-40(s0)
ffffffc050403e3e:	d3b8                	sw	a4,96(a5)
ffffffc050403e40:	fd843783          	ld	a5,-40(s0)
ffffffc050403e44:	4ffc                	lw	a5,92(a5)
ffffffc050403e46:	fd442703          	lw	a4,-44(s0)
ffffffc050403e4a:	9fb9                	addw	a5,a5,a4
ffffffc050403e4c:	0007871b          	sext.w	a4,a5
ffffffc050403e50:	fd843783          	ld	a5,-40(s0)
ffffffc050403e54:	cff8                	sw	a4,92(a5)
ffffffc050403e56:	fe043423          	sd	zero,-24(s0)
ffffffc050403e5a:	fe843783          	ld	a5,-24(s0)
ffffffc050403e5e:	853e                	mv	a0,a5
ffffffc050403e60:	7462                	ld	s0,56(sp)
ffffffc050403e62:	6121                	addi	sp,sp,64
ffffffc050403e64:	8082                	ret

ffffffc050403e66 <XEmacPs_BdRingUnAlloc>:
ffffffc050403e66:	7139                	addi	sp,sp,-64
ffffffc050403e68:	fc22                	sd	s0,56(sp)
ffffffc050403e6a:	0080                	addi	s0,sp,64
ffffffc050403e6c:	fca43c23          	sd	a0,-40(s0)
ffffffc050403e70:	87ae                	mv	a5,a1
ffffffc050403e72:	fcc43423          	sd	a2,-56(s0)
ffffffc050403e76:	fcf42a23          	sw	a5,-44(s0)
ffffffc050403e7a:	fd843783          	ld	a5,-40(s0)
ffffffc050403e7e:	4ff8                	lw	a4,92(a5)
ffffffc050403e80:	fd442783          	lw	a5,-44(s0)
ffffffc050403e84:	2781                	sext.w	a5,a5
ffffffc050403e86:	00f77663          	bgeu	a4,a5,ffffffc050403e92 <XEmacPs_BdRingUnAlloc+0x2c>
ffffffc050403e8a:	4785                	li	a5,1
ffffffc050403e8c:	fef43423          	sd	a5,-24(s0)
ffffffc050403e90:	a869                	j	ffffffc050403f2a <XEmacPs_BdRingUnAlloc+0xc4>
ffffffc050403e92:	fd843783          	ld	a5,-40(s0)
ffffffc050403e96:	779c                	ld	a5,40(a5)
ffffffc050403e98:	fef43023          	sd	a5,-32(s0)
ffffffc050403e9c:	fd843783          	ld	a5,-40(s0)
ffffffc050403ea0:	539c                	lw	a5,32(a5)
ffffffc050403ea2:	fd442703          	lw	a4,-44(s0)
ffffffc050403ea6:	02f707bb          	mulw	a5,a4,a5
ffffffc050403eaa:	2781                	sext.w	a5,a5
ffffffc050403eac:	1782                	slli	a5,a5,0x20
ffffffc050403eae:	9381                	srli	a5,a5,0x20
ffffffc050403eb0:	fe043703          	ld	a4,-32(s0)
ffffffc050403eb4:	40f707b3          	sub	a5,a4,a5
ffffffc050403eb8:	fef43023          	sd	a5,-32(s0)
ffffffc050403ebc:	fd843783          	ld	a5,-40(s0)
ffffffc050403ec0:	679c                	ld	a5,8(a5)
ffffffc050403ec2:	fe043703          	ld	a4,-32(s0)
ffffffc050403ec6:	00f76a63          	bltu	a4,a5,ffffffc050403eda <XEmacPs_BdRingUnAlloc+0x74>
ffffffc050403eca:	fd843783          	ld	a5,-40(s0)
ffffffc050403ece:	779c                	ld	a5,40(a5)
ffffffc050403ed0:	873e                	mv	a4,a5
ffffffc050403ed2:	fe043783          	ld	a5,-32(s0)
ffffffc050403ed6:	00f77c63          	bgeu	a4,a5,ffffffc050403eee <XEmacPs_BdRingUnAlloc+0x88>
ffffffc050403eda:	fd843783          	ld	a5,-40(s0)
ffffffc050403ede:	4f9c                	lw	a5,24(a5)
ffffffc050403ee0:	1782                	slli	a5,a5,0x20
ffffffc050403ee2:	9381                	srli	a5,a5,0x20
ffffffc050403ee4:	fe043703          	ld	a4,-32(s0)
ffffffc050403ee8:	97ba                	add	a5,a5,a4
ffffffc050403eea:	fef43023          	sd	a5,-32(s0)
ffffffc050403eee:	fe043703          	ld	a4,-32(s0)
ffffffc050403ef2:	fd843783          	ld	a5,-40(s0)
ffffffc050403ef6:	f798                	sd	a4,40(a5)
ffffffc050403ef8:	fd843783          	ld	a5,-40(s0)
ffffffc050403efc:	53bc                	lw	a5,96(a5)
ffffffc050403efe:	fd442703          	lw	a4,-44(s0)
ffffffc050403f02:	9fb9                	addw	a5,a5,a4
ffffffc050403f04:	0007871b          	sext.w	a4,a5
ffffffc050403f08:	fd843783          	ld	a5,-40(s0)
ffffffc050403f0c:	d3b8                	sw	a4,96(a5)
ffffffc050403f0e:	fd843783          	ld	a5,-40(s0)
ffffffc050403f12:	4ff8                	lw	a4,92(a5)
ffffffc050403f14:	fd442783          	lw	a5,-44(s0)
ffffffc050403f18:	40f707bb          	subw	a5,a4,a5
ffffffc050403f1c:	0007871b          	sext.w	a4,a5
ffffffc050403f20:	fd843783          	ld	a5,-40(s0)
ffffffc050403f24:	cff8                	sw	a4,92(a5)
ffffffc050403f26:	fe043423          	sd	zero,-24(s0)
ffffffc050403f2a:	fe843783          	ld	a5,-24(s0)
ffffffc050403f2e:	853e                	mv	a0,a5
ffffffc050403f30:	7462                	ld	s0,56(sp)
ffffffc050403f32:	6121                	addi	sp,sp,64
ffffffc050403f34:	8082                	ret

ffffffc050403f36 <XEmacPs_BdRingToHw>:
ffffffc050403f36:	715d                	addi	sp,sp,-80
ffffffc050403f38:	e4a2                	sd	s0,72(sp)
ffffffc050403f3a:	0880                	addi	s0,sp,80
ffffffc050403f3c:	fca43423          	sd	a0,-56(s0)
ffffffc050403f40:	87ae                	mv	a5,a1
ffffffc050403f42:	fac43c23          	sd	a2,-72(s0)
ffffffc050403f46:	fcf42223          	sw	a5,-60(s0)
ffffffc050403f4a:	fc442783          	lw	a5,-60(s0)
ffffffc050403f4e:	2781                	sext.w	a5,a5
ffffffc050403f50:	e781                	bnez	a5,ffffffc050403f58 <XEmacPs_BdRingToHw+0x22>
ffffffc050403f52:	fc043c23          	sd	zero,-40(s0)
ffffffc050403f56:	a20d                	j	ffffffc050404078 <XEmacPs_BdRingToHw+0x142>
ffffffc050403f58:	fc843783          	ld	a5,-56(s0)
ffffffc050403f5c:	4ff8                	lw	a4,92(a5)
ffffffc050403f5e:	fc442783          	lw	a5,-60(s0)
ffffffc050403f62:	2781                	sext.w	a5,a5
ffffffc050403f64:	00f76963          	bltu	a4,a5,ffffffc050403f76 <XEmacPs_BdRingToHw+0x40>
ffffffc050403f68:	fc843783          	ld	a5,-56(s0)
ffffffc050403f6c:	7b9c                	ld	a5,48(a5)
ffffffc050403f6e:	fb843703          	ld	a4,-72(s0)
ffffffc050403f72:	00f70763          	beq	a4,a5,ffffffc050403f80 <XEmacPs_BdRingToHw+0x4a>
ffffffc050403f76:	20e00793          	li	a5,526
ffffffc050403f7a:	fcf43c23          	sd	a5,-40(s0)
ffffffc050403f7e:	a8ed                	j	ffffffc050404078 <XEmacPs_BdRingToHw+0x142>
ffffffc050403f80:	fb843783          	ld	a5,-72(s0)
ffffffc050403f84:	fef43423          	sd	a5,-24(s0)
ffffffc050403f88:	fe042223          	sw	zero,-28(s0)
ffffffc050403f8c:	a825                	j	ffffffc050403fc4 <XEmacPs_BdRingToHw+0x8e>
ffffffc050403f8e:	fc843783          	ld	a5,-56(s0)
ffffffc050403f92:	6b98                	ld	a4,16(a5)
ffffffc050403f94:	fe843783          	ld	a5,-24(s0)
ffffffc050403f98:	00e7e663          	bltu	a5,a4,ffffffc050403fa4 <XEmacPs_BdRingToHw+0x6e>
ffffffc050403f9c:	fc843783          	ld	a5,-56(s0)
ffffffc050403fa0:	679c                	ld	a5,8(a5)
ffffffc050403fa2:	a811                	j	ffffffc050403fb6 <XEmacPs_BdRingToHw+0x80>
ffffffc050403fa4:	fc843783          	ld	a5,-56(s0)
ffffffc050403fa8:	539c                	lw	a5,32(a5)
ffffffc050403faa:	02079713          	slli	a4,a5,0x20
ffffffc050403fae:	9301                	srli	a4,a4,0x20
ffffffc050403fb0:	fe843783          	ld	a5,-24(s0)
ffffffc050403fb4:	97ba                	add	a5,a5,a4
ffffffc050403fb6:	fef43423          	sd	a5,-24(s0)
ffffffc050403fba:	fe442783          	lw	a5,-28(s0)
ffffffc050403fbe:	2785                	addiw	a5,a5,1
ffffffc050403fc0:	fef42223          	sw	a5,-28(s0)
ffffffc050403fc4:	fe442703          	lw	a4,-28(s0)
ffffffc050403fc8:	fc442783          	lw	a5,-60(s0)
ffffffc050403fcc:	2701                	sext.w	a4,a4
ffffffc050403fce:	2781                	sext.w	a5,a5
ffffffc050403fd0:	faf76fe3          	bltu	a4,a5,ffffffc050403f8e <XEmacPs_BdRingToHw+0x58>
ffffffc050403fd4:	fc843783          	ld	a5,-56(s0)
ffffffc050403fd8:	7b9c                	ld	a5,48(a5)
ffffffc050403fda:	fcf43823          	sd	a5,-48(s0)
ffffffc050403fde:	fc843783          	ld	a5,-56(s0)
ffffffc050403fe2:	539c                	lw	a5,32(a5)
ffffffc050403fe4:	fc442703          	lw	a4,-60(s0)
ffffffc050403fe8:	02f707bb          	mulw	a5,a4,a5
ffffffc050403fec:	2781                	sext.w	a5,a5
ffffffc050403fee:	1782                	slli	a5,a5,0x20
ffffffc050403ff0:	9381                	srli	a5,a5,0x20
ffffffc050403ff2:	fd043703          	ld	a4,-48(s0)
ffffffc050403ff6:	97ba                	add	a5,a5,a4
ffffffc050403ff8:	fcf43823          	sd	a5,-48(s0)
ffffffc050403ffc:	fc843783          	ld	a5,-56(s0)
ffffffc050404000:	6b9c                	ld	a5,16(a5)
ffffffc050404002:	fd043703          	ld	a4,-48(s0)
ffffffc050404006:	00e7ea63          	bltu	a5,a4,ffffffc05040401a <XEmacPs_BdRingToHw+0xe4>
ffffffc05040400a:	fc843783          	ld	a5,-56(s0)
ffffffc05040400e:	7b9c                	ld	a5,48(a5)
ffffffc050404010:	873e                	mv	a4,a5
ffffffc050404012:	fd043783          	ld	a5,-48(s0)
ffffffc050404016:	00e7fd63          	bgeu	a5,a4,ffffffc050404030 <XEmacPs_BdRingToHw+0xfa>
ffffffc05040401a:	fc843783          	ld	a5,-56(s0)
ffffffc05040401e:	4f9c                	lw	a5,24(a5)
ffffffc050404020:	1782                	slli	a5,a5,0x20
ffffffc050404022:	9381                	srli	a5,a5,0x20
ffffffc050404024:	fd043703          	ld	a4,-48(s0)
ffffffc050404028:	40f707b3          	sub	a5,a4,a5
ffffffc05040402c:	fcf43823          	sd	a5,-48(s0)
ffffffc050404030:	fd043703          	ld	a4,-48(s0)
ffffffc050404034:	fc843783          	ld	a5,-56(s0)
ffffffc050404038:	fb98                	sd	a4,48(a5)
ffffffc05040403a:	fc843783          	ld	a5,-56(s0)
ffffffc05040403e:	4ff8                	lw	a4,92(a5)
ffffffc050404040:	fc442783          	lw	a5,-60(s0)
ffffffc050404044:	40f707bb          	subw	a5,a4,a5
ffffffc050404048:	0007871b          	sext.w	a4,a5
ffffffc05040404c:	fc843783          	ld	a5,-56(s0)
ffffffc050404050:	cff8                	sw	a4,92(a5)
ffffffc050404052:	fc843783          	ld	a5,-56(s0)
ffffffc050404056:	fe843703          	ld	a4,-24(s0)
ffffffc05040405a:	e3b8                	sd	a4,64(a5)
ffffffc05040405c:	fc843783          	ld	a5,-56(s0)
ffffffc050404060:	4fbc                	lw	a5,88(a5)
ffffffc050404062:	2781                	sext.w	a5,a5
ffffffc050404064:	fc442703          	lw	a4,-60(s0)
ffffffc050404068:	9fb9                	addw	a5,a5,a4
ffffffc05040406a:	0007871b          	sext.w	a4,a5
ffffffc05040406e:	fc843783          	ld	a5,-56(s0)
ffffffc050404072:	cfb8                	sw	a4,88(a5)
ffffffc050404074:	fc043c23          	sd	zero,-40(s0)
ffffffc050404078:	fd843783          	ld	a5,-40(s0)
ffffffc05040407c:	853e                	mv	a0,a5
ffffffc05040407e:	6426                	ld	s0,72(sp)
ffffffc050404080:	6161                	addi	sp,sp,80
ffffffc050404082:	8082                	ret

ffffffc050404084 <XEmacPs_BdRingFromHwTx>:
ffffffc050404084:	711d                	addi	sp,sp,-96
ffffffc050404086:	eca2                	sd	s0,88(sp)
ffffffc050404088:	1080                	addi	s0,sp,96
ffffffc05040408a:	faa43c23          	sd	a0,-72(s0)
ffffffc05040408e:	87ae                	mv	a5,a1
ffffffc050404090:	fac43423          	sd	a2,-88(s0)
ffffffc050404094:	faf42a23          	sw	a5,-76(s0)
ffffffc050404098:	fe042223          	sw	zero,-28(s0)
ffffffc05040409c:	fc042c23          	sw	zero,-40(s0)
ffffffc0504040a0:	fb442783          	lw	a5,-76(s0)
ffffffc0504040a4:	fcf42823          	sw	a5,-48(s0)
ffffffc0504040a8:	fb843783          	ld	a5,-72(s0)
ffffffc0504040ac:	7f9c                	ld	a5,56(a5)
ffffffc0504040ae:	fef43423          	sd	a5,-24(s0)
ffffffc0504040b2:	fe042023          	sw	zero,-32(s0)
ffffffc0504040b6:	fc042e23          	sw	zero,-36(s0)
ffffffc0504040ba:	fb843783          	ld	a5,-72(s0)
ffffffc0504040be:	4fbc                	lw	a5,88(a5)
ffffffc0504040c0:	2781                	sext.w	a5,a5
ffffffc0504040c2:	eb81                	bnez	a5,ffffffc0504040d2 <XEmacPs_BdRingFromHwTx+0x4e>
ffffffc0504040c4:	fa843783          	ld	a5,-88(s0)
ffffffc0504040c8:	0007b023          	sd	zero,0(a5)
ffffffc0504040cc:	fc042a23          	sw	zero,-44(s0)
ffffffc0504040d0:	aa71                	j	ffffffc05040426c <XEmacPs_BdRingFromHwTx+0x1e8>
ffffffc0504040d2:	fb843783          	ld	a5,-72(s0)
ffffffc0504040d6:	4fbc                	lw	a5,88(a5)
ffffffc0504040d8:	0007871b          	sext.w	a4,a5
ffffffc0504040dc:	fd042783          	lw	a5,-48(s0)
ffffffc0504040e0:	2781                	sext.w	a5,a5
ffffffc0504040e2:	0af77463          	bgeu	a4,a5,ffffffc05040418a <XEmacPs_BdRingFromHwTx+0x106>
ffffffc0504040e6:	fb843783          	ld	a5,-72(s0)
ffffffc0504040ea:	4fbc                	lw	a5,88(a5)
ffffffc0504040ec:	fcf42823          	sw	a5,-48(s0)
ffffffc0504040f0:	a869                	j	ffffffc05040418a <XEmacPs_BdRingFromHwTx+0x106>
ffffffc0504040f2:	fe843783          	ld	a5,-24(s0)
ffffffc0504040f6:	c799                	beqz	a5,ffffffc050404104 <XEmacPs_BdRingFromHwTx+0x80>
ffffffc0504040f8:	fe843783          	ld	a5,-24(s0)
ffffffc0504040fc:	0791                	addi	a5,a5,4
ffffffc0504040fe:	439c                	lw	a5,0(a5)
ffffffc050404100:	fef42223          	sw	a5,-28(s0)
ffffffc050404104:	fd842783          	lw	a5,-40(s0)
ffffffc050404108:	2781                	sext.w	a5,a5
ffffffc05040410a:	eb81                	bnez	a5,ffffffc05040411a <XEmacPs_BdRingFromHwTx+0x96>
ffffffc05040410c:	fe442783          	lw	a5,-28(s0)
ffffffc050404110:	0007d563          	bgez	a5,ffffffc05040411a <XEmacPs_BdRingFromHwTx+0x96>
ffffffc050404114:	4785                	li	a5,1
ffffffc050404116:	fcf42c23          	sw	a5,-40(s0)
ffffffc05040411a:	fd842783          	lw	a5,-40(s0)
ffffffc05040411e:	0007871b          	sext.w	a4,a5
ffffffc050404122:	4785                	li	a5,1
ffffffc050404124:	00f71c63          	bne	a4,a5,ffffffc05040413c <XEmacPs_BdRingFromHwTx+0xb8>
ffffffc050404128:	fe042783          	lw	a5,-32(s0)
ffffffc05040412c:	2785                	addiw	a5,a5,1
ffffffc05040412e:	fef42023          	sw	a5,-32(s0)
ffffffc050404132:	fdc42783          	lw	a5,-36(s0)
ffffffc050404136:	2785                	addiw	a5,a5,1
ffffffc050404138:	fcf42e23          	sw	a5,-36(s0)
ffffffc05040413c:	fd842783          	lw	a5,-40(s0)
ffffffc050404140:	0007871b          	sext.w	a4,a5
ffffffc050404144:	4785                	li	a5,1
ffffffc050404146:	00f71c63          	bne	a4,a5,ffffffc05040415e <XEmacPs_BdRingFromHwTx+0xda>
ffffffc05040414a:	fe442703          	lw	a4,-28(s0)
ffffffc05040414e:	67a1                	lui	a5,0x8
ffffffc050404150:	8ff9                	and	a5,a5,a4
ffffffc050404152:	2781                	sext.w	a5,a5
ffffffc050404154:	c789                	beqz	a5,ffffffc05040415e <XEmacPs_BdRingFromHwTx+0xda>
ffffffc050404156:	fc042c23          	sw	zero,-40(s0)
ffffffc05040415a:	fc042e23          	sw	zero,-36(s0)
ffffffc05040415e:	fb843783          	ld	a5,-72(s0)
ffffffc050404162:	6b98                	ld	a4,16(a5)
ffffffc050404164:	fe843783          	ld	a5,-24(s0)
ffffffc050404168:	00e7e663          	bltu	a5,a4,ffffffc050404174 <XEmacPs_BdRingFromHwTx+0xf0>
ffffffc05040416c:	fb843783          	ld	a5,-72(s0)
ffffffc050404170:	679c                	ld	a5,8(a5)
ffffffc050404172:	a811                	j	ffffffc050404186 <XEmacPs_BdRingFromHwTx+0x102>
ffffffc050404174:	fb843783          	ld	a5,-72(s0)
ffffffc050404178:	539c                	lw	a5,32(a5)
ffffffc05040417a:	02079713          	slli	a4,a5,0x20
ffffffc05040417e:	9301                	srli	a4,a4,0x20
ffffffc050404180:	fe843783          	ld	a5,-24(s0)
ffffffc050404184:	97ba                	add	a5,a5,a4
ffffffc050404186:	fef43423          	sd	a5,-24(s0)
ffffffc05040418a:	fe042703          	lw	a4,-32(s0)
ffffffc05040418e:	fd042783          	lw	a5,-48(s0)
ffffffc050404192:	2701                	sext.w	a4,a4
ffffffc050404194:	2781                	sext.w	a5,a5
ffffffc050404196:	f4f76ee3          	bltu	a4,a5,ffffffc0504040f2 <XEmacPs_BdRingFromHwTx+0x6e>
ffffffc05040419a:	fe042703          	lw	a4,-32(s0)
ffffffc05040419e:	fdc42783          	lw	a5,-36(s0)
ffffffc0504041a2:	40f707bb          	subw	a5,a4,a5
ffffffc0504041a6:	fef42023          	sw	a5,-32(s0)
ffffffc0504041aa:	fe042783          	lw	a5,-32(s0)
ffffffc0504041ae:	2781                	sext.w	a5,a5
ffffffc0504041b0:	cbc5                	beqz	a5,ffffffc050404260 <XEmacPs_BdRingFromHwTx+0x1dc>
ffffffc0504041b2:	fb843783          	ld	a5,-72(s0)
ffffffc0504041b6:	7f98                	ld	a4,56(a5)
ffffffc0504041b8:	fa843783          	ld	a5,-88(s0)
ffffffc0504041bc:	e398                	sd	a4,0(a5)
ffffffc0504041be:	fb843783          	ld	a5,-72(s0)
ffffffc0504041c2:	4fbc                	lw	a5,88(a5)
ffffffc0504041c4:	0007871b          	sext.w	a4,a5
ffffffc0504041c8:	fe042783          	lw	a5,-32(s0)
ffffffc0504041cc:	40f707bb          	subw	a5,a4,a5
ffffffc0504041d0:	0007871b          	sext.w	a4,a5
ffffffc0504041d4:	fb843783          	ld	a5,-72(s0)
ffffffc0504041d8:	cfb8                	sw	a4,88(a5)
ffffffc0504041da:	fb843783          	ld	a5,-72(s0)
ffffffc0504041de:	53fc                	lw	a5,100(a5)
ffffffc0504041e0:	fe042703          	lw	a4,-32(s0)
ffffffc0504041e4:	9fb9                	addw	a5,a5,a4
ffffffc0504041e6:	0007871b          	sext.w	a4,a5
ffffffc0504041ea:	fb843783          	ld	a5,-72(s0)
ffffffc0504041ee:	d3f8                	sw	a4,100(a5)
ffffffc0504041f0:	fb843783          	ld	a5,-72(s0)
ffffffc0504041f4:	7f9c                	ld	a5,56(a5)
ffffffc0504041f6:	fcf43423          	sd	a5,-56(s0)
ffffffc0504041fa:	fb843783          	ld	a5,-72(s0)
ffffffc0504041fe:	539c                	lw	a5,32(a5)
ffffffc050404200:	fe042703          	lw	a4,-32(s0)
ffffffc050404204:	02f707bb          	mulw	a5,a4,a5
ffffffc050404208:	2781                	sext.w	a5,a5
ffffffc05040420a:	1782                	slli	a5,a5,0x20
ffffffc05040420c:	9381                	srli	a5,a5,0x20
ffffffc05040420e:	fc843703          	ld	a4,-56(s0)
ffffffc050404212:	97ba                	add	a5,a5,a4
ffffffc050404214:	fcf43423          	sd	a5,-56(s0)
ffffffc050404218:	fb843783          	ld	a5,-72(s0)
ffffffc05040421c:	6b9c                	ld	a5,16(a5)
ffffffc05040421e:	fc843703          	ld	a4,-56(s0)
ffffffc050404222:	00e7ea63          	bltu	a5,a4,ffffffc050404236 <XEmacPs_BdRingFromHwTx+0x1b2>
ffffffc050404226:	fb843783          	ld	a5,-72(s0)
ffffffc05040422a:	7f9c                	ld	a5,56(a5)
ffffffc05040422c:	873e                	mv	a4,a5
ffffffc05040422e:	fc843783          	ld	a5,-56(s0)
ffffffc050404232:	00e7fd63          	bgeu	a5,a4,ffffffc05040424c <XEmacPs_BdRingFromHwTx+0x1c8>
ffffffc050404236:	fb843783          	ld	a5,-72(s0)
ffffffc05040423a:	4f9c                	lw	a5,24(a5)
ffffffc05040423c:	1782                	slli	a5,a5,0x20
ffffffc05040423e:	9381                	srli	a5,a5,0x20
ffffffc050404240:	fc843703          	ld	a4,-56(s0)
ffffffc050404244:	40f707b3          	sub	a5,a4,a5
ffffffc050404248:	fcf43423          	sd	a5,-56(s0)
ffffffc05040424c:	fc843703          	ld	a4,-56(s0)
ffffffc050404250:	fb843783          	ld	a5,-72(s0)
ffffffc050404254:	ff98                	sd	a4,56(a5)
ffffffc050404256:	fe042783          	lw	a5,-32(s0)
ffffffc05040425a:	fcf42a23          	sw	a5,-44(s0)
ffffffc05040425e:	a039                	j	ffffffc05040426c <XEmacPs_BdRingFromHwTx+0x1e8>
ffffffc050404260:	fa843783          	ld	a5,-88(s0)
ffffffc050404264:	0007b023          	sd	zero,0(a5) # 8000 <_start-0xffffffc0503f8000>
ffffffc050404268:	fc042a23          	sw	zero,-44(s0)
ffffffc05040426c:	fd442783          	lw	a5,-44(s0)
ffffffc050404270:	853e                	mv	a0,a5
ffffffc050404272:	6466                	ld	s0,88(sp)
ffffffc050404274:	6125                	addi	sp,sp,96
ffffffc050404276:	8082                	ret

ffffffc050404278 <XEmacPs_BdRingFromHwRx>:
ffffffc050404278:	715d                	addi	sp,sp,-80
ffffffc05040427a:	e4a2                	sd	s0,72(sp)
ffffffc05040427c:	0880                	addi	s0,sp,80
ffffffc05040427e:	fca43423          	sd	a0,-56(s0)
ffffffc050404282:	87ae                	mv	a5,a1
ffffffc050404284:	fac43c23          	sd	a2,-72(s0)
ffffffc050404288:	fcf42223          	sw	a5,-60(s0)
ffffffc05040428c:	fe042223          	sw	zero,-28(s0)
ffffffc050404290:	fc843783          	ld	a5,-56(s0)
ffffffc050404294:	7f9c                	ld	a5,56(a5)
ffffffc050404296:	fef43423          	sd	a5,-24(s0)
ffffffc05040429a:	fe042023          	sw	zero,-32(s0)
ffffffc05040429e:	fc042e23          	sw	zero,-36(s0)
ffffffc0504042a2:	fc843783          	ld	a5,-56(s0)
ffffffc0504042a6:	4fbc                	lw	a5,88(a5)
ffffffc0504042a8:	2781                	sext.w	a5,a5
ffffffc0504042aa:	e3c1                	bnez	a5,ffffffc05040432a <XEmacPs_BdRingFromHwRx+0xb2>
ffffffc0504042ac:	fb843783          	ld	a5,-72(s0)
ffffffc0504042b0:	0007b023          	sd	zero,0(a5)
ffffffc0504042b4:	fc042c23          	sw	zero,-40(s0)
ffffffc0504042b8:	aaa1                	j	ffffffc050404410 <XEmacPs_BdRingFromHwRx+0x198>
ffffffc0504042ba:	fe843783          	ld	a5,-24(s0)
ffffffc0504042be:	c799                	beqz	a5,ffffffc0504042cc <XEmacPs_BdRingFromHwRx+0x54>
ffffffc0504042c0:	fe843783          	ld	a5,-24(s0)
ffffffc0504042c4:	0791                	addi	a5,a5,4
ffffffc0504042c6:	439c                	lw	a5,0(a5)
ffffffc0504042c8:	fef42223          	sw	a5,-28(s0)
ffffffc0504042cc:	fe843783          	ld	a5,-24(s0)
ffffffc0504042d0:	439c                	lw	a5,0(a5)
ffffffc0504042d2:	8b85                	andi	a5,a5,1
ffffffc0504042d4:	2781                	sext.w	a5,a5
ffffffc0504042d6:	c3bd                	beqz	a5,ffffffc05040433c <XEmacPs_BdRingFromHwRx+0xc4>
ffffffc0504042d8:	fe042783          	lw	a5,-32(s0)
ffffffc0504042dc:	2785                	addiw	a5,a5,1
ffffffc0504042de:	fef42023          	sw	a5,-32(s0)
ffffffc0504042e2:	fe442703          	lw	a4,-28(s0)
ffffffc0504042e6:	67a1                	lui	a5,0x8
ffffffc0504042e8:	8ff9                	and	a5,a5,a4
ffffffc0504042ea:	2781                	sext.w	a5,a5
ffffffc0504042ec:	c781                	beqz	a5,ffffffc0504042f4 <XEmacPs_BdRingFromHwRx+0x7c>
ffffffc0504042ee:	fc042e23          	sw	zero,-36(s0)
ffffffc0504042f2:	a031                	j	ffffffc0504042fe <XEmacPs_BdRingFromHwRx+0x86>
ffffffc0504042f4:	fdc42783          	lw	a5,-36(s0)
ffffffc0504042f8:	2785                	addiw	a5,a5,1
ffffffc0504042fa:	fcf42e23          	sw	a5,-36(s0)
ffffffc0504042fe:	fc843783          	ld	a5,-56(s0)
ffffffc050404302:	6b98                	ld	a4,16(a5)
ffffffc050404304:	fe843783          	ld	a5,-24(s0)
ffffffc050404308:	00e7e663          	bltu	a5,a4,ffffffc050404314 <XEmacPs_BdRingFromHwRx+0x9c>
ffffffc05040430c:	fc843783          	ld	a5,-56(s0)
ffffffc050404310:	679c                	ld	a5,8(a5)
ffffffc050404312:	a811                	j	ffffffc050404326 <XEmacPs_BdRingFromHwRx+0xae>
ffffffc050404314:	fc843783          	ld	a5,-56(s0)
ffffffc050404318:	539c                	lw	a5,32(a5)
ffffffc05040431a:	02079713          	slli	a4,a5,0x20
ffffffc05040431e:	9301                	srli	a4,a4,0x20
ffffffc050404320:	fe843783          	ld	a5,-24(s0)
ffffffc050404324:	97ba                	add	a5,a5,a4
ffffffc050404326:	fef43423          	sd	a5,-24(s0)
ffffffc05040432a:	fe042703          	lw	a4,-32(s0)
ffffffc05040432e:	fc442783          	lw	a5,-60(s0)
ffffffc050404332:	2701                	sext.w	a4,a4
ffffffc050404334:	2781                	sext.w	a5,a5
ffffffc050404336:	f8f762e3          	bltu	a4,a5,ffffffc0504042ba <XEmacPs_BdRingFromHwRx+0x42>
ffffffc05040433a:	a011                	j	ffffffc05040433e <XEmacPs_BdRingFromHwRx+0xc6>
ffffffc05040433c:	0001                	nop
ffffffc05040433e:	fe042703          	lw	a4,-32(s0)
ffffffc050404342:	fdc42783          	lw	a5,-36(s0)
ffffffc050404346:	40f707bb          	subw	a5,a4,a5
ffffffc05040434a:	fef42023          	sw	a5,-32(s0)
ffffffc05040434e:	fe042783          	lw	a5,-32(s0)
ffffffc050404352:	2781                	sext.w	a5,a5
ffffffc050404354:	cbc5                	beqz	a5,ffffffc050404404 <XEmacPs_BdRingFromHwRx+0x18c>
ffffffc050404356:	fc843783          	ld	a5,-56(s0)
ffffffc05040435a:	7f98                	ld	a4,56(a5)
ffffffc05040435c:	fb843783          	ld	a5,-72(s0)
ffffffc050404360:	e398                	sd	a4,0(a5)
ffffffc050404362:	fc843783          	ld	a5,-56(s0)
ffffffc050404366:	4fbc                	lw	a5,88(a5)
ffffffc050404368:	0007871b          	sext.w	a4,a5
ffffffc05040436c:	fe042783          	lw	a5,-32(s0)
ffffffc050404370:	40f707bb          	subw	a5,a4,a5
ffffffc050404374:	0007871b          	sext.w	a4,a5
ffffffc050404378:	fc843783          	ld	a5,-56(s0)
ffffffc05040437c:	cfb8                	sw	a4,88(a5)
ffffffc05040437e:	fc843783          	ld	a5,-56(s0)
ffffffc050404382:	53fc                	lw	a5,100(a5)
ffffffc050404384:	fe042703          	lw	a4,-32(s0)
ffffffc050404388:	9fb9                	addw	a5,a5,a4
ffffffc05040438a:	0007871b          	sext.w	a4,a5
ffffffc05040438e:	fc843783          	ld	a5,-56(s0)
ffffffc050404392:	d3f8                	sw	a4,100(a5)
ffffffc050404394:	fc843783          	ld	a5,-56(s0)
ffffffc050404398:	7f9c                	ld	a5,56(a5)
ffffffc05040439a:	fcf43823          	sd	a5,-48(s0)
ffffffc05040439e:	fc843783          	ld	a5,-56(s0)
ffffffc0504043a2:	539c                	lw	a5,32(a5)
ffffffc0504043a4:	fe042703          	lw	a4,-32(s0)
ffffffc0504043a8:	02f707bb          	mulw	a5,a4,a5
ffffffc0504043ac:	2781                	sext.w	a5,a5
ffffffc0504043ae:	1782                	slli	a5,a5,0x20
ffffffc0504043b0:	9381                	srli	a5,a5,0x20
ffffffc0504043b2:	fd043703          	ld	a4,-48(s0)
ffffffc0504043b6:	97ba                	add	a5,a5,a4
ffffffc0504043b8:	fcf43823          	sd	a5,-48(s0)
ffffffc0504043bc:	fc843783          	ld	a5,-56(s0)
ffffffc0504043c0:	6b9c                	ld	a5,16(a5)
ffffffc0504043c2:	fd043703          	ld	a4,-48(s0)
ffffffc0504043c6:	00e7ea63          	bltu	a5,a4,ffffffc0504043da <XEmacPs_BdRingFromHwRx+0x162>
ffffffc0504043ca:	fc843783          	ld	a5,-56(s0)
ffffffc0504043ce:	7f9c                	ld	a5,56(a5)
ffffffc0504043d0:	873e                	mv	a4,a5
ffffffc0504043d2:	fd043783          	ld	a5,-48(s0)
ffffffc0504043d6:	00e7fd63          	bgeu	a5,a4,ffffffc0504043f0 <XEmacPs_BdRingFromHwRx+0x178>
ffffffc0504043da:	fc843783          	ld	a5,-56(s0)
ffffffc0504043de:	4f9c                	lw	a5,24(a5)
ffffffc0504043e0:	1782                	slli	a5,a5,0x20
ffffffc0504043e2:	9381                	srli	a5,a5,0x20
ffffffc0504043e4:	fd043703          	ld	a4,-48(s0)
ffffffc0504043e8:	40f707b3          	sub	a5,a4,a5
ffffffc0504043ec:	fcf43823          	sd	a5,-48(s0)
ffffffc0504043f0:	fd043703          	ld	a4,-48(s0)
ffffffc0504043f4:	fc843783          	ld	a5,-56(s0)
ffffffc0504043f8:	ff98                	sd	a4,56(a5)
ffffffc0504043fa:	fe042783          	lw	a5,-32(s0)
ffffffc0504043fe:	fcf42c23          	sw	a5,-40(s0)
ffffffc050404402:	a039                	j	ffffffc050404410 <XEmacPs_BdRingFromHwRx+0x198>
ffffffc050404404:	fb843783          	ld	a5,-72(s0)
ffffffc050404408:	0007b023          	sd	zero,0(a5) # 8000 <_start-0xffffffc0503f8000>
ffffffc05040440c:	fc042c23          	sw	zero,-40(s0)
ffffffc050404410:	fd842783          	lw	a5,-40(s0)
ffffffc050404414:	853e                	mv	a0,a5
ffffffc050404416:	6426                	ld	s0,72(sp)
ffffffc050404418:	6161                	addi	sp,sp,80
ffffffc05040441a:	8082                	ret

ffffffc05040441c <XEmacPs_BdRingFree>:
ffffffc05040441c:	7139                	addi	sp,sp,-64
ffffffc05040441e:	fc22                	sd	s0,56(sp)
ffffffc050404420:	0080                	addi	s0,sp,64
ffffffc050404422:	fca43c23          	sd	a0,-40(s0)
ffffffc050404426:	87ae                	mv	a5,a1
ffffffc050404428:	fcc43423          	sd	a2,-56(s0)
ffffffc05040442c:	fcf42a23          	sw	a5,-44(s0)
ffffffc050404430:	fd442783          	lw	a5,-44(s0)
ffffffc050404434:	2781                	sext.w	a5,a5
ffffffc050404436:	e781                	bnez	a5,ffffffc05040443e <XEmacPs_BdRingFree+0x22>
ffffffc050404438:	fe043423          	sd	zero,-24(s0)
ffffffc05040443c:	a0c9                	j	ffffffc0504044fe <XEmacPs_BdRingFree+0xe2>
ffffffc05040443e:	fd843783          	ld	a5,-40(s0)
ffffffc050404442:	53f8                	lw	a4,100(a5)
ffffffc050404444:	fd442783          	lw	a5,-44(s0)
ffffffc050404448:	2781                	sext.w	a5,a5
ffffffc05040444a:	00f76963          	bltu	a4,a5,ffffffc05040445c <XEmacPs_BdRingFree+0x40>
ffffffc05040444e:	fd843783          	ld	a5,-40(s0)
ffffffc050404452:	67bc                	ld	a5,72(a5)
ffffffc050404454:	fc843703          	ld	a4,-56(s0)
ffffffc050404458:	00f70763          	beq	a4,a5,ffffffc050404466 <XEmacPs_BdRingFree+0x4a>
ffffffc05040445c:	20e00793          	li	a5,526
ffffffc050404460:	fef43423          	sd	a5,-24(s0)
ffffffc050404464:	a869                	j	ffffffc0504044fe <XEmacPs_BdRingFree+0xe2>
ffffffc050404466:	fd843783          	ld	a5,-40(s0)
ffffffc05040446a:	53bc                	lw	a5,96(a5)
ffffffc05040446c:	fd442703          	lw	a4,-44(s0)
ffffffc050404470:	9fb9                	addw	a5,a5,a4
ffffffc050404472:	0007871b          	sext.w	a4,a5
ffffffc050404476:	fd843783          	ld	a5,-40(s0)
ffffffc05040447a:	d3b8                	sw	a4,96(a5)
ffffffc05040447c:	fd843783          	ld	a5,-40(s0)
ffffffc050404480:	53f8                	lw	a4,100(a5)
ffffffc050404482:	fd442783          	lw	a5,-44(s0)
ffffffc050404486:	40f707bb          	subw	a5,a4,a5
ffffffc05040448a:	0007871b          	sext.w	a4,a5
ffffffc05040448e:	fd843783          	ld	a5,-40(s0)
ffffffc050404492:	d3f8                	sw	a4,100(a5)
ffffffc050404494:	fd843783          	ld	a5,-40(s0)
ffffffc050404498:	67bc                	ld	a5,72(a5)
ffffffc05040449a:	fef43023          	sd	a5,-32(s0)
ffffffc05040449e:	fd843783          	ld	a5,-40(s0)
ffffffc0504044a2:	539c                	lw	a5,32(a5)
ffffffc0504044a4:	fd442703          	lw	a4,-44(s0)
ffffffc0504044a8:	02f707bb          	mulw	a5,a4,a5
ffffffc0504044ac:	2781                	sext.w	a5,a5
ffffffc0504044ae:	1782                	slli	a5,a5,0x20
ffffffc0504044b0:	9381                	srli	a5,a5,0x20
ffffffc0504044b2:	fe043703          	ld	a4,-32(s0)
ffffffc0504044b6:	97ba                	add	a5,a5,a4
ffffffc0504044b8:	fef43023          	sd	a5,-32(s0)
ffffffc0504044bc:	fd843783          	ld	a5,-40(s0)
ffffffc0504044c0:	6b9c                	ld	a5,16(a5)
ffffffc0504044c2:	fe043703          	ld	a4,-32(s0)
ffffffc0504044c6:	00e7ea63          	bltu	a5,a4,ffffffc0504044da <XEmacPs_BdRingFree+0xbe>
ffffffc0504044ca:	fd843783          	ld	a5,-40(s0)
ffffffc0504044ce:	67bc                	ld	a5,72(a5)
ffffffc0504044d0:	873e                	mv	a4,a5
ffffffc0504044d2:	fe043783          	ld	a5,-32(s0)
ffffffc0504044d6:	00e7fd63          	bgeu	a5,a4,ffffffc0504044f0 <XEmacPs_BdRingFree+0xd4>
ffffffc0504044da:	fd843783          	ld	a5,-40(s0)
ffffffc0504044de:	4f9c                	lw	a5,24(a5)
ffffffc0504044e0:	1782                	slli	a5,a5,0x20
ffffffc0504044e2:	9381                	srli	a5,a5,0x20
ffffffc0504044e4:	fe043703          	ld	a4,-32(s0)
ffffffc0504044e8:	40f707b3          	sub	a5,a4,a5
ffffffc0504044ec:	fef43023          	sd	a5,-32(s0)
ffffffc0504044f0:	fe043703          	ld	a4,-32(s0)
ffffffc0504044f4:	fd843783          	ld	a5,-40(s0)
ffffffc0504044f8:	e7b8                	sd	a4,72(a5)
ffffffc0504044fa:	fe043423          	sd	zero,-24(s0)
ffffffc0504044fe:	fe843783          	ld	a5,-24(s0)
ffffffc050404502:	853e                	mv	a0,a5
ffffffc050404504:	7462                	ld	s0,56(sp)
ffffffc050404506:	6121                	addi	sp,sp,64
ffffffc050404508:	8082                	ret

ffffffc05040450a <XEmacPs_BdRingCheck>:
ffffffc05040450a:	7139                	addi	sp,sp,-64
ffffffc05040450c:	fc22                	sd	s0,56(sp)
ffffffc05040450e:	0080                	addi	s0,sp,64
ffffffc050404510:	fca43423          	sd	a0,-56(s0)
ffffffc050404514:	87ae                	mv	a5,a1
ffffffc050404516:	fcf403a3          	sb	a5,-57(s0)
ffffffc05040451a:	fc744783          	lbu	a5,-57(s0)
ffffffc05040451e:	0ff7f713          	andi	a4,a5,255
ffffffc050404522:	4785                	li	a5,1
ffffffc050404524:	00f70b63          	beq	a4,a5,ffffffc05040453a <XEmacPs_BdRingCheck+0x30>
ffffffc050404528:	fc744783          	lbu	a5,-57(s0)
ffffffc05040452c:	0ff7f713          	andi	a4,a5,255
ffffffc050404530:	4789                	li	a5,2
ffffffc050404532:	00f70463          	beq	a4,a5,ffffffc05040453a <XEmacPs_BdRingCheck+0x30>
ffffffc050404536:	47bd                	li	a5,15
ffffffc050404538:	ac09                	j	ffffffc05040474a <XEmacPs_BdRingCheck+0x240>
ffffffc05040453a:	fc843783          	ld	a5,-56(s0)
ffffffc05040453e:	57bc                	lw	a5,104(a5)
ffffffc050404540:	e781                	bnez	a5,ffffffc050404548 <XEmacPs_BdRingCheck+0x3e>
ffffffc050404542:	20b00793          	li	a5,523
ffffffc050404546:	a411                	j	ffffffc05040474a <XEmacPs_BdRingCheck+0x240>
ffffffc050404548:	fc843783          	ld	a5,-56(s0)
ffffffc05040454c:	4fdc                	lw	a5,28(a5)
ffffffc05040454e:	873e                	mv	a4,a5
ffffffc050404550:	20200793          	li	a5,514
ffffffc050404554:	00f71463          	bne	a4,a5,ffffffc05040455c <XEmacPs_BdRingCheck+0x52>
ffffffc050404558:	47dd                	li	a5,23
ffffffc05040455a:	aac5                	j	ffffffc05040474a <XEmacPs_BdRingCheck+0x240>
ffffffc05040455c:	fc843783          	ld	a5,-56(s0)
ffffffc050404560:	4fdc                	lw	a5,28(a5)
ffffffc050404562:	873e                	mv	a4,a5
ffffffc050404564:	20300793          	li	a5,515
ffffffc050404568:	00f70563          	beq	a4,a5,ffffffc050404572 <XEmacPs_BdRingCheck+0x68>
ffffffc05040456c:	20e00793          	li	a5,526
ffffffc050404570:	aae9                	j	ffffffc05040474a <XEmacPs_BdRingCheck+0x240>
ffffffc050404572:	fc843783          	ld	a5,-56(s0)
ffffffc050404576:	779c                	ld	a5,40(a5)
ffffffc050404578:	fef43423          	sd	a5,-24(s0)
ffffffc05040457c:	fc843783          	ld	a5,-56(s0)
ffffffc050404580:	679c                	ld	a5,8(a5)
ffffffc050404582:	fe843703          	ld	a4,-24(s0)
ffffffc050404586:	00f76963          	bltu	a4,a5,ffffffc050404598 <XEmacPs_BdRingCheck+0x8e>
ffffffc05040458a:	fc843783          	ld	a5,-56(s0)
ffffffc05040458e:	6b9c                	ld	a5,16(a5)
ffffffc050404590:	fe843703          	ld	a4,-24(s0)
ffffffc050404594:	00e7f563          	bgeu	a5,a4,ffffffc05040459e <XEmacPs_BdRingCheck+0x94>
ffffffc050404598:	20e00793          	li	a5,526
ffffffc05040459c:	a27d                	j	ffffffc05040474a <XEmacPs_BdRingCheck+0x240>
ffffffc05040459e:	fc843783          	ld	a5,-56(s0)
ffffffc0504045a2:	7b9c                	ld	a5,48(a5)
ffffffc0504045a4:	fef43423          	sd	a5,-24(s0)
ffffffc0504045a8:	fc843783          	ld	a5,-56(s0)
ffffffc0504045ac:	679c                	ld	a5,8(a5)
ffffffc0504045ae:	fe843703          	ld	a4,-24(s0)
ffffffc0504045b2:	00f76963          	bltu	a4,a5,ffffffc0504045c4 <XEmacPs_BdRingCheck+0xba>
ffffffc0504045b6:	fc843783          	ld	a5,-56(s0)
ffffffc0504045ba:	6b9c                	ld	a5,16(a5)
ffffffc0504045bc:	fe843703          	ld	a4,-24(s0)
ffffffc0504045c0:	00e7f563          	bgeu	a5,a4,ffffffc0504045ca <XEmacPs_BdRingCheck+0xc0>
ffffffc0504045c4:	20e00793          	li	a5,526
ffffffc0504045c8:	a249                	j	ffffffc05040474a <XEmacPs_BdRingCheck+0x240>
ffffffc0504045ca:	fc843783          	ld	a5,-56(s0)
ffffffc0504045ce:	7f9c                	ld	a5,56(a5)
ffffffc0504045d0:	fef43423          	sd	a5,-24(s0)
ffffffc0504045d4:	fc843783          	ld	a5,-56(s0)
ffffffc0504045d8:	679c                	ld	a5,8(a5)
ffffffc0504045da:	fe843703          	ld	a4,-24(s0)
ffffffc0504045de:	00f76963          	bltu	a4,a5,ffffffc0504045f0 <XEmacPs_BdRingCheck+0xe6>
ffffffc0504045e2:	fc843783          	ld	a5,-56(s0)
ffffffc0504045e6:	6b9c                	ld	a5,16(a5)
ffffffc0504045e8:	fe843703          	ld	a4,-24(s0)
ffffffc0504045ec:	00e7f563          	bgeu	a5,a4,ffffffc0504045f6 <XEmacPs_BdRingCheck+0xec>
ffffffc0504045f0:	20e00793          	li	a5,526
ffffffc0504045f4:	aa99                	j	ffffffc05040474a <XEmacPs_BdRingCheck+0x240>
ffffffc0504045f6:	fc843783          	ld	a5,-56(s0)
ffffffc0504045fa:	63bc                	ld	a5,64(a5)
ffffffc0504045fc:	fef43423          	sd	a5,-24(s0)
ffffffc050404600:	fc843783          	ld	a5,-56(s0)
ffffffc050404604:	679c                	ld	a5,8(a5)
ffffffc050404606:	fe843703          	ld	a4,-24(s0)
ffffffc05040460a:	00f76963          	bltu	a4,a5,ffffffc05040461c <XEmacPs_BdRingCheck+0x112>
ffffffc05040460e:	fc843783          	ld	a5,-56(s0)
ffffffc050404612:	6b9c                	ld	a5,16(a5)
ffffffc050404614:	fe843703          	ld	a4,-24(s0)
ffffffc050404618:	00e7f563          	bgeu	a5,a4,ffffffc050404622 <XEmacPs_BdRingCheck+0x118>
ffffffc05040461c:	20e00793          	li	a5,526
ffffffc050404620:	a22d                	j	ffffffc05040474a <XEmacPs_BdRingCheck+0x240>
ffffffc050404622:	fc843783          	ld	a5,-56(s0)
ffffffc050404626:	67bc                	ld	a5,72(a5)
ffffffc050404628:	fef43423          	sd	a5,-24(s0)
ffffffc05040462c:	fc843783          	ld	a5,-56(s0)
ffffffc050404630:	679c                	ld	a5,8(a5)
ffffffc050404632:	fe843703          	ld	a4,-24(s0)
ffffffc050404636:	00f76963          	bltu	a4,a5,ffffffc050404648 <XEmacPs_BdRingCheck+0x13e>
ffffffc05040463a:	fc843783          	ld	a5,-56(s0)
ffffffc05040463e:	6b9c                	ld	a5,16(a5)
ffffffc050404640:	fe843703          	ld	a4,-24(s0)
ffffffc050404644:	00e7f563          	bgeu	a5,a4,ffffffc05040464e <XEmacPs_BdRingCheck+0x144>
ffffffc050404648:	20e00793          	li	a5,526
ffffffc05040464c:	a8fd                	j	ffffffc05040474a <XEmacPs_BdRingCheck+0x240>
ffffffc05040464e:	fc843783          	ld	a5,-56(s0)
ffffffc050404652:	4fbc                	lw	a5,88(a5)
ffffffc050404654:	0007871b          	sext.w	a4,a5
ffffffc050404658:	fc843783          	ld	a5,-56(s0)
ffffffc05040465c:	4ffc                	lw	a5,92(a5)
ffffffc05040465e:	9fb9                	addw	a5,a5,a4
ffffffc050404660:	0007871b          	sext.w	a4,a5
ffffffc050404664:	fc843783          	ld	a5,-56(s0)
ffffffc050404668:	53bc                	lw	a5,96(a5)
ffffffc05040466a:	9fb9                	addw	a5,a5,a4
ffffffc05040466c:	0007871b          	sext.w	a4,a5
ffffffc050404670:	fc843783          	ld	a5,-56(s0)
ffffffc050404674:	53fc                	lw	a5,100(a5)
ffffffc050404676:	9fb9                	addw	a5,a5,a4
ffffffc050404678:	0007871b          	sext.w	a4,a5
ffffffc05040467c:	fc843783          	ld	a5,-56(s0)
ffffffc050404680:	57bc                	lw	a5,104(a5)
ffffffc050404682:	00f70563          	beq	a4,a5,ffffffc05040468c <XEmacPs_BdRingCheck+0x182>
ffffffc050404686:	20e00793          	li	a5,526
ffffffc05040468a:	a0c1                	j	ffffffc05040474a <XEmacPs_BdRingCheck+0x240>
ffffffc05040468c:	fc843783          	ld	a5,-56(s0)
ffffffc050404690:	679c                	ld	a5,8(a5)
ffffffc050404692:	fef43423          	sd	a5,-24(s0)
ffffffc050404696:	fc843783          	ld	a5,-56(s0)
ffffffc05040469a:	6398                	ld	a4,0(a5)
ffffffc05040469c:	fc843783          	ld	a5,-56(s0)
ffffffc0504046a0:	539c                	lw	a5,32(a5)
ffffffc0504046a2:	1782                	slli	a5,a5,0x20
ffffffc0504046a4:	9381                	srli	a5,a5,0x20
ffffffc0504046a6:	97ba                	add	a5,a5,a4
ffffffc0504046a8:	fef43023          	sd	a5,-32(s0)
ffffffc0504046ac:	4785                	li	a5,1
ffffffc0504046ae:	fcf42e23          	sw	a5,-36(s0)
ffffffc0504046b2:	a0b1                	j	ffffffc0504046fe <XEmacPs_BdRingCheck+0x1f4>
ffffffc0504046b4:	fe843783          	ld	a5,-24(s0)
ffffffc0504046b8:	439c                	lw	a5,0(a5)
ffffffc0504046ba:	1782                	slli	a5,a5,0x20
ffffffc0504046bc:	9381                	srli	a5,a5,0x20
ffffffc0504046be:	fe043703          	ld	a4,-32(s0)
ffffffc0504046c2:	00f70563          	beq	a4,a5,ffffffc0504046cc <XEmacPs_BdRingCheck+0x1c2>
ffffffc0504046c6:	20e00793          	li	a5,526
ffffffc0504046ca:	a041                	j	ffffffc05040474a <XEmacPs_BdRingCheck+0x240>
ffffffc0504046cc:	fc843783          	ld	a5,-56(s0)
ffffffc0504046d0:	539c                	lw	a5,32(a5)
ffffffc0504046d2:	1782                	slli	a5,a5,0x20
ffffffc0504046d4:	9381                	srli	a5,a5,0x20
ffffffc0504046d6:	fe843703          	ld	a4,-24(s0)
ffffffc0504046da:	97ba                	add	a5,a5,a4
ffffffc0504046dc:	fef43423          	sd	a5,-24(s0)
ffffffc0504046e0:	fc843783          	ld	a5,-56(s0)
ffffffc0504046e4:	539c                	lw	a5,32(a5)
ffffffc0504046e6:	1782                	slli	a5,a5,0x20
ffffffc0504046e8:	9381                	srli	a5,a5,0x20
ffffffc0504046ea:	fe043703          	ld	a4,-32(s0)
ffffffc0504046ee:	97ba                	add	a5,a5,a4
ffffffc0504046f0:	fef43023          	sd	a5,-32(s0)
ffffffc0504046f4:	fdc42783          	lw	a5,-36(s0)
ffffffc0504046f8:	2785                	addiw	a5,a5,1
ffffffc0504046fa:	fcf42e23          	sw	a5,-36(s0)
ffffffc0504046fe:	fc843783          	ld	a5,-56(s0)
ffffffc050404702:	57b8                	lw	a4,104(a5)
ffffffc050404704:	fdc42783          	lw	a5,-36(s0)
ffffffc050404708:	2781                	sext.w	a5,a5
ffffffc05040470a:	fae7e5e3          	bltu	a5,a4,ffffffc0504046b4 <XEmacPs_BdRingCheck+0x1aa>
ffffffc05040470e:	fc744783          	lbu	a5,-57(s0)
ffffffc050404712:	0ff7f713          	andi	a4,a5,255
ffffffc050404716:	4785                	li	a5,1
ffffffc050404718:	00f71f63          	bne	a4,a5,ffffffc050404736 <XEmacPs_BdRingCheck+0x22c>
ffffffc05040471c:	fe843783          	ld	a5,-24(s0)
ffffffc050404720:	0791                	addi	a5,a5,4
ffffffc050404722:	439c                	lw	a5,0(a5)
ffffffc050404724:	873e                	mv	a4,a5
ffffffc050404726:	400007b7          	lui	a5,0x40000
ffffffc05040472a:	8ff9                	and	a5,a5,a4
ffffffc05040472c:	2781                	sext.w	a5,a5
ffffffc05040472e:	ef89                	bnez	a5,ffffffc050404748 <XEmacPs_BdRingCheck+0x23e>
ffffffc050404730:	20e00793          	li	a5,526
ffffffc050404734:	a819                	j	ffffffc05040474a <XEmacPs_BdRingCheck+0x240>
ffffffc050404736:	fe843783          	ld	a5,-24(s0)
ffffffc05040473a:	439c                	lw	a5,0(a5)
ffffffc05040473c:	8b89                	andi	a5,a5,2
ffffffc05040473e:	2781                	sext.w	a5,a5
ffffffc050404740:	e781                	bnez	a5,ffffffc050404748 <XEmacPs_BdRingCheck+0x23e>
ffffffc050404742:	20e00793          	li	a5,526
ffffffc050404746:	a011                	j	ffffffc05040474a <XEmacPs_BdRingCheck+0x240>
ffffffc050404748:	4781                	li	a5,0
ffffffc05040474a:	853e                	mv	a0,a5
ffffffc05040474c:	7462                	ld	s0,56(sp)
ffffffc05040474e:	6121                	addi	sp,sp,64
ffffffc050404750:	8082                	ret

ffffffc050404752 <XEmacPs_BdSetRxWrap>:
ffffffc050404752:	7179                	addi	sp,sp,-48
ffffffc050404754:	f422                	sd	s0,40(sp)
ffffffc050404756:	1800                	addi	s0,sp,48
ffffffc050404758:	fca43c23          	sd	a0,-40(s0)
ffffffc05040475c:	fd843783          	ld	a5,-40(s0)
ffffffc050404760:	fef43423          	sd	a5,-24(s0)
ffffffc050404764:	fe843783          	ld	a5,-24(s0)
ffffffc050404768:	c38d                	beqz	a5,ffffffc05040478a <XEmacPs_BdSetRxWrap+0x38>
ffffffc05040476a:	fe843783          	ld	a5,-24(s0)
ffffffc05040476e:	439c                	lw	a5,0(a5)
ffffffc050404770:	fef42223          	sw	a5,-28(s0)
ffffffc050404774:	fe442783          	lw	a5,-28(s0)
ffffffc050404778:	0027e793          	ori	a5,a5,2
ffffffc05040477c:	fef42223          	sw	a5,-28(s0)
ffffffc050404780:	fe843783          	ld	a5,-24(s0)
ffffffc050404784:	fe442703          	lw	a4,-28(s0)
ffffffc050404788:	c398                	sw	a4,0(a5)
ffffffc05040478a:	0001                	nop
ffffffc05040478c:	7422                	ld	s0,40(sp)
ffffffc05040478e:	6145                	addi	sp,sp,48
ffffffc050404790:	8082                	ret

ffffffc050404792 <XEmacPs_BdSetTxWrap>:
ffffffc050404792:	7179                	addi	sp,sp,-48
ffffffc050404794:	f422                	sd	s0,40(sp)
ffffffc050404796:	1800                	addi	s0,sp,48
ffffffc050404798:	fca43c23          	sd	a0,-40(s0)
ffffffc05040479c:	fd843783          	ld	a5,-40(s0)
ffffffc0504047a0:	0791                	addi	a5,a5,4
ffffffc0504047a2:	fcf43c23          	sd	a5,-40(s0)
ffffffc0504047a6:	fd843783          	ld	a5,-40(s0)
ffffffc0504047aa:	fef43423          	sd	a5,-24(s0)
ffffffc0504047ae:	fe843783          	ld	a5,-24(s0)
ffffffc0504047b2:	c395                	beqz	a5,ffffffc0504047d6 <XEmacPs_BdSetTxWrap+0x44>
ffffffc0504047b4:	fe843783          	ld	a5,-24(s0)
ffffffc0504047b8:	439c                	lw	a5,0(a5)
ffffffc0504047ba:	fef42223          	sw	a5,-28(s0)
ffffffc0504047be:	fe442703          	lw	a4,-28(s0)
ffffffc0504047c2:	400007b7          	lui	a5,0x40000
ffffffc0504047c6:	8fd9                	or	a5,a5,a4
ffffffc0504047c8:	fef42223          	sw	a5,-28(s0)
ffffffc0504047cc:	fe843783          	ld	a5,-24(s0)
ffffffc0504047d0:	fe442703          	lw	a4,-28(s0)
ffffffc0504047d4:	c398                	sw	a4,0(a5)
ffffffc0504047d6:	0001                	nop
ffffffc0504047d8:	7422                	ld	s0,40(sp)
ffffffc0504047da:	6145                	addi	sp,sp,48
ffffffc0504047dc:	8082                	ret

ffffffc0504047de <XEmacPs_BdRingPtrReset>:
ffffffc0504047de:	1101                	addi	sp,sp,-32
ffffffc0504047e0:	ec22                	sd	s0,24(sp)
ffffffc0504047e2:	1000                	addi	s0,sp,32
ffffffc0504047e4:	fea43423          	sd	a0,-24(s0)
ffffffc0504047e8:	feb43023          	sd	a1,-32(s0)
ffffffc0504047ec:	fe843783          	ld	a5,-24(s0)
ffffffc0504047f0:	fe043703          	ld	a4,-32(s0)
ffffffc0504047f4:	f798                	sd	a4,40(a5)
ffffffc0504047f6:	fe843783          	ld	a5,-24(s0)
ffffffc0504047fa:	fe043703          	ld	a4,-32(s0)
ffffffc0504047fe:	fb98                	sd	a4,48(a5)
ffffffc050404800:	fe843783          	ld	a5,-24(s0)
ffffffc050404804:	fe043703          	ld	a4,-32(s0)
ffffffc050404808:	ff98                	sd	a4,56(a5)
ffffffc05040480a:	fe843783          	ld	a5,-24(s0)
ffffffc05040480e:	fe043703          	ld	a4,-32(s0)
ffffffc050404812:	e3b8                	sd	a4,64(a5)
ffffffc050404814:	fe843783          	ld	a5,-24(s0)
ffffffc050404818:	fe043703          	ld	a4,-32(s0)
ffffffc05040481c:	e7b8                	sd	a4,72(a5)
ffffffc05040481e:	0001                	nop
ffffffc050404820:	6462                	ld	s0,24(sp)
ffffffc050404822:	6105                	addi	sp,sp,32
ffffffc050404824:	8082                	ret

ffffffc050404826 <writel>:
ffffffc050404826:	1101                	addi	sp,sp,-32
ffffffc050404828:	ec22                	sd	s0,24(sp)
ffffffc05040482a:	1000                	addi	s0,sp,32
ffffffc05040482c:	87aa                	mv	a5,a0
ffffffc05040482e:	feb43023          	sd	a1,-32(s0)
ffffffc050404832:	fef42623          	sw	a5,-20(s0)
ffffffc050404836:	0550000f          	fence	ow,ow
ffffffc05040483a:	fe043783          	ld	a5,-32(s0)
ffffffc05040483e:	fec42703          	lw	a4,-20(s0)
ffffffc050404842:	c398                	sw	a4,0(a5)
ffffffc050404844:	0001                	nop
ffffffc050404846:	6462                	ld	s0,24(sp)
ffffffc050404848:	6105                	addi	sp,sp,32
ffffffc05040484a:	8082                	ret

ffffffc05040484c <readl>:
ffffffc05040484c:	7179                	addi	sp,sp,-48
ffffffc05040484e:	f422                	sd	s0,40(sp)
ffffffc050404850:	1800                	addi	s0,sp,48
ffffffc050404852:	fca43c23          	sd	a0,-40(s0)
ffffffc050404856:	fd843783          	ld	a5,-40(s0)
ffffffc05040485a:	439c                	lw	a5,0(a5)
ffffffc05040485c:	fef42623          	sw	a5,-20(s0)
ffffffc050404860:	0aa0000f          	fence	ir,ir
ffffffc050404864:	fec42783          	lw	a5,-20(s0)
ffffffc050404868:	2781                	sext.w	a5,a5
ffffffc05040486a:	853e                	mv	a0,a5
ffffffc05040486c:	7422                	ld	s0,40(sp)
ffffffc05040486e:	6145                	addi	sp,sp,48
ffffffc050404870:	8082                	ret

ffffffc050404872 <Xil_Out32>:
ffffffc050404872:	1101                	addi	sp,sp,-32
ffffffc050404874:	ec06                	sd	ra,24(sp)
ffffffc050404876:	e822                	sd	s0,16(sp)
ffffffc050404878:	1000                	addi	s0,sp,32
ffffffc05040487a:	fea43423          	sd	a0,-24(s0)
ffffffc05040487e:	87ae                	mv	a5,a1
ffffffc050404880:	fef42223          	sw	a5,-28(s0)
ffffffc050404884:	fe843703          	ld	a4,-24(s0)
ffffffc050404888:	fe442783          	lw	a5,-28(s0)
ffffffc05040488c:	85ba                	mv	a1,a4
ffffffc05040488e:	853e                	mv	a0,a5
ffffffc050404890:	f97ff0ef          	jal	ra,ffffffc050404826 <writel>
ffffffc050404894:	0001                	nop
ffffffc050404896:	60e2                	ld	ra,24(sp)
ffffffc050404898:	6442                	ld	s0,16(sp)
ffffffc05040489a:	6105                	addi	sp,sp,32
ffffffc05040489c:	8082                	ret

ffffffc05040489e <Xil_In32>:
ffffffc05040489e:	1101                	addi	sp,sp,-32
ffffffc0504048a0:	ec06                	sd	ra,24(sp)
ffffffc0504048a2:	e822                	sd	s0,16(sp)
ffffffc0504048a4:	1000                	addi	s0,sp,32
ffffffc0504048a6:	fea43423          	sd	a0,-24(s0)
ffffffc0504048aa:	fe843783          	ld	a5,-24(s0)
ffffffc0504048ae:	853e                	mv	a0,a5
ffffffc0504048b0:	f9dff0ef          	jal	ra,ffffffc05040484c <readl>
ffffffc0504048b4:	87aa                	mv	a5,a0
ffffffc0504048b6:	2781                	sext.w	a5,a5
ffffffc0504048b8:	853e                	mv	a0,a5
ffffffc0504048ba:	60e2                	ld	ra,24(sp)
ffffffc0504048bc:	6442                	ld	s0,16(sp)
ffffffc0504048be:	6105                	addi	sp,sp,32
ffffffc0504048c0:	8082                	ret

ffffffc0504048c2 <XEmacPs_SetMacAddress>:
ffffffc0504048c2:	715d                	addi	sp,sp,-80
ffffffc0504048c4:	e486                	sd	ra,72(sp)
ffffffc0504048c6:	e0a2                	sd	s0,64(sp)
ffffffc0504048c8:	0880                	addi	s0,sp,80
ffffffc0504048ca:	fca43423          	sd	a0,-56(s0)
ffffffc0504048ce:	fcb43023          	sd	a1,-64(s0)
ffffffc0504048d2:	87b2                	mv	a5,a2
ffffffc0504048d4:	faf40fa3          	sb	a5,-65(s0)
ffffffc0504048d8:	fc043783          	ld	a5,-64(s0)
ffffffc0504048dc:	fef43023          	sd	a5,-32(s0)
ffffffc0504048e0:	fbf44783          	lbu	a5,-65(s0)
ffffffc0504048e4:	fcf40fa3          	sb	a5,-33(s0)
ffffffc0504048e8:	fc843783          	ld	a5,-56(s0)
ffffffc0504048ec:	4f9c                	lw	a5,24(a5)
ffffffc0504048ee:	873e                	mv	a4,a5
ffffffc0504048f0:	222227b7          	lui	a5,0x22222
ffffffc0504048f4:	22278793          	addi	a5,a5,546 # 22222222 <_start-0xffffffc02e1dddde>
ffffffc0504048f8:	00f71663          	bne	a4,a5,ffffffc050404904 <XEmacPs_SetMacAddress+0x42>
ffffffc0504048fc:	4795                	li	a5,5
ffffffc0504048fe:	fef43423          	sd	a5,-24(s0)
ffffffc050404902:	aa15                	j	ffffffc050404a36 <XEmacPs_SetMacAddress+0x174>
ffffffc050404904:	fdf44783          	lbu	a5,-33(s0)
ffffffc050404908:	37fd                	addiw	a5,a5,-1
ffffffc05040490a:	fcf40fa3          	sb	a5,-33(s0)
ffffffc05040490e:	fe043783          	ld	a5,-32(s0)
ffffffc050404912:	0007c783          	lbu	a5,0(a5)
ffffffc050404916:	fcf42c23          	sw	a5,-40(s0)
ffffffc05040491a:	fe043783          	ld	a5,-32(s0)
ffffffc05040491e:	0785                	addi	a5,a5,1
ffffffc050404920:	0007c783          	lbu	a5,0(a5)
ffffffc050404924:	2781                	sext.w	a5,a5
ffffffc050404926:	0087979b          	slliw	a5,a5,0x8
ffffffc05040492a:	0007871b          	sext.w	a4,a5
ffffffc05040492e:	fd842783          	lw	a5,-40(s0)
ffffffc050404932:	8fd9                	or	a5,a5,a4
ffffffc050404934:	fcf42c23          	sw	a5,-40(s0)
ffffffc050404938:	fe043783          	ld	a5,-32(s0)
ffffffc05040493c:	0789                	addi	a5,a5,2
ffffffc05040493e:	0007c783          	lbu	a5,0(a5)
ffffffc050404942:	2781                	sext.w	a5,a5
ffffffc050404944:	0107979b          	slliw	a5,a5,0x10
ffffffc050404948:	0007871b          	sext.w	a4,a5
ffffffc05040494c:	fd842783          	lw	a5,-40(s0)
ffffffc050404950:	8fd9                	or	a5,a5,a4
ffffffc050404952:	fcf42c23          	sw	a5,-40(s0)
ffffffc050404956:	fe043783          	ld	a5,-32(s0)
ffffffc05040495a:	078d                	addi	a5,a5,3
ffffffc05040495c:	0007c783          	lbu	a5,0(a5)
ffffffc050404960:	2781                	sext.w	a5,a5
ffffffc050404962:	0187979b          	slliw	a5,a5,0x18
ffffffc050404966:	0007871b          	sext.w	a4,a5
ffffffc05040496a:	fd842783          	lw	a5,-40(s0)
ffffffc05040496e:	8fd9                	or	a5,a5,a4
ffffffc050404970:	fcf42c23          	sw	a5,-40(s0)
ffffffc050404974:	fc843783          	ld	a5,-56(s0)
ffffffc050404978:	6798                	ld	a4,8(a5)
ffffffc05040497a:	fdf44783          	lbu	a5,-33(s0)
ffffffc05040497e:	2781                	sext.w	a5,a5
ffffffc050404980:	27c5                	addiw	a5,a5,17
ffffffc050404982:	2781                	sext.w	a5,a5
ffffffc050404984:	0037979b          	slliw	a5,a5,0x3
ffffffc050404988:	2781                	sext.w	a5,a5
ffffffc05040498a:	1782                	slli	a5,a5,0x20
ffffffc05040498c:	9381                	srli	a5,a5,0x20
ffffffc05040498e:	97ba                	add	a5,a5,a4
ffffffc050404990:	fd842703          	lw	a4,-40(s0)
ffffffc050404994:	85ba                	mv	a1,a4
ffffffc050404996:	853e                	mv	a0,a5
ffffffc050404998:	edbff0ef          	jal	ra,ffffffc050404872 <Xil_Out32>
ffffffc05040499c:	fc843783          	ld	a5,-56(s0)
ffffffc0504049a0:	6798                	ld	a4,8(a5)
ffffffc0504049a2:	fdf44783          	lbu	a5,-33(s0)
ffffffc0504049a6:	2781                	sext.w	a5,a5
ffffffc0504049a8:	0037979b          	slliw	a5,a5,0x3
ffffffc0504049ac:	2781                	sext.w	a5,a5
ffffffc0504049ae:	08c7879b          	addiw	a5,a5,140
ffffffc0504049b2:	2781                	sext.w	a5,a5
ffffffc0504049b4:	1782                	slli	a5,a5,0x20
ffffffc0504049b6:	9381                	srli	a5,a5,0x20
ffffffc0504049b8:	97ba                	add	a5,a5,a4
ffffffc0504049ba:	853e                	mv	a0,a5
ffffffc0504049bc:	ee3ff0ef          	jal	ra,ffffffc05040489e <Xil_In32>
ffffffc0504049c0:	87aa                	mv	a5,a0
ffffffc0504049c2:	fcf42c23          	sw	a5,-40(s0)
ffffffc0504049c6:	fd842703          	lw	a4,-40(s0)
ffffffc0504049ca:	77c1                	lui	a5,0xffff0
ffffffc0504049cc:	8ff9                	and	a5,a5,a4
ffffffc0504049ce:	fcf42c23          	sw	a5,-40(s0)
ffffffc0504049d2:	fe043783          	ld	a5,-32(s0)
ffffffc0504049d6:	0791                	addi	a5,a5,4
ffffffc0504049d8:	0007c783          	lbu	a5,0(a5) # ffffffffffff0000 <__BSS_END__+0x3faf3ed0e0>
ffffffc0504049dc:	0007871b          	sext.w	a4,a5
ffffffc0504049e0:	fd842783          	lw	a5,-40(s0)
ffffffc0504049e4:	8fd9                	or	a5,a5,a4
ffffffc0504049e6:	fcf42c23          	sw	a5,-40(s0)
ffffffc0504049ea:	fe043783          	ld	a5,-32(s0)
ffffffc0504049ee:	0795                	addi	a5,a5,5
ffffffc0504049f0:	0007c783          	lbu	a5,0(a5)
ffffffc0504049f4:	2781                	sext.w	a5,a5
ffffffc0504049f6:	0087979b          	slliw	a5,a5,0x8
ffffffc0504049fa:	0007871b          	sext.w	a4,a5
ffffffc0504049fe:	fd842783          	lw	a5,-40(s0)
ffffffc050404a02:	8fd9                	or	a5,a5,a4
ffffffc050404a04:	fcf42c23          	sw	a5,-40(s0)
ffffffc050404a08:	fc843783          	ld	a5,-56(s0)
ffffffc050404a0c:	6798                	ld	a4,8(a5)
ffffffc050404a0e:	fdf44783          	lbu	a5,-33(s0)
ffffffc050404a12:	2781                	sext.w	a5,a5
ffffffc050404a14:	0037979b          	slliw	a5,a5,0x3
ffffffc050404a18:	2781                	sext.w	a5,a5
ffffffc050404a1a:	08c7879b          	addiw	a5,a5,140
ffffffc050404a1e:	2781                	sext.w	a5,a5
ffffffc050404a20:	1782                	slli	a5,a5,0x20
ffffffc050404a22:	9381                	srli	a5,a5,0x20
ffffffc050404a24:	97ba                	add	a5,a5,a4
ffffffc050404a26:	fd842703          	lw	a4,-40(s0)
ffffffc050404a2a:	85ba                	mv	a1,a4
ffffffc050404a2c:	853e                	mv	a0,a5
ffffffc050404a2e:	e45ff0ef          	jal	ra,ffffffc050404872 <Xil_Out32>
ffffffc050404a32:	fe043423          	sd	zero,-24(s0)
ffffffc050404a36:	fe843783          	ld	a5,-24(s0)
ffffffc050404a3a:	853e                	mv	a0,a5
ffffffc050404a3c:	60a6                	ld	ra,72(sp)
ffffffc050404a3e:	6406                	ld	s0,64(sp)
ffffffc050404a40:	6161                	addi	sp,sp,80
ffffffc050404a42:	8082                	ret

ffffffc050404a44 <XEmacPs_GetMacAddress>:
ffffffc050404a44:	7139                	addi	sp,sp,-64
ffffffc050404a46:	fc06                	sd	ra,56(sp)
ffffffc050404a48:	f822                	sd	s0,48(sp)
ffffffc050404a4a:	0080                	addi	s0,sp,64
ffffffc050404a4c:	fca43c23          	sd	a0,-40(s0)
ffffffc050404a50:	fcb43823          	sd	a1,-48(s0)
ffffffc050404a54:	87b2                	mv	a5,a2
ffffffc050404a56:	fcf407a3          	sb	a5,-49(s0)
ffffffc050404a5a:	fd043783          	ld	a5,-48(s0)
ffffffc050404a5e:	fef43423          	sd	a5,-24(s0)
ffffffc050404a62:	fcf44783          	lbu	a5,-49(s0)
ffffffc050404a66:	fef403a3          	sb	a5,-25(s0)
ffffffc050404a6a:	fe744783          	lbu	a5,-25(s0)
ffffffc050404a6e:	37fd                	addiw	a5,a5,-1
ffffffc050404a70:	fef403a3          	sb	a5,-25(s0)
ffffffc050404a74:	fd843783          	ld	a5,-40(s0)
ffffffc050404a78:	6798                	ld	a4,8(a5)
ffffffc050404a7a:	fe744783          	lbu	a5,-25(s0)
ffffffc050404a7e:	2781                	sext.w	a5,a5
ffffffc050404a80:	27c5                	addiw	a5,a5,17
ffffffc050404a82:	2781                	sext.w	a5,a5
ffffffc050404a84:	0037979b          	slliw	a5,a5,0x3
ffffffc050404a88:	2781                	sext.w	a5,a5
ffffffc050404a8a:	1782                	slli	a5,a5,0x20
ffffffc050404a8c:	9381                	srli	a5,a5,0x20
ffffffc050404a8e:	97ba                	add	a5,a5,a4
ffffffc050404a90:	853e                	mv	a0,a5
ffffffc050404a92:	e0dff0ef          	jal	ra,ffffffc05040489e <Xil_In32>
ffffffc050404a96:	87aa                	mv	a5,a0
ffffffc050404a98:	fef42023          	sw	a5,-32(s0)
ffffffc050404a9c:	fe042783          	lw	a5,-32(s0)
ffffffc050404aa0:	0ff7f713          	andi	a4,a5,255
ffffffc050404aa4:	fe843783          	ld	a5,-24(s0)
ffffffc050404aa8:	00e78023          	sb	a4,0(a5)
ffffffc050404aac:	fe042783          	lw	a5,-32(s0)
ffffffc050404ab0:	0087d79b          	srliw	a5,a5,0x8
ffffffc050404ab4:	0007871b          	sext.w	a4,a5
ffffffc050404ab8:	fe843783          	ld	a5,-24(s0)
ffffffc050404abc:	0785                	addi	a5,a5,1
ffffffc050404abe:	0ff77713          	andi	a4,a4,255
ffffffc050404ac2:	00e78023          	sb	a4,0(a5)
ffffffc050404ac6:	fe042783          	lw	a5,-32(s0)
ffffffc050404aca:	0107d79b          	srliw	a5,a5,0x10
ffffffc050404ace:	0007871b          	sext.w	a4,a5
ffffffc050404ad2:	fe843783          	ld	a5,-24(s0)
ffffffc050404ad6:	0789                	addi	a5,a5,2
ffffffc050404ad8:	0ff77713          	andi	a4,a4,255
ffffffc050404adc:	00e78023          	sb	a4,0(a5)
ffffffc050404ae0:	fe042783          	lw	a5,-32(s0)
ffffffc050404ae4:	0187d79b          	srliw	a5,a5,0x18
ffffffc050404ae8:	0007871b          	sext.w	a4,a5
ffffffc050404aec:	fe843783          	ld	a5,-24(s0)
ffffffc050404af0:	078d                	addi	a5,a5,3
ffffffc050404af2:	0ff77713          	andi	a4,a4,255
ffffffc050404af6:	00e78023          	sb	a4,0(a5)
ffffffc050404afa:	fd843783          	ld	a5,-40(s0)
ffffffc050404afe:	6798                	ld	a4,8(a5)
ffffffc050404b00:	fe744783          	lbu	a5,-25(s0)
ffffffc050404b04:	2781                	sext.w	a5,a5
ffffffc050404b06:	0037979b          	slliw	a5,a5,0x3
ffffffc050404b0a:	2781                	sext.w	a5,a5
ffffffc050404b0c:	08c7879b          	addiw	a5,a5,140
ffffffc050404b10:	2781                	sext.w	a5,a5
ffffffc050404b12:	1782                	slli	a5,a5,0x20
ffffffc050404b14:	9381                	srli	a5,a5,0x20
ffffffc050404b16:	97ba                	add	a5,a5,a4
ffffffc050404b18:	853e                	mv	a0,a5
ffffffc050404b1a:	d85ff0ef          	jal	ra,ffffffc05040489e <Xil_In32>
ffffffc050404b1e:	87aa                	mv	a5,a0
ffffffc050404b20:	fef42023          	sw	a5,-32(s0)
ffffffc050404b24:	fe843783          	ld	a5,-24(s0)
ffffffc050404b28:	0791                	addi	a5,a5,4
ffffffc050404b2a:	fe042703          	lw	a4,-32(s0)
ffffffc050404b2e:	0ff77713          	andi	a4,a4,255
ffffffc050404b32:	00e78023          	sb	a4,0(a5)
ffffffc050404b36:	fe042783          	lw	a5,-32(s0)
ffffffc050404b3a:	0087d79b          	srliw	a5,a5,0x8
ffffffc050404b3e:	0007871b          	sext.w	a4,a5
ffffffc050404b42:	fe843783          	ld	a5,-24(s0)
ffffffc050404b46:	0795                	addi	a5,a5,5
ffffffc050404b48:	0ff77713          	andi	a4,a4,255
ffffffc050404b4c:	00e78023          	sb	a4,0(a5)
ffffffc050404b50:	0001                	nop
ffffffc050404b52:	70e2                	ld	ra,56(sp)
ffffffc050404b54:	7442                	ld	s0,48(sp)
ffffffc050404b56:	6121                	addi	sp,sp,64
ffffffc050404b58:	8082                	ret

ffffffc050404b5a <XEmacPs_SetHash>:
ffffffc050404b5a:	7139                	addi	sp,sp,-64
ffffffc050404b5c:	fc06                	sd	ra,56(sp)
ffffffc050404b5e:	f822                	sd	s0,48(sp)
ffffffc050404b60:	0080                	addi	s0,sp,64
ffffffc050404b62:	fca43423          	sd	a0,-56(s0)
ffffffc050404b66:	fcb43023          	sd	a1,-64(s0)
ffffffc050404b6a:	fc043783          	ld	a5,-64(s0)
ffffffc050404b6e:	fef43023          	sd	a5,-32(s0)
ffffffc050404b72:	fc843783          	ld	a5,-56(s0)
ffffffc050404b76:	4f9c                	lw	a5,24(a5)
ffffffc050404b78:	873e                	mv	a4,a5
ffffffc050404b7a:	222227b7          	lui	a5,0x22222
ffffffc050404b7e:	22278793          	addi	a5,a5,546 # 22222222 <_start-0xffffffc02e1dddde>
ffffffc050404b82:	00f71663          	bne	a4,a5,ffffffc050404b8e <XEmacPs_SetHash+0x34>
ffffffc050404b86:	4795                	li	a5,5
ffffffc050404b88:	fef43423          	sd	a5,-24(s0)
ffffffc050404b8c:	ac19                	j	ffffffc050404da2 <XEmacPs_SetHash+0x248>
ffffffc050404b8e:	fe043783          	ld	a5,-32(s0)
ffffffc050404b92:	0007c783          	lbu	a5,0(a5)
ffffffc050404b96:	03f7f793          	andi	a5,a5,63
ffffffc050404b9a:	fcf40fa3          	sb	a5,-33(s0)
ffffffc050404b9e:	fe043783          	ld	a5,-32(s0)
ffffffc050404ba2:	0007c783          	lbu	a5,0(a5)
ffffffc050404ba6:	0067d79b          	srliw	a5,a5,0x6
ffffffc050404baa:	0ff7f713          	andi	a4,a5,255
ffffffc050404bae:	fe043783          	ld	a5,-32(s0)
ffffffc050404bb2:	0785                	addi	a5,a5,1
ffffffc050404bb4:	0007c783          	lbu	a5,0(a5)
ffffffc050404bb8:	0027979b          	slliw	a5,a5,0x2
ffffffc050404bbc:	0ff7f793          	andi	a5,a5,255
ffffffc050404bc0:	03c7f793          	andi	a5,a5,60
ffffffc050404bc4:	0ff7f793          	andi	a5,a5,255
ffffffc050404bc8:	8fd9                	or	a5,a5,a4
ffffffc050404bca:	fcf40f23          	sb	a5,-34(s0)
ffffffc050404bce:	fe043783          	ld	a5,-32(s0)
ffffffc050404bd2:	0785                	addi	a5,a5,1
ffffffc050404bd4:	0007c783          	lbu	a5,0(a5)
ffffffc050404bd8:	0047d79b          	srliw	a5,a5,0x4
ffffffc050404bdc:	0ff7f713          	andi	a4,a5,255
ffffffc050404be0:	fe043783          	ld	a5,-32(s0)
ffffffc050404be4:	0789                	addi	a5,a5,2
ffffffc050404be6:	0007c783          	lbu	a5,0(a5)
ffffffc050404bea:	0047979b          	slliw	a5,a5,0x4
ffffffc050404bee:	0ff7f793          	andi	a5,a5,255
ffffffc050404bf2:	0307f793          	andi	a5,a5,48
ffffffc050404bf6:	0ff7f793          	andi	a5,a5,255
ffffffc050404bfa:	8fd9                	or	a5,a5,a4
ffffffc050404bfc:	fcf40ea3          	sb	a5,-35(s0)
ffffffc050404c00:	fe043783          	ld	a5,-32(s0)
ffffffc050404c04:	0789                	addi	a5,a5,2
ffffffc050404c06:	0007c783          	lbu	a5,0(a5)
ffffffc050404c0a:	0027d79b          	srliw	a5,a5,0x2
ffffffc050404c0e:	fcf40e23          	sb	a5,-36(s0)
ffffffc050404c12:	fe043783          	ld	a5,-32(s0)
ffffffc050404c16:	078d                	addi	a5,a5,3
ffffffc050404c18:	0007c783          	lbu	a5,0(a5)
ffffffc050404c1c:	03f7f793          	andi	a5,a5,63
ffffffc050404c20:	fcf40da3          	sb	a5,-37(s0)
ffffffc050404c24:	fe043783          	ld	a5,-32(s0)
ffffffc050404c28:	078d                	addi	a5,a5,3
ffffffc050404c2a:	0007c783          	lbu	a5,0(a5)
ffffffc050404c2e:	0067d79b          	srliw	a5,a5,0x6
ffffffc050404c32:	0ff7f713          	andi	a4,a5,255
ffffffc050404c36:	fe043783          	ld	a5,-32(s0)
ffffffc050404c3a:	0791                	addi	a5,a5,4
ffffffc050404c3c:	0007c783          	lbu	a5,0(a5)
ffffffc050404c40:	0027979b          	slliw	a5,a5,0x2
ffffffc050404c44:	0ff7f793          	andi	a5,a5,255
ffffffc050404c48:	03c7f793          	andi	a5,a5,60
ffffffc050404c4c:	0ff7f793          	andi	a5,a5,255
ffffffc050404c50:	8fd9                	or	a5,a5,a4
ffffffc050404c52:	fcf40d23          	sb	a5,-38(s0)
ffffffc050404c56:	fe043783          	ld	a5,-32(s0)
ffffffc050404c5a:	0791                	addi	a5,a5,4
ffffffc050404c5c:	0007c783          	lbu	a5,0(a5)
ffffffc050404c60:	0047d79b          	srliw	a5,a5,0x4
ffffffc050404c64:	0ff7f713          	andi	a4,a5,255
ffffffc050404c68:	fe043783          	ld	a5,-32(s0)
ffffffc050404c6c:	0795                	addi	a5,a5,5
ffffffc050404c6e:	0007c783          	lbu	a5,0(a5)
ffffffc050404c72:	0047979b          	slliw	a5,a5,0x4
ffffffc050404c76:	0ff7f793          	andi	a5,a5,255
ffffffc050404c7a:	0307f793          	andi	a5,a5,48
ffffffc050404c7e:	0ff7f793          	andi	a5,a5,255
ffffffc050404c82:	8fd9                	or	a5,a5,a4
ffffffc050404c84:	fcf40ca3          	sb	a5,-39(s0)
ffffffc050404c88:	fe043783          	ld	a5,-32(s0)
ffffffc050404c8c:	0795                	addi	a5,a5,5
ffffffc050404c8e:	0007c783          	lbu	a5,0(a5)
ffffffc050404c92:	0027d79b          	srliw	a5,a5,0x2
ffffffc050404c96:	fcf40c23          	sb	a5,-40(s0)
ffffffc050404c9a:	fdf44703          	lbu	a4,-33(s0)
ffffffc050404c9e:	fde44783          	lbu	a5,-34(s0)
ffffffc050404ca2:	8fb9                	xor	a5,a5,a4
ffffffc050404ca4:	0ff7f713          	andi	a4,a5,255
ffffffc050404ca8:	fdd44783          	lbu	a5,-35(s0)
ffffffc050404cac:	8fb9                	xor	a5,a5,a4
ffffffc050404cae:	0ff7f713          	andi	a4,a5,255
ffffffc050404cb2:	fdc44783          	lbu	a5,-36(s0)
ffffffc050404cb6:	8fb9                	xor	a5,a5,a4
ffffffc050404cb8:	0ff7f713          	andi	a4,a5,255
ffffffc050404cbc:	fdb44783          	lbu	a5,-37(s0)
ffffffc050404cc0:	8fb9                	xor	a5,a5,a4
ffffffc050404cc2:	0ff7f713          	andi	a4,a5,255
ffffffc050404cc6:	fda44783          	lbu	a5,-38(s0)
ffffffc050404cca:	8fb9                	xor	a5,a5,a4
ffffffc050404ccc:	0ff7f713          	andi	a4,a5,255
ffffffc050404cd0:	fd944783          	lbu	a5,-39(s0)
ffffffc050404cd4:	8fb9                	xor	a5,a5,a4
ffffffc050404cd6:	0ff7f713          	andi	a4,a5,255
ffffffc050404cda:	fd844783          	lbu	a5,-40(s0)
ffffffc050404cde:	8fb9                	xor	a5,a5,a4
ffffffc050404ce0:	0ff7f793          	andi	a5,a5,255
ffffffc050404ce4:	fcf42a23          	sw	a5,-44(s0)
ffffffc050404ce8:	fd442783          	lw	a5,-44(s0)
ffffffc050404cec:	0007871b          	sext.w	a4,a5
ffffffc050404cf0:	03f00793          	li	a5,63
ffffffc050404cf4:	00e7f663          	bgeu	a5,a4,ffffffc050404d00 <XEmacPs_SetHash+0x1a6>
ffffffc050404cf8:	47bd                	li	a5,15
ffffffc050404cfa:	fef43423          	sd	a5,-24(s0)
ffffffc050404cfe:	a055                	j	ffffffc050404da2 <XEmacPs_SetHash+0x248>
ffffffc050404d00:	fd442783          	lw	a5,-44(s0)
ffffffc050404d04:	0007871b          	sext.w	a4,a5
ffffffc050404d08:	47fd                	li	a5,31
ffffffc050404d0a:	04e7e563          	bltu	a5,a4,ffffffc050404d54 <XEmacPs_SetHash+0x1fa>
ffffffc050404d0e:	fc843783          	ld	a5,-56(s0)
ffffffc050404d12:	679c                	ld	a5,8(a5)
ffffffc050404d14:	08078793          	addi	a5,a5,128
ffffffc050404d18:	853e                	mv	a0,a5
ffffffc050404d1a:	b85ff0ef          	jal	ra,ffffffc05040489e <Xil_In32>
ffffffc050404d1e:	87aa                	mv	a5,a0
ffffffc050404d20:	fcf42823          	sw	a5,-48(s0)
ffffffc050404d24:	fd442783          	lw	a5,-44(s0)
ffffffc050404d28:	4705                	li	a4,1
ffffffc050404d2a:	00f717bb          	sllw	a5,a4,a5
ffffffc050404d2e:	0007871b          	sext.w	a4,a5
ffffffc050404d32:	fd042783          	lw	a5,-48(s0)
ffffffc050404d36:	8fd9                	or	a5,a5,a4
ffffffc050404d38:	fcf42823          	sw	a5,-48(s0)
ffffffc050404d3c:	fc843783          	ld	a5,-56(s0)
ffffffc050404d40:	679c                	ld	a5,8(a5)
ffffffc050404d42:	08078793          	addi	a5,a5,128
ffffffc050404d46:	fd042703          	lw	a4,-48(s0)
ffffffc050404d4a:	85ba                	mv	a1,a4
ffffffc050404d4c:	853e                	mv	a0,a5
ffffffc050404d4e:	b25ff0ef          	jal	ra,ffffffc050404872 <Xil_Out32>
ffffffc050404d52:	a0b1                	j	ffffffc050404d9e <XEmacPs_SetHash+0x244>
ffffffc050404d54:	fc843783          	ld	a5,-56(s0)
ffffffc050404d58:	679c                	ld	a5,8(a5)
ffffffc050404d5a:	08478793          	addi	a5,a5,132
ffffffc050404d5e:	853e                	mv	a0,a5
ffffffc050404d60:	b3fff0ef          	jal	ra,ffffffc05040489e <Xil_In32>
ffffffc050404d64:	87aa                	mv	a5,a0
ffffffc050404d66:	fcf42823          	sw	a5,-48(s0)
ffffffc050404d6a:	fd442783          	lw	a5,-44(s0)
ffffffc050404d6e:	3781                	addiw	a5,a5,-32
ffffffc050404d70:	2781                	sext.w	a5,a5
ffffffc050404d72:	873e                	mv	a4,a5
ffffffc050404d74:	4785                	li	a5,1
ffffffc050404d76:	00e797bb          	sllw	a5,a5,a4
ffffffc050404d7a:	0007871b          	sext.w	a4,a5
ffffffc050404d7e:	fd042783          	lw	a5,-48(s0)
ffffffc050404d82:	8fd9                	or	a5,a5,a4
ffffffc050404d84:	fcf42823          	sw	a5,-48(s0)
ffffffc050404d88:	fc843783          	ld	a5,-56(s0)
ffffffc050404d8c:	679c                	ld	a5,8(a5)
ffffffc050404d8e:	08478793          	addi	a5,a5,132
ffffffc050404d92:	fd042703          	lw	a4,-48(s0)
ffffffc050404d96:	85ba                	mv	a1,a4
ffffffc050404d98:	853e                	mv	a0,a5
ffffffc050404d9a:	ad9ff0ef          	jal	ra,ffffffc050404872 <Xil_Out32>
ffffffc050404d9e:	fe043423          	sd	zero,-24(s0)
ffffffc050404da2:	fe843783          	ld	a5,-24(s0)
ffffffc050404da6:	853e                	mv	a0,a5
ffffffc050404da8:	70e2                	ld	ra,56(sp)
ffffffc050404daa:	7442                	ld	s0,48(sp)
ffffffc050404dac:	6121                	addi	sp,sp,64
ffffffc050404dae:	8082                	ret

ffffffc050404db0 <XEmacPs_DeleteHash>:
ffffffc050404db0:	7139                	addi	sp,sp,-64
ffffffc050404db2:	fc06                	sd	ra,56(sp)
ffffffc050404db4:	f822                	sd	s0,48(sp)
ffffffc050404db6:	0080                	addi	s0,sp,64
ffffffc050404db8:	fca43423          	sd	a0,-56(s0)
ffffffc050404dbc:	fcb43023          	sd	a1,-64(s0)
ffffffc050404dc0:	fc043783          	ld	a5,-64(s0)
ffffffc050404dc4:	fef43023          	sd	a5,-32(s0)
ffffffc050404dc8:	fc843783          	ld	a5,-56(s0)
ffffffc050404dcc:	4f9c                	lw	a5,24(a5)
ffffffc050404dce:	873e                	mv	a4,a5
ffffffc050404dd0:	222227b7          	lui	a5,0x22222
ffffffc050404dd4:	22278793          	addi	a5,a5,546 # 22222222 <_start-0xffffffc02e1dddde>
ffffffc050404dd8:	00f71663          	bne	a4,a5,ffffffc050404de4 <XEmacPs_DeleteHash+0x34>
ffffffc050404ddc:	4795                	li	a5,5
ffffffc050404dde:	fef43423          	sd	a5,-24(s0)
ffffffc050404de2:	a40d                	j	ffffffc050405004 <XEmacPs_DeleteHash+0x254>
ffffffc050404de4:	fe043783          	ld	a5,-32(s0)
ffffffc050404de8:	0007c783          	lbu	a5,0(a5)
ffffffc050404dec:	03f7f793          	andi	a5,a5,63
ffffffc050404df0:	fcf40fa3          	sb	a5,-33(s0)
ffffffc050404df4:	fe043783          	ld	a5,-32(s0)
ffffffc050404df8:	0007c783          	lbu	a5,0(a5)
ffffffc050404dfc:	0067d79b          	srliw	a5,a5,0x6
ffffffc050404e00:	0ff7f713          	andi	a4,a5,255
ffffffc050404e04:	fe043783          	ld	a5,-32(s0)
ffffffc050404e08:	0785                	addi	a5,a5,1
ffffffc050404e0a:	0007c783          	lbu	a5,0(a5)
ffffffc050404e0e:	0027979b          	slliw	a5,a5,0x2
ffffffc050404e12:	0ff7f793          	andi	a5,a5,255
ffffffc050404e16:	03c7f793          	andi	a5,a5,60
ffffffc050404e1a:	0ff7f793          	andi	a5,a5,255
ffffffc050404e1e:	8fd9                	or	a5,a5,a4
ffffffc050404e20:	fcf40f23          	sb	a5,-34(s0)
ffffffc050404e24:	fe043783          	ld	a5,-32(s0)
ffffffc050404e28:	0785                	addi	a5,a5,1
ffffffc050404e2a:	0007c783          	lbu	a5,0(a5)
ffffffc050404e2e:	0047d79b          	srliw	a5,a5,0x4
ffffffc050404e32:	0ff7f713          	andi	a4,a5,255
ffffffc050404e36:	fe043783          	ld	a5,-32(s0)
ffffffc050404e3a:	0789                	addi	a5,a5,2
ffffffc050404e3c:	0007c783          	lbu	a5,0(a5)
ffffffc050404e40:	0047979b          	slliw	a5,a5,0x4
ffffffc050404e44:	0ff7f793          	andi	a5,a5,255
ffffffc050404e48:	0307f793          	andi	a5,a5,48
ffffffc050404e4c:	0ff7f793          	andi	a5,a5,255
ffffffc050404e50:	8fd9                	or	a5,a5,a4
ffffffc050404e52:	fcf40ea3          	sb	a5,-35(s0)
ffffffc050404e56:	fe043783          	ld	a5,-32(s0)
ffffffc050404e5a:	0789                	addi	a5,a5,2
ffffffc050404e5c:	0007c783          	lbu	a5,0(a5)
ffffffc050404e60:	0027d79b          	srliw	a5,a5,0x2
ffffffc050404e64:	fcf40e23          	sb	a5,-36(s0)
ffffffc050404e68:	fe043783          	ld	a5,-32(s0)
ffffffc050404e6c:	078d                	addi	a5,a5,3
ffffffc050404e6e:	0007c783          	lbu	a5,0(a5)
ffffffc050404e72:	03f7f793          	andi	a5,a5,63
ffffffc050404e76:	fcf40da3          	sb	a5,-37(s0)
ffffffc050404e7a:	fe043783          	ld	a5,-32(s0)
ffffffc050404e7e:	078d                	addi	a5,a5,3
ffffffc050404e80:	0007c783          	lbu	a5,0(a5)
ffffffc050404e84:	0067d79b          	srliw	a5,a5,0x6
ffffffc050404e88:	0ff7f713          	andi	a4,a5,255
ffffffc050404e8c:	fe043783          	ld	a5,-32(s0)
ffffffc050404e90:	0791                	addi	a5,a5,4
ffffffc050404e92:	0007c783          	lbu	a5,0(a5)
ffffffc050404e96:	0027979b          	slliw	a5,a5,0x2
ffffffc050404e9a:	0ff7f793          	andi	a5,a5,255
ffffffc050404e9e:	03c7f793          	andi	a5,a5,60
ffffffc050404ea2:	0ff7f793          	andi	a5,a5,255
ffffffc050404ea6:	8fd9                	or	a5,a5,a4
ffffffc050404ea8:	fcf40d23          	sb	a5,-38(s0)
ffffffc050404eac:	fe043783          	ld	a5,-32(s0)
ffffffc050404eb0:	0791                	addi	a5,a5,4
ffffffc050404eb2:	0007c783          	lbu	a5,0(a5)
ffffffc050404eb6:	0047d79b          	srliw	a5,a5,0x4
ffffffc050404eba:	0ff7f713          	andi	a4,a5,255
ffffffc050404ebe:	fe043783          	ld	a5,-32(s0)
ffffffc050404ec2:	0795                	addi	a5,a5,5
ffffffc050404ec4:	0007c783          	lbu	a5,0(a5)
ffffffc050404ec8:	0047979b          	slliw	a5,a5,0x4
ffffffc050404ecc:	0ff7f793          	andi	a5,a5,255
ffffffc050404ed0:	0307f793          	andi	a5,a5,48
ffffffc050404ed4:	0ff7f793          	andi	a5,a5,255
ffffffc050404ed8:	8fd9                	or	a5,a5,a4
ffffffc050404eda:	fcf40ca3          	sb	a5,-39(s0)
ffffffc050404ede:	fe043783          	ld	a5,-32(s0)
ffffffc050404ee2:	0795                	addi	a5,a5,5
ffffffc050404ee4:	0007c783          	lbu	a5,0(a5)
ffffffc050404ee8:	0027d79b          	srliw	a5,a5,0x2
ffffffc050404eec:	fcf40c23          	sb	a5,-40(s0)
ffffffc050404ef0:	fdf44703          	lbu	a4,-33(s0)
ffffffc050404ef4:	fde44783          	lbu	a5,-34(s0)
ffffffc050404ef8:	8fb9                	xor	a5,a5,a4
ffffffc050404efa:	0ff7f713          	andi	a4,a5,255
ffffffc050404efe:	fdd44783          	lbu	a5,-35(s0)
ffffffc050404f02:	8fb9                	xor	a5,a5,a4
ffffffc050404f04:	0ff7f713          	andi	a4,a5,255
ffffffc050404f08:	fdc44783          	lbu	a5,-36(s0)
ffffffc050404f0c:	8fb9                	xor	a5,a5,a4
ffffffc050404f0e:	0ff7f713          	andi	a4,a5,255
ffffffc050404f12:	fdb44783          	lbu	a5,-37(s0)
ffffffc050404f16:	8fb9                	xor	a5,a5,a4
ffffffc050404f18:	0ff7f713          	andi	a4,a5,255
ffffffc050404f1c:	fda44783          	lbu	a5,-38(s0)
ffffffc050404f20:	8fb9                	xor	a5,a5,a4
ffffffc050404f22:	0ff7f713          	andi	a4,a5,255
ffffffc050404f26:	fd944783          	lbu	a5,-39(s0)
ffffffc050404f2a:	8fb9                	xor	a5,a5,a4
ffffffc050404f2c:	0ff7f713          	andi	a4,a5,255
ffffffc050404f30:	fd844783          	lbu	a5,-40(s0)
ffffffc050404f34:	8fb9                	xor	a5,a5,a4
ffffffc050404f36:	0ff7f793          	andi	a5,a5,255
ffffffc050404f3a:	fcf42a23          	sw	a5,-44(s0)
ffffffc050404f3e:	fd442783          	lw	a5,-44(s0)
ffffffc050404f42:	0007871b          	sext.w	a4,a5
ffffffc050404f46:	03f00793          	li	a5,63
ffffffc050404f4a:	00e7f663          	bgeu	a5,a4,ffffffc050404f56 <XEmacPs_DeleteHash+0x1a6>
ffffffc050404f4e:	47bd                	li	a5,15
ffffffc050404f50:	fef43423          	sd	a5,-24(s0)
ffffffc050404f54:	a845                	j	ffffffc050405004 <XEmacPs_DeleteHash+0x254>
ffffffc050404f56:	fd442783          	lw	a5,-44(s0)
ffffffc050404f5a:	0007871b          	sext.w	a4,a5
ffffffc050404f5e:	47fd                	li	a5,31
ffffffc050404f60:	04e7e863          	bltu	a5,a4,ffffffc050404fb0 <XEmacPs_DeleteHash+0x200>
ffffffc050404f64:	fc843783          	ld	a5,-56(s0)
ffffffc050404f68:	679c                	ld	a5,8(a5)
ffffffc050404f6a:	08078793          	addi	a5,a5,128
ffffffc050404f6e:	853e                	mv	a0,a5
ffffffc050404f70:	92fff0ef          	jal	ra,ffffffc05040489e <Xil_In32>
ffffffc050404f74:	87aa                	mv	a5,a0
ffffffc050404f76:	fcf42823          	sw	a5,-48(s0)
ffffffc050404f7a:	fd442783          	lw	a5,-44(s0)
ffffffc050404f7e:	4705                	li	a4,1
ffffffc050404f80:	00f717bb          	sllw	a5,a4,a5
ffffffc050404f84:	2781                	sext.w	a5,a5
ffffffc050404f86:	fff7c793          	not	a5,a5
ffffffc050404f8a:	0007871b          	sext.w	a4,a5
ffffffc050404f8e:	fd042783          	lw	a5,-48(s0)
ffffffc050404f92:	8ff9                	and	a5,a5,a4
ffffffc050404f94:	fcf42823          	sw	a5,-48(s0)
ffffffc050404f98:	fc843783          	ld	a5,-56(s0)
ffffffc050404f9c:	679c                	ld	a5,8(a5)
ffffffc050404f9e:	08078793          	addi	a5,a5,128
ffffffc050404fa2:	fd042703          	lw	a4,-48(s0)
ffffffc050404fa6:	85ba                	mv	a1,a4
ffffffc050404fa8:	853e                	mv	a0,a5
ffffffc050404faa:	8c9ff0ef          	jal	ra,ffffffc050404872 <Xil_Out32>
ffffffc050404fae:	a889                	j	ffffffc050405000 <XEmacPs_DeleteHash+0x250>
ffffffc050404fb0:	fc843783          	ld	a5,-56(s0)
ffffffc050404fb4:	679c                	ld	a5,8(a5)
ffffffc050404fb6:	08478793          	addi	a5,a5,132
ffffffc050404fba:	853e                	mv	a0,a5
ffffffc050404fbc:	8e3ff0ef          	jal	ra,ffffffc05040489e <Xil_In32>
ffffffc050404fc0:	87aa                	mv	a5,a0
ffffffc050404fc2:	fcf42823          	sw	a5,-48(s0)
ffffffc050404fc6:	fd442783          	lw	a5,-44(s0)
ffffffc050404fca:	3781                	addiw	a5,a5,-32
ffffffc050404fcc:	2781                	sext.w	a5,a5
ffffffc050404fce:	873e                	mv	a4,a5
ffffffc050404fd0:	4785                	li	a5,1
ffffffc050404fd2:	00e797bb          	sllw	a5,a5,a4
ffffffc050404fd6:	2781                	sext.w	a5,a5
ffffffc050404fd8:	fff7c793          	not	a5,a5
ffffffc050404fdc:	0007871b          	sext.w	a4,a5
ffffffc050404fe0:	fd042783          	lw	a5,-48(s0)
ffffffc050404fe4:	8ff9                	and	a5,a5,a4
ffffffc050404fe6:	fcf42823          	sw	a5,-48(s0)
ffffffc050404fea:	fc843783          	ld	a5,-56(s0)
ffffffc050404fee:	679c                	ld	a5,8(a5)
ffffffc050404ff0:	08478793          	addi	a5,a5,132
ffffffc050404ff4:	fd042703          	lw	a4,-48(s0)
ffffffc050404ff8:	85ba                	mv	a1,a4
ffffffc050404ffa:	853e                	mv	a0,a5
ffffffc050404ffc:	877ff0ef          	jal	ra,ffffffc050404872 <Xil_Out32>
ffffffc050405000:	fe043423          	sd	zero,-24(s0)
ffffffc050405004:	fe843783          	ld	a5,-24(s0)
ffffffc050405008:	853e                	mv	a0,a5
ffffffc05040500a:	70e2                	ld	ra,56(sp)
ffffffc05040500c:	7442                	ld	s0,48(sp)
ffffffc05040500e:	6121                	addi	sp,sp,64
ffffffc050405010:	8082                	ret

ffffffc050405012 <XEmacPs_ClearHash>:
ffffffc050405012:	1101                	addi	sp,sp,-32
ffffffc050405014:	ec06                	sd	ra,24(sp)
ffffffc050405016:	e822                	sd	s0,16(sp)
ffffffc050405018:	1000                	addi	s0,sp,32
ffffffc05040501a:	fea43423          	sd	a0,-24(s0)
ffffffc05040501e:	fe843783          	ld	a5,-24(s0)
ffffffc050405022:	679c                	ld	a5,8(a5)
ffffffc050405024:	08078793          	addi	a5,a5,128
ffffffc050405028:	4581                	li	a1,0
ffffffc05040502a:	853e                	mv	a0,a5
ffffffc05040502c:	847ff0ef          	jal	ra,ffffffc050404872 <Xil_Out32>
ffffffc050405030:	fe843783          	ld	a5,-24(s0)
ffffffc050405034:	679c                	ld	a5,8(a5)
ffffffc050405036:	08478793          	addi	a5,a5,132
ffffffc05040503a:	4581                	li	a1,0
ffffffc05040503c:	853e                	mv	a0,a5
ffffffc05040503e:	835ff0ef          	jal	ra,ffffffc050404872 <Xil_Out32>
ffffffc050405042:	0001                	nop
ffffffc050405044:	60e2                	ld	ra,24(sp)
ffffffc050405046:	6442                	ld	s0,16(sp)
ffffffc050405048:	6105                	addi	sp,sp,32
ffffffc05040504a:	8082                	ret

ffffffc05040504c <XEmacPs_GetHash>:
ffffffc05040504c:	7139                	addi	sp,sp,-64
ffffffc05040504e:	fc06                	sd	ra,56(sp)
ffffffc050405050:	f822                	sd	s0,48(sp)
ffffffc050405052:	f426                	sd	s1,40(sp)
ffffffc050405054:	0080                	addi	s0,sp,64
ffffffc050405056:	fca43423          	sd	a0,-56(s0)
ffffffc05040505a:	fcb43023          	sd	a1,-64(s0)
ffffffc05040505e:	fc043783          	ld	a5,-64(s0)
ffffffc050405062:	fcf43c23          	sd	a5,-40(s0)
ffffffc050405066:	fc843783          	ld	a5,-56(s0)
ffffffc05040506a:	679c                	ld	a5,8(a5)
ffffffc05040506c:	08078793          	addi	a5,a5,128
ffffffc050405070:	853e                	mv	a0,a5
ffffffc050405072:	82dff0ef          	jal	ra,ffffffc05040489e <Xil_In32>
ffffffc050405076:	87aa                	mv	a5,a0
ffffffc050405078:	0007871b          	sext.w	a4,a5
ffffffc05040507c:	fd843783          	ld	a5,-40(s0)
ffffffc050405080:	c398                	sw	a4,0(a5)
ffffffc050405082:	fc843783          	ld	a5,-56(s0)
ffffffc050405086:	679c                	ld	a5,8(a5)
ffffffc050405088:	08478713          	addi	a4,a5,132
ffffffc05040508c:	fd843783          	ld	a5,-40(s0)
ffffffc050405090:	00478493          	addi	s1,a5,4
ffffffc050405094:	853a                	mv	a0,a4
ffffffc050405096:	809ff0ef          	jal	ra,ffffffc05040489e <Xil_In32>
ffffffc05040509a:	87aa                	mv	a5,a0
ffffffc05040509c:	2781                	sext.w	a5,a5
ffffffc05040509e:	c09c                	sw	a5,0(s1)
ffffffc0504050a0:	0001                	nop
ffffffc0504050a2:	70e2                	ld	ra,56(sp)
ffffffc0504050a4:	7442                	ld	s0,48(sp)
ffffffc0504050a6:	74a2                	ld	s1,40(sp)
ffffffc0504050a8:	6121                	addi	sp,sp,64
ffffffc0504050aa:	8082                	ret

ffffffc0504050ac <XEmacPs_SetTypeIdCheck>:
ffffffc0504050ac:	7179                	addi	sp,sp,-48
ffffffc0504050ae:	f406                	sd	ra,40(sp)
ffffffc0504050b0:	f022                	sd	s0,32(sp)
ffffffc0504050b2:	1800                	addi	s0,sp,48
ffffffc0504050b4:	fca43c23          	sd	a0,-40(s0)
ffffffc0504050b8:	87ae                	mv	a5,a1
ffffffc0504050ba:	8732                	mv	a4,a2
ffffffc0504050bc:	fcf42a23          	sw	a5,-44(s0)
ffffffc0504050c0:	87ba                	mv	a5,a4
ffffffc0504050c2:	fcf409a3          	sb	a5,-45(s0)
ffffffc0504050c6:	fd344783          	lbu	a5,-45(s0)
ffffffc0504050ca:	fef403a3          	sb	a5,-25(s0)
ffffffc0504050ce:	fd843783          	ld	a5,-40(s0)
ffffffc0504050d2:	4f9c                	lw	a5,24(a5)
ffffffc0504050d4:	873e                	mv	a4,a5
ffffffc0504050d6:	222227b7          	lui	a5,0x22222
ffffffc0504050da:	22278793          	addi	a5,a5,546 # 22222222 <_start-0xffffffc02e1dddde>
ffffffc0504050de:	00f71663          	bne	a4,a5,ffffffc0504050ea <XEmacPs_SetTypeIdCheck+0x3e>
ffffffc0504050e2:	4795                	li	a5,5
ffffffc0504050e4:	fef43423          	sd	a5,-24(s0)
ffffffc0504050e8:	a82d                	j	ffffffc050405122 <XEmacPs_SetTypeIdCheck+0x76>
ffffffc0504050ea:	fe744783          	lbu	a5,-25(s0)
ffffffc0504050ee:	37fd                	addiw	a5,a5,-1
ffffffc0504050f0:	fef403a3          	sb	a5,-25(s0)
ffffffc0504050f4:	fd843783          	ld	a5,-40(s0)
ffffffc0504050f8:	6798                	ld	a4,8(a5)
ffffffc0504050fa:	fe744783          	lbu	a5,-25(s0)
ffffffc0504050fe:	2781                	sext.w	a5,a5
ffffffc050405100:	02a7879b          	addiw	a5,a5,42
ffffffc050405104:	2781                	sext.w	a5,a5
ffffffc050405106:	0027979b          	slliw	a5,a5,0x2
ffffffc05040510a:	2781                	sext.w	a5,a5
ffffffc05040510c:	1782                	slli	a5,a5,0x20
ffffffc05040510e:	9381                	srli	a5,a5,0x20
ffffffc050405110:	97ba                	add	a5,a5,a4
ffffffc050405112:	fd442703          	lw	a4,-44(s0)
ffffffc050405116:	85ba                	mv	a1,a4
ffffffc050405118:	853e                	mv	a0,a5
ffffffc05040511a:	f58ff0ef          	jal	ra,ffffffc050404872 <Xil_Out32>
ffffffc05040511e:	fe043423          	sd	zero,-24(s0)
ffffffc050405122:	fe843783          	ld	a5,-24(s0)
ffffffc050405126:	853e                	mv	a0,a5
ffffffc050405128:	70a2                	ld	ra,40(sp)
ffffffc05040512a:	7402                	ld	s0,32(sp)
ffffffc05040512c:	6145                	addi	sp,sp,48
ffffffc05040512e:	8082                	ret

ffffffc050405130 <XEmacPs_SetOptions>:
ffffffc050405130:	7139                	addi	sp,sp,-64
ffffffc050405132:	fc06                	sd	ra,56(sp)
ffffffc050405134:	f822                	sd	s0,48(sp)
ffffffc050405136:	0080                	addi	s0,sp,64
ffffffc050405138:	fca43423          	sd	a0,-56(s0)
ffffffc05040513c:	87ae                	mv	a5,a1
ffffffc05040513e:	fcf42223          	sw	a5,-60(s0)
ffffffc050405142:	fc442783          	lw	a5,-60(s0)
ffffffc050405146:	85be                	mv	a1,a5
ffffffc050405148:	00008517          	auipc	a0,0x8
ffffffc05040514c:	e8050513          	addi	a0,a0,-384 # ffffffc05040cfc8 <__FUNCTION__.2047+0x48>
ffffffc050405150:	734070ef          	jal	ra,ffffffc05040c884 <printk>
ffffffc050405154:	fc843783          	ld	a5,-56(s0)
ffffffc050405158:	4f9c                	lw	a5,24(a5)
ffffffc05040515a:	873e                	mv	a4,a5
ffffffc05040515c:	222227b7          	lui	a5,0x22222
ffffffc050405160:	22278793          	addi	a5,a5,546 # 22222222 <_start-0xffffffc02e1dddde>
ffffffc050405164:	00f71663          	bne	a4,a5,ffffffc050405170 <XEmacPs_SetOptions+0x40>
ffffffc050405168:	4795                	li	a5,5
ffffffc05040516a:	fef43023          	sd	a5,-32(s0)
ffffffc05040516e:	a4c5                	j	ffffffc05040544e <XEmacPs_SetOptions+0x31e>
ffffffc050405170:	fc843783          	ld	a5,-56(s0)
ffffffc050405174:	679c                	ld	a5,8(a5)
ffffffc050405176:	0791                	addi	a5,a5,4
ffffffc050405178:	853e                	mv	a0,a5
ffffffc05040517a:	f24ff0ef          	jal	ra,ffffffc05040489e <Xil_In32>
ffffffc05040517e:	87aa                	mv	a5,a0
ffffffc050405180:	fcf42e23          	sw	a5,-36(s0)
ffffffc050405184:	fdc42783          	lw	a5,-36(s0)
ffffffc050405188:	fef42623          	sw	a5,-20(s0)
ffffffc05040518c:	fc442783          	lw	a5,-60(s0)
ffffffc050405190:	8b89                	andi	a5,a5,2
ffffffc050405192:	2781                	sext.w	a5,a5
ffffffc050405194:	c799                	beqz	a5,ffffffc0504051a2 <XEmacPs_SetOptions+0x72>
ffffffc050405196:	fec42783          	lw	a5,-20(s0)
ffffffc05040519a:	1007e793          	ori	a5,a5,256
ffffffc05040519e:	fef42623          	sw	a5,-20(s0)
ffffffc0504051a2:	fc442783          	lw	a5,-60(s0)
ffffffc0504051a6:	8b91                	andi	a5,a5,4
ffffffc0504051a8:	2781                	sext.w	a5,a5
ffffffc0504051aa:	c799                	beqz	a5,ffffffc0504051b8 <XEmacPs_SetOptions+0x88>
ffffffc0504051ac:	fec42783          	lw	a5,-20(s0)
ffffffc0504051b0:	0047e793          	ori	a5,a5,4
ffffffc0504051b4:	fef42623          	sw	a5,-20(s0)
ffffffc0504051b8:	fc442783          	lw	a5,-60(s0)
ffffffc0504051bc:	0207f793          	andi	a5,a5,32
ffffffc0504051c0:	2781                	sext.w	a5,a5
ffffffc0504051c2:	cb81                	beqz	a5,ffffffc0504051d2 <XEmacPs_SetOptions+0xa2>
ffffffc0504051c4:	fec42703          	lw	a4,-20(s0)
ffffffc0504051c8:	000207b7          	lui	a5,0x20
ffffffc0504051cc:	8fd9                	or	a5,a5,a4
ffffffc0504051ce:	fef42623          	sw	a5,-20(s0)
ffffffc0504051d2:	fc442783          	lw	a5,-60(s0)
ffffffc0504051d6:	0807f793          	andi	a5,a5,128
ffffffc0504051da:	2781                	sext.w	a5,a5
ffffffc0504051dc:	c799                	beqz	a5,ffffffc0504051ea <XEmacPs_SetOptions+0xba>
ffffffc0504051de:	fec42703          	lw	a4,-20(s0)
ffffffc0504051e2:	67c1                	lui	a5,0x10
ffffffc0504051e4:	8fd9                	or	a5,a5,a4
ffffffc0504051e6:	fef42623          	sw	a5,-20(s0)
ffffffc0504051ea:	fc442783          	lw	a5,-60(s0)
ffffffc0504051ee:	8bc1                	andi	a5,a5,16
ffffffc0504051f0:	2781                	sext.w	a5,a5
ffffffc0504051f2:	c799                	beqz	a5,ffffffc050405200 <XEmacPs_SetOptions+0xd0>
ffffffc0504051f4:	fec42703          	lw	a4,-20(s0)
ffffffc0504051f8:	6789                	lui	a5,0x2
ffffffc0504051fa:	8fd9                	or	a5,a5,a4
ffffffc0504051fc:	fef42623          	sw	a5,-20(s0)
ffffffc050405200:	fc442783          	lw	a5,-60(s0)
ffffffc050405204:	8b85                	andi	a5,a5,1
ffffffc050405206:	2781                	sext.w	a5,a5
ffffffc050405208:	c799                	beqz	a5,ffffffc050405216 <XEmacPs_SetOptions+0xe6>
ffffffc05040520a:	fec42783          	lw	a5,-20(s0)
ffffffc05040520e:	0107e793          	ori	a5,a5,16
ffffffc050405212:	fef42623          	sw	a5,-20(s0)
ffffffc050405216:	fc442783          	lw	a5,-60(s0)
ffffffc05040521a:	4007f793          	andi	a5,a5,1024
ffffffc05040521e:	2781                	sext.w	a5,a5
ffffffc050405220:	c799                	beqz	a5,ffffffc05040522e <XEmacPs_SetOptions+0xfe>
ffffffc050405222:	fec42783          	lw	a5,-20(s0)
ffffffc050405226:	fdf7f793          	andi	a5,a5,-33
ffffffc05040522a:	fef42623          	sw	a5,-20(s0)
ffffffc05040522e:	fc442703          	lw	a4,-60(s0)
ffffffc050405232:	6785                	lui	a5,0x1
ffffffc050405234:	80078793          	addi	a5,a5,-2048 # 800 <_start-0xffffffc0503ff800>
ffffffc050405238:	8ff9                	and	a5,a5,a4
ffffffc05040523a:	2781                	sext.w	a5,a5
ffffffc05040523c:	c799                	beqz	a5,ffffffc05040524a <XEmacPs_SetOptions+0x11a>
ffffffc05040523e:	fec42783          	lw	a5,-20(s0)
ffffffc050405242:	0407e793          	ori	a5,a5,64
ffffffc050405246:	fef42623          	sw	a5,-20(s0)
ffffffc05040524a:	fc442703          	lw	a4,-60(s0)
ffffffc05040524e:	6785                	lui	a5,0x1
ffffffc050405250:	8ff9                	and	a5,a5,a4
ffffffc050405252:	2781                	sext.w	a5,a5
ffffffc050405254:	cb81                	beqz	a5,ffffffc050405264 <XEmacPs_SetOptions+0x134>
ffffffc050405256:	fec42703          	lw	a4,-20(s0)
ffffffc05040525a:	010007b7          	lui	a5,0x1000
ffffffc05040525e:	8fd9                	or	a5,a5,a4
ffffffc050405260:	fef42623          	sw	a5,-20(s0)
ffffffc050405264:	fc442703          	lw	a4,-60(s0)
ffffffc050405268:	6791                	lui	a5,0x4
ffffffc05040526a:	8ff9                	and	a5,a5,a4
ffffffc05040526c:	2781                	sext.w	a5,a5
ffffffc05040526e:	cfc5                	beqz	a5,ffffffc050405326 <XEmacPs_SetOptions+0x1f6>
ffffffc050405270:	fc843783          	ld	a5,-56(s0)
ffffffc050405274:	1387a783          	lw	a5,312(a5) # 4138 <_start-0xffffffc0503fbec8>
ffffffc050405278:	873e                	mv	a4,a5
ffffffc05040527a:	4789                	li	a5,2
ffffffc05040527c:	0ae7f563          	bgeu	a5,a4,ffffffc050405326 <XEmacPs_SetOptions+0x1f6>
ffffffc050405280:	fec42783          	lw	a5,-20(s0)
ffffffc050405284:	0087e793          	ori	a5,a5,8
ffffffc050405288:	fef42623          	sw	a5,-20(s0)
ffffffc05040528c:	fc843783          	ld	a5,-56(s0)
ffffffc050405290:	679c                	ld	a5,8(a5)
ffffffc050405292:	04878713          	addi	a4,a5,72
ffffffc050405296:	678d                	lui	a5,0x3
ffffffc050405298:	80078593          	addi	a1,a5,-2048 # 2800 <_start-0xffffffc0503fd800>
ffffffc05040529c:	853a                	mv	a0,a4
ffffffc05040529e:	dd4ff0ef          	jal	ra,ffffffc050404872 <Xil_Out32>
ffffffc0504052a2:	fc843783          	ld	a5,-56(s0)
ffffffc0504052a6:	679c                	ld	a5,8(a5)
ffffffc0504052a8:	07c1                	addi	a5,a5,16
ffffffc0504052aa:	853e                	mv	a0,a5
ffffffc0504052ac:	df2ff0ef          	jal	ra,ffffffc05040489e <Xil_In32>
ffffffc0504052b0:	87aa                	mv	a5,a0
ffffffc0504052b2:	fcf42c23          	sw	a5,-40(s0)
ffffffc0504052b6:	fd842703          	lw	a4,-40(s0)
ffffffc0504052ba:	ff0107b7          	lui	a5,0xff010
ffffffc0504052be:	17fd                	addi	a5,a5,-1
ffffffc0504052c0:	8ff9                	and	a5,a5,a4
ffffffc0504052c2:	fcf42c23          	sw	a5,-40(s0)
ffffffc0504052c6:	fd842703          	lw	a4,-40(s0)
ffffffc0504052ca:	00a007b7          	lui	a5,0xa00
ffffffc0504052ce:	8fd9                	or	a5,a5,a4
ffffffc0504052d0:	fcf42c23          	sw	a5,-40(s0)
ffffffc0504052d4:	fc843783          	ld	a5,-56(s0)
ffffffc0504052d8:	679c                	ld	a5,8(a5)
ffffffc0504052da:	07c1                	addi	a5,a5,16
ffffffc0504052dc:	fd842703          	lw	a4,-40(s0)
ffffffc0504052e0:	85ba                	mv	a1,a4
ffffffc0504052e2:	853e                	mv	a0,a5
ffffffc0504052e4:	d8eff0ef          	jal	ra,ffffffc050404872 <Xil_Out32>
ffffffc0504052e8:	fc843783          	ld	a5,-56(s0)
ffffffc0504052ec:	670d                	lui	a4,0x3
ffffffc0504052ee:	80070713          	addi	a4,a4,-2048 # 2800 <_start-0xffffffc0503fd800>
ffffffc0504052f2:	14e7a023          	sw	a4,320(a5) # a00140 <_start-0xffffffc04f9ffec0>
ffffffc0504052f6:	fc843783          	ld	a5,-56(s0)
ffffffc0504052fa:	670d                	lui	a4,0x3
ffffffc0504052fc:	81270713          	addi	a4,a4,-2030 # 2812 <_start-0xffffffc0503fd7ee>
ffffffc050405300:	14e7a223          	sw	a4,324(a5)
ffffffc050405304:	fc843783          	ld	a5,-56(s0)
ffffffc050405308:	1447a783          	lw	a5,324(a5)
ffffffc05040530c:	27c9                	addiw	a5,a5,18
ffffffc05040530e:	0007871b          	sext.w	a4,a5
ffffffc050405312:	fc843783          	ld	a5,-56(s0)
ffffffc050405316:	14e7a423          	sw	a4,328(a5)
ffffffc05040531a:	fc843783          	ld	a5,-56(s0)
ffffffc05040531e:	6711                	lui	a4,0x4
ffffffc050405320:	177d                	addi	a4,a4,-1
ffffffc050405322:	12e7ae23          	sw	a4,316(a5)
ffffffc050405326:	fc442703          	lw	a4,-60(s0)
ffffffc05040532a:	67a1                	lui	a5,0x8
ffffffc05040532c:	8ff9                	and	a5,a5,a4
ffffffc05040532e:	2781                	sext.w	a5,a5
ffffffc050405330:	c395                	beqz	a5,ffffffc050405354 <XEmacPs_SetOptions+0x224>
ffffffc050405332:	fc843783          	ld	a5,-56(s0)
ffffffc050405336:	1387a783          	lw	a5,312(a5) # 8138 <_start-0xffffffc0503f7ec8>
ffffffc05040533a:	873e                	mv	a4,a5
ffffffc05040533c:	4789                	li	a5,2
ffffffc05040533e:	00e7fb63          	bgeu	a5,a4,ffffffc050405354 <XEmacPs_SetOptions+0x224>
ffffffc050405342:	fec42703          	lw	a4,-20(s0)
ffffffc050405346:	080017b7          	lui	a5,0x8001
ffffffc05040534a:	80078793          	addi	a5,a5,-2048 # 8000800 <_start-0xffffffc0483ff800>
ffffffc05040534e:	8fd9                	or	a5,a5,a4
ffffffc050405350:	fef42623          	sw	a5,-20(s0)
ffffffc050405354:	fdc42703          	lw	a4,-36(s0)
ffffffc050405358:	fec42783          	lw	a5,-20(s0)
ffffffc05040535c:	2701                	sext.w	a4,a4
ffffffc05040535e:	2781                	sext.w	a5,a5
ffffffc050405360:	00f70c63          	beq	a4,a5,ffffffc050405378 <XEmacPs_SetOptions+0x248>
ffffffc050405364:	fc843783          	ld	a5,-56(s0)
ffffffc050405368:	679c                	ld	a5,8(a5)
ffffffc05040536a:	0791                	addi	a5,a5,4
ffffffc05040536c:	fec42703          	lw	a4,-20(s0)
ffffffc050405370:	85ba                	mv	a1,a4
ffffffc050405372:	853e                	mv	a0,a5
ffffffc050405374:	cfeff0ef          	jal	ra,ffffffc050404872 <Xil_Out32>
ffffffc050405378:	fc442703          	lw	a4,-60(s0)
ffffffc05040537c:	6789                	lui	a5,0x2
ffffffc05040537e:	8ff9                	and	a5,a5,a4
ffffffc050405380:	2781                	sext.w	a5,a5
ffffffc050405382:	cf8d                	beqz	a5,ffffffc0504053bc <XEmacPs_SetOptions+0x28c>
ffffffc050405384:	fc843783          	ld	a5,-56(s0)
ffffffc050405388:	679c                	ld	a5,8(a5)
ffffffc05040538a:	07c1                	addi	a5,a5,16
ffffffc05040538c:	853e                	mv	a0,a5
ffffffc05040538e:	d10ff0ef          	jal	ra,ffffffc05040489e <Xil_In32>
ffffffc050405392:	87aa                	mv	a5,a0
ffffffc050405394:	fcf42c23          	sw	a5,-40(s0)
ffffffc050405398:	fd842703          	lw	a4,-40(s0)
ffffffc05040539c:	6785                	lui	a5,0x1
ffffffc05040539e:	80078793          	addi	a5,a5,-2048 # 800 <_start-0xffffffc0503ff800>
ffffffc0504053a2:	8fd9                	or	a5,a5,a4
ffffffc0504053a4:	fcf42c23          	sw	a5,-40(s0)
ffffffc0504053a8:	fc843783          	ld	a5,-56(s0)
ffffffc0504053ac:	679c                	ld	a5,8(a5)
ffffffc0504053ae:	07c1                	addi	a5,a5,16
ffffffc0504053b0:	fd842703          	lw	a4,-40(s0)
ffffffc0504053b4:	85ba                	mv	a1,a4
ffffffc0504053b6:	853e                	mv	a0,a5
ffffffc0504053b8:	cbaff0ef          	jal	ra,ffffffc050404872 <Xil_Out32>
ffffffc0504053bc:	fc442783          	lw	a5,-60(s0)
ffffffc0504053c0:	1007f793          	andi	a5,a5,256
ffffffc0504053c4:	2781                	sext.w	a5,a5
ffffffc0504053c6:	cb8d                	beqz	a5,ffffffc0504053f8 <XEmacPs_SetOptions+0x2c8>
ffffffc0504053c8:	fc843783          	ld	a5,-56(s0)
ffffffc0504053cc:	679c                	ld	a5,8(a5)
ffffffc0504053ce:	853e                	mv	a0,a5
ffffffc0504053d0:	cceff0ef          	jal	ra,ffffffc05040489e <Xil_In32>
ffffffc0504053d4:	87aa                	mv	a5,a0
ffffffc0504053d6:	fcf42c23          	sw	a5,-40(s0)
ffffffc0504053da:	fd842783          	lw	a5,-40(s0)
ffffffc0504053de:	0087e793          	ori	a5,a5,8
ffffffc0504053e2:	fcf42c23          	sw	a5,-40(s0)
ffffffc0504053e6:	fc843783          	ld	a5,-56(s0)
ffffffc0504053ea:	679c                	ld	a5,8(a5)
ffffffc0504053ec:	fd842703          	lw	a4,-40(s0)
ffffffc0504053f0:	85ba                	mv	a1,a4
ffffffc0504053f2:	853e                	mv	a0,a5
ffffffc0504053f4:	c7eff0ef          	jal	ra,ffffffc050404872 <Xil_Out32>
ffffffc0504053f8:	fc442783          	lw	a5,-60(s0)
ffffffc0504053fc:	2007f793          	andi	a5,a5,512
ffffffc050405400:	2781                	sext.w	a5,a5
ffffffc050405402:	cb8d                	beqz	a5,ffffffc050405434 <XEmacPs_SetOptions+0x304>
ffffffc050405404:	fc843783          	ld	a5,-56(s0)
ffffffc050405408:	679c                	ld	a5,8(a5)
ffffffc05040540a:	853e                	mv	a0,a5
ffffffc05040540c:	c92ff0ef          	jal	ra,ffffffc05040489e <Xil_In32>
ffffffc050405410:	87aa                	mv	a5,a0
ffffffc050405412:	fcf42c23          	sw	a5,-40(s0)
ffffffc050405416:	fd842783          	lw	a5,-40(s0)
ffffffc05040541a:	0047e793          	ori	a5,a5,4
ffffffc05040541e:	fcf42c23          	sw	a5,-40(s0)
ffffffc050405422:	fc843783          	ld	a5,-56(s0)
ffffffc050405426:	679c                	ld	a5,8(a5)
ffffffc050405428:	fd842703          	lw	a4,-40(s0)
ffffffc05040542c:	85ba                	mv	a1,a4
ffffffc05040542e:	853e                	mv	a0,a5
ffffffc050405430:	c42ff0ef          	jal	ra,ffffffc050404872 <Xil_Out32>
ffffffc050405434:	fc843783          	ld	a5,-56(s0)
ffffffc050405438:	5398                	lw	a4,32(a5)
ffffffc05040543a:	fc442783          	lw	a5,-60(s0)
ffffffc05040543e:	8fd9                	or	a5,a5,a4
ffffffc050405440:	0007871b          	sext.w	a4,a5
ffffffc050405444:	fc843783          	ld	a5,-56(s0)
ffffffc050405448:	d398                	sw	a4,32(a5)
ffffffc05040544a:	fe043023          	sd	zero,-32(s0)
ffffffc05040544e:	fe043783          	ld	a5,-32(s0)
ffffffc050405452:	853e                	mv	a0,a5
ffffffc050405454:	70e2                	ld	ra,56(sp)
ffffffc050405456:	7442                	ld	s0,48(sp)
ffffffc050405458:	6121                	addi	sp,sp,64
ffffffc05040545a:	8082                	ret

ffffffc05040545c <XEmacPs_ClearOptions>:
ffffffc05040545c:	7139                	addi	sp,sp,-64
ffffffc05040545e:	fc06                	sd	ra,56(sp)
ffffffc050405460:	f822                	sd	s0,48(sp)
ffffffc050405462:	0080                	addi	s0,sp,64
ffffffc050405464:	fca43423          	sd	a0,-56(s0)
ffffffc050405468:	87ae                	mv	a5,a1
ffffffc05040546a:	fcf42223          	sw	a5,-60(s0)
ffffffc05040546e:	fc843783          	ld	a5,-56(s0)
ffffffc050405472:	4f9c                	lw	a5,24(a5)
ffffffc050405474:	873e                	mv	a4,a5
ffffffc050405476:	222227b7          	lui	a5,0x22222
ffffffc05040547a:	22278793          	addi	a5,a5,546 # 22222222 <_start-0xffffffc02e1dddde>
ffffffc05040547e:	00f71663          	bne	a4,a5,ffffffc05040548a <XEmacPs_ClearOptions+0x2e>
ffffffc050405482:	4795                	li	a5,5
ffffffc050405484:	fef43023          	sd	a5,-32(s0)
ffffffc050405488:	a4e1                	j	ffffffc050405750 <XEmacPs_ClearOptions+0x2f4>
ffffffc05040548a:	fc843783          	ld	a5,-56(s0)
ffffffc05040548e:	679c                	ld	a5,8(a5)
ffffffc050405490:	0791                	addi	a5,a5,4
ffffffc050405492:	853e                	mv	a0,a5
ffffffc050405494:	c0aff0ef          	jal	ra,ffffffc05040489e <Xil_In32>
ffffffc050405498:	87aa                	mv	a5,a0
ffffffc05040549a:	fcf42e23          	sw	a5,-36(s0)
ffffffc05040549e:	fdc42783          	lw	a5,-36(s0)
ffffffc0504054a2:	fef42623          	sw	a5,-20(s0)
ffffffc0504054a6:	fc442783          	lw	a5,-60(s0)
ffffffc0504054aa:	8b89                	andi	a5,a5,2
ffffffc0504054ac:	2781                	sext.w	a5,a5
ffffffc0504054ae:	c799                	beqz	a5,ffffffc0504054bc <XEmacPs_ClearOptions+0x60>
ffffffc0504054b0:	fec42783          	lw	a5,-20(s0)
ffffffc0504054b4:	eff7f793          	andi	a5,a5,-257
ffffffc0504054b8:	fef42623          	sw	a5,-20(s0)
ffffffc0504054bc:	fc442783          	lw	a5,-60(s0)
ffffffc0504054c0:	8b91                	andi	a5,a5,4
ffffffc0504054c2:	2781                	sext.w	a5,a5
ffffffc0504054c4:	c791                	beqz	a5,ffffffc0504054d0 <XEmacPs_ClearOptions+0x74>
ffffffc0504054c6:	fec42783          	lw	a5,-20(s0)
ffffffc0504054ca:	9bed                	andi	a5,a5,-5
ffffffc0504054cc:	fef42623          	sw	a5,-20(s0)
ffffffc0504054d0:	fc442783          	lw	a5,-60(s0)
ffffffc0504054d4:	0207f793          	andi	a5,a5,32
ffffffc0504054d8:	2781                	sext.w	a5,a5
ffffffc0504054da:	cb81                	beqz	a5,ffffffc0504054ea <XEmacPs_ClearOptions+0x8e>
ffffffc0504054dc:	fec42703          	lw	a4,-20(s0)
ffffffc0504054e0:	7781                	lui	a5,0xfffe0
ffffffc0504054e2:	17fd                	addi	a5,a5,-1
ffffffc0504054e4:	8ff9                	and	a5,a5,a4
ffffffc0504054e6:	fef42623          	sw	a5,-20(s0)
ffffffc0504054ea:	fc442783          	lw	a5,-60(s0)
ffffffc0504054ee:	0807f793          	andi	a5,a5,128
ffffffc0504054f2:	2781                	sext.w	a5,a5
ffffffc0504054f4:	cb81                	beqz	a5,ffffffc050405504 <XEmacPs_ClearOptions+0xa8>
ffffffc0504054f6:	fec42703          	lw	a4,-20(s0)
ffffffc0504054fa:	77c1                	lui	a5,0xffff0
ffffffc0504054fc:	17fd                	addi	a5,a5,-1
ffffffc0504054fe:	8ff9                	and	a5,a5,a4
ffffffc050405500:	fef42623          	sw	a5,-20(s0)
ffffffc050405504:	fc442783          	lw	a5,-60(s0)
ffffffc050405508:	8bc1                	andi	a5,a5,16
ffffffc05040550a:	2781                	sext.w	a5,a5
ffffffc05040550c:	cb81                	beqz	a5,ffffffc05040551c <XEmacPs_ClearOptions+0xc0>
ffffffc05040550e:	fec42703          	lw	a4,-20(s0)
ffffffc050405512:	77f9                	lui	a5,0xffffe
ffffffc050405514:	17fd                	addi	a5,a5,-1
ffffffc050405516:	8ff9                	and	a5,a5,a4
ffffffc050405518:	fef42623          	sw	a5,-20(s0)
ffffffc05040551c:	fc442783          	lw	a5,-60(s0)
ffffffc050405520:	8b85                	andi	a5,a5,1
ffffffc050405522:	2781                	sext.w	a5,a5
ffffffc050405524:	c791                	beqz	a5,ffffffc050405530 <XEmacPs_ClearOptions+0xd4>
ffffffc050405526:	fec42783          	lw	a5,-20(s0)
ffffffc05040552a:	9bbd                	andi	a5,a5,-17
ffffffc05040552c:	fef42623          	sw	a5,-20(s0)
ffffffc050405530:	fc442783          	lw	a5,-60(s0)
ffffffc050405534:	4007f793          	andi	a5,a5,1024
ffffffc050405538:	2781                	sext.w	a5,a5
ffffffc05040553a:	c799                	beqz	a5,ffffffc050405548 <XEmacPs_ClearOptions+0xec>
ffffffc05040553c:	fec42783          	lw	a5,-20(s0)
ffffffc050405540:	0207e793          	ori	a5,a5,32
ffffffc050405544:	fef42623          	sw	a5,-20(s0)
ffffffc050405548:	fc442703          	lw	a4,-60(s0)
ffffffc05040554c:	6785                	lui	a5,0x1
ffffffc05040554e:	80078793          	addi	a5,a5,-2048 # 800 <_start-0xffffffc0503ff800>
ffffffc050405552:	8ff9                	and	a5,a5,a4
ffffffc050405554:	2781                	sext.w	a5,a5
ffffffc050405556:	c799                	beqz	a5,ffffffc050405564 <XEmacPs_ClearOptions+0x108>
ffffffc050405558:	fec42783          	lw	a5,-20(s0)
ffffffc05040555c:	fbf7f793          	andi	a5,a5,-65
ffffffc050405560:	fef42623          	sw	a5,-20(s0)
ffffffc050405564:	fc442703          	lw	a4,-60(s0)
ffffffc050405568:	6785                	lui	a5,0x1
ffffffc05040556a:	8ff9                	and	a5,a5,a4
ffffffc05040556c:	2781                	sext.w	a5,a5
ffffffc05040556e:	cb89                	beqz	a5,ffffffc050405580 <XEmacPs_ClearOptions+0x124>
ffffffc050405570:	fec42703          	lw	a4,-20(s0)
ffffffc050405574:	ff0007b7          	lui	a5,0xff000
ffffffc050405578:	17fd                	addi	a5,a5,-1
ffffffc05040557a:	8ff9                	and	a5,a5,a4
ffffffc05040557c:	fef42623          	sw	a5,-20(s0)
ffffffc050405580:	fc442703          	lw	a4,-60(s0)
ffffffc050405584:	6791                	lui	a5,0x4
ffffffc050405586:	8ff9                	and	a5,a5,a4
ffffffc050405588:	2781                	sext.w	a5,a5
ffffffc05040558a:	cfd1                	beqz	a5,ffffffc050405626 <XEmacPs_ClearOptions+0x1ca>
ffffffc05040558c:	fc843783          	ld	a5,-56(s0)
ffffffc050405590:	1387a783          	lw	a5,312(a5) # 4138 <_start-0xffffffc0503fbec8>
ffffffc050405594:	873e                	mv	a4,a5
ffffffc050405596:	4789                	li	a5,2
ffffffc050405598:	08e7f763          	bgeu	a5,a4,ffffffc050405626 <XEmacPs_ClearOptions+0x1ca>
ffffffc05040559c:	fec42783          	lw	a5,-20(s0)
ffffffc0504055a0:	9bdd                	andi	a5,a5,-9
ffffffc0504055a2:	fef42623          	sw	a5,-20(s0)
ffffffc0504055a6:	fc843783          	ld	a5,-56(s0)
ffffffc0504055aa:	679c                	ld	a5,8(a5)
ffffffc0504055ac:	07c1                	addi	a5,a5,16
ffffffc0504055ae:	853e                	mv	a0,a5
ffffffc0504055b0:	aeeff0ef          	jal	ra,ffffffc05040489e <Xil_In32>
ffffffc0504055b4:	87aa                	mv	a5,a0
ffffffc0504055b6:	fcf42c23          	sw	a5,-40(s0)
ffffffc0504055ba:	fd842703          	lw	a4,-40(s0)
ffffffc0504055be:	ff0107b7          	lui	a5,0xff010
ffffffc0504055c2:	17fd                	addi	a5,a5,-1
ffffffc0504055c4:	8ff9                	and	a5,a5,a4
ffffffc0504055c6:	fcf42c23          	sw	a5,-40(s0)
ffffffc0504055ca:	fd842703          	lw	a4,-40(s0)
ffffffc0504055ce:	001807b7          	lui	a5,0x180
ffffffc0504055d2:	8fd9                	or	a5,a5,a4
ffffffc0504055d4:	fcf42c23          	sw	a5,-40(s0)
ffffffc0504055d8:	fc843783          	ld	a5,-56(s0)
ffffffc0504055dc:	679c                	ld	a5,8(a5)
ffffffc0504055de:	07c1                	addi	a5,a5,16
ffffffc0504055e0:	fd842703          	lw	a4,-40(s0)
ffffffc0504055e4:	85ba                	mv	a1,a4
ffffffc0504055e6:	853e                	mv	a0,a5
ffffffc0504055e8:	a8aff0ef          	jal	ra,ffffffc050404872 <Xil_Out32>
ffffffc0504055ec:	fc843783          	ld	a5,-56(s0)
ffffffc0504055f0:	5dc00713          	li	a4,1500
ffffffc0504055f4:	14e7a023          	sw	a4,320(a5) # 180140 <_start-0xffffffc05027fec0>
ffffffc0504055f8:	fc843783          	ld	a5,-56(s0)
ffffffc0504055fc:	5ee00713          	li	a4,1518
ffffffc050405600:	14e7a223          	sw	a4,324(a5)
ffffffc050405604:	fc843783          	ld	a5,-56(s0)
ffffffc050405608:	1447a783          	lw	a5,324(a5)
ffffffc05040560c:	27c9                	addiw	a5,a5,18
ffffffc05040560e:	0007871b          	sext.w	a4,a5
ffffffc050405612:	fc843783          	ld	a5,-56(s0)
ffffffc050405616:	14e7a423          	sw	a4,328(a5)
ffffffc05040561a:	fc843783          	ld	a5,-56(s0)
ffffffc05040561e:	6709                	lui	a4,0x2
ffffffc050405620:	177d                	addi	a4,a4,-1
ffffffc050405622:	12e7ae23          	sw	a4,316(a5)
ffffffc050405626:	fc442703          	lw	a4,-60(s0)
ffffffc05040562a:	67a1                	lui	a5,0x8
ffffffc05040562c:	8ff9                	and	a5,a5,a4
ffffffc05040562e:	2781                	sext.w	a5,a5
ffffffc050405630:	c395                	beqz	a5,ffffffc050405654 <XEmacPs_ClearOptions+0x1f8>
ffffffc050405632:	fc843783          	ld	a5,-56(s0)
ffffffc050405636:	1387a783          	lw	a5,312(a5) # 8138 <_start-0xffffffc0503f7ec8>
ffffffc05040563a:	873e                	mv	a4,a5
ffffffc05040563c:	4789                	li	a5,2
ffffffc05040563e:	00e7fb63          	bgeu	a5,a4,ffffffc050405654 <XEmacPs_ClearOptions+0x1f8>
ffffffc050405642:	fec42703          	lw	a4,-20(s0)
ffffffc050405646:	f7fff7b7          	lui	a5,0xf7fff
ffffffc05040564a:	7ff78793          	addi	a5,a5,2047 # fffffffff7fff7ff <__BSS_END__+0x3fa73fc8df>
ffffffc05040564e:	8ff9                	and	a5,a5,a4
ffffffc050405650:	fef42623          	sw	a5,-20(s0)
ffffffc050405654:	fdc42703          	lw	a4,-36(s0)
ffffffc050405658:	fec42783          	lw	a5,-20(s0)
ffffffc05040565c:	2701                	sext.w	a4,a4
ffffffc05040565e:	2781                	sext.w	a5,a5
ffffffc050405660:	00f70c63          	beq	a4,a5,ffffffc050405678 <XEmacPs_ClearOptions+0x21c>
ffffffc050405664:	fc843783          	ld	a5,-56(s0)
ffffffc050405668:	679c                	ld	a5,8(a5)
ffffffc05040566a:	0791                	addi	a5,a5,4
ffffffc05040566c:	fec42703          	lw	a4,-20(s0)
ffffffc050405670:	85ba                	mv	a1,a4
ffffffc050405672:	853e                	mv	a0,a5
ffffffc050405674:	9feff0ef          	jal	ra,ffffffc050404872 <Xil_Out32>
ffffffc050405678:	fc442703          	lw	a4,-60(s0)
ffffffc05040567c:	6789                	lui	a5,0x2
ffffffc05040567e:	8ff9                	and	a5,a5,a4
ffffffc050405680:	2781                	sext.w	a5,a5
ffffffc050405682:	cf8d                	beqz	a5,ffffffc0504056bc <XEmacPs_ClearOptions+0x260>
ffffffc050405684:	fc843783          	ld	a5,-56(s0)
ffffffc050405688:	679c                	ld	a5,8(a5)
ffffffc05040568a:	07c1                	addi	a5,a5,16
ffffffc05040568c:	853e                	mv	a0,a5
ffffffc05040568e:	a10ff0ef          	jal	ra,ffffffc05040489e <Xil_In32>
ffffffc050405692:	87aa                	mv	a5,a0
ffffffc050405694:	fcf42c23          	sw	a5,-40(s0)
ffffffc050405698:	fd842703          	lw	a4,-40(s0)
ffffffc05040569c:	77fd                	lui	a5,0xfffff
ffffffc05040569e:	7ff78793          	addi	a5,a5,2047 # fffffffffffff7ff <__BSS_END__+0x3faf3fc8df>
ffffffc0504056a2:	8ff9                	and	a5,a5,a4
ffffffc0504056a4:	fcf42c23          	sw	a5,-40(s0)
ffffffc0504056a8:	fc843783          	ld	a5,-56(s0)
ffffffc0504056ac:	679c                	ld	a5,8(a5)
ffffffc0504056ae:	07c1                	addi	a5,a5,16
ffffffc0504056b0:	fd842703          	lw	a4,-40(s0)
ffffffc0504056b4:	85ba                	mv	a1,a4
ffffffc0504056b6:	853e                	mv	a0,a5
ffffffc0504056b8:	9baff0ef          	jal	ra,ffffffc050404872 <Xil_Out32>
ffffffc0504056bc:	fc442783          	lw	a5,-60(s0)
ffffffc0504056c0:	1007f793          	andi	a5,a5,256
ffffffc0504056c4:	2781                	sext.w	a5,a5
ffffffc0504056c6:	cb85                	beqz	a5,ffffffc0504056f6 <XEmacPs_ClearOptions+0x29a>
ffffffc0504056c8:	fc843783          	ld	a5,-56(s0)
ffffffc0504056cc:	679c                	ld	a5,8(a5)
ffffffc0504056ce:	853e                	mv	a0,a5
ffffffc0504056d0:	9ceff0ef          	jal	ra,ffffffc05040489e <Xil_In32>
ffffffc0504056d4:	87aa                	mv	a5,a0
ffffffc0504056d6:	fcf42c23          	sw	a5,-40(s0)
ffffffc0504056da:	fd842783          	lw	a5,-40(s0)
ffffffc0504056de:	9bdd                	andi	a5,a5,-9
ffffffc0504056e0:	fcf42c23          	sw	a5,-40(s0)
ffffffc0504056e4:	fc843783          	ld	a5,-56(s0)
ffffffc0504056e8:	679c                	ld	a5,8(a5)
ffffffc0504056ea:	fd842703          	lw	a4,-40(s0)
ffffffc0504056ee:	85ba                	mv	a1,a4
ffffffc0504056f0:	853e                	mv	a0,a5
ffffffc0504056f2:	980ff0ef          	jal	ra,ffffffc050404872 <Xil_Out32>
ffffffc0504056f6:	fc442783          	lw	a5,-60(s0)
ffffffc0504056fa:	2007f793          	andi	a5,a5,512
ffffffc0504056fe:	2781                	sext.w	a5,a5
ffffffc050405700:	cb85                	beqz	a5,ffffffc050405730 <XEmacPs_ClearOptions+0x2d4>
ffffffc050405702:	fc843783          	ld	a5,-56(s0)
ffffffc050405706:	679c                	ld	a5,8(a5)
ffffffc050405708:	853e                	mv	a0,a5
ffffffc05040570a:	994ff0ef          	jal	ra,ffffffc05040489e <Xil_In32>
ffffffc05040570e:	87aa                	mv	a5,a0
ffffffc050405710:	fcf42c23          	sw	a5,-40(s0)
ffffffc050405714:	fd842783          	lw	a5,-40(s0)
ffffffc050405718:	9bed                	andi	a5,a5,-5
ffffffc05040571a:	fcf42c23          	sw	a5,-40(s0)
ffffffc05040571e:	fc843783          	ld	a5,-56(s0)
ffffffc050405722:	679c                	ld	a5,8(a5)
ffffffc050405724:	fd842703          	lw	a4,-40(s0)
ffffffc050405728:	85ba                	mv	a1,a4
ffffffc05040572a:	853e                	mv	a0,a5
ffffffc05040572c:	946ff0ef          	jal	ra,ffffffc050404872 <Xil_Out32>
ffffffc050405730:	fc843783          	ld	a5,-56(s0)
ffffffc050405734:	5398                	lw	a4,32(a5)
ffffffc050405736:	fc442783          	lw	a5,-60(s0)
ffffffc05040573a:	fff7c793          	not	a5,a5
ffffffc05040573e:	2781                	sext.w	a5,a5
ffffffc050405740:	8ff9                	and	a5,a5,a4
ffffffc050405742:	0007871b          	sext.w	a4,a5
ffffffc050405746:	fc843783          	ld	a5,-56(s0)
ffffffc05040574a:	d398                	sw	a4,32(a5)
ffffffc05040574c:	fe043023          	sd	zero,-32(s0)
ffffffc050405750:	fe043783          	ld	a5,-32(s0)
ffffffc050405754:	853e                	mv	a0,a5
ffffffc050405756:	70e2                	ld	ra,56(sp)
ffffffc050405758:	7442                	ld	s0,48(sp)
ffffffc05040575a:	6121                	addi	sp,sp,64
ffffffc05040575c:	8082                	ret

ffffffc05040575e <XEmacPs_GetOptions>:
ffffffc05040575e:	1101                	addi	sp,sp,-32
ffffffc050405760:	ec22                	sd	s0,24(sp)
ffffffc050405762:	1000                	addi	s0,sp,32
ffffffc050405764:	fea43423          	sd	a0,-24(s0)
ffffffc050405768:	fe843783          	ld	a5,-24(s0)
ffffffc05040576c:	539c                	lw	a5,32(a5)
ffffffc05040576e:	853e                	mv	a0,a5
ffffffc050405770:	6462                	ld	s0,24(sp)
ffffffc050405772:	6105                	addi	sp,sp,32
ffffffc050405774:	8082                	ret

ffffffc050405776 <XEmacPs_SendPausePacket>:
ffffffc050405776:	7179                	addi	sp,sp,-48
ffffffc050405778:	f406                	sd	ra,40(sp)
ffffffc05040577a:	f022                	sd	s0,32(sp)
ffffffc05040577c:	1800                	addi	s0,sp,48
ffffffc05040577e:	fca43c23          	sd	a0,-40(s0)
ffffffc050405782:	fd843783          	ld	a5,-40(s0)
ffffffc050405786:	4f9c                	lw	a5,24(a5)
ffffffc050405788:	873e                	mv	a4,a5
ffffffc05040578a:	222227b7          	lui	a5,0x22222
ffffffc05040578e:	22278793          	addi	a5,a5,546 # 22222222 <_start-0xffffffc02e1dddde>
ffffffc050405792:	00f70663          	beq	a4,a5,ffffffc05040579e <XEmacPs_SendPausePacket+0x28>
ffffffc050405796:	4799                	li	a5,6
ffffffc050405798:	fef43423          	sd	a5,-24(s0)
ffffffc05040579c:	a82d                	j	ffffffc0504057d6 <XEmacPs_SendPausePacket+0x60>
ffffffc05040579e:	fd843783          	ld	a5,-40(s0)
ffffffc0504057a2:	679c                	ld	a5,8(a5)
ffffffc0504057a4:	853e                	mv	a0,a5
ffffffc0504057a6:	8f8ff0ef          	jal	ra,ffffffc05040489e <Xil_In32>
ffffffc0504057aa:	87aa                	mv	a5,a0
ffffffc0504057ac:	fef42223          	sw	a5,-28(s0)
ffffffc0504057b0:	fe442703          	lw	a4,-28(s0)
ffffffc0504057b4:	6785                	lui	a5,0x1
ffffffc0504057b6:	80078793          	addi	a5,a5,-2048 # 800 <_start-0xffffffc0503ff800>
ffffffc0504057ba:	8fd9                	or	a5,a5,a4
ffffffc0504057bc:	fef42223          	sw	a5,-28(s0)
ffffffc0504057c0:	fd843783          	ld	a5,-40(s0)
ffffffc0504057c4:	679c                	ld	a5,8(a5)
ffffffc0504057c6:	fe442703          	lw	a4,-28(s0)
ffffffc0504057ca:	85ba                	mv	a1,a4
ffffffc0504057cc:	853e                	mv	a0,a5
ffffffc0504057ce:	8a4ff0ef          	jal	ra,ffffffc050404872 <Xil_Out32>
ffffffc0504057d2:	fe043423          	sd	zero,-24(s0)
ffffffc0504057d6:	fe843783          	ld	a5,-24(s0)
ffffffc0504057da:	853e                	mv	a0,a5
ffffffc0504057dc:	70a2                	ld	ra,40(sp)
ffffffc0504057de:	7402                	ld	s0,32(sp)
ffffffc0504057e0:	6145                	addi	sp,sp,48
ffffffc0504057e2:	8082                	ret

ffffffc0504057e4 <XEmacPs_GetOperatingSpeed>:
ffffffc0504057e4:	7179                	addi	sp,sp,-48
ffffffc0504057e6:	f406                	sd	ra,40(sp)
ffffffc0504057e8:	f022                	sd	s0,32(sp)
ffffffc0504057ea:	1800                	addi	s0,sp,48
ffffffc0504057ec:	fca43c23          	sd	a0,-40(s0)
ffffffc0504057f0:	fd843783          	ld	a5,-40(s0)
ffffffc0504057f4:	679c                	ld	a5,8(a5)
ffffffc0504057f6:	0791                	addi	a5,a5,4
ffffffc0504057f8:	853e                	mv	a0,a5
ffffffc0504057fa:	8a4ff0ef          	jal	ra,ffffffc05040489e <Xil_In32>
ffffffc0504057fe:	87aa                	mv	a5,a0
ffffffc050405800:	fef42423          	sw	a5,-24(s0)
ffffffc050405804:	fe842783          	lw	a5,-24(s0)
ffffffc050405808:	4007f793          	andi	a5,a5,1024
ffffffc05040580c:	2781                	sext.w	a5,a5
ffffffc05040580e:	c791                	beqz	a5,ffffffc05040581a <XEmacPs_GetOperatingSpeed+0x36>
ffffffc050405810:	3e800793          	li	a5,1000
ffffffc050405814:	fef41723          	sh	a5,-18(s0)
ffffffc050405818:	a831                	j	ffffffc050405834 <XEmacPs_GetOperatingSpeed+0x50>
ffffffc05040581a:	fe842783          	lw	a5,-24(s0)
ffffffc05040581e:	8b85                	andi	a5,a5,1
ffffffc050405820:	2781                	sext.w	a5,a5
ffffffc050405822:	c791                	beqz	a5,ffffffc05040582e <XEmacPs_GetOperatingSpeed+0x4a>
ffffffc050405824:	06400793          	li	a5,100
ffffffc050405828:	fef41723          	sh	a5,-18(s0)
ffffffc05040582c:	a021                	j	ffffffc050405834 <XEmacPs_GetOperatingSpeed+0x50>
ffffffc05040582e:	47a9                	li	a5,10
ffffffc050405830:	fef41723          	sh	a5,-18(s0)
ffffffc050405834:	fee45783          	lhu	a5,-18(s0)
ffffffc050405838:	853e                	mv	a0,a5
ffffffc05040583a:	70a2                	ld	ra,40(sp)
ffffffc05040583c:	7402                	ld	s0,32(sp)
ffffffc05040583e:	6145                	addi	sp,sp,48
ffffffc050405840:	8082                	ret

ffffffc050405842 <XEmacPs_SetOperatingSpeed>:
ffffffc050405842:	7179                	addi	sp,sp,-48
ffffffc050405844:	f406                	sd	ra,40(sp)
ffffffc050405846:	f022                	sd	s0,32(sp)
ffffffc050405848:	1800                	addi	s0,sp,48
ffffffc05040584a:	fca43c23          	sd	a0,-40(s0)
ffffffc05040584e:	87ae                	mv	a5,a1
ffffffc050405850:	fcf41b23          	sh	a5,-42(s0)
ffffffc050405854:	fd843783          	ld	a5,-40(s0)
ffffffc050405858:	679c                	ld	a5,8(a5)
ffffffc05040585a:	0791                	addi	a5,a5,4
ffffffc05040585c:	853e                	mv	a0,a5
ffffffc05040585e:	840ff0ef          	jal	ra,ffffffc05040489e <Xil_In32>
ffffffc050405862:	87aa                	mv	a5,a0
ffffffc050405864:	fef42623          	sw	a5,-20(s0)
ffffffc050405868:	fec42783          	lw	a5,-20(s0)
ffffffc05040586c:	bfe7f793          	andi	a5,a5,-1026
ffffffc050405870:	fef42623          	sw	a5,-20(s0)
ffffffc050405874:	fd645783          	lhu	a5,-42(s0)
ffffffc050405878:	2781                	sext.w	a5,a5
ffffffc05040587a:	86be                	mv	a3,a5
ffffffc05040587c:	3e800713          	li	a4,1000
ffffffc050405880:	02e68763          	beq	a3,a4,ffffffc0504058ae <XEmacPs_SetOperatingSpeed+0x6c>
ffffffc050405884:	86be                	mv	a3,a5
ffffffc050405886:	3e800713          	li	a4,1000
ffffffc05040588a:	02d74a63          	blt	a4,a3,ffffffc0504058be <XEmacPs_SetOperatingSpeed+0x7c>
ffffffc05040588e:	86be                	mv	a3,a5
ffffffc050405890:	4729                	li	a4,10
ffffffc050405892:	02e68563          	beq	a3,a4,ffffffc0504058bc <XEmacPs_SetOperatingSpeed+0x7a>
ffffffc050405896:	873e                	mv	a4,a5
ffffffc050405898:	06400793          	li	a5,100
ffffffc05040589c:	02f71163          	bne	a4,a5,ffffffc0504058be <XEmacPs_SetOperatingSpeed+0x7c>
ffffffc0504058a0:	fec42783          	lw	a5,-20(s0)
ffffffc0504058a4:	0017e793          	ori	a5,a5,1
ffffffc0504058a8:	fef42623          	sw	a5,-20(s0)
ffffffc0504058ac:	a809                	j	ffffffc0504058be <XEmacPs_SetOperatingSpeed+0x7c>
ffffffc0504058ae:	fec42783          	lw	a5,-20(s0)
ffffffc0504058b2:	4007e793          	ori	a5,a5,1024
ffffffc0504058b6:	fef42623          	sw	a5,-20(s0)
ffffffc0504058ba:	a011                	j	ffffffc0504058be <XEmacPs_SetOperatingSpeed+0x7c>
ffffffc0504058bc:	0001                	nop
ffffffc0504058be:	fd843783          	ld	a5,-40(s0)
ffffffc0504058c2:	679c                	ld	a5,8(a5)
ffffffc0504058c4:	0791                	addi	a5,a5,4
ffffffc0504058c6:	fec42703          	lw	a4,-20(s0)
ffffffc0504058ca:	85ba                	mv	a1,a4
ffffffc0504058cc:	853e                	mv	a0,a5
ffffffc0504058ce:	fa5fe0ef          	jal	ra,ffffffc050404872 <Xil_Out32>
ffffffc0504058d2:	0001                	nop
ffffffc0504058d4:	70a2                	ld	ra,40(sp)
ffffffc0504058d6:	7402                	ld	s0,32(sp)
ffffffc0504058d8:	6145                	addi	sp,sp,48
ffffffc0504058da:	8082                	ret

ffffffc0504058dc <XEmacPs_SetMdioDivisor>:
ffffffc0504058dc:	7179                	addi	sp,sp,-48
ffffffc0504058de:	f406                	sd	ra,40(sp)
ffffffc0504058e0:	f022                	sd	s0,32(sp)
ffffffc0504058e2:	1800                	addi	s0,sp,48
ffffffc0504058e4:	fca43c23          	sd	a0,-40(s0)
ffffffc0504058e8:	87ae                	mv	a5,a1
ffffffc0504058ea:	fcf42a23          	sw	a5,-44(s0)
ffffffc0504058ee:	fd843783          	ld	a5,-40(s0)
ffffffc0504058f2:	679c                	ld	a5,8(a5)
ffffffc0504058f4:	0791                	addi	a5,a5,4
ffffffc0504058f6:	853e                	mv	a0,a5
ffffffc0504058f8:	fa7fe0ef          	jal	ra,ffffffc05040489e <Xil_In32>
ffffffc0504058fc:	87aa                	mv	a5,a0
ffffffc0504058fe:	fef42623          	sw	a5,-20(s0)
ffffffc050405902:	fec42703          	lw	a4,-20(s0)
ffffffc050405906:	ffe407b7          	lui	a5,0xffe40
ffffffc05040590a:	17fd                	addi	a5,a5,-1
ffffffc05040590c:	8ff9                	and	a5,a5,a4
ffffffc05040590e:	fef42623          	sw	a5,-20(s0)
ffffffc050405912:	fd442783          	lw	a5,-44(s0)
ffffffc050405916:	0127979b          	slliw	a5,a5,0x12
ffffffc05040591a:	0007871b          	sext.w	a4,a5
ffffffc05040591e:	fec42783          	lw	a5,-20(s0)
ffffffc050405922:	8fd9                	or	a5,a5,a4
ffffffc050405924:	fef42623          	sw	a5,-20(s0)
ffffffc050405928:	fd843783          	ld	a5,-40(s0)
ffffffc05040592c:	679c                	ld	a5,8(a5)
ffffffc05040592e:	0791                	addi	a5,a5,4
ffffffc050405930:	fec42703          	lw	a4,-20(s0)
ffffffc050405934:	85ba                	mv	a1,a4
ffffffc050405936:	853e                	mv	a0,a5
ffffffc050405938:	f3bfe0ef          	jal	ra,ffffffc050404872 <Xil_Out32>
ffffffc05040593c:	0001                	nop
ffffffc05040593e:	70a2                	ld	ra,40(sp)
ffffffc050405940:	7402                	ld	s0,32(sp)
ffffffc050405942:	6145                	addi	sp,sp,48
ffffffc050405944:	8082                	ret

ffffffc050405946 <XEmacPs_PhyRead>:
ffffffc050405946:	715d                	addi	sp,sp,-80
ffffffc050405948:	e486                	sd	ra,72(sp)
ffffffc05040594a:	e0a2                	sd	s0,64(sp)
ffffffc05040594c:	0880                	addi	s0,sp,80
ffffffc05040594e:	fca43423          	sd	a0,-56(s0)
ffffffc050405952:	87ae                	mv	a5,a1
ffffffc050405954:	8732                	mv	a4,a2
ffffffc050405956:	fad43c23          	sd	a3,-72(s0)
ffffffc05040595a:	fcf42223          	sw	a5,-60(s0)
ffffffc05040595e:	87ba                	mv	a5,a4
ffffffc050405960:	fcf42023          	sw	a5,-64(s0)
ffffffc050405964:	fc843783          	ld	a5,-56(s0)
ffffffc050405968:	679c                	ld	a5,8(a5)
ffffffc05040596a:	07a1                	addi	a5,a5,8
ffffffc05040596c:	853e                	mv	a0,a5
ffffffc05040596e:	f31fe0ef          	jal	ra,ffffffc05040489e <Xil_In32>
ffffffc050405972:	87aa                	mv	a5,a0
ffffffc050405974:	2781                	sext.w	a5,a5
ffffffc050405976:	8b91                	andi	a5,a5,4
ffffffc050405978:	2781                	sext.w	a5,a5
ffffffc05040597a:	e791                	bnez	a5,ffffffc050405986 <XEmacPs_PhyRead+0x40>
ffffffc05040597c:	3ec00793          	li	a5,1004
ffffffc050405980:	fef43423          	sd	a5,-24(s0)
ffffffc050405984:	a071                	j	ffffffc050405a10 <XEmacPs_PhyRead+0xca>
ffffffc050405986:	fc442783          	lw	a5,-60(s0)
ffffffc05040598a:	0177979b          	slliw	a5,a5,0x17
ffffffc05040598e:	0007871b          	sext.w	a4,a5
ffffffc050405992:	fc042783          	lw	a5,-64(s0)
ffffffc050405996:	0127979b          	slliw	a5,a5,0x12
ffffffc05040599a:	2781                	sext.w	a5,a5
ffffffc05040599c:	8fd9                	or	a5,a5,a4
ffffffc05040599e:	2781                	sext.w	a5,a5
ffffffc0504059a0:	873e                	mv	a4,a5
ffffffc0504059a2:	600207b7          	lui	a5,0x60020
ffffffc0504059a6:	8fd9                	or	a5,a5,a4
ffffffc0504059a8:	fef42223          	sw	a5,-28(s0)
ffffffc0504059ac:	fc843783          	ld	a5,-56(s0)
ffffffc0504059b0:	679c                	ld	a5,8(a5)
ffffffc0504059b2:	03478793          	addi	a5,a5,52 # 60020034 <_start-0xffffffbff03dffcc>
ffffffc0504059b6:	fe442703          	lw	a4,-28(s0)
ffffffc0504059ba:	85ba                	mv	a1,a4
ffffffc0504059bc:	853e                	mv	a0,a5
ffffffc0504059be:	eb5fe0ef          	jal	ra,ffffffc050404872 <Xil_Out32>
ffffffc0504059c2:	fc843783          	ld	a5,-56(s0)
ffffffc0504059c6:	679c                	ld	a5,8(a5)
ffffffc0504059c8:	07a1                	addi	a5,a5,8
ffffffc0504059ca:	853e                	mv	a0,a5
ffffffc0504059cc:	ed3fe0ef          	jal	ra,ffffffc05040489e <Xil_In32>
ffffffc0504059d0:	87aa                	mv	a5,a0
ffffffc0504059d2:	2781                	sext.w	a5,a5
ffffffc0504059d4:	fcf42e23          	sw	a5,-36(s0)
ffffffc0504059d8:	fdc42783          	lw	a5,-36(s0)
ffffffc0504059dc:	fef42023          	sw	a5,-32(s0)
ffffffc0504059e0:	fe042783          	lw	a5,-32(s0)
ffffffc0504059e4:	8b91                	andi	a5,a5,4
ffffffc0504059e6:	2781                	sext.w	a5,a5
ffffffc0504059e8:	dfe9                	beqz	a5,ffffffc0504059c2 <XEmacPs_PhyRead+0x7c>
ffffffc0504059ea:	fc843783          	ld	a5,-56(s0)
ffffffc0504059ee:	679c                	ld	a5,8(a5)
ffffffc0504059f0:	03478793          	addi	a5,a5,52
ffffffc0504059f4:	853e                	mv	a0,a5
ffffffc0504059f6:	ea9fe0ef          	jal	ra,ffffffc05040489e <Xil_In32>
ffffffc0504059fa:	87aa                	mv	a5,a0
ffffffc0504059fc:	2781                	sext.w	a5,a5
ffffffc0504059fe:	03079713          	slli	a4,a5,0x30
ffffffc050405a02:	9341                	srli	a4,a4,0x30
ffffffc050405a04:	fb843783          	ld	a5,-72(s0)
ffffffc050405a08:	00e79023          	sh	a4,0(a5)
ffffffc050405a0c:	fe043423          	sd	zero,-24(s0)
ffffffc050405a10:	fe843783          	ld	a5,-24(s0)
ffffffc050405a14:	853e                	mv	a0,a5
ffffffc050405a16:	60a6                	ld	ra,72(sp)
ffffffc050405a18:	6406                	ld	s0,64(sp)
ffffffc050405a1a:	6161                	addi	sp,sp,80
ffffffc050405a1c:	8082                	ret

ffffffc050405a1e <XEmacPs_PhyWrite>:
ffffffc050405a1e:	715d                	addi	sp,sp,-80
ffffffc050405a20:	e486                	sd	ra,72(sp)
ffffffc050405a22:	e0a2                	sd	s0,64(sp)
ffffffc050405a24:	0880                	addi	s0,sp,80
ffffffc050405a26:	fca43423          	sd	a0,-56(s0)
ffffffc050405a2a:	87ae                	mv	a5,a1
ffffffc050405a2c:	8736                	mv	a4,a3
ffffffc050405a2e:	fcf42223          	sw	a5,-60(s0)
ffffffc050405a32:	87b2                	mv	a5,a2
ffffffc050405a34:	fcf42023          	sw	a5,-64(s0)
ffffffc050405a38:	87ba                	mv	a5,a4
ffffffc050405a3a:	faf41f23          	sh	a5,-66(s0)
ffffffc050405a3e:	fc843783          	ld	a5,-56(s0)
ffffffc050405a42:	679c                	ld	a5,8(a5)
ffffffc050405a44:	07a1                	addi	a5,a5,8
ffffffc050405a46:	853e                	mv	a0,a5
ffffffc050405a48:	e57fe0ef          	jal	ra,ffffffc05040489e <Xil_In32>
ffffffc050405a4c:	87aa                	mv	a5,a0
ffffffc050405a4e:	2781                	sext.w	a5,a5
ffffffc050405a50:	8b91                	andi	a5,a5,4
ffffffc050405a52:	2781                	sext.w	a5,a5
ffffffc050405a54:	e791                	bnez	a5,ffffffc050405a60 <XEmacPs_PhyWrite+0x42>
ffffffc050405a56:	3ec00793          	li	a5,1004
ffffffc050405a5a:	fef43423          	sd	a5,-24(s0)
ffffffc050405a5e:	a89d                	j	ffffffc050405ad4 <XEmacPs_PhyWrite+0xb6>
ffffffc050405a60:	fc442783          	lw	a5,-60(s0)
ffffffc050405a64:	0177979b          	slliw	a5,a5,0x17
ffffffc050405a68:	0007871b          	sext.w	a4,a5
ffffffc050405a6c:	fc042783          	lw	a5,-64(s0)
ffffffc050405a70:	0127979b          	slliw	a5,a5,0x12
ffffffc050405a74:	2781                	sext.w	a5,a5
ffffffc050405a76:	8fd9                	or	a5,a5,a4
ffffffc050405a78:	0007871b          	sext.w	a4,a5
ffffffc050405a7c:	fbe45783          	lhu	a5,-66(s0)
ffffffc050405a80:	2781                	sext.w	a5,a5
ffffffc050405a82:	8fd9                	or	a5,a5,a4
ffffffc050405a84:	2781                	sext.w	a5,a5
ffffffc050405a86:	873e                	mv	a4,a5
ffffffc050405a88:	500207b7          	lui	a5,0x50020
ffffffc050405a8c:	8fd9                	or	a5,a5,a4
ffffffc050405a8e:	fef42223          	sw	a5,-28(s0)
ffffffc050405a92:	fc843783          	ld	a5,-56(s0)
ffffffc050405a96:	679c                	ld	a5,8(a5)
ffffffc050405a98:	03478793          	addi	a5,a5,52 # 50020034 <_start-0xffffffc0003dffcc>
ffffffc050405a9c:	fe442703          	lw	a4,-28(s0)
ffffffc050405aa0:	85ba                	mv	a1,a4
ffffffc050405aa2:	853e                	mv	a0,a5
ffffffc050405aa4:	dcffe0ef          	jal	ra,ffffffc050404872 <Xil_Out32>
ffffffc050405aa8:	fc843783          	ld	a5,-56(s0)
ffffffc050405aac:	679c                	ld	a5,8(a5)
ffffffc050405aae:	07a1                	addi	a5,a5,8
ffffffc050405ab0:	853e                	mv	a0,a5
ffffffc050405ab2:	dedfe0ef          	jal	ra,ffffffc05040489e <Xil_In32>
ffffffc050405ab6:	87aa                	mv	a5,a0
ffffffc050405ab8:	2781                	sext.w	a5,a5
ffffffc050405aba:	fcf42e23          	sw	a5,-36(s0)
ffffffc050405abe:	fdc42783          	lw	a5,-36(s0)
ffffffc050405ac2:	fef42023          	sw	a5,-32(s0)
ffffffc050405ac6:	fe042783          	lw	a5,-32(s0)
ffffffc050405aca:	8b91                	andi	a5,a5,4
ffffffc050405acc:	2781                	sext.w	a5,a5
ffffffc050405ace:	dfe9                	beqz	a5,ffffffc050405aa8 <XEmacPs_PhyWrite+0x8a>
ffffffc050405ad0:	fe043423          	sd	zero,-24(s0)
ffffffc050405ad4:	fe843783          	ld	a5,-24(s0)
ffffffc050405ad8:	853e                	mv	a0,a5
ffffffc050405ada:	60a6                	ld	ra,72(sp)
ffffffc050405adc:	6406                	ld	s0,64(sp)
ffffffc050405ade:	6161                	addi	sp,sp,80
ffffffc050405ae0:	8082                	ret

ffffffc050405ae2 <XEmacPs_DMABLengthUpdate>:
ffffffc050405ae2:	7179                	addi	sp,sp,-48
ffffffc050405ae4:	f406                	sd	ra,40(sp)
ffffffc050405ae6:	f022                	sd	s0,32(sp)
ffffffc050405ae8:	1800                	addi	s0,sp,48
ffffffc050405aea:	fca43c23          	sd	a0,-40(s0)
ffffffc050405aee:	87ae                	mv	a5,a1
ffffffc050405af0:	fcf42a23          	sw	a5,-44(s0)
ffffffc050405af4:	fe042623          	sw	zero,-20(s0)
ffffffc050405af8:	fd442783          	lw	a5,-44(s0)
ffffffc050405afc:	0007871b          	sext.w	a4,a5
ffffffc050405b00:	47c1                	li	a5,16
ffffffc050405b02:	06f70263          	beq	a4,a5,ffffffc050405b66 <XEmacPs_DMABLengthUpdate+0x84>
ffffffc050405b06:	fd442783          	lw	a5,-44(s0)
ffffffc050405b0a:	0007871b          	sext.w	a4,a5
ffffffc050405b0e:	47c1                	li	a5,16
ffffffc050405b10:	04e7cf63          	blt	a5,a4,ffffffc050405b6e <XEmacPs_DMABLengthUpdate+0x8c>
ffffffc050405b14:	fd442783          	lw	a5,-44(s0)
ffffffc050405b18:	0007871b          	sext.w	a4,a5
ffffffc050405b1c:	47a1                	li	a5,8
ffffffc050405b1e:	04f70063          	beq	a4,a5,ffffffc050405b5e <XEmacPs_DMABLengthUpdate+0x7c>
ffffffc050405b22:	fd442783          	lw	a5,-44(s0)
ffffffc050405b26:	0007871b          	sext.w	a4,a5
ffffffc050405b2a:	47a1                	li	a5,8
ffffffc050405b2c:	04e7c163          	blt	a5,a4,ffffffc050405b6e <XEmacPs_DMABLengthUpdate+0x8c>
ffffffc050405b30:	fd442783          	lw	a5,-44(s0)
ffffffc050405b34:	0007871b          	sext.w	a4,a5
ffffffc050405b38:	4785                	li	a5,1
ffffffc050405b3a:	00f70a63          	beq	a4,a5,ffffffc050405b4e <XEmacPs_DMABLengthUpdate+0x6c>
ffffffc050405b3e:	fd442783          	lw	a5,-44(s0)
ffffffc050405b42:	0007871b          	sext.w	a4,a5
ffffffc050405b46:	4791                	li	a5,4
ffffffc050405b48:	00f70763          	beq	a4,a5,ffffffc050405b56 <XEmacPs_DMABLengthUpdate+0x74>
ffffffc050405b4c:	a00d                	j	ffffffc050405b6e <XEmacPs_DMABLengthUpdate+0x8c>
ffffffc050405b4e:	4785                	li	a5,1
ffffffc050405b50:	fef42623          	sw	a5,-20(s0)
ffffffc050405b54:	a829                	j	ffffffc050405b6e <XEmacPs_DMABLengthUpdate+0x8c>
ffffffc050405b56:	4791                	li	a5,4
ffffffc050405b58:	fef42623          	sw	a5,-20(s0)
ffffffc050405b5c:	a809                	j	ffffffc050405b6e <XEmacPs_DMABLengthUpdate+0x8c>
ffffffc050405b5e:	47a1                	li	a5,8
ffffffc050405b60:	fef42623          	sw	a5,-20(s0)
ffffffc050405b64:	a029                	j	ffffffc050405b6e <XEmacPs_DMABLengthUpdate+0x8c>
ffffffc050405b66:	47c1                	li	a5,16
ffffffc050405b68:	fef42623          	sw	a5,-20(s0)
ffffffc050405b6c:	0001                	nop
ffffffc050405b6e:	fd843783          	ld	a5,-40(s0)
ffffffc050405b72:	679c                	ld	a5,8(a5)
ffffffc050405b74:	07c1                	addi	a5,a5,16
ffffffc050405b76:	853e                	mv	a0,a5
ffffffc050405b78:	d27fe0ef          	jal	ra,ffffffc05040489e <Xil_In32>
ffffffc050405b7c:	87aa                	mv	a5,a0
ffffffc050405b7e:	fef42423          	sw	a5,-24(s0)
ffffffc050405b82:	fe842783          	lw	a5,-24(s0)
ffffffc050405b86:	9b81                	andi	a5,a5,-32
ffffffc050405b88:	fef42423          	sw	a5,-24(s0)
ffffffc050405b8c:	fe842703          	lw	a4,-24(s0)
ffffffc050405b90:	fec42783          	lw	a5,-20(s0)
ffffffc050405b94:	8fd9                	or	a5,a5,a4
ffffffc050405b96:	fef42423          	sw	a5,-24(s0)
ffffffc050405b9a:	fd843783          	ld	a5,-40(s0)
ffffffc050405b9e:	679c                	ld	a5,8(a5)
ffffffc050405ba0:	07c1                	addi	a5,a5,16
ffffffc050405ba2:	fe842703          	lw	a4,-24(s0)
ffffffc050405ba6:	85ba                	mv	a1,a4
ffffffc050405ba8:	853e                	mv	a0,a5
ffffffc050405baa:	cc9fe0ef          	jal	ra,ffffffc050404872 <Xil_Out32>
ffffffc050405bae:	0001                	nop
ffffffc050405bb0:	70a2                	ld	ra,40(sp)
ffffffc050405bb2:	7402                	ld	s0,32(sp)
ffffffc050405bb4:	6145                	addi	sp,sp,48
ffffffc050405bb6:	8082                	ret

ffffffc050405bb8 <writel>:
ffffffc050405bb8:	1101                	addi	sp,sp,-32
ffffffc050405bba:	ec22                	sd	s0,24(sp)
ffffffc050405bbc:	1000                	addi	s0,sp,32
ffffffc050405bbe:	87aa                	mv	a5,a0
ffffffc050405bc0:	feb43023          	sd	a1,-32(s0)
ffffffc050405bc4:	fef42623          	sw	a5,-20(s0)
ffffffc050405bc8:	0550000f          	fence	ow,ow
ffffffc050405bcc:	fe043783          	ld	a5,-32(s0)
ffffffc050405bd0:	fec42703          	lw	a4,-20(s0)
ffffffc050405bd4:	c398                	sw	a4,0(a5)
ffffffc050405bd6:	0001                	nop
ffffffc050405bd8:	6462                	ld	s0,24(sp)
ffffffc050405bda:	6105                	addi	sp,sp,32
ffffffc050405bdc:	8082                	ret

ffffffc050405bde <readl>:
ffffffc050405bde:	7179                	addi	sp,sp,-48
ffffffc050405be0:	f422                	sd	s0,40(sp)
ffffffc050405be2:	1800                	addi	s0,sp,48
ffffffc050405be4:	fca43c23          	sd	a0,-40(s0)
ffffffc050405be8:	fd843783          	ld	a5,-40(s0)
ffffffc050405bec:	439c                	lw	a5,0(a5)
ffffffc050405bee:	fef42623          	sw	a5,-20(s0)
ffffffc050405bf2:	0aa0000f          	fence	ir,ir
ffffffc050405bf6:	fec42783          	lw	a5,-20(s0)
ffffffc050405bfa:	2781                	sext.w	a5,a5
ffffffc050405bfc:	853e                	mv	a0,a5
ffffffc050405bfe:	7422                	ld	s0,40(sp)
ffffffc050405c00:	6145                	addi	sp,sp,48
ffffffc050405c02:	8082                	ret

ffffffc050405c04 <Xil_Out32>:
ffffffc050405c04:	1101                	addi	sp,sp,-32
ffffffc050405c06:	ec06                	sd	ra,24(sp)
ffffffc050405c08:	e822                	sd	s0,16(sp)
ffffffc050405c0a:	1000                	addi	s0,sp,32
ffffffc050405c0c:	fea43423          	sd	a0,-24(s0)
ffffffc050405c10:	87ae                	mv	a5,a1
ffffffc050405c12:	fef42223          	sw	a5,-28(s0)
ffffffc050405c16:	fe843703          	ld	a4,-24(s0)
ffffffc050405c1a:	fe442783          	lw	a5,-28(s0)
ffffffc050405c1e:	85ba                	mv	a1,a4
ffffffc050405c20:	853e                	mv	a0,a5
ffffffc050405c22:	f97ff0ef          	jal	ra,ffffffc050405bb8 <writel>
ffffffc050405c26:	0001                	nop
ffffffc050405c28:	60e2                	ld	ra,24(sp)
ffffffc050405c2a:	6442                	ld	s0,16(sp)
ffffffc050405c2c:	6105                	addi	sp,sp,32
ffffffc050405c2e:	8082                	ret

ffffffc050405c30 <Xil_In32>:
ffffffc050405c30:	1101                	addi	sp,sp,-32
ffffffc050405c32:	ec06                	sd	ra,24(sp)
ffffffc050405c34:	e822                	sd	s0,16(sp)
ffffffc050405c36:	1000                	addi	s0,sp,32
ffffffc050405c38:	fea43423          	sd	a0,-24(s0)
ffffffc050405c3c:	fe843783          	ld	a5,-24(s0)
ffffffc050405c40:	853e                	mv	a0,a5
ffffffc050405c42:	f9dff0ef          	jal	ra,ffffffc050405bde <readl>
ffffffc050405c46:	87aa                	mv	a5,a0
ffffffc050405c48:	2781                	sext.w	a5,a5
ffffffc050405c4a:	853e                	mv	a0,a5
ffffffc050405c4c:	60e2                	ld	ra,24(sp)
ffffffc050405c4e:	6442                	ld	s0,16(sp)
ffffffc050405c50:	6105                	addi	sp,sp,32
ffffffc050405c52:	8082                	ret

ffffffc050405c54 <Xil_EndianSwap16>:
ffffffc050405c54:	1101                	addi	sp,sp,-32
ffffffc050405c56:	ec22                	sd	s0,24(sp)
ffffffc050405c58:	1000                	addi	s0,sp,32
ffffffc050405c5a:	87aa                	mv	a5,a0
ffffffc050405c5c:	fef41723          	sh	a5,-18(s0)
ffffffc050405c60:	fee45783          	lhu	a5,-18(s0)
ffffffc050405c64:	0087971b          	slliw	a4,a5,0x8
ffffffc050405c68:	0107979b          	slliw	a5,a5,0x10
ffffffc050405c6c:	0107d79b          	srliw	a5,a5,0x10
ffffffc050405c70:	0087d79b          	srliw	a5,a5,0x8
ffffffc050405c74:	8fd9                	or	a5,a5,a4
ffffffc050405c76:	17c2                	slli	a5,a5,0x30
ffffffc050405c78:	93c1                	srli	a5,a5,0x30
ffffffc050405c7a:	853e                	mv	a0,a5
ffffffc050405c7c:	6462                	ld	s0,24(sp)
ffffffc050405c7e:	6105                	addi	sp,sp,32
ffffffc050405c80:	8082                	ret

ffffffc050405c82 <EmacPsUtilFrameHdrFormatMAC>:
ffffffc050405c82:	7139                	addi	sp,sp,-64
ffffffc050405c84:	fc22                	sd	s0,56(sp)
ffffffc050405c86:	0080                	addi	s0,sp,64
ffffffc050405c88:	fca43423          	sd	a0,-56(s0)
ffffffc050405c8c:	fcb43023          	sd	a1,-64(s0)
ffffffc050405c90:	fc843783          	ld	a5,-56(s0)
ffffffc050405c94:	fef43423          	sd	a5,-24(s0)
ffffffc050405c98:	0006c797          	auipc	a5,0x6c
ffffffc050405c9c:	a2878793          	addi	a5,a5,-1496 # ffffffc0504716c0 <EmacPsMAC>
ffffffc050405ca0:	fef43023          	sd	a5,-32(s0)
ffffffc050405ca4:	fc042e23          	sw	zero,-36(s0)
ffffffc050405ca8:	a035                	j	ffffffc050405cd4 <EmacPsUtilFrameHdrFormatMAC+0x52>
ffffffc050405caa:	fc043703          	ld	a4,-64(s0)
ffffffc050405cae:	00170793          	addi	a5,a4,1 # 2001 <_start-0xffffffc0503fdfff>
ffffffc050405cb2:	fcf43023          	sd	a5,-64(s0)
ffffffc050405cb6:	fe843783          	ld	a5,-24(s0)
ffffffc050405cba:	00178693          	addi	a3,a5,1
ffffffc050405cbe:	fed43423          	sd	a3,-24(s0)
ffffffc050405cc2:	00074703          	lbu	a4,0(a4)
ffffffc050405cc6:	00e78023          	sb	a4,0(a5)
ffffffc050405cca:	fdc42783          	lw	a5,-36(s0)
ffffffc050405cce:	2785                	addiw	a5,a5,1
ffffffc050405cd0:	fcf42e23          	sw	a5,-36(s0)
ffffffc050405cd4:	fdc42783          	lw	a5,-36(s0)
ffffffc050405cd8:	873e                	mv	a4,a5
ffffffc050405cda:	4795                	li	a5,5
ffffffc050405cdc:	fce7f7e3          	bgeu	a5,a4,ffffffc050405caa <EmacPsUtilFrameHdrFormatMAC+0x28>
ffffffc050405ce0:	fc042e23          	sw	zero,-36(s0)
ffffffc050405ce4:	a035                	j	ffffffc050405d10 <EmacPsUtilFrameHdrFormatMAC+0x8e>
ffffffc050405ce6:	fe043703          	ld	a4,-32(s0)
ffffffc050405cea:	00170793          	addi	a5,a4,1
ffffffc050405cee:	fef43023          	sd	a5,-32(s0)
ffffffc050405cf2:	fe843783          	ld	a5,-24(s0)
ffffffc050405cf6:	00178693          	addi	a3,a5,1
ffffffc050405cfa:	fed43423          	sd	a3,-24(s0)
ffffffc050405cfe:	00074703          	lbu	a4,0(a4)
ffffffc050405d02:	00e78023          	sb	a4,0(a5)
ffffffc050405d06:	fdc42783          	lw	a5,-36(s0)
ffffffc050405d0a:	2785                	addiw	a5,a5,1
ffffffc050405d0c:	fcf42e23          	sw	a5,-36(s0)
ffffffc050405d10:	fdc42783          	lw	a5,-36(s0)
ffffffc050405d14:	873e                	mv	a4,a5
ffffffc050405d16:	4795                	li	a5,5
ffffffc050405d18:	fce7f7e3          	bgeu	a5,a4,ffffffc050405ce6 <EmacPsUtilFrameHdrFormatMAC+0x64>
ffffffc050405d1c:	0001                	nop
ffffffc050405d1e:	0001                	nop
ffffffc050405d20:	7462                	ld	s0,56(sp)
ffffffc050405d22:	6121                	addi	sp,sp,64
ffffffc050405d24:	8082                	ret

ffffffc050405d26 <EmacPsUtilFrameHdrFormatType>:
ffffffc050405d26:	7179                	addi	sp,sp,-48
ffffffc050405d28:	f406                	sd	ra,40(sp)
ffffffc050405d2a:	f022                	sd	s0,32(sp)
ffffffc050405d2c:	1800                	addi	s0,sp,48
ffffffc050405d2e:	fca43c23          	sd	a0,-40(s0)
ffffffc050405d32:	87ae                	mv	a5,a1
ffffffc050405d34:	fcf41b23          	sh	a5,-42(s0)
ffffffc050405d38:	fd843783          	ld	a5,-40(s0)
ffffffc050405d3c:	fef43423          	sd	a5,-24(s0)
ffffffc050405d40:	fe843783          	ld	a5,-24(s0)
ffffffc050405d44:	07b1                	addi	a5,a5,12
ffffffc050405d46:	fef43423          	sd	a5,-24(s0)
ffffffc050405d4a:	fd645783          	lhu	a5,-42(s0)
ffffffc050405d4e:	853e                	mv	a0,a5
ffffffc050405d50:	f05ff0ef          	jal	ra,ffffffc050405c54 <Xil_EndianSwap16>
ffffffc050405d54:	87aa                	mv	a5,a0
ffffffc050405d56:	fcf41b23          	sh	a5,-42(s0)
ffffffc050405d5a:	fe843783          	ld	a5,-24(s0)
ffffffc050405d5e:	fd645703          	lhu	a4,-42(s0)
ffffffc050405d62:	00e79023          	sh	a4,0(a5)
ffffffc050405d66:	0001                	nop
ffffffc050405d68:	70a2                	ld	ra,40(sp)
ffffffc050405d6a:	7402                	ld	s0,32(sp)
ffffffc050405d6c:	6145                	addi	sp,sp,48
ffffffc050405d6e:	8082                	ret

ffffffc050405d70 <EmacPsUtilFrameSetPayloadData>:
ffffffc050405d70:	7139                	addi	sp,sp,-64
ffffffc050405d72:	fc22                	sd	s0,56(sp)
ffffffc050405d74:	0080                	addi	s0,sp,64
ffffffc050405d76:	fca43423          	sd	a0,-56(s0)
ffffffc050405d7a:	87ae                	mv	a5,a1
ffffffc050405d7c:	fcf42223          	sw	a5,-60(s0)
ffffffc050405d80:	fc442783          	lw	a5,-60(s0)
ffffffc050405d84:	fef42623          	sw	a5,-20(s0)
ffffffc050405d88:	fc041f23          	sh	zero,-34(s0)
ffffffc050405d8c:	fc843783          	ld	a5,-56(s0)
ffffffc050405d90:	07b9                	addi	a5,a5,14
ffffffc050405d92:	fef43023          	sd	a5,-32(s0)
ffffffc050405d96:	a035                	j	ffffffc050405dc2 <EmacPsUtilFrameSetPayloadData+0x52>
ffffffc050405d98:	fde45703          	lhu	a4,-34(s0)
ffffffc050405d9c:	0017079b          	addiw	a5,a4,1
ffffffc050405da0:	fcf41f23          	sh	a5,-34(s0)
ffffffc050405da4:	fe043783          	ld	a5,-32(s0)
ffffffc050405da8:	00178693          	addi	a3,a5,1
ffffffc050405dac:	fed43023          	sd	a3,-32(s0)
ffffffc050405db0:	0ff77713          	andi	a4,a4,255
ffffffc050405db4:	00e78023          	sb	a4,0(a5)
ffffffc050405db8:	fec42783          	lw	a5,-20(s0)
ffffffc050405dbc:	37fd                	addiw	a5,a5,-1
ffffffc050405dbe:	fef42623          	sw	a5,-20(s0)
ffffffc050405dc2:	fec42783          	lw	a5,-20(s0)
ffffffc050405dc6:	2781                	sext.w	a5,a5
ffffffc050405dc8:	cbad                	beqz	a5,ffffffc050405e3a <EmacPsUtilFrameSetPayloadData+0xca>
ffffffc050405dca:	fde45783          	lhu	a5,-34(s0)
ffffffc050405dce:	0007871b          	sext.w	a4,a5
ffffffc050405dd2:	0ff00793          	li	a5,255
ffffffc050405dd6:	fce7f1e3          	bgeu	a5,a4,ffffffc050405d98 <EmacPsUtilFrameSetPayloadData+0x28>
ffffffc050405dda:	a085                	j	ffffffc050405e3a <EmacPsUtilFrameSetPayloadData+0xca>
ffffffc050405ddc:	fde45783          	lhu	a5,-34(s0)
ffffffc050405de0:	0087d79b          	srliw	a5,a5,0x8
ffffffc050405de4:	03079693          	slli	a3,a5,0x30
ffffffc050405de8:	92c1                	srli	a3,a3,0x30
ffffffc050405dea:	fe043783          	ld	a5,-32(s0)
ffffffc050405dee:	00178713          	addi	a4,a5,1
ffffffc050405df2:	fee43023          	sd	a4,-32(s0)
ffffffc050405df6:	0ff6f713          	andi	a4,a3,255
ffffffc050405dfa:	00e78023          	sb	a4,0(a5)
ffffffc050405dfe:	fec42783          	lw	a5,-20(s0)
ffffffc050405e02:	37fd                	addiw	a5,a5,-1
ffffffc050405e04:	fef42623          	sw	a5,-20(s0)
ffffffc050405e08:	fec42783          	lw	a5,-20(s0)
ffffffc050405e0c:	2781                	sext.w	a5,a5
ffffffc050405e0e:	cb9d                	beqz	a5,ffffffc050405e44 <EmacPsUtilFrameSetPayloadData+0xd4>
ffffffc050405e10:	fde45703          	lhu	a4,-34(s0)
ffffffc050405e14:	0017079b          	addiw	a5,a4,1
ffffffc050405e18:	fcf41f23          	sh	a5,-34(s0)
ffffffc050405e1c:	fe043783          	ld	a5,-32(s0)
ffffffc050405e20:	00178693          	addi	a3,a5,1
ffffffc050405e24:	fed43023          	sd	a3,-32(s0)
ffffffc050405e28:	0ff77713          	andi	a4,a4,255
ffffffc050405e2c:	00e78023          	sb	a4,0(a5)
ffffffc050405e30:	fec42783          	lw	a5,-20(s0)
ffffffc050405e34:	37fd                	addiw	a5,a5,-1
ffffffc050405e36:	fef42623          	sw	a5,-20(s0)
ffffffc050405e3a:	fec42783          	lw	a5,-20(s0)
ffffffc050405e3e:	2781                	sext.w	a5,a5
ffffffc050405e40:	ffd1                	bnez	a5,ffffffc050405ddc <EmacPsUtilFrameSetPayloadData+0x6c>
ffffffc050405e42:	a011                	j	ffffffc050405e46 <EmacPsUtilFrameSetPayloadData+0xd6>
ffffffc050405e44:	0001                	nop
ffffffc050405e46:	0001                	nop
ffffffc050405e48:	7462                	ld	s0,56(sp)
ffffffc050405e4a:	6121                	addi	sp,sp,64
ffffffc050405e4c:	8082                	ret

ffffffc050405e4e <EmacPsUtilFrameVerify>:
ffffffc050405e4e:	7139                	addi	sp,sp,-64
ffffffc050405e50:	fc06                	sd	ra,56(sp)
ffffffc050405e52:	f822                	sd	s0,48(sp)
ffffffc050405e54:	0080                	addi	s0,sp,64
ffffffc050405e56:	fca43423          	sd	a0,-56(s0)
ffffffc050405e5a:	fcb43023          	sd	a1,-64(s0)
ffffffc050405e5e:	fc843783          	ld	a5,-56(s0)
ffffffc050405e62:	fcf43c23          	sd	a5,-40(s0)
ffffffc050405e66:	fc043783          	ld	a5,-64(s0)
ffffffc050405e6a:	fef43423          	sd	a5,-24(s0)
ffffffc050405e6e:	fe843783          	ld	a5,-24(s0)
ffffffc050405e72:	00c7d783          	lhu	a5,12(a5)
ffffffc050405e76:	fef41323          	sh	a5,-26(s0)
ffffffc050405e7a:	fe645783          	lhu	a5,-26(s0)
ffffffc050405e7e:	853e                	mv	a0,a5
ffffffc050405e80:	dd5ff0ef          	jal	ra,ffffffc050405c54 <Xil_EndianSwap16>
ffffffc050405e84:	87aa                	mv	a5,a0
ffffffc050405e86:	fef41323          	sh	a5,-26(s0)
ffffffc050405e8a:	fe041223          	sh	zero,-28(s0)
ffffffc050405e8e:	fe843783          	ld	a5,-24(s0)
ffffffc050405e92:	07b9                	addi	a5,a5,14
ffffffc050405e94:	fef43423          	sd	a5,-24(s0)
ffffffc050405e98:	a81d                	j	ffffffc050405ece <EmacPsUtilFrameVerify+0x80>
ffffffc050405e9a:	fe843783          	ld	a5,-24(s0)
ffffffc050405e9e:	00178713          	addi	a4,a5,1
ffffffc050405ea2:	fee43423          	sd	a4,-24(s0)
ffffffc050405ea6:	0007c683          	lbu	a3,0(a5)
ffffffc050405eaa:	fe445783          	lhu	a5,-28(s0)
ffffffc050405eae:	0017871b          	addiw	a4,a5,1
ffffffc050405eb2:	fee41223          	sh	a4,-28(s0)
ffffffc050405eb6:	0ff7f793          	andi	a5,a5,255
ffffffc050405eba:	8736                	mv	a4,a3
ffffffc050405ebc:	00f70463          	beq	a4,a5,ffffffc050405ec4 <EmacPsUtilFrameVerify+0x76>
ffffffc050405ec0:	4785                	li	a5,1
ffffffc050405ec2:	a04d                	j	ffffffc050405f64 <EmacPsUtilFrameVerify+0x116>
ffffffc050405ec4:	fe645783          	lhu	a5,-26(s0)
ffffffc050405ec8:	37fd                	addiw	a5,a5,-1
ffffffc050405eca:	fef41323          	sh	a5,-26(s0)
ffffffc050405ece:	fe645783          	lhu	a5,-26(s0)
ffffffc050405ed2:	2781                	sext.w	a5,a5
ffffffc050405ed4:	c3c9                	beqz	a5,ffffffc050405f56 <EmacPsUtilFrameVerify+0x108>
ffffffc050405ed6:	fe445783          	lhu	a5,-28(s0)
ffffffc050405eda:	0007871b          	sext.w	a4,a5
ffffffc050405ede:	0ff00793          	li	a5,255
ffffffc050405ee2:	fae7fce3          	bgeu	a5,a4,ffffffc050405e9a <EmacPsUtilFrameVerify+0x4c>
ffffffc050405ee6:	a885                	j	ffffffc050405f56 <EmacPsUtilFrameVerify+0x108>
ffffffc050405ee8:	fe843783          	ld	a5,-24(s0)
ffffffc050405eec:	00178713          	addi	a4,a5,1
ffffffc050405ef0:	fee43423          	sd	a4,-24(s0)
ffffffc050405ef4:	0007c703          	lbu	a4,0(a5)
ffffffc050405ef8:	fe445783          	lhu	a5,-28(s0)
ffffffc050405efc:	0087d79b          	srliw	a5,a5,0x8
ffffffc050405f00:	17c2                	slli	a5,a5,0x30
ffffffc050405f02:	93c1                	srli	a5,a5,0x30
ffffffc050405f04:	0ff7f793          	andi	a5,a5,255
ffffffc050405f08:	00f70463          	beq	a4,a5,ffffffc050405f10 <EmacPsUtilFrameVerify+0xc2>
ffffffc050405f0c:	4785                	li	a5,1
ffffffc050405f0e:	a899                	j	ffffffc050405f64 <EmacPsUtilFrameVerify+0x116>
ffffffc050405f10:	fe645783          	lhu	a5,-26(s0)
ffffffc050405f14:	37fd                	addiw	a5,a5,-1
ffffffc050405f16:	fef41323          	sh	a5,-26(s0)
ffffffc050405f1a:	fe645783          	lhu	a5,-26(s0)
ffffffc050405f1e:	2781                	sext.w	a5,a5
ffffffc050405f20:	c3a1                	beqz	a5,ffffffc050405f60 <EmacPsUtilFrameVerify+0x112>
ffffffc050405f22:	fe843783          	ld	a5,-24(s0)
ffffffc050405f26:	00178713          	addi	a4,a5,1
ffffffc050405f2a:	fee43423          	sd	a4,-24(s0)
ffffffc050405f2e:	0007c683          	lbu	a3,0(a5)
ffffffc050405f32:	fe445783          	lhu	a5,-28(s0)
ffffffc050405f36:	0017871b          	addiw	a4,a5,1
ffffffc050405f3a:	fee41223          	sh	a4,-28(s0)
ffffffc050405f3e:	0ff7f793          	andi	a5,a5,255
ffffffc050405f42:	8736                	mv	a4,a3
ffffffc050405f44:	00f70463          	beq	a4,a5,ffffffc050405f4c <EmacPsUtilFrameVerify+0xfe>
ffffffc050405f48:	4785                	li	a5,1
ffffffc050405f4a:	a829                	j	ffffffc050405f64 <EmacPsUtilFrameVerify+0x116>
ffffffc050405f4c:	fe645783          	lhu	a5,-26(s0)
ffffffc050405f50:	37fd                	addiw	a5,a5,-1
ffffffc050405f52:	fef41323          	sh	a5,-26(s0)
ffffffc050405f56:	fe645783          	lhu	a5,-26(s0)
ffffffc050405f5a:	2781                	sext.w	a5,a5
ffffffc050405f5c:	f7d1                	bnez	a5,ffffffc050405ee8 <EmacPsUtilFrameVerify+0x9a>
ffffffc050405f5e:	a011                	j	ffffffc050405f62 <EmacPsUtilFrameVerify+0x114>
ffffffc050405f60:	0001                	nop
ffffffc050405f62:	4781                	li	a5,0
ffffffc050405f64:	853e                	mv	a0,a5
ffffffc050405f66:	70e2                	ld	ra,56(sp)
ffffffc050405f68:	7442                	ld	s0,48(sp)
ffffffc050405f6a:	6121                	addi	sp,sp,64
ffffffc050405f6c:	8082                	ret

ffffffc050405f6e <EmacPsUtilFrameMemClear>:
ffffffc050405f6e:	7179                	addi	sp,sp,-48
ffffffc050405f70:	f422                	sd	s0,40(sp)
ffffffc050405f72:	1800                	addi	s0,sp,48
ffffffc050405f74:	fca43c23          	sd	a0,-40(s0)
ffffffc050405f78:	fd843783          	ld	a5,-40(s0)
ffffffc050405f7c:	fef43423          	sd	a5,-24(s0)
ffffffc050405f80:	18000793          	li	a5,384
ffffffc050405f84:	fef42223          	sw	a5,-28(s0)
ffffffc050405f88:	a821                	j	ffffffc050405fa0 <EmacPsUtilFrameMemClear+0x32>
ffffffc050405f8a:	fe843783          	ld	a5,-24(s0)
ffffffc050405f8e:	00478713          	addi	a4,a5,4
ffffffc050405f92:	fee43423          	sd	a4,-24(s0)
ffffffc050405f96:	deadc737          	lui	a4,0xdeadc
ffffffc050405f9a:	eef70713          	addi	a4,a4,-273 # ffffffffdeadbeef <__BSS_END__+0x3f8ded8fcf>
ffffffc050405f9e:	c398                	sw	a4,0(a5)
ffffffc050405fa0:	fe442783          	lw	a5,-28(s0)
ffffffc050405fa4:	fff7871b          	addiw	a4,a5,-1
ffffffc050405fa8:	fee42223          	sw	a4,-28(s0)
ffffffc050405fac:	fff9                	bnez	a5,ffffffc050405f8a <EmacPsUtilFrameMemClear+0x1c>
ffffffc050405fae:	0001                	nop
ffffffc050405fb0:	0001                	nop
ffffffc050405fb2:	7422                	ld	s0,40(sp)
ffffffc050405fb4:	6145                	addi	sp,sp,48
ffffffc050405fb6:	8082                	ret

ffffffc050405fb8 <EmacPsUtilstrncpy>:
ffffffc050405fb8:	7179                	addi	sp,sp,-48
ffffffc050405fba:	f422                	sd	s0,40(sp)
ffffffc050405fbc:	1800                	addi	s0,sp,48
ffffffc050405fbe:	fea43423          	sd	a0,-24(s0)
ffffffc050405fc2:	feb43023          	sd	a1,-32(s0)
ffffffc050405fc6:	87b2                	mv	a5,a2
ffffffc050405fc8:	fcf42e23          	sw	a5,-36(s0)
ffffffc050405fcc:	fe043703          	ld	a4,-32(s0)
ffffffc050405fd0:	00170793          	addi	a5,a4,1
ffffffc050405fd4:	fef43023          	sd	a5,-32(s0)
ffffffc050405fd8:	fe843783          	ld	a5,-24(s0)
ffffffc050405fdc:	00178693          	addi	a3,a5,1
ffffffc050405fe0:	fed43423          	sd	a3,-24(s0)
ffffffc050405fe4:	00074703          	lbu	a4,0(a4)
ffffffc050405fe8:	00e78023          	sb	a4,0(a5)
ffffffc050405fec:	fdc42783          	lw	a5,-36(s0)
ffffffc050405ff0:	37fd                	addiw	a5,a5,-1
ffffffc050405ff2:	fcf42e23          	sw	a5,-36(s0)
ffffffc050405ff6:	fdc42783          	lw	a5,-36(s0)
ffffffc050405ffa:	2781                	sext.w	a5,a5
ffffffc050405ffc:	fbe1                	bnez	a5,ffffffc050405fcc <EmacPsUtilstrncpy+0x14>
ffffffc050405ffe:	0001                	nop
ffffffc050406000:	0001                	nop
ffffffc050406002:	7422                	ld	s0,40(sp)
ffffffc050406004:	6145                	addi	sp,sp,48
ffffffc050406006:	8082                	ret

ffffffc050406008 <EmacPsUtilEnterLocalLoopback>:
ffffffc050406008:	7179                	addi	sp,sp,-48
ffffffc05040600a:	f406                	sd	ra,40(sp)
ffffffc05040600c:	f022                	sd	s0,32(sp)
ffffffc05040600e:	1800                	addi	s0,sp,48
ffffffc050406010:	fca43c23          	sd	a0,-40(s0)
ffffffc050406014:	fd843783          	ld	a5,-40(s0)
ffffffc050406018:	679c                	ld	a5,8(a5)
ffffffc05040601a:	853e                	mv	a0,a5
ffffffc05040601c:	c15ff0ef          	jal	ra,ffffffc050405c30 <Xil_In32>
ffffffc050406020:	87aa                	mv	a5,a0
ffffffc050406022:	fef42623          	sw	a5,-20(s0)
ffffffc050406026:	fd843783          	ld	a5,-40(s0)
ffffffc05040602a:	6798                	ld	a4,8(a5)
ffffffc05040602c:	fec42783          	lw	a5,-20(s0)
ffffffc050406030:	0027e793          	ori	a5,a5,2
ffffffc050406034:	2781                	sext.w	a5,a5
ffffffc050406036:	85be                	mv	a1,a5
ffffffc050406038:	853a                	mv	a0,a4
ffffffc05040603a:	bcbff0ef          	jal	ra,ffffffc050405c04 <Xil_Out32>
ffffffc05040603e:	0001                	nop
ffffffc050406040:	70a2                	ld	ra,40(sp)
ffffffc050406042:	7402                	ld	s0,32(sp)
ffffffc050406044:	6145                	addi	sp,sp,48
ffffffc050406046:	8082                	ret

ffffffc050406048 <XEmacPsDetectPHY>:
ffffffc050406048:	7179                	addi	sp,sp,-48
ffffffc05040604a:	f406                	sd	ra,40(sp)
ffffffc05040604c:	f022                	sd	s0,32(sp)
ffffffc05040604e:	1800                	addi	s0,sp,48
ffffffc050406050:	fca43c23          	sd	a0,-40(s0)
ffffffc050406054:	fe042623          	sw	zero,-20(s0)
ffffffc050406058:	a069                	j	ffffffc0504060e2 <XEmacPsDetectPHY+0x9a>
ffffffc05040605a:	fe640713          	addi	a4,s0,-26
ffffffc05040605e:	fec42783          	lw	a5,-20(s0)
ffffffc050406062:	86ba                	mv	a3,a4
ffffffc050406064:	4609                	li	a2,2
ffffffc050406066:	85be                	mv	a1,a5
ffffffc050406068:	fd843503          	ld	a0,-40(s0)
ffffffc05040606c:	8dbff0ef          	jal	ra,ffffffc050405946 <XEmacPs_PhyRead>
ffffffc050406070:	87aa                	mv	a5,a0
ffffffc050406072:	fef42423          	sw	a5,-24(s0)
ffffffc050406076:	fe440713          	addi	a4,s0,-28
ffffffc05040607a:	fec42783          	lw	a5,-20(s0)
ffffffc05040607e:	86ba                	mv	a3,a4
ffffffc050406080:	460d                	li	a2,3
ffffffc050406082:	85be                	mv	a1,a5
ffffffc050406084:	fd843503          	ld	a0,-40(s0)
ffffffc050406088:	8bfff0ef          	jal	ra,ffffffc050405946 <XEmacPs_PhyRead>
ffffffc05040608c:	87aa                	mv	a5,a0
ffffffc05040608e:	0007871b          	sext.w	a4,a5
ffffffc050406092:	fe842783          	lw	a5,-24(s0)
ffffffc050406096:	8fd9                	or	a5,a5,a4
ffffffc050406098:	2781                	sext.w	a5,a5
ffffffc05040609a:	fef42423          	sw	a5,-24(s0)
ffffffc05040609e:	fe842783          	lw	a5,-24(s0)
ffffffc0504060a2:	2781                	sext.w	a5,a5
ffffffc0504060a4:	eb95                	bnez	a5,ffffffc0504060d8 <XEmacPsDetectPHY+0x90>
ffffffc0504060a6:	fe645783          	lhu	a5,-26(s0)
ffffffc0504060aa:	c79d                	beqz	a5,ffffffc0504060d8 <XEmacPsDetectPHY+0x90>
ffffffc0504060ac:	fe645783          	lhu	a5,-26(s0)
ffffffc0504060b0:	0007871b          	sext.w	a4,a5
ffffffc0504060b4:	67c1                	lui	a5,0x10
ffffffc0504060b6:	17fd                	addi	a5,a5,-1
ffffffc0504060b8:	02f70063          	beq	a4,a5,ffffffc0504060d8 <XEmacPsDetectPHY+0x90>
ffffffc0504060bc:	fe445783          	lhu	a5,-28(s0)
ffffffc0504060c0:	cf81                	beqz	a5,ffffffc0504060d8 <XEmacPsDetectPHY+0x90>
ffffffc0504060c2:	fe445783          	lhu	a5,-28(s0)
ffffffc0504060c6:	0007871b          	sext.w	a4,a5
ffffffc0504060ca:	67c1                	lui	a5,0x10
ffffffc0504060cc:	17fd                	addi	a5,a5,-1
ffffffc0504060ce:	00f70563          	beq	a4,a5,ffffffc0504060d8 <XEmacPsDetectPHY+0x90>
ffffffc0504060d2:	fec42783          	lw	a5,-20(s0)
ffffffc0504060d6:	a839                	j	ffffffc0504060f4 <XEmacPsDetectPHY+0xac>
ffffffc0504060d8:	fec42783          	lw	a5,-20(s0)
ffffffc0504060dc:	2785                	addiw	a5,a5,1
ffffffc0504060de:	fef42623          	sw	a5,-20(s0)
ffffffc0504060e2:	fec42783          	lw	a5,-20(s0)
ffffffc0504060e6:	0007871b          	sext.w	a4,a5
ffffffc0504060ea:	47fd                	li	a5,31
ffffffc0504060ec:	f6e7f7e3          	bgeu	a5,a4,ffffffc05040605a <XEmacPsDetectPHY+0x12>
ffffffc0504060f0:	fec42783          	lw	a5,-20(s0)
ffffffc0504060f4:	853e                	mv	a0,a5
ffffffc0504060f6:	70a2                	ld	ra,40(sp)
ffffffc0504060f8:	7402                	ld	s0,32(sp)
ffffffc0504060fa:	6145                	addi	sp,sp,48
ffffffc0504060fc:	8082                	ret

ffffffc0504060fe <EmacPsUtilMarvellPhyLoopback>:
ffffffc0504060fe:	7139                	addi	sp,sp,-64
ffffffc050406100:	fc06                	sd	ra,56(sp)
ffffffc050406102:	f822                	sd	s0,48(sp)
ffffffc050406104:	0080                	addi	s0,sp,64
ffffffc050406106:	fca43423          	sd	a0,-56(s0)
ffffffc05040610a:	87ae                	mv	a5,a1
ffffffc05040610c:	8732                	mv	a4,a2
ffffffc05040610e:	fcf42223          	sw	a5,-60(s0)
ffffffc050406112:	87ba                	mv	a5,a4
ffffffc050406114:	fcf42023          	sw	a5,-64(s0)
ffffffc050406118:	fc041f23          	sh	zero,-34(s0)
ffffffc05040611c:	fc041e23          	sh	zero,-36(s0)
ffffffc050406120:	fe041723          	sh	zero,-18(s0)
ffffffc050406124:	fc442783          	lw	a5,-60(s0)
ffffffc050406128:	0007871b          	sext.w	a4,a5
ffffffc05040612c:	3e800793          	li	a5,1000
ffffffc050406130:	08f70063          	beq	a4,a5,ffffffc0504061b0 <EmacPsUtilMarvellPhyLoopback+0xb2>
ffffffc050406134:	fc442783          	lw	a5,-60(s0)
ffffffc050406138:	0007871b          	sext.w	a4,a5
ffffffc05040613c:	3e800793          	li	a5,1000
ffffffc050406140:	08e7e963          	bltu	a5,a4,ffffffc0504061d2 <EmacPsUtilMarvellPhyLoopback+0xd4>
ffffffc050406144:	fc442783          	lw	a5,-60(s0)
ffffffc050406148:	0007871b          	sext.w	a4,a5
ffffffc05040614c:	47a9                	li	a5,10
ffffffc05040614e:	00f70b63          	beq	a4,a5,ffffffc050406164 <EmacPsUtilMarvellPhyLoopback+0x66>
ffffffc050406152:	fc442783          	lw	a5,-60(s0)
ffffffc050406156:	0007871b          	sext.w	a4,a5
ffffffc05040615a:	06400793          	li	a5,100
ffffffc05040615e:	02f70463          	beq	a4,a5,ffffffc050406186 <EmacPsUtilMarvellPhyLoopback+0x88>
ffffffc050406162:	a885                	j	ffffffc0504061d2 <EmacPsUtilMarvellPhyLoopback+0xd4>
ffffffc050406164:	fde45783          	lhu	a5,-34(s0)
ffffffc050406168:	1007e793          	ori	a5,a5,256
ffffffc05040616c:	17c2                	slli	a5,a5,0x30
ffffffc05040616e:	93c1                	srli	a5,a5,0x30
ffffffc050406170:	fcf41f23          	sh	a5,-34(s0)
ffffffc050406174:	fdc45783          	lhu	a5,-36(s0)
ffffffc050406178:	0307e793          	ori	a5,a5,48
ffffffc05040617c:	17c2                	slli	a5,a5,0x30
ffffffc05040617e:	93c1                	srli	a5,a5,0x30
ffffffc050406180:	fcf41e23          	sh	a5,-36(s0)
ffffffc050406184:	a8b9                	j	ffffffc0504061e2 <EmacPsUtilMarvellPhyLoopback+0xe4>
ffffffc050406186:	fde45703          	lhu	a4,-34(s0)
ffffffc05040618a:	6789                	lui	a5,0x2
ffffffc05040618c:	10078793          	addi	a5,a5,256 # 2100 <_start-0xffffffc0503fdf00>
ffffffc050406190:	8fd9                	or	a5,a5,a4
ffffffc050406192:	17c2                	slli	a5,a5,0x30
ffffffc050406194:	93c1                	srli	a5,a5,0x30
ffffffc050406196:	fcf41f23          	sh	a5,-34(s0)
ffffffc05040619a:	fdc45703          	lhu	a4,-36(s0)
ffffffc05040619e:	6789                	lui	a5,0x2
ffffffc0504061a0:	03078793          	addi	a5,a5,48 # 2030 <_start-0xffffffc0503fdfd0>
ffffffc0504061a4:	8fd9                	or	a5,a5,a4
ffffffc0504061a6:	17c2                	slli	a5,a5,0x30
ffffffc0504061a8:	93c1                	srli	a5,a5,0x30
ffffffc0504061aa:	fcf41e23          	sh	a5,-36(s0)
ffffffc0504061ae:	a815                	j	ffffffc0504061e2 <EmacPsUtilMarvellPhyLoopback+0xe4>
ffffffc0504061b0:	fde45783          	lhu	a5,-34(s0)
ffffffc0504061b4:	1407e793          	ori	a5,a5,320
ffffffc0504061b8:	17c2                	slli	a5,a5,0x30
ffffffc0504061ba:	93c1                	srli	a5,a5,0x30
ffffffc0504061bc:	fcf41f23          	sh	a5,-34(s0)
ffffffc0504061c0:	fdc45783          	lhu	a5,-36(s0)
ffffffc0504061c4:	0707e793          	ori	a5,a5,112
ffffffc0504061c8:	17c2                	slli	a5,a5,0x30
ffffffc0504061ca:	93c1                	srli	a5,a5,0x30
ffffffc0504061cc:	fcf41e23          	sh	a5,-36(s0)
ffffffc0504061d0:	a809                	j	ffffffc0504061e2 <EmacPsUtilMarvellPhyLoopback+0xe4>
ffffffc0504061d2:	00007517          	auipc	a0,0x7
ffffffc0504061d6:	e0e50513          	addi	a0,a0,-498 # ffffffc05040cfe0 <__FUNCTION__.2047+0x60>
ffffffc0504061da:	79b000ef          	jal	ra,ffffffc050407174 <EmacPsUtilErrorTrap>
ffffffc0504061de:	4785                	li	a5,1
ffffffc0504061e0:	a26d                	j	ffffffc05040638a <EmacPsUtilMarvellPhyLoopback+0x28c>
ffffffc0504061e2:	fde45703          	lhu	a4,-34(s0)
ffffffc0504061e6:	fc042783          	lw	a5,-64(s0)
ffffffc0504061ea:	86ba                	mv	a3,a4
ffffffc0504061ec:	4601                	li	a2,0
ffffffc0504061ee:	85be                	mv	a1,a5
ffffffc0504061f0:	fc843503          	ld	a0,-56(s0)
ffffffc0504061f4:	82bff0ef          	jal	ra,ffffffc050405a1e <XEmacPs_PhyWrite>
ffffffc0504061f8:	fea43023          	sd	a0,-32(s0)
ffffffc0504061fc:	fde40713          	addi	a4,s0,-34
ffffffc050406200:	fc042783          	lw	a5,-64(s0)
ffffffc050406204:	86ba                	mv	a3,a4
ffffffc050406206:	4601                	li	a2,0
ffffffc050406208:	85be                	mv	a1,a5
ffffffc05040620a:	fc843503          	ld	a0,-56(s0)
ffffffc05040620e:	f38ff0ef          	jal	ra,ffffffc050405946 <XEmacPs_PhyRead>
ffffffc050406212:	fea43023          	sd	a0,-32(s0)
ffffffc050406216:	fe043783          	ld	a5,-32(s0)
ffffffc05040621a:	cb89                	beqz	a5,ffffffc05040622c <EmacPsUtilMarvellPhyLoopback+0x12e>
ffffffc05040621c:	00007517          	auipc	a0,0x7
ffffffc050406220:	de450513          	addi	a0,a0,-540 # ffffffc05040d000 <__FUNCTION__.2047+0x80>
ffffffc050406224:	751000ef          	jal	ra,ffffffc050407174 <EmacPsUtilErrorTrap>
ffffffc050406228:	4785                	li	a5,1
ffffffc05040622a:	a285                	j	ffffffc05040638a <EmacPsUtilMarvellPhyLoopback+0x28c>
ffffffc05040622c:	4789                	li	a5,2
ffffffc05040622e:	fef41723          	sh	a5,-18(s0)
ffffffc050406232:	fee45703          	lhu	a4,-18(s0)
ffffffc050406236:	fc042783          	lw	a5,-64(s0)
ffffffc05040623a:	86ba                	mv	a3,a4
ffffffc05040623c:	4659                	li	a2,22
ffffffc05040623e:	85be                	mv	a1,a5
ffffffc050406240:	fc843503          	ld	a0,-56(s0)
ffffffc050406244:	fdaff0ef          	jal	ra,ffffffc050405a1e <XEmacPs_PhyWrite>
ffffffc050406248:	fea43023          	sd	a0,-32(s0)
ffffffc05040624c:	fdc45703          	lhu	a4,-36(s0)
ffffffc050406250:	fc042783          	lw	a5,-64(s0)
ffffffc050406254:	86ba                	mv	a3,a4
ffffffc050406256:	4655                	li	a2,21
ffffffc050406258:	85be                	mv	a1,a5
ffffffc05040625a:	fc843503          	ld	a0,-56(s0)
ffffffc05040625e:	fc0ff0ef          	jal	ra,ffffffc050405a1e <XEmacPs_PhyWrite>
ffffffc050406262:	fea43023          	sd	a0,-32(s0)
ffffffc050406266:	fdc40713          	addi	a4,s0,-36
ffffffc05040626a:	fc042783          	lw	a5,-64(s0)
ffffffc05040626e:	86ba                	mv	a3,a4
ffffffc050406270:	4655                	li	a2,21
ffffffc050406272:	85be                	mv	a1,a5
ffffffc050406274:	fc843503          	ld	a0,-56(s0)
ffffffc050406278:	eceff0ef          	jal	ra,ffffffc050405946 <XEmacPs_PhyRead>
ffffffc05040627c:	fea43023          	sd	a0,-32(s0)
ffffffc050406280:	fe043783          	ld	a5,-32(s0)
ffffffc050406284:	cb89                	beqz	a5,ffffffc050406296 <EmacPsUtilMarvellPhyLoopback+0x198>
ffffffc050406286:	00007517          	auipc	a0,0x7
ffffffc05040628a:	d9250513          	addi	a0,a0,-622 # ffffffc05040d018 <__FUNCTION__.2047+0x98>
ffffffc05040628e:	6e7000ef          	jal	ra,ffffffc050407174 <EmacPsUtilErrorTrap>
ffffffc050406292:	4785                	li	a5,1
ffffffc050406294:	a8dd                	j	ffffffc05040638a <EmacPsUtilMarvellPhyLoopback+0x28c>
ffffffc050406296:	fe041723          	sh	zero,-18(s0)
ffffffc05040629a:	fee45703          	lhu	a4,-18(s0)
ffffffc05040629e:	fc042783          	lw	a5,-64(s0)
ffffffc0504062a2:	86ba                	mv	a3,a4
ffffffc0504062a4:	4659                	li	a2,22
ffffffc0504062a6:	85be                	mv	a1,a5
ffffffc0504062a8:	fc843503          	ld	a0,-56(s0)
ffffffc0504062ac:	f72ff0ef          	jal	ra,ffffffc050405a1e <XEmacPs_PhyWrite>
ffffffc0504062b0:	fea43023          	sd	a0,-32(s0)
ffffffc0504062b4:	fde40713          	addi	a4,s0,-34
ffffffc0504062b8:	fc042783          	lw	a5,-64(s0)
ffffffc0504062bc:	86ba                	mv	a3,a4
ffffffc0504062be:	4601                	li	a2,0
ffffffc0504062c0:	85be                	mv	a1,a5
ffffffc0504062c2:	fc843503          	ld	a0,-56(s0)
ffffffc0504062c6:	e80ff0ef          	jal	ra,ffffffc050405946 <XEmacPs_PhyRead>
ffffffc0504062ca:	fea43023          	sd	a0,-32(s0)
ffffffc0504062ce:	fde45703          	lhu	a4,-34(s0)
ffffffc0504062d2:	77e1                	lui	a5,0xffff8
ffffffc0504062d4:	8fd9                	or	a5,a5,a4
ffffffc0504062d6:	17c2                	slli	a5,a5,0x30
ffffffc0504062d8:	93c1                	srli	a5,a5,0x30
ffffffc0504062da:	fcf41f23          	sh	a5,-34(s0)
ffffffc0504062de:	fde45703          	lhu	a4,-34(s0)
ffffffc0504062e2:	fc042783          	lw	a5,-64(s0)
ffffffc0504062e6:	86ba                	mv	a3,a4
ffffffc0504062e8:	4601                	li	a2,0
ffffffc0504062ea:	85be                	mv	a1,a5
ffffffc0504062ec:	fc843503          	ld	a0,-56(s0)
ffffffc0504062f0:	f2eff0ef          	jal	ra,ffffffc050405a1e <XEmacPs_PhyWrite>
ffffffc0504062f4:	fea43023          	sd	a0,-32(s0)
ffffffc0504062f8:	fde40713          	addi	a4,s0,-34
ffffffc0504062fc:	fc042783          	lw	a5,-64(s0)
ffffffc050406300:	86ba                	mv	a3,a4
ffffffc050406302:	4601                	li	a2,0
ffffffc050406304:	85be                	mv	a1,a5
ffffffc050406306:	fc843503          	ld	a0,-56(s0)
ffffffc05040630a:	e3cff0ef          	jal	ra,ffffffc050405946 <XEmacPs_PhyRead>
ffffffc05040630e:	fea43023          	sd	a0,-32(s0)
ffffffc050406312:	fe043783          	ld	a5,-32(s0)
ffffffc050406316:	cb89                	beqz	a5,ffffffc050406328 <EmacPsUtilMarvellPhyLoopback+0x22a>
ffffffc050406318:	00007517          	auipc	a0,0x7
ffffffc05040631c:	d2050513          	addi	a0,a0,-736 # ffffffc05040d038 <__FUNCTION__.2047+0xb8>
ffffffc050406320:	655000ef          	jal	ra,ffffffc050407174 <EmacPsUtilErrorTrap>
ffffffc050406324:	4785                	li	a5,1
ffffffc050406326:	a095                	j	ffffffc05040638a <EmacPsUtilMarvellPhyLoopback+0x28c>
ffffffc050406328:	fde45703          	lhu	a4,-34(s0)
ffffffc05040632c:	6791                	lui	a5,0x4
ffffffc05040632e:	8fd9                	or	a5,a5,a4
ffffffc050406330:	17c2                	slli	a5,a5,0x30
ffffffc050406332:	93c1                	srli	a5,a5,0x30
ffffffc050406334:	fcf41f23          	sh	a5,-34(s0)
ffffffc050406338:	fde45703          	lhu	a4,-34(s0)
ffffffc05040633c:	fc042783          	lw	a5,-64(s0)
ffffffc050406340:	86ba                	mv	a3,a4
ffffffc050406342:	4601                	li	a2,0
ffffffc050406344:	85be                	mv	a1,a5
ffffffc050406346:	fc843503          	ld	a0,-56(s0)
ffffffc05040634a:	ed4ff0ef          	jal	ra,ffffffc050405a1e <XEmacPs_PhyWrite>
ffffffc05040634e:	fea43023          	sd	a0,-32(s0)
ffffffc050406352:	fde40713          	addi	a4,s0,-34
ffffffc050406356:	fc042783          	lw	a5,-64(s0)
ffffffc05040635a:	86ba                	mv	a3,a4
ffffffc05040635c:	4601                	li	a2,0
ffffffc05040635e:	85be                	mv	a1,a5
ffffffc050406360:	fc843503          	ld	a0,-56(s0)
ffffffc050406364:	de2ff0ef          	jal	ra,ffffffc050405946 <XEmacPs_PhyRead>
ffffffc050406368:	fea43023          	sd	a0,-32(s0)
ffffffc05040636c:	fe043783          	ld	a5,-32(s0)
ffffffc050406370:	cb89                	beqz	a5,ffffffc050406382 <EmacPsUtilMarvellPhyLoopback+0x284>
ffffffc050406372:	00007517          	auipc	a0,0x7
ffffffc050406376:	cd650513          	addi	a0,a0,-810 # ffffffc05040d048 <__FUNCTION__.2047+0xc8>
ffffffc05040637a:	5fb000ef          	jal	ra,ffffffc050407174 <EmacPsUtilErrorTrap>
ffffffc05040637e:	4785                	li	a5,1
ffffffc050406380:	a029                	j	ffffffc05040638a <EmacPsUtilMarvellPhyLoopback+0x28c>
ffffffc050406382:	4505                	li	a0,1
ffffffc050406384:	491000ef          	jal	ra,ffffffc050407014 <EmacpsDelay>
ffffffc050406388:	4781                	li	a5,0
ffffffc05040638a:	853e                	mv	a0,a5
ffffffc05040638c:	70e2                	ld	ra,56(sp)
ffffffc05040638e:	7442                	ld	s0,48(sp)
ffffffc050406390:	6121                	addi	sp,sp,64
ffffffc050406392:	8082                	ret

ffffffc050406394 <EmacPsUtilTiPhyLoopback>:
ffffffc050406394:	7139                	addi	sp,sp,-64
ffffffc050406396:	fc06                	sd	ra,56(sp)
ffffffc050406398:	f822                	sd	s0,48(sp)
ffffffc05040639a:	0080                	addi	s0,sp,64
ffffffc05040639c:	fca43423          	sd	a0,-56(s0)
ffffffc0504063a0:	87ae                	mv	a5,a1
ffffffc0504063a2:	8732                	mv	a4,a2
ffffffc0504063a4:	fcf42223          	sw	a5,-60(s0)
ffffffc0504063a8:	87ba                	mv	a5,a4
ffffffc0504063aa:	fcf42023          	sw	a5,-64(s0)
ffffffc0504063ae:	fc041f23          	sh	zero,-34(s0)
ffffffc0504063b2:	fe041623          	sh	zero,-20(s0)
ffffffc0504063b6:	0a800793          	li	a5,168
ffffffc0504063ba:	fef41723          	sh	a5,-18(s0)
ffffffc0504063be:	fc442783          	lw	a5,-60(s0)
ffffffc0504063c2:	0007871b          	sext.w	a4,a5
ffffffc0504063c6:	3e800793          	li	a5,1000
ffffffc0504063ca:	04f70e63          	beq	a4,a5,ffffffc050406426 <EmacPsUtilTiPhyLoopback+0x92>
ffffffc0504063ce:	fc442783          	lw	a5,-60(s0)
ffffffc0504063d2:	0007871b          	sext.w	a4,a5
ffffffc0504063d6:	3e800793          	li	a5,1000
ffffffc0504063da:	04e7ef63          	bltu	a5,a4,ffffffc050406438 <EmacPsUtilTiPhyLoopback+0xa4>
ffffffc0504063de:	fc442783          	lw	a5,-60(s0)
ffffffc0504063e2:	0007871b          	sext.w	a4,a5
ffffffc0504063e6:	47a9                	li	a5,10
ffffffc0504063e8:	00f70b63          	beq	a4,a5,ffffffc0504063fe <EmacPsUtilTiPhyLoopback+0x6a>
ffffffc0504063ec:	fc442783          	lw	a5,-60(s0)
ffffffc0504063f0:	0007871b          	sext.w	a4,a5
ffffffc0504063f4:	06400793          	li	a5,100
ffffffc0504063f8:	00f70c63          	beq	a4,a5,ffffffc050406410 <EmacPsUtilTiPhyLoopback+0x7c>
ffffffc0504063fc:	a835                	j	ffffffc050406438 <EmacPsUtilTiPhyLoopback+0xa4>
ffffffc0504063fe:	fde45783          	lhu	a5,-34(s0)
ffffffc050406402:	1007e793          	ori	a5,a5,256
ffffffc050406406:	17c2                	slli	a5,a5,0x30
ffffffc050406408:	93c1                	srli	a5,a5,0x30
ffffffc05040640a:	fcf41f23          	sh	a5,-34(s0)
ffffffc05040640e:	a82d                	j	ffffffc050406448 <EmacPsUtilTiPhyLoopback+0xb4>
ffffffc050406410:	fde45703          	lhu	a4,-34(s0)
ffffffc050406414:	6789                	lui	a5,0x2
ffffffc050406416:	10078793          	addi	a5,a5,256 # 2100 <_start-0xffffffc0503fdf00>
ffffffc05040641a:	8fd9                	or	a5,a5,a4
ffffffc05040641c:	17c2                	slli	a5,a5,0x30
ffffffc05040641e:	93c1                	srli	a5,a5,0x30
ffffffc050406420:	fcf41f23          	sh	a5,-34(s0)
ffffffc050406424:	a015                	j	ffffffc050406448 <EmacPsUtilTiPhyLoopback+0xb4>
ffffffc050406426:	fde45783          	lhu	a5,-34(s0)
ffffffc05040642a:	1407e793          	ori	a5,a5,320
ffffffc05040642e:	17c2                	slli	a5,a5,0x30
ffffffc050406430:	93c1                	srli	a5,a5,0x30
ffffffc050406432:	fcf41f23          	sh	a5,-34(s0)
ffffffc050406436:	a809                	j	ffffffc050406448 <EmacPsUtilTiPhyLoopback+0xb4>
ffffffc050406438:	00007517          	auipc	a0,0x7
ffffffc05040643c:	ba850513          	addi	a0,a0,-1112 # ffffffc05040cfe0 <__FUNCTION__.2047+0x60>
ffffffc050406440:	535000ef          	jal	ra,ffffffc050407174 <EmacPsUtilErrorTrap>
ffffffc050406444:	4785                	li	a5,1
ffffffc050406446:	a9e9                	j	ffffffc050406920 <EmacPsUtilTiPhyLoopback+0x58c>
ffffffc050406448:	fde45783          	lhu	a5,-34(s0)
ffffffc05040644c:	fef41623          	sh	a5,-20(s0)
ffffffc050406450:	fde45703          	lhu	a4,-34(s0)
ffffffc050406454:	fc042783          	lw	a5,-64(s0)
ffffffc050406458:	86ba                	mv	a3,a4
ffffffc05040645a:	4601                	li	a2,0
ffffffc05040645c:	85be                	mv	a1,a5
ffffffc05040645e:	fc843503          	ld	a0,-56(s0)
ffffffc050406462:	dbcff0ef          	jal	ra,ffffffc050405a1e <XEmacPs_PhyWrite>
ffffffc050406466:	fea43023          	sd	a0,-32(s0)
ffffffc05040646a:	fde40713          	addi	a4,s0,-34
ffffffc05040646e:	fc042783          	lw	a5,-64(s0)
ffffffc050406472:	86ba                	mv	a3,a4
ffffffc050406474:	4601                	li	a2,0
ffffffc050406476:	85be                	mv	a1,a5
ffffffc050406478:	fc843503          	ld	a0,-56(s0)
ffffffc05040647c:	ccaff0ef          	jal	ra,ffffffc050405946 <XEmacPs_PhyRead>
ffffffc050406480:	fea43023          	sd	a0,-32(s0)
ffffffc050406484:	fe043783          	ld	a5,-32(s0)
ffffffc050406488:	cb89                	beqz	a5,ffffffc05040649a <EmacPsUtilTiPhyLoopback+0x106>
ffffffc05040648a:	00007517          	auipc	a0,0x7
ffffffc05040648e:	b7650513          	addi	a0,a0,-1162 # ffffffc05040d000 <__FUNCTION__.2047+0x80>
ffffffc050406492:	4e3000ef          	jal	ra,ffffffc050407174 <EmacPsUtilErrorTrap>
ffffffc050406496:	4785                	li	a5,1
ffffffc050406498:	a161                	j	ffffffc050406920 <EmacPsUtilTiPhyLoopback+0x58c>
ffffffc05040649a:	fde40713          	addi	a4,s0,-34
ffffffc05040649e:	fc042783          	lw	a5,-64(s0)
ffffffc0504064a2:	86ba                	mv	a3,a4
ffffffc0504064a4:	4605                	li	a2,1
ffffffc0504064a6:	85be                	mv	a1,a5
ffffffc0504064a8:	fc843503          	ld	a0,-56(s0)
ffffffc0504064ac:	c9aff0ef          	jal	ra,ffffffc050405946 <XEmacPs_PhyRead>
ffffffc0504064b0:	fea43023          	sd	a0,-32(s0)
ffffffc0504064b4:	fe043783          	ld	a5,-32(s0)
ffffffc0504064b8:	cb89                	beqz	a5,ffffffc0504064ca <EmacPsUtilTiPhyLoopback+0x136>
ffffffc0504064ba:	00007517          	auipc	a0,0x7
ffffffc0504064be:	b4650513          	addi	a0,a0,-1210 # ffffffc05040d000 <__FUNCTION__.2047+0x80>
ffffffc0504064c2:	4b3000ef          	jal	ra,ffffffc050407174 <EmacPsUtilErrorTrap>
ffffffc0504064c6:	4785                	li	a5,1
ffffffc0504064c8:	a9a1                	j	ffffffc050406920 <EmacPsUtilTiPhyLoopback+0x58c>
ffffffc0504064ca:	fc042783          	lw	a5,-64(s0)
ffffffc0504064ce:	46fd                	li	a3,31
ffffffc0504064d0:	4635                	li	a2,13
ffffffc0504064d2:	85be                	mv	a1,a5
ffffffc0504064d4:	fc843503          	ld	a0,-56(s0)
ffffffc0504064d8:	d46ff0ef          	jal	ra,ffffffc050405a1e <XEmacPs_PhyWrite>
ffffffc0504064dc:	fea43023          	sd	a0,-32(s0)
ffffffc0504064e0:	fc042783          	lw	a5,-64(s0)
ffffffc0504064e4:	0fe00693          	li	a3,254
ffffffc0504064e8:	4639                	li	a2,14
ffffffc0504064ea:	85be                	mv	a1,a5
ffffffc0504064ec:	fc843503          	ld	a0,-56(s0)
ffffffc0504064f0:	d2eff0ef          	jal	ra,ffffffc050405a1e <XEmacPs_PhyWrite>
ffffffc0504064f4:	fea43023          	sd	a0,-32(s0)
ffffffc0504064f8:	fc042703          	lw	a4,-64(s0)
ffffffc0504064fc:	6791                	lui	a5,0x4
ffffffc0504064fe:	01f78693          	addi	a3,a5,31 # 401f <_start-0xffffffc0503fbfe1>
ffffffc050406502:	4635                	li	a2,13
ffffffc050406504:	85ba                	mv	a1,a4
ffffffc050406506:	fc843503          	ld	a0,-56(s0)
ffffffc05040650a:	d14ff0ef          	jal	ra,ffffffc050405a1e <XEmacPs_PhyWrite>
ffffffc05040650e:	fea43023          	sd	a0,-32(s0)
ffffffc050406512:	fc042703          	lw	a4,-64(s0)
ffffffc050406516:	67bd                	lui	a5,0xf
ffffffc050406518:	f2078693          	addi	a3,a5,-224 # ef20 <_start-0xffffffc0503f10e0>
ffffffc05040651c:	4639                	li	a2,14
ffffffc05040651e:	85ba                	mv	a1,a4
ffffffc050406520:	fc843503          	ld	a0,-56(s0)
ffffffc050406524:	cfaff0ef          	jal	ra,ffffffc050405a1e <XEmacPs_PhyWrite>
ffffffc050406528:	fea43023          	sd	a0,-32(s0)
ffffffc05040652c:	fe043783          	ld	a5,-32(s0)
ffffffc050406530:	cb89                	beqz	a5,ffffffc050406542 <EmacPsUtilTiPhyLoopback+0x1ae>
ffffffc050406532:	00007517          	auipc	a0,0x7
ffffffc050406536:	ace50513          	addi	a0,a0,-1330 # ffffffc05040d000 <__FUNCTION__.2047+0x80>
ffffffc05040653a:	43b000ef          	jal	ra,ffffffc050407174 <EmacPsUtilErrorTrap>
ffffffc05040653e:	4785                	li	a5,1
ffffffc050406540:	a6c5                	j	ffffffc050406920 <EmacPsUtilTiPhyLoopback+0x58c>
ffffffc050406542:	fc042783          	lw	a5,-64(s0)
ffffffc050406546:	46fd                	li	a3,31
ffffffc050406548:	4635                	li	a2,13
ffffffc05040654a:	85be                	mv	a1,a5
ffffffc05040654c:	fc843503          	ld	a0,-56(s0)
ffffffc050406550:	cceff0ef          	jal	ra,ffffffc050405a1e <XEmacPs_PhyWrite>
ffffffc050406554:	fea43023          	sd	a0,-32(s0)
ffffffc050406558:	fc042783          	lw	a5,-64(s0)
ffffffc05040655c:	0fe00693          	li	a3,254
ffffffc050406560:	4639                	li	a2,14
ffffffc050406562:	85be                	mv	a1,a5
ffffffc050406564:	fc843503          	ld	a0,-56(s0)
ffffffc050406568:	cb6ff0ef          	jal	ra,ffffffc050405a1e <XEmacPs_PhyWrite>
ffffffc05040656c:	fea43023          	sd	a0,-32(s0)
ffffffc050406570:	fc042703          	lw	a4,-64(s0)
ffffffc050406574:	6791                	lui	a5,0x4
ffffffc050406576:	01f78693          	addi	a3,a5,31 # 401f <_start-0xffffffc0503fbfe1>
ffffffc05040657a:	4635                	li	a2,13
ffffffc05040657c:	85ba                	mv	a1,a4
ffffffc05040657e:	fc843503          	ld	a0,-56(s0)
ffffffc050406582:	c9cff0ef          	jal	ra,ffffffc050405a1e <XEmacPs_PhyWrite>
ffffffc050406586:	fea43023          	sd	a0,-32(s0)
ffffffc05040658a:	fde40713          	addi	a4,s0,-34
ffffffc05040658e:	fc042783          	lw	a5,-64(s0)
ffffffc050406592:	86ba                	mv	a3,a4
ffffffc050406594:	4639                	li	a2,14
ffffffc050406596:	85be                	mv	a1,a5
ffffffc050406598:	fc843503          	ld	a0,-56(s0)
ffffffc05040659c:	baaff0ef          	jal	ra,ffffffc050405946 <XEmacPs_PhyRead>
ffffffc0504065a0:	fea43023          	sd	a0,-32(s0)
ffffffc0504065a4:	fe043783          	ld	a5,-32(s0)
ffffffc0504065a8:	cb89                	beqz	a5,ffffffc0504065ba <EmacPsUtilTiPhyLoopback+0x226>
ffffffc0504065aa:	00007517          	auipc	a0,0x7
ffffffc0504065ae:	a5650513          	addi	a0,a0,-1450 # ffffffc05040d000 <__FUNCTION__.2047+0x80>
ffffffc0504065b2:	3c3000ef          	jal	ra,ffffffc050407174 <EmacPsUtilErrorTrap>
ffffffc0504065b6:	4785                	li	a5,1
ffffffc0504065b8:	a6a5                	j	ffffffc050406920 <EmacPsUtilTiPhyLoopback+0x58c>
ffffffc0504065ba:	fc042783          	lw	a5,-64(s0)
ffffffc0504065be:	6691                	lui	a3,0x4
ffffffc0504065c0:	467d                	li	a2,31
ffffffc0504065c2:	85be                	mv	a1,a5
ffffffc0504065c4:	fc843503          	ld	a0,-56(s0)
ffffffc0504065c8:	c56ff0ef          	jal	ra,ffffffc050405a1e <XEmacPs_PhyWrite>
ffffffc0504065cc:	fea43023          	sd	a0,-32(s0)
ffffffc0504065d0:	fde40713          	addi	a4,s0,-34
ffffffc0504065d4:	fc042783          	lw	a5,-64(s0)
ffffffc0504065d8:	86ba                	mv	a3,a4
ffffffc0504065da:	4601                	li	a2,0
ffffffc0504065dc:	85be                	mv	a1,a5
ffffffc0504065de:	fc843503          	ld	a0,-56(s0)
ffffffc0504065e2:	b64ff0ef          	jal	ra,ffffffc050405946 <XEmacPs_PhyRead>
ffffffc0504065e6:	fea43023          	sd	a0,-32(s0)
ffffffc0504065ea:	fe043783          	ld	a5,-32(s0)
ffffffc0504065ee:	cb89                	beqz	a5,ffffffc050406600 <EmacPsUtilTiPhyLoopback+0x26c>
ffffffc0504065f0:	00007517          	auipc	a0,0x7
ffffffc0504065f4:	a1050513          	addi	a0,a0,-1520 # ffffffc05040d000 <__FUNCTION__.2047+0x80>
ffffffc0504065f8:	37d000ef          	jal	ra,ffffffc050407174 <EmacPsUtilErrorTrap>
ffffffc0504065fc:	4785                	li	a5,1
ffffffc0504065fe:	a60d                	j	ffffffc050406920 <EmacPsUtilTiPhyLoopback+0x58c>
ffffffc050406600:	fde40713          	addi	a4,s0,-34
ffffffc050406604:	fc042783          	lw	a5,-64(s0)
ffffffc050406608:	86ba                	mv	a3,a4
ffffffc05040660a:	4601                	li	a2,0
ffffffc05040660c:	85be                	mv	a1,a5
ffffffc05040660e:	fc843503          	ld	a0,-56(s0)
ffffffc050406612:	b34ff0ef          	jal	ra,ffffffc050405946 <XEmacPs_PhyRead>
ffffffc050406616:	fea43023          	sd	a0,-32(s0)
ffffffc05040661a:	fde45703          	lhu	a4,-34(s0)
ffffffc05040661e:	77e1                	lui	a5,0xffff8
ffffffc050406620:	8fd9                	or	a5,a5,a4
ffffffc050406622:	17c2                	slli	a5,a5,0x30
ffffffc050406624:	93c1                	srli	a5,a5,0x30
ffffffc050406626:	fcf41f23          	sh	a5,-34(s0)
ffffffc05040662a:	fde45703          	lhu	a4,-34(s0)
ffffffc05040662e:	fc042783          	lw	a5,-64(s0)
ffffffc050406632:	86ba                	mv	a3,a4
ffffffc050406634:	4601                	li	a2,0
ffffffc050406636:	85be                	mv	a1,a5
ffffffc050406638:	fc843503          	ld	a0,-56(s0)
ffffffc05040663c:	be2ff0ef          	jal	ra,ffffffc050405a1e <XEmacPs_PhyWrite>
ffffffc050406640:	fea43023          	sd	a0,-32(s0)
ffffffc050406644:	fde40713          	addi	a4,s0,-34
ffffffc050406648:	fc042783          	lw	a5,-64(s0)
ffffffc05040664c:	86ba                	mv	a3,a4
ffffffc05040664e:	4601                	li	a2,0
ffffffc050406650:	85be                	mv	a1,a5
ffffffc050406652:	fc843503          	ld	a0,-56(s0)
ffffffc050406656:	af0ff0ef          	jal	ra,ffffffc050405946 <XEmacPs_PhyRead>
ffffffc05040665a:	fea43023          	sd	a0,-32(s0)
ffffffc05040665e:	fe043783          	ld	a5,-32(s0)
ffffffc050406662:	cb89                	beqz	a5,ffffffc050406674 <EmacPsUtilTiPhyLoopback+0x2e0>
ffffffc050406664:	00007517          	auipc	a0,0x7
ffffffc050406668:	9d450513          	addi	a0,a0,-1580 # ffffffc05040d038 <__FUNCTION__.2047+0xb8>
ffffffc05040666c:	309000ef          	jal	ra,ffffffc050407174 <EmacPsUtilErrorTrap>
ffffffc050406670:	4785                	li	a5,1
ffffffc050406672:	a47d                	j	ffffffc050406920 <EmacPsUtilTiPhyLoopback+0x58c>
ffffffc050406674:	4505                	li	a0,1
ffffffc050406676:	19f000ef          	jal	ra,ffffffc050407014 <EmacpsDelay>
ffffffc05040667a:	fec45703          	lhu	a4,-20(s0)
ffffffc05040667e:	6791                	lui	a5,0x4
ffffffc050406680:	8fd9                	or	a5,a5,a4
ffffffc050406682:	17c2                	slli	a5,a5,0x30
ffffffc050406684:	93c1                	srli	a5,a5,0x30
ffffffc050406686:	fcf41f23          	sh	a5,-34(s0)
ffffffc05040668a:	fde45703          	lhu	a4,-34(s0)
ffffffc05040668e:	fc042783          	lw	a5,-64(s0)
ffffffc050406692:	86ba                	mv	a3,a4
ffffffc050406694:	4601                	li	a2,0
ffffffc050406696:	85be                	mv	a1,a5
ffffffc050406698:	fc843503          	ld	a0,-56(s0)
ffffffc05040669c:	b82ff0ef          	jal	ra,ffffffc050405a1e <XEmacPs_PhyWrite>
ffffffc0504066a0:	fea43023          	sd	a0,-32(s0)
ffffffc0504066a4:	fde40713          	addi	a4,s0,-34
ffffffc0504066a8:	fc042783          	lw	a5,-64(s0)
ffffffc0504066ac:	86ba                	mv	a3,a4
ffffffc0504066ae:	4601                	li	a2,0
ffffffc0504066b0:	85be                	mv	a1,a5
ffffffc0504066b2:	fc843503          	ld	a0,-56(s0)
ffffffc0504066b6:	a90ff0ef          	jal	ra,ffffffc050405946 <XEmacPs_PhyRead>
ffffffc0504066ba:	fea43023          	sd	a0,-32(s0)
ffffffc0504066be:	fe043783          	ld	a5,-32(s0)
ffffffc0504066c2:	cb89                	beqz	a5,ffffffc0504066d4 <EmacPsUtilTiPhyLoopback+0x340>
ffffffc0504066c4:	00007517          	auipc	a0,0x7
ffffffc0504066c8:	98450513          	addi	a0,a0,-1660 # ffffffc05040d048 <__FUNCTION__.2047+0xc8>
ffffffc0504066cc:	2a9000ef          	jal	ra,ffffffc050407174 <EmacPsUtilErrorTrap>
ffffffc0504066d0:	4785                	li	a5,1
ffffffc0504066d2:	a4b9                	j	ffffffc050406920 <EmacPsUtilTiPhyLoopback+0x58c>
ffffffc0504066d4:	fc042703          	lw	a4,-64(s0)
ffffffc0504066d8:	6795                	lui	a5,0x5
ffffffc0504066da:	04878693          	addi	a3,a5,72 # 5048 <_start-0xffffffc0503fafb8>
ffffffc0504066de:	4641                	li	a2,16
ffffffc0504066e0:	85ba                	mv	a1,a4
ffffffc0504066e2:	fc843503          	ld	a0,-56(s0)
ffffffc0504066e6:	b38ff0ef          	jal	ra,ffffffc050405a1e <XEmacPs_PhyWrite>
ffffffc0504066ea:	fea43023          	sd	a0,-32(s0)
ffffffc0504066ee:	fde40713          	addi	a4,s0,-34
ffffffc0504066f2:	fc042783          	lw	a5,-64(s0)
ffffffc0504066f6:	86ba                	mv	a3,a4
ffffffc0504066f8:	4641                	li	a2,16
ffffffc0504066fa:	85be                	mv	a1,a5
ffffffc0504066fc:	fc843503          	ld	a0,-56(s0)
ffffffc050406700:	a46ff0ef          	jal	ra,ffffffc050405946 <XEmacPs_PhyRead>
ffffffc050406704:	fea43023          	sd	a0,-32(s0)
ffffffc050406708:	fe043783          	ld	a5,-32(s0)
ffffffc05040670c:	cb89                	beqz	a5,ffffffc05040671e <EmacPsUtilTiPhyLoopback+0x38a>
ffffffc05040670e:	00007517          	auipc	a0,0x7
ffffffc050406712:	93a50513          	addi	a0,a0,-1734 # ffffffc05040d048 <__FUNCTION__.2047+0xc8>
ffffffc050406716:	25f000ef          	jal	ra,ffffffc050407174 <EmacPsUtilErrorTrap>
ffffffc05040671a:	4785                	li	a5,1
ffffffc05040671c:	a411                	j	ffffffc050406920 <EmacPsUtilTiPhyLoopback+0x58c>
ffffffc05040671e:	fc042783          	lw	a5,-64(s0)
ffffffc050406722:	46fd                	li	a3,31
ffffffc050406724:	4635                	li	a2,13
ffffffc050406726:	85be                	mv	a1,a5
ffffffc050406728:	fc843503          	ld	a0,-56(s0)
ffffffc05040672c:	af2ff0ef          	jal	ra,ffffffc050405a1e <XEmacPs_PhyWrite>
ffffffc050406730:	fc042783          	lw	a5,-64(s0)
ffffffc050406734:	08600693          	li	a3,134
ffffffc050406738:	4639                	li	a2,14
ffffffc05040673a:	85be                	mv	a1,a5
ffffffc05040673c:	fc843503          	ld	a0,-56(s0)
ffffffc050406740:	adeff0ef          	jal	ra,ffffffc050405a1e <XEmacPs_PhyWrite>
ffffffc050406744:	fc042703          	lw	a4,-64(s0)
ffffffc050406748:	6791                	lui	a5,0x4
ffffffc05040674a:	01f78693          	addi	a3,a5,31 # 401f <_start-0xffffffc0503fbfe1>
ffffffc05040674e:	4635                	li	a2,13
ffffffc050406750:	85ba                	mv	a1,a4
ffffffc050406752:	fc843503          	ld	a0,-56(s0)
ffffffc050406756:	ac8ff0ef          	jal	ra,ffffffc050405a1e <XEmacPs_PhyWrite>
ffffffc05040675a:	007fa797          	auipc	a5,0x7fa
ffffffc05040675e:	8ae78793          	addi	a5,a5,-1874 # ffffffc050c00008 <Platform>
ffffffc050406762:	439c                	lw	a5,0(a5)
ffffffc050406764:	873e                	mv	a4,a5
ffffffc050406766:	67bd                	lui	a5,0xf
ffffffc050406768:	8ff9                	and	a5,a5,a4
ffffffc05040676a:	2781                	sext.w	a5,a5
ffffffc05040676c:	873e                	mv	a4,a5
ffffffc05040676e:	6795                	lui	a5,0x5
ffffffc050406770:	00f71663          	bne	a4,a5,ffffffc05040677c <EmacPsUtilTiPhyLoopback+0x3e8>
ffffffc050406774:	0ab00793          	li	a5,171
ffffffc050406778:	fef41723          	sh	a5,-18(s0)
ffffffc05040677c:	fee45703          	lhu	a4,-18(s0)
ffffffc050406780:	fc042783          	lw	a5,-64(s0)
ffffffc050406784:	86ba                	mv	a3,a4
ffffffc050406786:	4639                	li	a2,14
ffffffc050406788:	85be                	mv	a1,a5
ffffffc05040678a:	fc843503          	ld	a0,-56(s0)
ffffffc05040678e:	a90ff0ef          	jal	ra,ffffffc050405a1e <XEmacPs_PhyWrite>
ffffffc050406792:	fea43023          	sd	a0,-32(s0)
ffffffc050406796:	fe043783          	ld	a5,-32(s0)
ffffffc05040679a:	cb89                	beqz	a5,ffffffc0504067ac <EmacPsUtilTiPhyLoopback+0x418>
ffffffc05040679c:	00007517          	auipc	a0,0x7
ffffffc0504067a0:	8cc50513          	addi	a0,a0,-1844 # ffffffc05040d068 <__FUNCTION__.2047+0xe8>
ffffffc0504067a4:	1d1000ef          	jal	ra,ffffffc050407174 <EmacPsUtilErrorTrap>
ffffffc0504067a8:	4785                	li	a5,1
ffffffc0504067aa:	aa9d                	j	ffffffc050406920 <EmacPsUtilTiPhyLoopback+0x58c>
ffffffc0504067ac:	fc042783          	lw	a5,-64(s0)
ffffffc0504067b0:	46fd                	li	a3,31
ffffffc0504067b2:	4635                	li	a2,13
ffffffc0504067b4:	85be                	mv	a1,a5
ffffffc0504067b6:	fc843503          	ld	a0,-56(s0)
ffffffc0504067ba:	a64ff0ef          	jal	ra,ffffffc050405a1e <XEmacPs_PhyWrite>
ffffffc0504067be:	fc042783          	lw	a5,-64(s0)
ffffffc0504067c2:	08600693          	li	a3,134
ffffffc0504067c6:	4639                	li	a2,14
ffffffc0504067c8:	85be                	mv	a1,a5
ffffffc0504067ca:	fc843503          	ld	a0,-56(s0)
ffffffc0504067ce:	a50ff0ef          	jal	ra,ffffffc050405a1e <XEmacPs_PhyWrite>
ffffffc0504067d2:	fc042703          	lw	a4,-64(s0)
ffffffc0504067d6:	6791                	lui	a5,0x4
ffffffc0504067d8:	01f78693          	addi	a3,a5,31 # 401f <_start-0xffffffc0503fbfe1>
ffffffc0504067dc:	4635                	li	a2,13
ffffffc0504067de:	85ba                	mv	a1,a4
ffffffc0504067e0:	fc843503          	ld	a0,-56(s0)
ffffffc0504067e4:	a3aff0ef          	jal	ra,ffffffc050405a1e <XEmacPs_PhyWrite>
ffffffc0504067e8:	fde40713          	addi	a4,s0,-34
ffffffc0504067ec:	fc042783          	lw	a5,-64(s0)
ffffffc0504067f0:	86ba                	mv	a3,a4
ffffffc0504067f2:	4639                	li	a2,14
ffffffc0504067f4:	85be                	mv	a1,a5
ffffffc0504067f6:	fc843503          	ld	a0,-56(s0)
ffffffc0504067fa:	94cff0ef          	jal	ra,ffffffc050405946 <XEmacPs_PhyRead>
ffffffc0504067fe:	fea43023          	sd	a0,-32(s0)
ffffffc050406802:	fe043783          	ld	a5,-32(s0)
ffffffc050406806:	cb89                	beqz	a5,ffffffc050406818 <EmacPsUtilTiPhyLoopback+0x484>
ffffffc050406808:	00007517          	auipc	a0,0x7
ffffffc05040680c:	86050513          	addi	a0,a0,-1952 # ffffffc05040d068 <__FUNCTION__.2047+0xe8>
ffffffc050406810:	165000ef          	jal	ra,ffffffc050407174 <EmacPsUtilErrorTrap>
ffffffc050406814:	4785                	li	a5,1
ffffffc050406816:	a229                	j	ffffffc050406920 <EmacPsUtilTiPhyLoopback+0x58c>
ffffffc050406818:	fc042783          	lw	a5,-64(s0)
ffffffc05040681c:	46fd                	li	a3,31
ffffffc05040681e:	4635                	li	a2,13
ffffffc050406820:	85be                	mv	a1,a5
ffffffc050406822:	fc843503          	ld	a0,-56(s0)
ffffffc050406826:	9f8ff0ef          	jal	ra,ffffffc050405a1e <XEmacPs_PhyWrite>
ffffffc05040682a:	fc042783          	lw	a5,-64(s0)
ffffffc05040682e:	03200693          	li	a3,50
ffffffc050406832:	4639                	li	a2,14
ffffffc050406834:	85be                	mv	a1,a5
ffffffc050406836:	fc843503          	ld	a0,-56(s0)
ffffffc05040683a:	9e4ff0ef          	jal	ra,ffffffc050405a1e <XEmacPs_PhyWrite>
ffffffc05040683e:	fc042703          	lw	a4,-64(s0)
ffffffc050406842:	6791                	lui	a5,0x4
ffffffc050406844:	01f78693          	addi	a3,a5,31 # 401f <_start-0xffffffc0503fbfe1>
ffffffc050406848:	4635                	li	a2,13
ffffffc05040684a:	85ba                	mv	a1,a4
ffffffc05040684c:	fc843503          	ld	a0,-56(s0)
ffffffc050406850:	9ceff0ef          	jal	ra,ffffffc050405a1e <XEmacPs_PhyWrite>
ffffffc050406854:	fc042783          	lw	a5,-64(s0)
ffffffc050406858:	0d300693          	li	a3,211
ffffffc05040685c:	4639                	li	a2,14
ffffffc05040685e:	85be                	mv	a1,a5
ffffffc050406860:	fc843503          	ld	a0,-56(s0)
ffffffc050406864:	9baff0ef          	jal	ra,ffffffc050405a1e <XEmacPs_PhyWrite>
ffffffc050406868:	fea43023          	sd	a0,-32(s0)
ffffffc05040686c:	fe043783          	ld	a5,-32(s0)
ffffffc050406870:	cb89                	beqz	a5,ffffffc050406882 <EmacPsUtilTiPhyLoopback+0x4ee>
ffffffc050406872:	00006517          	auipc	a0,0x6
ffffffc050406876:	7f650513          	addi	a0,a0,2038 # ffffffc05040d068 <__FUNCTION__.2047+0xe8>
ffffffc05040687a:	0fb000ef          	jal	ra,ffffffc050407174 <EmacPsUtilErrorTrap>
ffffffc05040687e:	4785                	li	a5,1
ffffffc050406880:	a045                	j	ffffffc050406920 <EmacPsUtilTiPhyLoopback+0x58c>
ffffffc050406882:	fc042783          	lw	a5,-64(s0)
ffffffc050406886:	46fd                	li	a3,31
ffffffc050406888:	4635                	li	a2,13
ffffffc05040688a:	85be                	mv	a1,a5
ffffffc05040688c:	fc843503          	ld	a0,-56(s0)
ffffffc050406890:	98eff0ef          	jal	ra,ffffffc050405a1e <XEmacPs_PhyWrite>
ffffffc050406894:	fc042783          	lw	a5,-64(s0)
ffffffc050406898:	03200693          	li	a3,50
ffffffc05040689c:	4639                	li	a2,14
ffffffc05040689e:	85be                	mv	a1,a5
ffffffc0504068a0:	fc843503          	ld	a0,-56(s0)
ffffffc0504068a4:	97aff0ef          	jal	ra,ffffffc050405a1e <XEmacPs_PhyWrite>
ffffffc0504068a8:	fc042703          	lw	a4,-64(s0)
ffffffc0504068ac:	6791                	lui	a5,0x4
ffffffc0504068ae:	01f78693          	addi	a3,a5,31 # 401f <_start-0xffffffc0503fbfe1>
ffffffc0504068b2:	4635                	li	a2,13
ffffffc0504068b4:	85ba                	mv	a1,a4
ffffffc0504068b6:	fc843503          	ld	a0,-56(s0)
ffffffc0504068ba:	964ff0ef          	jal	ra,ffffffc050405a1e <XEmacPs_PhyWrite>
ffffffc0504068be:	fde40713          	addi	a4,s0,-34
ffffffc0504068c2:	fc042783          	lw	a5,-64(s0)
ffffffc0504068c6:	86ba                	mv	a3,a4
ffffffc0504068c8:	4639                	li	a2,14
ffffffc0504068ca:	85be                	mv	a1,a5
ffffffc0504068cc:	fc843503          	ld	a0,-56(s0)
ffffffc0504068d0:	876ff0ef          	jal	ra,ffffffc050405946 <XEmacPs_PhyRead>
ffffffc0504068d4:	fea43023          	sd	a0,-32(s0)
ffffffc0504068d8:	fe043783          	ld	a5,-32(s0)
ffffffc0504068dc:	cb89                	beqz	a5,ffffffc0504068ee <EmacPsUtilTiPhyLoopback+0x55a>
ffffffc0504068de:	00006517          	auipc	a0,0x6
ffffffc0504068e2:	78a50513          	addi	a0,a0,1930 # ffffffc05040d068 <__FUNCTION__.2047+0xe8>
ffffffc0504068e6:	08f000ef          	jal	ra,ffffffc050407174 <EmacPsUtilErrorTrap>
ffffffc0504068ea:	4785                	li	a5,1
ffffffc0504068ec:	a815                	j	ffffffc050406920 <EmacPsUtilTiPhyLoopback+0x58c>
ffffffc0504068ee:	fde40713          	addi	a4,s0,-34
ffffffc0504068f2:	fc042783          	lw	a5,-64(s0)
ffffffc0504068f6:	86ba                	mv	a3,a4
ffffffc0504068f8:	4645                	li	a2,17
ffffffc0504068fa:	85be                	mv	a1,a5
ffffffc0504068fc:	fc843503          	ld	a0,-56(s0)
ffffffc050406900:	846ff0ef          	jal	ra,ffffffc050405946 <XEmacPs_PhyRead>
ffffffc050406904:	fea43023          	sd	a0,-32(s0)
ffffffc050406908:	fe043783          	ld	a5,-32(s0)
ffffffc05040690c:	cb89                	beqz	a5,ffffffc05040691e <EmacPsUtilTiPhyLoopback+0x58a>
ffffffc05040690e:	00006517          	auipc	a0,0x6
ffffffc050406912:	73a50513          	addi	a0,a0,1850 # ffffffc05040d048 <__FUNCTION__.2047+0xc8>
ffffffc050406916:	05f000ef          	jal	ra,ffffffc050407174 <EmacPsUtilErrorTrap>
ffffffc05040691a:	4785                	li	a5,1
ffffffc05040691c:	a011                	j	ffffffc050406920 <EmacPsUtilTiPhyLoopback+0x58c>
ffffffc05040691e:	4781                	li	a5,0
ffffffc050406920:	853e                	mv	a0,a5
ffffffc050406922:	70e2                	ld	ra,56(sp)
ffffffc050406924:	7442                	ld	s0,48(sp)
ffffffc050406926:	6121                	addi	sp,sp,64
ffffffc050406928:	8082                	ret

ffffffc05040692a <EmacPsUtilRtlPhyLoopback>:
ffffffc05040692a:	7179                	addi	sp,sp,-48
ffffffc05040692c:	f406                	sd	ra,40(sp)
ffffffc05040692e:	f022                	sd	s0,32(sp)
ffffffc050406930:	1800                	addi	s0,sp,48
ffffffc050406932:	fca43c23          	sd	a0,-40(s0)
ffffffc050406936:	87ae                	mv	a5,a1
ffffffc050406938:	8732                	mv	a4,a2
ffffffc05040693a:	fcf42a23          	sw	a5,-44(s0)
ffffffc05040693e:	87ba                	mv	a5,a4
ffffffc050406940:	fcf42823          	sw	a5,-48(s0)
ffffffc050406944:	fe041323          	sh	zero,-26(s0)
ffffffc050406948:	fe041323          	sh	zero,-26(s0)
ffffffc05040694c:	fd442783          	lw	a5,-44(s0)
ffffffc050406950:	0007871b          	sext.w	a4,a5
ffffffc050406954:	3e800793          	li	a5,1000
ffffffc050406958:	04f70863          	beq	a4,a5,ffffffc0504069a8 <EmacPsUtilRtlPhyLoopback+0x7e>
ffffffc05040695c:	fd442783          	lw	a5,-44(s0)
ffffffc050406960:	0007871b          	sext.w	a4,a5
ffffffc050406964:	3e800793          	li	a5,1000
ffffffc050406968:	04e7e963          	bltu	a5,a4,ffffffc0504069ba <EmacPsUtilRtlPhyLoopback+0x90>
ffffffc05040696c:	fd442783          	lw	a5,-44(s0)
ffffffc050406970:	0007871b          	sext.w	a4,a5
ffffffc050406974:	47a9                	li	a5,10
ffffffc050406976:	00f70b63          	beq	a4,a5,ffffffc05040698c <EmacPsUtilRtlPhyLoopback+0x62>
ffffffc05040697a:	fd442783          	lw	a5,-44(s0)
ffffffc05040697e:	0007871b          	sext.w	a4,a5
ffffffc050406982:	06400793          	li	a5,100
ffffffc050406986:	00f70863          	beq	a4,a5,ffffffc050406996 <EmacPsUtilRtlPhyLoopback+0x6c>
ffffffc05040698a:	a805                	j	ffffffc0504069ba <EmacPsUtilRtlPhyLoopback+0x90>
ffffffc05040698c:	fe645783          	lhu	a5,-26(s0)
ffffffc050406990:	fef41323          	sh	a5,-26(s0)
ffffffc050406994:	a81d                	j	ffffffc0504069ca <EmacPsUtilRtlPhyLoopback+0xa0>
ffffffc050406996:	fe645703          	lhu	a4,-26(s0)
ffffffc05040699a:	6789                	lui	a5,0x2
ffffffc05040699c:	8fd9                	or	a5,a5,a4
ffffffc05040699e:	17c2                	slli	a5,a5,0x30
ffffffc0504069a0:	93c1                	srli	a5,a5,0x30
ffffffc0504069a2:	fef41323          	sh	a5,-26(s0)
ffffffc0504069a6:	a015                	j	ffffffc0504069ca <EmacPsUtilRtlPhyLoopback+0xa0>
ffffffc0504069a8:	fe645783          	lhu	a5,-26(s0)
ffffffc0504069ac:	0407e793          	ori	a5,a5,64
ffffffc0504069b0:	17c2                	slli	a5,a5,0x30
ffffffc0504069b2:	93c1                	srli	a5,a5,0x30
ffffffc0504069b4:	fef41323          	sh	a5,-26(s0)
ffffffc0504069b8:	a809                	j	ffffffc0504069ca <EmacPsUtilRtlPhyLoopback+0xa0>
ffffffc0504069ba:	00006517          	auipc	a0,0x6
ffffffc0504069be:	62650513          	addi	a0,a0,1574 # ffffffc05040cfe0 <__FUNCTION__.2047+0x60>
ffffffc0504069c2:	7b2000ef          	jal	ra,ffffffc050407174 <EmacPsUtilErrorTrap>
ffffffc0504069c6:	4785                	li	a5,1
ffffffc0504069c8:	aea1                	j	ffffffc050406d20 <EmacPsUtilRtlPhyLoopback+0x3f6>
ffffffc0504069ca:	fe645783          	lhu	a5,-26(s0)
ffffffc0504069ce:	1007e793          	ori	a5,a5,256
ffffffc0504069d2:	17c2                	slli	a5,a5,0x30
ffffffc0504069d4:	93c1                	srli	a5,a5,0x30
ffffffc0504069d6:	fef41323          	sh	a5,-26(s0)
ffffffc0504069da:	fe645783          	lhu	a5,-26(s0)
ffffffc0504069de:	2007e793          	ori	a5,a5,512
ffffffc0504069e2:	17c2                	slli	a5,a5,0x30
ffffffc0504069e4:	93c1                	srli	a5,a5,0x30
ffffffc0504069e6:	fef41323          	sh	a5,-26(s0)
ffffffc0504069ea:	fe645703          	lhu	a4,-26(s0)
ffffffc0504069ee:	fd042783          	lw	a5,-48(s0)
ffffffc0504069f2:	86ba                	mv	a3,a4
ffffffc0504069f4:	4601                	li	a2,0
ffffffc0504069f6:	85be                	mv	a1,a5
ffffffc0504069f8:	fd843503          	ld	a0,-40(s0)
ffffffc0504069fc:	822ff0ef          	jal	ra,ffffffc050405a1e <XEmacPs_PhyWrite>
ffffffc050406a00:	fea43423          	sd	a0,-24(s0)
ffffffc050406a04:	fe640713          	addi	a4,s0,-26
ffffffc050406a08:	fd042783          	lw	a5,-48(s0)
ffffffc050406a0c:	86ba                	mv	a3,a4
ffffffc050406a0e:	4601                	li	a2,0
ffffffc050406a10:	85be                	mv	a1,a5
ffffffc050406a12:	fd843503          	ld	a0,-40(s0)
ffffffc050406a16:	f31fe0ef          	jal	ra,ffffffc050405946 <XEmacPs_PhyRead>
ffffffc050406a1a:	fea43423          	sd	a0,-24(s0)
ffffffc050406a1e:	fe843783          	ld	a5,-24(s0)
ffffffc050406a22:	cb89                	beqz	a5,ffffffc050406a34 <EmacPsUtilRtlPhyLoopback+0x10a>
ffffffc050406a24:	00006517          	auipc	a0,0x6
ffffffc050406a28:	61450513          	addi	a0,a0,1556 # ffffffc05040d038 <__FUNCTION__.2047+0xb8>
ffffffc050406a2c:	748000ef          	jal	ra,ffffffc050407174 <EmacPsUtilErrorTrap>
ffffffc050406a30:	4785                	li	a5,1
ffffffc050406a32:	a4fd                	j	ffffffc050406d20 <EmacPsUtilRtlPhyLoopback+0x3f6>
ffffffc050406a34:	fe645783          	lhu	a5,-26(s0)
ffffffc050406a38:	2781                	sext.w	a5,a5
ffffffc050406a3a:	85be                	mv	a1,a5
ffffffc050406a3c:	00006517          	auipc	a0,0x6
ffffffc050406a40:	63c50513          	addi	a0,a0,1596 # ffffffc05040d078 <__FUNCTION__.2047+0xf8>
ffffffc050406a44:	641050ef          	jal	ra,ffffffc05040c884 <printk>
ffffffc050406a48:	fd042703          	lw	a4,-48(s0)
ffffffc050406a4c:	67a9                	lui	a5,0xa
ffffffc050406a4e:	f0178693          	addi	a3,a5,-255 # 9f01 <_start-0xffffffc0503f60ff>
ffffffc050406a52:	4649                	li	a2,18
ffffffc050406a54:	85ba                	mv	a1,a4
ffffffc050406a56:	fd843503          	ld	a0,-40(s0)
ffffffc050406a5a:	fc5fe0ef          	jal	ra,ffffffc050405a1e <XEmacPs_PhyWrite>
ffffffc050406a5e:	fea43423          	sd	a0,-24(s0)
ffffffc050406a62:	fd042783          	lw	a5,-48(s0)
ffffffc050406a66:	469d                	li	a3,7
ffffffc050406a68:	467d                	li	a2,31
ffffffc050406a6a:	85be                	mv	a1,a5
ffffffc050406a6c:	fd843503          	ld	a0,-40(s0)
ffffffc050406a70:	faffe0ef          	jal	ra,ffffffc050405a1e <XEmacPs_PhyWrite>
ffffffc050406a74:	fea43423          	sd	a0,-24(s0)
ffffffc050406a78:	fd042783          	lw	a5,-48(s0)
ffffffc050406a7c:	0a400693          	li	a3,164
ffffffc050406a80:	4679                	li	a2,30
ffffffc050406a82:	85be                	mv	a1,a5
ffffffc050406a84:	fd843503          	ld	a0,-40(s0)
ffffffc050406a88:	f97fe0ef          	jal	ra,ffffffc050405a1e <XEmacPs_PhyWrite>
ffffffc050406a8c:	fea43423          	sd	a0,-24(s0)
ffffffc050406a90:	fe640713          	addi	a4,s0,-26
ffffffc050406a94:	fd042783          	lw	a5,-48(s0)
ffffffc050406a98:	86ba                	mv	a3,a4
ffffffc050406a9a:	4671                	li	a2,28
ffffffc050406a9c:	85be                	mv	a1,a5
ffffffc050406a9e:	fd843503          	ld	a0,-40(s0)
ffffffc050406aa2:	ea5fe0ef          	jal	ra,ffffffc050405946 <XEmacPs_PhyRead>
ffffffc050406aa6:	fea43423          	sd	a0,-24(s0)
ffffffc050406aaa:	fe645783          	lhu	a5,-26(s0)
ffffffc050406aae:	0067e793          	ori	a5,a5,6
ffffffc050406ab2:	17c2                	slli	a5,a5,0x30
ffffffc050406ab4:	93c1                	srli	a5,a5,0x30
ffffffc050406ab6:	fef41323          	sh	a5,-26(s0)
ffffffc050406aba:	fe645703          	lhu	a4,-26(s0)
ffffffc050406abe:	77ed                	lui	a5,0xffffb
ffffffc050406ac0:	40078793          	addi	a5,a5,1024 # ffffffffffffb400 <__BSS_END__+0x3faf3f84e0>
ffffffc050406ac4:	8fd9                	or	a5,a5,a4
ffffffc050406ac6:	17c2                	slli	a5,a5,0x30
ffffffc050406ac8:	93c1                	srli	a5,a5,0x30
ffffffc050406aca:	fef41323          	sh	a5,-26(s0)
ffffffc050406ace:	fe645703          	lhu	a4,-26(s0)
ffffffc050406ad2:	fd042783          	lw	a5,-48(s0)
ffffffc050406ad6:	86ba                	mv	a3,a4
ffffffc050406ad8:	4671                	li	a2,28
ffffffc050406ada:	85be                	mv	a1,a5
ffffffc050406adc:	fd843503          	ld	a0,-40(s0)
ffffffc050406ae0:	f3ffe0ef          	jal	ra,ffffffc050405a1e <XEmacPs_PhyWrite>
ffffffc050406ae4:	fea43423          	sd	a0,-24(s0)
ffffffc050406ae8:	fd042783          	lw	a5,-48(s0)
ffffffc050406aec:	4681                	li	a3,0
ffffffc050406aee:	467d                	li	a2,31
ffffffc050406af0:	85be                	mv	a1,a5
ffffffc050406af2:	fd843503          	ld	a0,-40(s0)
ffffffc050406af6:	f29fe0ef          	jal	ra,ffffffc050405a1e <XEmacPs_PhyWrite>
ffffffc050406afa:	fea43423          	sd	a0,-24(s0)
ffffffc050406afe:	fe640713          	addi	a4,s0,-26
ffffffc050406b02:	fd042783          	lw	a5,-48(s0)
ffffffc050406b06:	86ba                	mv	a3,a4
ffffffc050406b08:	4601                	li	a2,0
ffffffc050406b0a:	85be                	mv	a1,a5
ffffffc050406b0c:	fd843503          	ld	a0,-40(s0)
ffffffc050406b10:	e37fe0ef          	jal	ra,ffffffc050405946 <XEmacPs_PhyRead>
ffffffc050406b14:	fea43423          	sd	a0,-24(s0)
ffffffc050406b18:	fe645703          	lhu	a4,-26(s0)
ffffffc050406b1c:	6791                	lui	a5,0x4
ffffffc050406b1e:	8fd9                	or	a5,a5,a4
ffffffc050406b20:	17c2                	slli	a5,a5,0x30
ffffffc050406b22:	93c1                	srli	a5,a5,0x30
ffffffc050406b24:	fef41323          	sh	a5,-26(s0)
ffffffc050406b28:	fe645703          	lhu	a4,-26(s0)
ffffffc050406b2c:	fd042783          	lw	a5,-48(s0)
ffffffc050406b30:	86ba                	mv	a3,a4
ffffffc050406b32:	4601                	li	a2,0
ffffffc050406b34:	85be                	mv	a1,a5
ffffffc050406b36:	fd843503          	ld	a0,-40(s0)
ffffffc050406b3a:	ee5fe0ef          	jal	ra,ffffffc050405a1e <XEmacPs_PhyWrite>
ffffffc050406b3e:	fea43423          	sd	a0,-24(s0)
ffffffc050406b42:	fe640713          	addi	a4,s0,-26
ffffffc050406b46:	fd042783          	lw	a5,-48(s0)
ffffffc050406b4a:	86ba                	mv	a3,a4
ffffffc050406b4c:	4601                	li	a2,0
ffffffc050406b4e:	85be                	mv	a1,a5
ffffffc050406b50:	fd843503          	ld	a0,-40(s0)
ffffffc050406b54:	df3fe0ef          	jal	ra,ffffffc050405946 <XEmacPs_PhyRead>
ffffffc050406b58:	fea43423          	sd	a0,-24(s0)
ffffffc050406b5c:	fe843783          	ld	a5,-24(s0)
ffffffc050406b60:	cb89                	beqz	a5,ffffffc050406b72 <EmacPsUtilRtlPhyLoopback+0x248>
ffffffc050406b62:	00006517          	auipc	a0,0x6
ffffffc050406b66:	4e650513          	addi	a0,a0,1254 # ffffffc05040d048 <__FUNCTION__.2047+0xc8>
ffffffc050406b6a:	60a000ef          	jal	ra,ffffffc050407174 <EmacPsUtilErrorTrap>
ffffffc050406b6e:	4785                	li	a5,1
ffffffc050406b70:	aa45                	j	ffffffc050406d20 <EmacPsUtilRtlPhyLoopback+0x3f6>
ffffffc050406b72:	00006517          	auipc	a0,0x6
ffffffc050406b76:	52e50513          	addi	a0,a0,1326 # ffffffc05040d0a0 <__FUNCTION__.2047+0x120>
ffffffc050406b7a:	50b050ef          	jal	ra,ffffffc05040c884 <printk>
ffffffc050406b7e:	fe640713          	addi	a4,s0,-26
ffffffc050406b82:	fd042783          	lw	a5,-48(s0)
ffffffc050406b86:	86ba                	mv	a3,a4
ffffffc050406b88:	464d                	li	a2,19
ffffffc050406b8a:	85be                	mv	a1,a5
ffffffc050406b8c:	fd843503          	ld	a0,-40(s0)
ffffffc050406b90:	db7fe0ef          	jal	ra,ffffffc050405946 <XEmacPs_PhyRead>
ffffffc050406b94:	fea43423          	sd	a0,-24(s0)
ffffffc050406b98:	00006517          	auipc	a0,0x6
ffffffc050406b9c:	52850513          	addi	a0,a0,1320 # ffffffc05040d0c0 <__FUNCTION__.2047+0x140>
ffffffc050406ba0:	4e5050ef          	jal	ra,ffffffc05040c884 <printk>
ffffffc050406ba4:	fe041223          	sh	zero,-28(s0)
ffffffc050406ba8:	00006517          	auipc	a0,0x6
ffffffc050406bac:	53050513          	addi	a0,a0,1328 # ffffffc05040d0d8 <__FUNCTION__.2047+0x158>
ffffffc050406bb0:	4d5050ef          	jal	ra,ffffffc05040c884 <printk>
ffffffc050406bb4:	4529                	li	a0,10
ffffffc050406bb6:	45e000ef          	jal	ra,ffffffc050407014 <EmacpsDelay>
ffffffc050406bba:	fe440713          	addi	a4,s0,-28
ffffffc050406bbe:	fd042783          	lw	a5,-48(s0)
ffffffc050406bc2:	86ba                	mv	a3,a4
ffffffc050406bc4:	4645                	li	a2,17
ffffffc050406bc6:	85be                	mv	a1,a5
ffffffc050406bc8:	fd843503          	ld	a0,-40(s0)
ffffffc050406bcc:	d7bfe0ef          	jal	ra,ffffffc050405946 <XEmacPs_PhyRead>
ffffffc050406bd0:	fea43423          	sd	a0,-24(s0)
ffffffc050406bd4:	fe445783          	lhu	a5,-28(s0)
ffffffc050406bd8:	0007871b          	sext.w	a4,a5
ffffffc050406bdc:	6785                	lui	a5,0x1
ffffffc050406bde:	c0078793          	addi	a5,a5,-1024 # c00 <_start-0xffffffc0503ff400>
ffffffc050406be2:	8ff9                	and	a5,a5,a4
ffffffc050406be4:	2781                	sext.w	a5,a5
ffffffc050406be6:	873e                	mv	a4,a5
ffffffc050406be8:	6785                	lui	a5,0x1
ffffffc050406bea:	c0078793          	addi	a5,a5,-1024 # c00 <_start-0xffffffc0503ff400>
ffffffc050406bee:	faf71de3          	bne	a4,a5,ffffffc050406ba8 <EmacPsUtilRtlPhyLoopback+0x27e>
ffffffc050406bf2:	00006517          	auipc	a0,0x6
ffffffc050406bf6:	4ee50513          	addi	a0,a0,1262 # ffffffc05040d0e0 <__FUNCTION__.2047+0x160>
ffffffc050406bfa:	48b050ef          	jal	ra,ffffffc05040c884 <printk>
ffffffc050406bfe:	fe041323          	sh	zero,-26(s0)
ffffffc050406c02:	fe640713          	addi	a4,s0,-26
ffffffc050406c06:	fd042783          	lw	a5,-48(s0)
ffffffc050406c0a:	86ba                	mv	a3,a4
ffffffc050406c0c:	4601                	li	a2,0
ffffffc050406c0e:	85be                	mv	a1,a5
ffffffc050406c10:	fd843503          	ld	a0,-40(s0)
ffffffc050406c14:	d33fe0ef          	jal	ra,ffffffc050405946 <XEmacPs_PhyRead>
ffffffc050406c18:	fea43423          	sd	a0,-24(s0)
ffffffc050406c1c:	fe843783          	ld	a5,-24(s0)
ffffffc050406c20:	cb89                	beqz	a5,ffffffc050406c32 <EmacPsUtilRtlPhyLoopback+0x308>
ffffffc050406c22:	00006517          	auipc	a0,0x6
ffffffc050406c26:	42650513          	addi	a0,a0,1062 # ffffffc05040d048 <__FUNCTION__.2047+0xc8>
ffffffc050406c2a:	54a000ef          	jal	ra,ffffffc050407174 <EmacPsUtilErrorTrap>
ffffffc050406c2e:	4785                	li	a5,1
ffffffc050406c30:	a8c5                	j	ffffffc050406d20 <EmacPsUtilRtlPhyLoopback+0x3f6>
ffffffc050406c32:	fe645783          	lhu	a5,-26(s0)
ffffffc050406c36:	2781                	sext.w	a5,a5
ffffffc050406c38:	85be                	mv	a1,a5
ffffffc050406c3a:	00006517          	auipc	a0,0x6
ffffffc050406c3e:	4b650513          	addi	a0,a0,1206 # ffffffc05040d0f0 <__FUNCTION__.2047+0x170>
ffffffc050406c42:	443050ef          	jal	ra,ffffffc05040c884 <printk>
ffffffc050406c46:	fe041323          	sh	zero,-26(s0)
ffffffc050406c4a:	fe640713          	addi	a4,s0,-26
ffffffc050406c4e:	fd042783          	lw	a5,-48(s0)
ffffffc050406c52:	86ba                	mv	a3,a4
ffffffc050406c54:	4605                	li	a2,1
ffffffc050406c56:	85be                	mv	a1,a5
ffffffc050406c58:	fd843503          	ld	a0,-40(s0)
ffffffc050406c5c:	cebfe0ef          	jal	ra,ffffffc050405946 <XEmacPs_PhyRead>
ffffffc050406c60:	fea43423          	sd	a0,-24(s0)
ffffffc050406c64:	fe843783          	ld	a5,-24(s0)
ffffffc050406c68:	cb89                	beqz	a5,ffffffc050406c7a <EmacPsUtilRtlPhyLoopback+0x350>
ffffffc050406c6a:	00006517          	auipc	a0,0x6
ffffffc050406c6e:	3de50513          	addi	a0,a0,990 # ffffffc05040d048 <__FUNCTION__.2047+0xc8>
ffffffc050406c72:	502000ef          	jal	ra,ffffffc050407174 <EmacPsUtilErrorTrap>
ffffffc050406c76:	4785                	li	a5,1
ffffffc050406c78:	a065                	j	ffffffc050406d20 <EmacPsUtilRtlPhyLoopback+0x3f6>
ffffffc050406c7a:	fe645783          	lhu	a5,-26(s0)
ffffffc050406c7e:	2781                	sext.w	a5,a5
ffffffc050406c80:	85be                	mv	a1,a5
ffffffc050406c82:	00006517          	auipc	a0,0x6
ffffffc050406c86:	47e50513          	addi	a0,a0,1150 # ffffffc05040d100 <__FUNCTION__.2047+0x180>
ffffffc050406c8a:	3fb050ef          	jal	ra,ffffffc05040c884 <printk>
ffffffc050406c8e:	fe041323          	sh	zero,-26(s0)
ffffffc050406c92:	fe640713          	addi	a4,s0,-26
ffffffc050406c96:	fd042783          	lw	a5,-48(s0)
ffffffc050406c9a:	86ba                	mv	a3,a4
ffffffc050406c9c:	4641                	li	a2,16
ffffffc050406c9e:	85be                	mv	a1,a5
ffffffc050406ca0:	fd843503          	ld	a0,-40(s0)
ffffffc050406ca4:	ca3fe0ef          	jal	ra,ffffffc050405946 <XEmacPs_PhyRead>
ffffffc050406ca8:	fea43423          	sd	a0,-24(s0)
ffffffc050406cac:	fe843783          	ld	a5,-24(s0)
ffffffc050406cb0:	cb89                	beqz	a5,ffffffc050406cc2 <EmacPsUtilRtlPhyLoopback+0x398>
ffffffc050406cb2:	00006517          	auipc	a0,0x6
ffffffc050406cb6:	39650513          	addi	a0,a0,918 # ffffffc05040d048 <__FUNCTION__.2047+0xc8>
ffffffc050406cba:	4ba000ef          	jal	ra,ffffffc050407174 <EmacPsUtilErrorTrap>
ffffffc050406cbe:	4785                	li	a5,1
ffffffc050406cc0:	a085                	j	ffffffc050406d20 <EmacPsUtilRtlPhyLoopback+0x3f6>
ffffffc050406cc2:	fe645783          	lhu	a5,-26(s0)
ffffffc050406cc6:	2781                	sext.w	a5,a5
ffffffc050406cc8:	85be                	mv	a1,a5
ffffffc050406cca:	00006517          	auipc	a0,0x6
ffffffc050406cce:	44650513          	addi	a0,a0,1094 # ffffffc05040d110 <__FUNCTION__.2047+0x190>
ffffffc050406cd2:	3b3050ef          	jal	ra,ffffffc05040c884 <printk>
ffffffc050406cd6:	fe041323          	sh	zero,-26(s0)
ffffffc050406cda:	fe640713          	addi	a4,s0,-26
ffffffc050406cde:	fd042783          	lw	a5,-48(s0)
ffffffc050406ce2:	86ba                	mv	a3,a4
ffffffc050406ce4:	4645                	li	a2,17
ffffffc050406ce6:	85be                	mv	a1,a5
ffffffc050406ce8:	fd843503          	ld	a0,-40(s0)
ffffffc050406cec:	c5bfe0ef          	jal	ra,ffffffc050405946 <XEmacPs_PhyRead>
ffffffc050406cf0:	fea43423          	sd	a0,-24(s0)
ffffffc050406cf4:	fe843783          	ld	a5,-24(s0)
ffffffc050406cf8:	cb89                	beqz	a5,ffffffc050406d0a <EmacPsUtilRtlPhyLoopback+0x3e0>
ffffffc050406cfa:	00006517          	auipc	a0,0x6
ffffffc050406cfe:	34e50513          	addi	a0,a0,846 # ffffffc05040d048 <__FUNCTION__.2047+0xc8>
ffffffc050406d02:	472000ef          	jal	ra,ffffffc050407174 <EmacPsUtilErrorTrap>
ffffffc050406d06:	4785                	li	a5,1
ffffffc050406d08:	a821                	j	ffffffc050406d20 <EmacPsUtilRtlPhyLoopback+0x3f6>
ffffffc050406d0a:	fe645783          	lhu	a5,-26(s0)
ffffffc050406d0e:	2781                	sext.w	a5,a5
ffffffc050406d10:	85be                	mv	a1,a5
ffffffc050406d12:	00006517          	auipc	a0,0x6
ffffffc050406d16:	40e50513          	addi	a0,a0,1038 # ffffffc05040d120 <__FUNCTION__.2047+0x1a0>
ffffffc050406d1a:	36b050ef          	jal	ra,ffffffc05040c884 <printk>
ffffffc050406d1e:	4781                	li	a5,0
ffffffc050406d20:	853e                	mv	a0,a5
ffffffc050406d22:	70a2                	ld	ra,40(sp)
ffffffc050406d24:	7402                	ld	s0,32(sp)
ffffffc050406d26:	6145                	addi	sp,sp,48
ffffffc050406d28:	8082                	ret

ffffffc050406d2a <EmacPsUtilRtlPhyInit>:
ffffffc050406d2a:	715d                	addi	sp,sp,-80
ffffffc050406d2c:	e486                	sd	ra,72(sp)
ffffffc050406d2e:	e0a2                	sd	s0,64(sp)
ffffffc050406d30:	0880                	addi	s0,sp,80
ffffffc050406d32:	fca43423          	sd	a0,-56(s0)
ffffffc050406d36:	fcb43023          	sd	a1,-64(s0)
ffffffc050406d3a:	87b2                	mv	a5,a2
ffffffc050406d3c:	faf42e23          	sw	a5,-68(s0)
ffffffc050406d40:	fc041f23          	sh	zero,-34(s0)
ffffffc050406d44:	fbc42783          	lw	a5,-68(s0)
ffffffc050406d48:	14100693          	li	a3,321
ffffffc050406d4c:	4611                	li	a2,4
ffffffc050406d4e:	85be                	mv	a1,a5
ffffffc050406d50:	fc843503          	ld	a0,-56(s0)
ffffffc050406d54:	ccbfe0ef          	jal	ra,ffffffc050405a1e <XEmacPs_PhyWrite>
ffffffc050406d58:	fea43423          	sd	a0,-24(s0)
ffffffc050406d5c:	77e5                	lui	a5,0xffff9
ffffffc050406d5e:	fcf41f23          	sh	a5,-34(s0)
ffffffc050406d62:	fde45703          	lhu	a4,-34(s0)
ffffffc050406d66:	fbc42783          	lw	a5,-68(s0)
ffffffc050406d6a:	86ba                	mv	a3,a4
ffffffc050406d6c:	4601                	li	a2,0
ffffffc050406d6e:	85be                	mv	a1,a5
ffffffc050406d70:	fc843503          	ld	a0,-56(s0)
ffffffc050406d74:	cabfe0ef          	jal	ra,ffffffc050405a1e <XEmacPs_PhyWrite>
ffffffc050406d78:	fea43423          	sd	a0,-24(s0)
ffffffc050406d7c:	fde40713          	addi	a4,s0,-34
ffffffc050406d80:	fbc42783          	lw	a5,-68(s0)
ffffffc050406d84:	86ba                	mv	a3,a4
ffffffc050406d86:	4601                	li	a2,0
ffffffc050406d88:	85be                	mv	a1,a5
ffffffc050406d8a:	fc843503          	ld	a0,-56(s0)
ffffffc050406d8e:	bb9fe0ef          	jal	ra,ffffffc050405946 <XEmacPs_PhyRead>
ffffffc050406d92:	fea43423          	sd	a0,-24(s0)
ffffffc050406d96:	fe843783          	ld	a5,-24(s0)
ffffffc050406d9a:	cb89                	beqz	a5,ffffffc050406dac <EmacPsUtilRtlPhyInit+0x82>
ffffffc050406d9c:	00006517          	auipc	a0,0x6
ffffffc050406da0:	29c50513          	addi	a0,a0,668 # ffffffc05040d038 <__FUNCTION__.2047+0xb8>
ffffffc050406da4:	3d0000ef          	jal	ra,ffffffc050407174 <EmacPsUtilErrorTrap>
ffffffc050406da8:	4785                	li	a5,1
ffffffc050406daa:	a485                	j	ffffffc05040700a <EmacPsUtilRtlPhyInit+0x2e0>
ffffffc050406dac:	fde45783          	lhu	a5,-34(s0)
ffffffc050406db0:	2781                	sext.w	a5,a5
ffffffc050406db2:	85be                	mv	a1,a5
ffffffc050406db4:	00006517          	auipc	a0,0x6
ffffffc050406db8:	2c450513          	addi	a0,a0,708 # ffffffc05040d078 <__FUNCTION__.2047+0xf8>
ffffffc050406dbc:	2c9050ef          	jal	ra,ffffffc05040c884 <printk>
ffffffc050406dc0:	fbc42703          	lw	a4,-68(s0)
ffffffc050406dc4:	67a9                	lui	a5,0xa
ffffffc050406dc6:	f0178693          	addi	a3,a5,-255 # 9f01 <_start-0xffffffc0503f60ff>
ffffffc050406dca:	4649                	li	a2,18
ffffffc050406dcc:	85ba                	mv	a1,a4
ffffffc050406dce:	fc843503          	ld	a0,-56(s0)
ffffffc050406dd2:	c4dfe0ef          	jal	ra,ffffffc050405a1e <XEmacPs_PhyWrite>
ffffffc050406dd6:	fea43423          	sd	a0,-24(s0)
ffffffc050406dda:	fbc42783          	lw	a5,-68(s0)
ffffffc050406dde:	469d                	li	a3,7
ffffffc050406de0:	467d                	li	a2,31
ffffffc050406de2:	85be                	mv	a1,a5
ffffffc050406de4:	fc843503          	ld	a0,-56(s0)
ffffffc050406de8:	c37fe0ef          	jal	ra,ffffffc050405a1e <XEmacPs_PhyWrite>
ffffffc050406dec:	fea43423          	sd	a0,-24(s0)
ffffffc050406df0:	fbc42783          	lw	a5,-68(s0)
ffffffc050406df4:	0a400693          	li	a3,164
ffffffc050406df8:	4679                	li	a2,30
ffffffc050406dfa:	85be                	mv	a1,a5
ffffffc050406dfc:	fc843503          	ld	a0,-56(s0)
ffffffc050406e00:	c1ffe0ef          	jal	ra,ffffffc050405a1e <XEmacPs_PhyWrite>
ffffffc050406e04:	fea43423          	sd	a0,-24(s0)
ffffffc050406e08:	fde40713          	addi	a4,s0,-34
ffffffc050406e0c:	fbc42783          	lw	a5,-68(s0)
ffffffc050406e10:	86ba                	mv	a3,a4
ffffffc050406e12:	4671                	li	a2,28
ffffffc050406e14:	85be                	mv	a1,a5
ffffffc050406e16:	fc843503          	ld	a0,-56(s0)
ffffffc050406e1a:	b2dfe0ef          	jal	ra,ffffffc050405946 <XEmacPs_PhyRead>
ffffffc050406e1e:	fea43423          	sd	a0,-24(s0)
ffffffc050406e22:	fde45783          	lhu	a5,-34(s0)
ffffffc050406e26:	0067e793          	ori	a5,a5,6
ffffffc050406e2a:	17c2                	slli	a5,a5,0x30
ffffffc050406e2c:	93c1                	srli	a5,a5,0x30
ffffffc050406e2e:	fcf41f23          	sh	a5,-34(s0)
ffffffc050406e32:	fde45703          	lhu	a4,-34(s0)
ffffffc050406e36:	fbc42783          	lw	a5,-68(s0)
ffffffc050406e3a:	86ba                	mv	a3,a4
ffffffc050406e3c:	4671                	li	a2,28
ffffffc050406e3e:	85be                	mv	a1,a5
ffffffc050406e40:	fc843503          	ld	a0,-56(s0)
ffffffc050406e44:	bdbfe0ef          	jal	ra,ffffffc050405a1e <XEmacPs_PhyWrite>
ffffffc050406e48:	fea43423          	sd	a0,-24(s0)
ffffffc050406e4c:	fbc42783          	lw	a5,-68(s0)
ffffffc050406e50:	4681                	li	a3,0
ffffffc050406e52:	467d                	li	a2,31
ffffffc050406e54:	85be                	mv	a1,a5
ffffffc050406e56:	fc843503          	ld	a0,-56(s0)
ffffffc050406e5a:	bc5fe0ef          	jal	ra,ffffffc050405a1e <XEmacPs_PhyWrite>
ffffffc050406e5e:	fea43423          	sd	a0,-24(s0)
ffffffc050406e62:	fde40713          	addi	a4,s0,-34
ffffffc050406e66:	fbc42783          	lw	a5,-68(s0)
ffffffc050406e6a:	86ba                	mv	a3,a4
ffffffc050406e6c:	464d                	li	a2,19
ffffffc050406e6e:	85be                	mv	a1,a5
ffffffc050406e70:	fc843503          	ld	a0,-56(s0)
ffffffc050406e74:	ad3fe0ef          	jal	ra,ffffffc050405946 <XEmacPs_PhyRead>
ffffffc050406e78:	fea43423          	sd	a0,-24(s0)
ffffffc050406e7c:	00006517          	auipc	a0,0x6
ffffffc050406e80:	2b450513          	addi	a0,a0,692 # ffffffc05040d130 <__FUNCTION__.2047+0x1b0>
ffffffc050406e84:	201050ef          	jal	ra,ffffffc05040c884 <printk>
ffffffc050406e88:	fc041e23          	sh	zero,-36(s0)
ffffffc050406e8c:	00006517          	auipc	a0,0x6
ffffffc050406e90:	2c450513          	addi	a0,a0,708 # ffffffc05040d150 <__FUNCTION__.2047+0x1d0>
ffffffc050406e94:	1f1050ef          	jal	ra,ffffffc05040c884 <printk>
ffffffc050406e98:	4529                	li	a0,10
ffffffc050406e9a:	17a000ef          	jal	ra,ffffffc050407014 <EmacpsDelay>
ffffffc050406e9e:	fdc40713          	addi	a4,s0,-36
ffffffc050406ea2:	fbc42783          	lw	a5,-68(s0)
ffffffc050406ea6:	86ba                	mv	a3,a4
ffffffc050406ea8:	4645                	li	a2,17
ffffffc050406eaa:	85be                	mv	a1,a5
ffffffc050406eac:	fc843503          	ld	a0,-56(s0)
ffffffc050406eb0:	a97fe0ef          	jal	ra,ffffffc050405946 <XEmacPs_PhyRead>
ffffffc050406eb4:	fea43423          	sd	a0,-24(s0)
ffffffc050406eb8:	fdc45783          	lhu	a5,-36(s0)
ffffffc050406ebc:	0007871b          	sext.w	a4,a5
ffffffc050406ec0:	6785                	lui	a5,0x1
ffffffc050406ec2:	c0078793          	addi	a5,a5,-1024 # c00 <_start-0xffffffc0503ff400>
ffffffc050406ec6:	8ff9                	and	a5,a5,a4
ffffffc050406ec8:	2781                	sext.w	a5,a5
ffffffc050406eca:	873e                	mv	a4,a5
ffffffc050406ecc:	6785                	lui	a5,0x1
ffffffc050406ece:	c0078793          	addi	a5,a5,-1024 # c00 <_start-0xffffffc0503ff400>
ffffffc050406ed2:	faf71de3          	bne	a4,a5,ffffffc050406e8c <EmacPsUtilRtlPhyInit+0x162>
ffffffc050406ed6:	00006517          	auipc	a0,0x6
ffffffc050406eda:	20a50513          	addi	a0,a0,522 # ffffffc05040d0e0 <__FUNCTION__.2047+0x160>
ffffffc050406ede:	1a7050ef          	jal	ra,ffffffc05040c884 <printk>
ffffffc050406ee2:	00006517          	auipc	a0,0x6
ffffffc050406ee6:	27650513          	addi	a0,a0,630 # ffffffc05040d158 <__FUNCTION__.2047+0x1d8>
ffffffc050406eea:	19b050ef          	jal	ra,ffffffc05040c884 <printk>
ffffffc050406eee:	fc041d23          	sh	zero,-38(s0)
ffffffc050406ef2:	00006517          	auipc	a0,0x6
ffffffc050406ef6:	25e50513          	addi	a0,a0,606 # ffffffc05040d150 <__FUNCTION__.2047+0x1d0>
ffffffc050406efa:	18b050ef          	jal	ra,ffffffc05040c884 <printk>
ffffffc050406efe:	4529                	li	a0,10
ffffffc050406f00:	114000ef          	jal	ra,ffffffc050407014 <EmacpsDelay>
ffffffc050406f04:	fda40713          	addi	a4,s0,-38
ffffffc050406f08:	fbc42783          	lw	a5,-68(s0)
ffffffc050406f0c:	86ba                	mv	a3,a4
ffffffc050406f0e:	4605                	li	a2,1
ffffffc050406f10:	85be                	mv	a1,a5
ffffffc050406f12:	fc843503          	ld	a0,-56(s0)
ffffffc050406f16:	a31fe0ef          	jal	ra,ffffffc050405946 <XEmacPs_PhyRead>
ffffffc050406f1a:	fea43423          	sd	a0,-24(s0)
ffffffc050406f1e:	fda45783          	lhu	a5,-38(s0)
ffffffc050406f22:	2781                	sext.w	a5,a5
ffffffc050406f24:	0207f793          	andi	a5,a5,32
ffffffc050406f28:	2781                	sext.w	a5,a5
ffffffc050406f2a:	d7e1                	beqz	a5,ffffffc050406ef2 <EmacPsUtilRtlPhyInit+0x1c8>
ffffffc050406f2c:	00006517          	auipc	a0,0x6
ffffffc050406f30:	1b450513          	addi	a0,a0,436 # ffffffc05040d0e0 <__FUNCTION__.2047+0x160>
ffffffc050406f34:	151050ef          	jal	ra,ffffffc05040c884 <printk>
ffffffc050406f38:	fdc40713          	addi	a4,s0,-36
ffffffc050406f3c:	fbc42783          	lw	a5,-68(s0)
ffffffc050406f40:	86ba                	mv	a3,a4
ffffffc050406f42:	4645                	li	a2,17
ffffffc050406f44:	85be                	mv	a1,a5
ffffffc050406f46:	fc843503          	ld	a0,-56(s0)
ffffffc050406f4a:	9fdfe0ef          	jal	ra,ffffffc050405946 <XEmacPs_PhyRead>
ffffffc050406f4e:	fea43423          	sd	a0,-24(s0)
ffffffc050406f52:	fdc45783          	lhu	a5,-36(s0)
ffffffc050406f56:	2781                	sext.w	a5,a5
ffffffc050406f58:	873e                	mv	a4,a5
ffffffc050406f5a:	67b1                	lui	a5,0xc
ffffffc050406f5c:	8ff9                	and	a5,a5,a4
ffffffc050406f5e:	fef42223          	sw	a5,-28(s0)
ffffffc050406f62:	fe442783          	lw	a5,-28(s0)
ffffffc050406f66:	0007871b          	sext.w	a4,a5
ffffffc050406f6a:	67a1                	lui	a5,0x8
ffffffc050406f6c:	04f70063          	beq	a4,a5,ffffffc050406fac <EmacPsUtilRtlPhyInit+0x282>
ffffffc050406f70:	fe442783          	lw	a5,-28(s0)
ffffffc050406f74:	0007871b          	sext.w	a4,a5
ffffffc050406f78:	67a1                	lui	a5,0x8
ffffffc050406f7a:	02e7ef63          	bltu	a5,a4,ffffffc050406fb8 <EmacPsUtilRtlPhyInit+0x28e>
ffffffc050406f7e:	fe442783          	lw	a5,-28(s0)
ffffffc050406f82:	2781                	sext.w	a5,a5
ffffffc050406f84:	cb89                	beqz	a5,ffffffc050406f96 <EmacPsUtilRtlPhyInit+0x26c>
ffffffc050406f86:	fe442783          	lw	a5,-28(s0)
ffffffc050406f8a:	0007871b          	sext.w	a4,a5
ffffffc050406f8e:	6791                	lui	a5,0x4
ffffffc050406f90:	00f70863          	beq	a4,a5,ffffffc050406fa0 <EmacPsUtilRtlPhyInit+0x276>
ffffffc050406f94:	a015                	j	ffffffc050406fb8 <EmacPsUtilRtlPhyInit+0x28e>
ffffffc050406f96:	fc043783          	ld	a5,-64(s0)
ffffffc050406f9a:	4729                	li	a4,10
ffffffc050406f9c:	c398                	sw	a4,0(a5)
ffffffc050406f9e:	a02d                	j	ffffffc050406fc8 <EmacPsUtilRtlPhyInit+0x29e>
ffffffc050406fa0:	fc043783          	ld	a5,-64(s0)
ffffffc050406fa4:	06400713          	li	a4,100
ffffffc050406fa8:	c398                	sw	a4,0(a5)
ffffffc050406faa:	a839                	j	ffffffc050406fc8 <EmacPsUtilRtlPhyInit+0x29e>
ffffffc050406fac:	fc043783          	ld	a5,-64(s0)
ffffffc050406fb0:	3e800713          	li	a4,1000
ffffffc050406fb4:	c398                	sw	a4,0(a5)
ffffffc050406fb6:	a809                	j	ffffffc050406fc8 <EmacPsUtilRtlPhyInit+0x29e>
ffffffc050406fb8:	00006517          	auipc	a0,0x6
ffffffc050406fbc:	1d050513          	addi	a0,a0,464 # ffffffc05040d188 <__FUNCTION__.2047+0x208>
ffffffc050406fc0:	0c5050ef          	jal	ra,ffffffc05040c884 <printk>
ffffffc050406fc4:	4785                	li	a5,1
ffffffc050406fc6:	a091                	j	ffffffc05040700a <EmacPsUtilRtlPhyInit+0x2e0>
ffffffc050406fc8:	fdc45783          	lhu	a5,-36(s0)
ffffffc050406fcc:	2781                	sext.w	a5,a5
ffffffc050406fce:	873e                	mv	a4,a5
ffffffc050406fd0:	6789                	lui	a5,0x2
ffffffc050406fd2:	8ff9                	and	a5,a5,a4
ffffffc050406fd4:	fef42023          	sw	a5,-32(s0)
ffffffc050406fd8:	fc043783          	ld	a5,-64(s0)
ffffffc050406fdc:	4398                	lw	a4,0(a5)
ffffffc050406fde:	fe042783          	lw	a5,-32(s0)
ffffffc050406fe2:	2781                	sext.w	a5,a5
ffffffc050406fe4:	e791                	bnez	a5,ffffffc050406ff0 <EmacPsUtilRtlPhyInit+0x2c6>
ffffffc050406fe6:	00006797          	auipc	a5,0x6
ffffffc050406fea:	1ba78793          	addi	a5,a5,442 # ffffffc05040d1a0 <__FUNCTION__.2047+0x220>
ffffffc050406fee:	a029                	j	ffffffc050406ff8 <EmacPsUtilRtlPhyInit+0x2ce>
ffffffc050406ff0:	00006797          	auipc	a5,0x6
ffffffc050406ff4:	1b878793          	addi	a5,a5,440 # ffffffc05040d1a8 <__FUNCTION__.2047+0x228>
ffffffc050406ff8:	863e                	mv	a2,a5
ffffffc050406ffa:	85ba                	mv	a1,a4
ffffffc050406ffc:	00006517          	auipc	a0,0x6
ffffffc050407000:	1b450513          	addi	a0,a0,436 # ffffffc05040d1b0 <__FUNCTION__.2047+0x230>
ffffffc050407004:	081050ef          	jal	ra,ffffffc05040c884 <printk>
ffffffc050407008:	4781                	li	a5,0
ffffffc05040700a:	853e                	mv	a0,a5
ffffffc05040700c:	60a6                	ld	ra,72(sp)
ffffffc05040700e:	6406                	ld	s0,64(sp)
ffffffc050407010:	6161                	addi	sp,sp,80
ffffffc050407012:	8082                	ret

ffffffc050407014 <EmacpsDelay>:
ffffffc050407014:	7179                	addi	sp,sp,-48
ffffffc050407016:	f422                	sd	s0,40(sp)
ffffffc050407018:	1800                	addi	s0,sp,48
ffffffc05040701a:	87aa                	mv	a5,a0
ffffffc05040701c:	fcf42e23          	sw	a5,-36(s0)
ffffffc050407020:	fe043423          	sd	zero,-24(s0)
ffffffc050407024:	a031                	j	ffffffc050407030 <EmacpsDelay+0x1c>
ffffffc050407026:	fe843783          	ld	a5,-24(s0)
ffffffc05040702a:	0785                	addi	a5,a5,1
ffffffc05040702c:	fef43423          	sd	a5,-24(s0)
ffffffc050407030:	fdc42703          	lw	a4,-36(s0)
ffffffc050407034:	87ba                	mv	a5,a4
ffffffc050407036:	0107979b          	slliw	a5,a5,0x10
ffffffc05040703a:	9f99                	subw	a5,a5,a4
ffffffc05040703c:	2781                	sext.w	a5,a5
ffffffc05040703e:	1782                	slli	a5,a5,0x20
ffffffc050407040:	9381                	srli	a5,a5,0x20
ffffffc050407042:	fe843703          	ld	a4,-24(s0)
ffffffc050407046:	fef760e3          	bltu	a4,a5,ffffffc050407026 <EmacpsDelay+0x12>
ffffffc05040704a:	0001                	nop
ffffffc05040704c:	0001                	nop
ffffffc05040704e:	7422                	ld	s0,40(sp)
ffffffc050407050:	6145                	addi	sp,sp,48
ffffffc050407052:	8082                	ret

ffffffc050407054 <EmacPsUtilEnterLoopback>:
ffffffc050407054:	7179                	addi	sp,sp,-48
ffffffc050407056:	f406                	sd	ra,40(sp)
ffffffc050407058:	f022                	sd	s0,32(sp)
ffffffc05040705a:	1800                	addi	s0,sp,48
ffffffc05040705c:	fca43c23          	sd	a0,-40(s0)
ffffffc050407060:	87ae                	mv	a5,a1
ffffffc050407062:	fcf42a23          	sw	a5,-44(s0)
ffffffc050407066:	fd843503          	ld	a0,-40(s0)
ffffffc05040706a:	fdffe0ef          	jal	ra,ffffffc050406048 <XEmacPsDetectPHY>
ffffffc05040706e:	87aa                	mv	a5,a0
ffffffc050407070:	fef42223          	sw	a5,-28(s0)
ffffffc050407074:	fe442783          	lw	a5,-28(s0)
ffffffc050407078:	0007871b          	sext.w	a4,a5
ffffffc05040707c:	47fd                	li	a5,31
ffffffc05040707e:	00e7fa63          	bgeu	a5,a4,ffffffc050407092 <EmacPsUtilEnterLoopback+0x3e>
ffffffc050407082:	00006517          	auipc	a0,0x6
ffffffc050407086:	15650513          	addi	a0,a0,342 # ffffffc05040d1d8 <__FUNCTION__.2047+0x258>
ffffffc05040708a:	0ea000ef          	jal	ra,ffffffc050407174 <EmacPsUtilErrorTrap>
ffffffc05040708e:	4785                	li	a5,1
ffffffc050407090:	a8e9                	j	ffffffc05040716a <EmacPsUtilEnterLoopback+0x116>
ffffffc050407092:	fe240713          	addi	a4,s0,-30
ffffffc050407096:	fe442783          	lw	a5,-28(s0)
ffffffc05040709a:	86ba                	mv	a3,a4
ffffffc05040709c:	4609                	li	a2,2
ffffffc05040709e:	85be                	mv	a1,a5
ffffffc0504070a0:	fd843503          	ld	a0,-40(s0)
ffffffc0504070a4:	8a3fe0ef          	jal	ra,ffffffc050405946 <XEmacPs_PhyRead>
ffffffc0504070a8:	87aa                	mv	a5,a0
ffffffc0504070aa:	c799                	beqz	a5,ffffffc0504070b8 <EmacPsUtilEnterLoopback+0x64>
ffffffc0504070ac:	00006517          	auipc	a0,0x6
ffffffc0504070b0:	14450513          	addi	a0,a0,324 # ffffffc05040d1f0 <__FUNCTION__.2047+0x270>
ffffffc0504070b4:	0c0000ef          	jal	ra,ffffffc050407174 <EmacPsUtilErrorTrap>
ffffffc0504070b8:	fe245783          	lhu	a5,-30(s0)
ffffffc0504070bc:	0007871b          	sext.w	a4,a5
ffffffc0504070c0:	14100793          	li	a5,321
ffffffc0504070c4:	00f71f63          	bne	a4,a5,ffffffc0504070e2 <EmacPsUtilEnterLoopback+0x8e>
ffffffc0504070c8:	fe442703          	lw	a4,-28(s0)
ffffffc0504070cc:	fd442783          	lw	a5,-44(s0)
ffffffc0504070d0:	863a                	mv	a2,a4
ffffffc0504070d2:	85be                	mv	a1,a5
ffffffc0504070d4:	fd843503          	ld	a0,-40(s0)
ffffffc0504070d8:	826ff0ef          	jal	ra,ffffffc0504060fe <EmacPsUtilMarvellPhyLoopback>
ffffffc0504070dc:	fea43423          	sd	a0,-24(s0)
ffffffc0504070e0:	a88d                	j	ffffffc050407152 <EmacPsUtilEnterLoopback+0xfe>
ffffffc0504070e2:	fe245783          	lhu	a5,-30(s0)
ffffffc0504070e6:	0007871b          	sext.w	a4,a5
ffffffc0504070ea:	6789                	lui	a5,0x2
ffffffc0504070ec:	00f71f63          	bne	a4,a5,ffffffc05040710a <EmacPsUtilEnterLoopback+0xb6>
ffffffc0504070f0:	fe442703          	lw	a4,-28(s0)
ffffffc0504070f4:	fd442783          	lw	a5,-44(s0)
ffffffc0504070f8:	863a                	mv	a2,a4
ffffffc0504070fa:	85be                	mv	a1,a5
ffffffc0504070fc:	fd843503          	ld	a0,-40(s0)
ffffffc050407100:	a94ff0ef          	jal	ra,ffffffc050406394 <EmacPsUtilTiPhyLoopback>
ffffffc050407104:	fea43423          	sd	a0,-24(s0)
ffffffc050407108:	a0a9                	j	ffffffc050407152 <EmacPsUtilEnterLoopback+0xfe>
ffffffc05040710a:	fe245783          	lhu	a5,-30(s0)
ffffffc05040710e:	0007871b          	sext.w	a4,a5
ffffffc050407112:	47f1                	li	a5,28
ffffffc050407114:	00f71f63          	bne	a4,a5,ffffffc050407132 <EmacPsUtilEnterLoopback+0xde>
ffffffc050407118:	fe442703          	lw	a4,-28(s0)
ffffffc05040711c:	fd442783          	lw	a5,-44(s0)
ffffffc050407120:	863a                	mv	a2,a4
ffffffc050407122:	85be                	mv	a1,a5
ffffffc050407124:	fd843503          	ld	a0,-40(s0)
ffffffc050407128:	803ff0ef          	jal	ra,ffffffc05040692a <EmacPsUtilRtlPhyLoopback>
ffffffc05040712c:	fea43423          	sd	a0,-24(s0)
ffffffc050407130:	a00d                	j	ffffffc050407152 <EmacPsUtilEnterLoopback+0xfe>
ffffffc050407132:	fe245783          	lhu	a5,-30(s0)
ffffffc050407136:	2781                	sext.w	a5,a5
ffffffc050407138:	85be                	mv	a1,a5
ffffffc05040713a:	00006517          	auipc	a0,0x6
ffffffc05040713e:	0c650513          	addi	a0,a0,198 # ffffffc05040d200 <__FUNCTION__.2047+0x280>
ffffffc050407142:	742050ef          	jal	ra,ffffffc05040c884 <printk>
ffffffc050407146:	00006517          	auipc	a0,0x6
ffffffc05040714a:	0d250513          	addi	a0,a0,210 # ffffffc05040d218 <__FUNCTION__.2047+0x298>
ffffffc05040714e:	026000ef          	jal	ra,ffffffc050407174 <EmacPsUtilErrorTrap>
ffffffc050407152:	fe843783          	ld	a5,-24(s0)
ffffffc050407156:	cb89                	beqz	a5,ffffffc050407168 <EmacPsUtilEnterLoopback+0x114>
ffffffc050407158:	00006517          	auipc	a0,0x6
ffffffc05040715c:	ef050513          	addi	a0,a0,-272 # ffffffc05040d048 <__FUNCTION__.2047+0xc8>
ffffffc050407160:	014000ef          	jal	ra,ffffffc050407174 <EmacPsUtilErrorTrap>
ffffffc050407164:	4785                	li	a5,1
ffffffc050407166:	a011                	j	ffffffc05040716a <EmacPsUtilEnterLoopback+0x116>
ffffffc050407168:	4781                	li	a5,0
ffffffc05040716a:	853e                	mv	a0,a5
ffffffc05040716c:	70a2                	ld	ra,40(sp)
ffffffc05040716e:	7402                	ld	s0,32(sp)
ffffffc050407170:	6145                	addi	sp,sp,48
ffffffc050407172:	8082                	ret

ffffffc050407174 <EmacPsUtilErrorTrap>:
ffffffc050407174:	1101                	addi	sp,sp,-32
ffffffc050407176:	ec06                	sd	ra,24(sp)
ffffffc050407178:	e822                	sd	s0,16(sp)
ffffffc05040717a:	1000                	addi	s0,sp,32
ffffffc05040717c:	fea43423          	sd	a0,-24(s0)
ffffffc050407180:	001fb797          	auipc	a5,0x1fb
ffffffc050407184:	dc878793          	addi	a5,a5,-568 # ffffffc050601f48 <Count.1700>
ffffffc050407188:	439c                	lw	a5,0(a5)
ffffffc05040718a:	2785                	addiw	a5,a5,1
ffffffc05040718c:	0007871b          	sext.w	a4,a5
ffffffc050407190:	001fb797          	auipc	a5,0x1fb
ffffffc050407194:	db878793          	addi	a5,a5,-584 # ffffffc050601f48 <Count.1700>
ffffffc050407198:	c398                	sw	a4,0(a5)
ffffffc05040719a:	fe843583          	ld	a1,-24(s0)
ffffffc05040719e:	00006517          	auipc	a0,0x6
ffffffc0504071a2:	09250513          	addi	a0,a0,146 # ffffffc05040d230 <__FUNCTION__.2047+0x2b0>
ffffffc0504071a6:	6de050ef          	jal	ra,ffffffc05040c884 <printk>
ffffffc0504071aa:	a001                	j	ffffffc0504071aa <EmacPsUtilErrorTrap+0x36>

ffffffc0504071ac <writel>:
ffffffc0504071ac:	1101                	addi	sp,sp,-32
ffffffc0504071ae:	ec22                	sd	s0,24(sp)
ffffffc0504071b0:	1000                	addi	s0,sp,32
ffffffc0504071b2:	87aa                	mv	a5,a0
ffffffc0504071b4:	feb43023          	sd	a1,-32(s0)
ffffffc0504071b8:	fef42623          	sw	a5,-20(s0)
ffffffc0504071bc:	0550000f          	fence	ow,ow
ffffffc0504071c0:	fe043783          	ld	a5,-32(s0)
ffffffc0504071c4:	fec42703          	lw	a4,-20(s0)
ffffffc0504071c8:	c398                	sw	a4,0(a5)
ffffffc0504071ca:	0001                	nop
ffffffc0504071cc:	6462                	ld	s0,24(sp)
ffffffc0504071ce:	6105                	addi	sp,sp,32
ffffffc0504071d0:	8082                	ret

ffffffc0504071d2 <readl>:
ffffffc0504071d2:	7179                	addi	sp,sp,-48
ffffffc0504071d4:	f422                	sd	s0,40(sp)
ffffffc0504071d6:	1800                	addi	s0,sp,48
ffffffc0504071d8:	fca43c23          	sd	a0,-40(s0)
ffffffc0504071dc:	fd843783          	ld	a5,-40(s0)
ffffffc0504071e0:	439c                	lw	a5,0(a5)
ffffffc0504071e2:	fef42623          	sw	a5,-20(s0)
ffffffc0504071e6:	0aa0000f          	fence	ir,ir
ffffffc0504071ea:	fec42783          	lw	a5,-20(s0)
ffffffc0504071ee:	2781                	sext.w	a5,a5
ffffffc0504071f0:	853e                	mv	a0,a5
ffffffc0504071f2:	7422                	ld	s0,40(sp)
ffffffc0504071f4:	6145                	addi	sp,sp,48
ffffffc0504071f6:	8082                	ret

ffffffc0504071f8 <Xil_Out32>:
ffffffc0504071f8:	1101                	addi	sp,sp,-32
ffffffc0504071fa:	ec06                	sd	ra,24(sp)
ffffffc0504071fc:	e822                	sd	s0,16(sp)
ffffffc0504071fe:	1000                	addi	s0,sp,32
ffffffc050407200:	fea43423          	sd	a0,-24(s0)
ffffffc050407204:	87ae                	mv	a5,a1
ffffffc050407206:	fef42223          	sw	a5,-28(s0)
ffffffc05040720a:	fe843703          	ld	a4,-24(s0)
ffffffc05040720e:	fe442783          	lw	a5,-28(s0)
ffffffc050407212:	85ba                	mv	a1,a4
ffffffc050407214:	853e                	mv	a0,a5
ffffffc050407216:	f97ff0ef          	jal	ra,ffffffc0504071ac <writel>
ffffffc05040721a:	0001                	nop
ffffffc05040721c:	60e2                	ld	ra,24(sp)
ffffffc05040721e:	6442                	ld	s0,16(sp)
ffffffc050407220:	6105                	addi	sp,sp,32
ffffffc050407222:	8082                	ret

ffffffc050407224 <Xil_In32>:
ffffffc050407224:	1101                	addi	sp,sp,-32
ffffffc050407226:	ec06                	sd	ra,24(sp)
ffffffc050407228:	e822                	sd	s0,16(sp)
ffffffc05040722a:	1000                	addi	s0,sp,32
ffffffc05040722c:	fea43423          	sd	a0,-24(s0)
ffffffc050407230:	fe843783          	ld	a5,-24(s0)
ffffffc050407234:	853e                	mv	a0,a5
ffffffc050407236:	f9dff0ef          	jal	ra,ffffffc0504071d2 <readl>
ffffffc05040723a:	87aa                	mv	a5,a0
ffffffc05040723c:	2781                	sext.w	a5,a5
ffffffc05040723e:	853e                	mv	a0,a5
ffffffc050407240:	60e2                	ld	ra,24(sp)
ffffffc050407242:	6442                	ld	s0,16(sp)
ffffffc050407244:	6105                	addi	sp,sp,32
ffffffc050407246:	8082                	ret

ffffffc050407248 <XEmacPs_ResetHw>:
ffffffc050407248:	7179                	addi	sp,sp,-48
ffffffc05040724a:	f406                	sd	ra,40(sp)
ffffffc05040724c:	f022                	sd	s0,32(sp)
ffffffc05040724e:	1800                	addi	s0,sp,48
ffffffc050407250:	87aa                	mv	a5,a0
ffffffc050407252:	fcf42e23          	sw	a5,-36(s0)
ffffffc050407256:	fdc42783          	lw	a5,-36(s0)
ffffffc05040725a:	02c7879b          	addiw	a5,a5,44
ffffffc05040725e:	2781                	sext.w	a5,a5
ffffffc050407260:	1782                	slli	a5,a5,0x20
ffffffc050407262:	9381                	srli	a5,a5,0x20
ffffffc050407264:	4581                	li	a1,0
ffffffc050407266:	853e                	mv	a0,a5
ffffffc050407268:	f91ff0ef          	jal	ra,ffffffc0504071f8 <Xil_Out32>
ffffffc05040726c:	fdc46783          	lwu	a5,-36(s0)
ffffffc050407270:	853e                	mv	a0,a5
ffffffc050407272:	fb3ff0ef          	jal	ra,ffffffc050407224 <Xil_In32>
ffffffc050407276:	87aa                	mv	a5,a0
ffffffc050407278:	fef42623          	sw	a5,-20(s0)
ffffffc05040727c:	fec42783          	lw	a5,-20(s0)
ffffffc050407280:	bf17f793          	andi	a5,a5,-1039
ffffffc050407284:	fef42623          	sw	a5,-20(s0)
ffffffc050407288:	fec42703          	lw	a4,-20(s0)
ffffffc05040728c:	000407b7          	lui	a5,0x40
ffffffc050407290:	02078793          	addi	a5,a5,32 # 40020 <_start-0xffffffc0503bffe0>
ffffffc050407294:	8fd9                	or	a5,a5,a4
ffffffc050407296:	fef42623          	sw	a5,-20(s0)
ffffffc05040729a:	fdc46783          	lwu	a5,-36(s0)
ffffffc05040729e:	fec42703          	lw	a4,-20(s0)
ffffffc0504072a2:	85ba                	mv	a1,a4
ffffffc0504072a4:	853e                	mv	a0,a5
ffffffc0504072a6:	f53ff0ef          	jal	ra,ffffffc0504071f8 <Xil_Out32>
ffffffc0504072aa:	fdc42783          	lw	a5,-36(s0)
ffffffc0504072ae:	0247879b          	addiw	a5,a5,36
ffffffc0504072b2:	2781                	sext.w	a5,a5
ffffffc0504072b4:	02079713          	slli	a4,a5,0x20
ffffffc0504072b8:	9301                	srli	a4,a4,0x20
ffffffc0504072ba:	67a1                	lui	a5,0x8
ffffffc0504072bc:	fff78593          	addi	a1,a5,-1 # 7fff <_start-0xffffffc0503f8001>
ffffffc0504072c0:	853a                	mv	a0,a4
ffffffc0504072c2:	f37ff0ef          	jal	ra,ffffffc0504071f8 <Xil_Out32>
ffffffc0504072c6:	fdc42783          	lw	a5,-36(s0)
ffffffc0504072ca:	27d1                	addiw	a5,a5,20
ffffffc0504072cc:	2781                	sext.w	a5,a5
ffffffc0504072ce:	1782                	slli	a5,a5,0x20
ffffffc0504072d0:	9381                	srli	a5,a5,0x20
ffffffc0504072d2:	17f00593          	li	a1,383
ffffffc0504072d6:	853e                	mv	a0,a5
ffffffc0504072d8:	f21ff0ef          	jal	ra,ffffffc0504071f8 <Xil_Out32>
ffffffc0504072dc:	fdc42783          	lw	a5,-36(s0)
ffffffc0504072e0:	0207879b          	addiw	a5,a5,32
ffffffc0504072e4:	2781                	sext.w	a5,a5
ffffffc0504072e6:	1782                	slli	a5,a5,0x20
ffffffc0504072e8:	9381                	srli	a5,a5,0x20
ffffffc0504072ea:	4589                	li	a1,2
ffffffc0504072ec:	853e                	mv	a0,a5
ffffffc0504072ee:	f0bff0ef          	jal	ra,ffffffc0504071f8 <Xil_Out32>
ffffffc0504072f2:	fdc42783          	lw	a5,-36(s0)
ffffffc0504072f6:	27f1                	addiw	a5,a5,28
ffffffc0504072f8:	2781                	sext.w	a5,a5
ffffffc0504072fa:	1782                	slli	a5,a5,0x20
ffffffc0504072fc:	9381                	srli	a5,a5,0x20
ffffffc0504072fe:	4581                	li	a1,0
ffffffc050407300:	853e                	mv	a0,a5
ffffffc050407302:	ef7ff0ef          	jal	ra,ffffffc0504071f8 <Xil_Out32>
ffffffc050407306:	fdc42783          	lw	a5,-36(s0)
ffffffc05040730a:	27e1                	addiw	a5,a5,24
ffffffc05040730c:	2781                	sext.w	a5,a5
ffffffc05040730e:	1782                	slli	a5,a5,0x20
ffffffc050407310:	9381                	srli	a5,a5,0x20
ffffffc050407312:	4581                	li	a1,0
ffffffc050407314:	853e                	mv	a0,a5
ffffffc050407316:	ee3ff0ef          	jal	ra,ffffffc0504071f8 <Xil_Out32>
ffffffc05040731a:	fdc42783          	lw	a5,-36(s0)
ffffffc05040731e:	2791                	addiw	a5,a5,4
ffffffc050407320:	2781                	sext.w	a5,a5
ffffffc050407322:	1782                	slli	a5,a5,0x20
ffffffc050407324:	9381                	srli	a5,a5,0x20
ffffffc050407326:	000805b7          	lui	a1,0x80
ffffffc05040732a:	853e                	mv	a0,a5
ffffffc05040732c:	ecdff0ef          	jal	ra,ffffffc0504071f8 <Xil_Out32>
ffffffc050407330:	fdc42783          	lw	a5,-36(s0)
ffffffc050407334:	0807879b          	addiw	a5,a5,128
ffffffc050407338:	2781                	sext.w	a5,a5
ffffffc05040733a:	1782                	slli	a5,a5,0x20
ffffffc05040733c:	9381                	srli	a5,a5,0x20
ffffffc05040733e:	4581                	li	a1,0
ffffffc050407340:	853e                	mv	a0,a5
ffffffc050407342:	eb7ff0ef          	jal	ra,ffffffc0504071f8 <Xil_Out32>
ffffffc050407346:	fdc42783          	lw	a5,-36(s0)
ffffffc05040734a:	0847879b          	addiw	a5,a5,132
ffffffc05040734e:	2781                	sext.w	a5,a5
ffffffc050407350:	1782                	slli	a5,a5,0x20
ffffffc050407352:	9381                	srli	a5,a5,0x20
ffffffc050407354:	4581                	li	a1,0
ffffffc050407356:	853e                	mv	a0,a5
ffffffc050407358:	ea1ff0ef          	jal	ra,ffffffc0504071f8 <Xil_Out32>
ffffffc05040735c:	0001                	nop
ffffffc05040735e:	70a2                	ld	ra,40(sp)
ffffffc050407360:	7402                	ld	s0,32(sp)
ffffffc050407362:	6145                	addi	sp,sp,48
ffffffc050407364:	8082                	ret

ffffffc050407366 <writel>:
ffffffc050407366:	1101                	addi	sp,sp,-32
ffffffc050407368:	ec22                	sd	s0,24(sp)
ffffffc05040736a:	1000                	addi	s0,sp,32
ffffffc05040736c:	87aa                	mv	a5,a0
ffffffc05040736e:	feb43023          	sd	a1,-32(s0)
ffffffc050407372:	fef42623          	sw	a5,-20(s0)
ffffffc050407376:	0550000f          	fence	ow,ow
ffffffc05040737a:	fe043783          	ld	a5,-32(s0)
ffffffc05040737e:	fec42703          	lw	a4,-20(s0)
ffffffc050407382:	c398                	sw	a4,0(a5)
ffffffc050407384:	0001                	nop
ffffffc050407386:	6462                	ld	s0,24(sp)
ffffffc050407388:	6105                	addi	sp,sp,32
ffffffc05040738a:	8082                	ret

ffffffc05040738c <readl>:
ffffffc05040738c:	7179                	addi	sp,sp,-48
ffffffc05040738e:	f422                	sd	s0,40(sp)
ffffffc050407390:	1800                	addi	s0,sp,48
ffffffc050407392:	fca43c23          	sd	a0,-40(s0)
ffffffc050407396:	fd843783          	ld	a5,-40(s0)
ffffffc05040739a:	439c                	lw	a5,0(a5)
ffffffc05040739c:	fef42623          	sw	a5,-20(s0)
ffffffc0504073a0:	0aa0000f          	fence	ir,ir
ffffffc0504073a4:	fec42783          	lw	a5,-20(s0)
ffffffc0504073a8:	2781                	sext.w	a5,a5
ffffffc0504073aa:	853e                	mv	a0,a5
ffffffc0504073ac:	7422                	ld	s0,40(sp)
ffffffc0504073ae:	6145                	addi	sp,sp,48
ffffffc0504073b0:	8082                	ret

ffffffc0504073b2 <Xil_Out32>:
ffffffc0504073b2:	1101                	addi	sp,sp,-32
ffffffc0504073b4:	ec06                	sd	ra,24(sp)
ffffffc0504073b6:	e822                	sd	s0,16(sp)
ffffffc0504073b8:	1000                	addi	s0,sp,32
ffffffc0504073ba:	fea43423          	sd	a0,-24(s0)
ffffffc0504073be:	87ae                	mv	a5,a1
ffffffc0504073c0:	fef42223          	sw	a5,-28(s0)
ffffffc0504073c4:	fe843703          	ld	a4,-24(s0)
ffffffc0504073c8:	fe442783          	lw	a5,-28(s0)
ffffffc0504073cc:	85ba                	mv	a1,a4
ffffffc0504073ce:	853e                	mv	a0,a5
ffffffc0504073d0:	f97ff0ef          	jal	ra,ffffffc050407366 <writel>
ffffffc0504073d4:	0001                	nop
ffffffc0504073d6:	60e2                	ld	ra,24(sp)
ffffffc0504073d8:	6442                	ld	s0,16(sp)
ffffffc0504073da:	6105                	addi	sp,sp,32
ffffffc0504073dc:	8082                	ret

ffffffc0504073de <Xil_In32>:
ffffffc0504073de:	1101                	addi	sp,sp,-32
ffffffc0504073e0:	ec06                	sd	ra,24(sp)
ffffffc0504073e2:	e822                	sd	s0,16(sp)
ffffffc0504073e4:	1000                	addi	s0,sp,32
ffffffc0504073e6:	fea43423          	sd	a0,-24(s0)
ffffffc0504073ea:	fe843783          	ld	a5,-24(s0)
ffffffc0504073ee:	853e                	mv	a0,a5
ffffffc0504073f0:	f9dff0ef          	jal	ra,ffffffc05040738c <readl>
ffffffc0504073f4:	87aa                	mv	a5,a0
ffffffc0504073f6:	2781                	sext.w	a5,a5
ffffffc0504073f8:	853e                	mv	a0,a5
ffffffc0504073fa:	60e2                	ld	ra,24(sp)
ffffffc0504073fc:	6442                	ld	s0,16(sp)
ffffffc0504073fe:	6105                	addi	sp,sp,32
ffffffc050407400:	8082                	ret

ffffffc050407402 <XEmacPs_SetHandler>:
ffffffc050407402:	7139                	addi	sp,sp,-64
ffffffc050407404:	fc22                	sd	s0,56(sp)
ffffffc050407406:	0080                	addi	s0,sp,64
ffffffc050407408:	fca43c23          	sd	a0,-40(s0)
ffffffc05040740c:	87ae                	mv	a5,a1
ffffffc05040740e:	fcc43423          	sd	a2,-56(s0)
ffffffc050407412:	fcd43023          	sd	a3,-64(s0)
ffffffc050407416:	fcf42a23          	sw	a5,-44(s0)
ffffffc05040741a:	fd442783          	lw	a5,-44(s0)
ffffffc05040741e:	0007871b          	sext.w	a4,a5
ffffffc050407422:	478d                	li	a5,3
ffffffc050407424:	06f70663          	beq	a4,a5,ffffffc050407490 <XEmacPs_SetHandler+0x8e>
ffffffc050407428:	fd442783          	lw	a5,-44(s0)
ffffffc05040742c:	0007871b          	sext.w	a4,a5
ffffffc050407430:	478d                	li	a5,3
ffffffc050407432:	06e7ee63          	bltu	a5,a4,ffffffc0504074ae <XEmacPs_SetHandler+0xac>
ffffffc050407436:	fd442783          	lw	a5,-44(s0)
ffffffc05040743a:	0007871b          	sext.w	a4,a5
ffffffc05040743e:	4785                	li	a5,1
ffffffc050407440:	00f70a63          	beq	a4,a5,ffffffc050407454 <XEmacPs_SetHandler+0x52>
ffffffc050407444:	fd442783          	lw	a5,-44(s0)
ffffffc050407448:	0007871b          	sext.w	a4,a5
ffffffc05040744c:	4789                	li	a5,2
ffffffc05040744e:	02f70263          	beq	a4,a5,ffffffc050407472 <XEmacPs_SetHandler+0x70>
ffffffc050407452:	a8b1                	j	ffffffc0504074ae <XEmacPs_SetHandler+0xac>
ffffffc050407454:	fe043423          	sd	zero,-24(s0)
ffffffc050407458:	fc843703          	ld	a4,-56(s0)
ffffffc05040745c:	fd843783          	ld	a5,-40(s0)
ffffffc050407460:	10e7b423          	sd	a4,264(a5)
ffffffc050407464:	fd843783          	ld	a5,-40(s0)
ffffffc050407468:	fc043703          	ld	a4,-64(s0)
ffffffc05040746c:	10e7bc23          	sd	a4,280(a5)
ffffffc050407470:	a099                	j	ffffffc0504074b6 <XEmacPs_SetHandler+0xb4>
ffffffc050407472:	fe043423          	sd	zero,-24(s0)
ffffffc050407476:	fc843703          	ld	a4,-56(s0)
ffffffc05040747a:	fd843783          	ld	a5,-40(s0)
ffffffc05040747e:	10e7b823          	sd	a4,272(a5)
ffffffc050407482:	fd843783          	ld	a5,-40(s0)
ffffffc050407486:	fc043703          	ld	a4,-64(s0)
ffffffc05040748a:	12e7b023          	sd	a4,288(a5)
ffffffc05040748e:	a025                	j	ffffffc0504074b6 <XEmacPs_SetHandler+0xb4>
ffffffc050407490:	fe043423          	sd	zero,-24(s0)
ffffffc050407494:	fc843703          	ld	a4,-56(s0)
ffffffc050407498:	fd843783          	ld	a5,-40(s0)
ffffffc05040749c:	12e7b423          	sd	a4,296(a5)
ffffffc0504074a0:	fd843783          	ld	a5,-40(s0)
ffffffc0504074a4:	fc043703          	ld	a4,-64(s0)
ffffffc0504074a8:	12e7b823          	sd	a4,304(a5)
ffffffc0504074ac:	a029                	j	ffffffc0504074b6 <XEmacPs_SetHandler+0xb4>
ffffffc0504074ae:	47bd                	li	a5,15
ffffffc0504074b0:	fef43423          	sd	a5,-24(s0)
ffffffc0504074b4:	0001                	nop
ffffffc0504074b6:	fe843783          	ld	a5,-24(s0)
ffffffc0504074ba:	853e                	mv	a0,a5
ffffffc0504074bc:	7462                	ld	s0,56(sp)
ffffffc0504074be:	6121                	addi	sp,sp,64
ffffffc0504074c0:	8082                	ret

ffffffc0504074c2 <XEmacPs_IntrHandler>:
ffffffc0504074c2:	7139                	addi	sp,sp,-64
ffffffc0504074c4:	fc06                	sd	ra,56(sp)
ffffffc0504074c6:	f822                	sd	s0,48(sp)
ffffffc0504074c8:	0080                	addi	s0,sp,64
ffffffc0504074ca:	fca43423          	sd	a0,-56(s0)
ffffffc0504074ce:	fc843783          	ld	a5,-56(s0)
ffffffc0504074d2:	fef43423          	sd	a5,-24(s0)
ffffffc0504074d6:	fe843783          	ld	a5,-24(s0)
ffffffc0504074da:	679c                	ld	a5,8(a5)
ffffffc0504074dc:	02478793          	addi	a5,a5,36
ffffffc0504074e0:	853e                	mv	a0,a5
ffffffc0504074e2:	efdff0ef          	jal	ra,ffffffc0504073de <Xil_In32>
ffffffc0504074e6:	87aa                	mv	a5,a0
ffffffc0504074e8:	fef42223          	sw	a5,-28(s0)
ffffffc0504074ec:	fe843783          	ld	a5,-24(s0)
ffffffc0504074f0:	679c                	ld	a5,8(a5)
ffffffc0504074f2:	02478793          	addi	a5,a5,36
ffffffc0504074f6:	fe442703          	lw	a4,-28(s0)
ffffffc0504074fa:	85ba                	mv	a1,a4
ffffffc0504074fc:	853e                	mv	a0,a5
ffffffc0504074fe:	eb5ff0ef          	jal	ra,ffffffc0504073b2 <Xil_Out32>
ffffffc050407502:	fe442783          	lw	a5,-28(s0)
ffffffc050407506:	8b89                	andi	a5,a5,2
ffffffc050407508:	2781                	sext.w	a5,a5
ffffffc05040750a:	c785                	beqz	a5,ffffffc050407532 <XEmacPs_IntrHandler+0x70>
ffffffc05040750c:	fe843783          	ld	a5,-24(s0)
ffffffc050407510:	679c                	ld	a5,8(a5)
ffffffc050407512:	02078793          	addi	a5,a5,32
ffffffc050407516:	458d                	li	a1,3
ffffffc050407518:	853e                	mv	a0,a5
ffffffc05040751a:	e99ff0ef          	jal	ra,ffffffc0504073b2 <Xil_Out32>
ffffffc05040751e:	fe843783          	ld	a5,-24(s0)
ffffffc050407522:	1107b703          	ld	a4,272(a5)
ffffffc050407526:	fe843783          	ld	a5,-24(s0)
ffffffc05040752a:	1207b783          	ld	a5,288(a5)
ffffffc05040752e:	853e                	mv	a0,a5
ffffffc050407530:	9702                	jalr	a4
ffffffc050407532:	fe442783          	lw	a5,-28(s0)
ffffffc050407536:	0807f793          	andi	a5,a5,128
ffffffc05040753a:	2781                	sext.w	a5,a5
ffffffc05040753c:	c785                	beqz	a5,ffffffc050407564 <XEmacPs_IntrHandler+0xa2>
ffffffc05040753e:	fe843783          	ld	a5,-24(s0)
ffffffc050407542:	679c                	ld	a5,8(a5)
ffffffc050407544:	07d1                	addi	a5,a5,20
ffffffc050407546:	02100593          	li	a1,33
ffffffc05040754a:	853e                	mv	a0,a5
ffffffc05040754c:	e67ff0ef          	jal	ra,ffffffc0504073b2 <Xil_Out32>
ffffffc050407550:	fe843783          	ld	a5,-24(s0)
ffffffc050407554:	1087b703          	ld	a4,264(a5)
ffffffc050407558:	fe843783          	ld	a5,-24(s0)
ffffffc05040755c:	1187b783          	ld	a5,280(a5)
ffffffc050407560:	853e                	mv	a0,a5
ffffffc050407562:	9702                	jalr	a4
ffffffc050407564:	fe442703          	lw	a4,-28(s0)
ffffffc050407568:	6785                	lui	a5,0x1
ffffffc05040756a:	c0478793          	addi	a5,a5,-1020 # c04 <_start-0xffffffc0503ff3fc>
ffffffc05040756e:	8ff9                	and	a5,a5,a4
ffffffc050407570:	2781                	sext.w	a5,a5
ffffffc050407572:	c7d9                	beqz	a5,ffffffc050407600 <XEmacPs_IntrHandler+0x13e>
ffffffc050407574:	fe843783          	ld	a5,-24(s0)
ffffffc050407578:	679c                	ld	a5,8(a5)
ffffffc05040757a:	02078793          	addi	a5,a5,32
ffffffc05040757e:	853e                	mv	a0,a5
ffffffc050407580:	e5fff0ef          	jal	ra,ffffffc0504073de <Xil_In32>
ffffffc050407584:	87aa                	mv	a5,a0
ffffffc050407586:	fef42023          	sw	a5,-32(s0)
ffffffc05040758a:	fe843783          	ld	a5,-24(s0)
ffffffc05040758e:	679c                	ld	a5,8(a5)
ffffffc050407590:	02078793          	addi	a5,a5,32
ffffffc050407594:	fe042703          	lw	a4,-32(s0)
ffffffc050407598:	85ba                	mv	a1,a4
ffffffc05040759a:	853e                	mv	a0,a5
ffffffc05040759c:	e17ff0ef          	jal	ra,ffffffc0504073b2 <Xil_Out32>
ffffffc0504075a0:	fe442783          	lw	a5,-28(s0)
ffffffc0504075a4:	8b91                	andi	a5,a5,4
ffffffc0504075a6:	2781                	sext.w	a5,a5
ffffffc0504075a8:	cb95                	beqz	a5,ffffffc0504075dc <XEmacPs_IntrHandler+0x11a>
ffffffc0504075aa:	fe843783          	ld	a5,-24(s0)
ffffffc0504075ae:	679c                	ld	a5,8(a5)
ffffffc0504075b0:	853e                	mv	a0,a5
ffffffc0504075b2:	e2dff0ef          	jal	ra,ffffffc0504073de <Xil_In32>
ffffffc0504075b6:	87aa                	mv	a5,a0
ffffffc0504075b8:	fcf42e23          	sw	a5,-36(s0)
ffffffc0504075bc:	fdc42703          	lw	a4,-36(s0)
ffffffc0504075c0:	000407b7          	lui	a5,0x40
ffffffc0504075c4:	8fd9                	or	a5,a5,a4
ffffffc0504075c6:	fcf42e23          	sw	a5,-36(s0)
ffffffc0504075ca:	fe843783          	ld	a5,-24(s0)
ffffffc0504075ce:	679c                	ld	a5,8(a5)
ffffffc0504075d0:	fdc42703          	lw	a4,-36(s0)
ffffffc0504075d4:	85ba                	mv	a1,a4
ffffffc0504075d6:	853e                	mv	a0,a5
ffffffc0504075d8:	ddbff0ef          	jal	ra,ffffffc0504073b2 <Xil_Out32>
ffffffc0504075dc:	fe042783          	lw	a5,-32(s0)
ffffffc0504075e0:	2781                	sext.w	a5,a5
ffffffc0504075e2:	cf99                	beqz	a5,ffffffc050407600 <XEmacPs_IntrHandler+0x13e>
ffffffc0504075e4:	fe843783          	ld	a5,-24(s0)
ffffffc0504075e8:	1287b683          	ld	a3,296(a5) # 40128 <_start-0xffffffc0503bfed8>
ffffffc0504075ec:	fe843783          	ld	a5,-24(s0)
ffffffc0504075f0:	1307b783          	ld	a5,304(a5)
ffffffc0504075f4:	fe042703          	lw	a4,-32(s0)
ffffffc0504075f8:	863a                	mv	a2,a4
ffffffc0504075fa:	4589                	li	a1,2
ffffffc0504075fc:	853e                	mv	a0,a5
ffffffc0504075fe:	9682                	jalr	a3
ffffffc050407600:	fe442783          	lw	a5,-28(s0)
ffffffc050407604:	0707f793          	andi	a5,a5,112
ffffffc050407608:	2781                	sext.w	a5,a5
ffffffc05040760a:	cfa9                	beqz	a5,ffffffc050407664 <XEmacPs_IntrHandler+0x1a2>
ffffffc05040760c:	fe442783          	lw	a5,-28(s0)
ffffffc050407610:	0807f793          	andi	a5,a5,128
ffffffc050407614:	2781                	sext.w	a5,a5
ffffffc050407616:	e399                	bnez	a5,ffffffc05040761c <XEmacPs_IntrHandler+0x15a>
ffffffc050407618:	4785                	li	a5,1
ffffffc05040761a:	a011                	j	ffffffc05040761e <XEmacPs_IntrHandler+0x15c>
ffffffc05040761c:	4781                	li	a5,0
ffffffc05040761e:	c3b9                	beqz	a5,ffffffc050407664 <XEmacPs_IntrHandler+0x1a2>
ffffffc050407620:	fe843783          	ld	a5,-24(s0)
ffffffc050407624:	679c                	ld	a5,8(a5)
ffffffc050407626:	07d1                	addi	a5,a5,20
ffffffc050407628:	853e                	mv	a0,a5
ffffffc05040762a:	db5ff0ef          	jal	ra,ffffffc0504073de <Xil_In32>
ffffffc05040762e:	87aa                	mv	a5,a0
ffffffc050407630:	fef42023          	sw	a5,-32(s0)
ffffffc050407634:	fe843783          	ld	a5,-24(s0)
ffffffc050407638:	679c                	ld	a5,8(a5)
ffffffc05040763a:	07d1                	addi	a5,a5,20
ffffffc05040763c:	fe042703          	lw	a4,-32(s0)
ffffffc050407640:	85ba                	mv	a1,a4
ffffffc050407642:	853e                	mv	a0,a5
ffffffc050407644:	d6fff0ef          	jal	ra,ffffffc0504073b2 <Xil_Out32>
ffffffc050407648:	fe843783          	ld	a5,-24(s0)
ffffffc05040764c:	1287b683          	ld	a3,296(a5)
ffffffc050407650:	fe843783          	ld	a5,-24(s0)
ffffffc050407654:	1307b783          	ld	a5,304(a5)
ffffffc050407658:	fe042703          	lw	a4,-32(s0)
ffffffc05040765c:	863a                	mv	a2,a4
ffffffc05040765e:	4585                	li	a1,1
ffffffc050407660:	853e                	mv	a0,a5
ffffffc050407662:	9682                	jalr	a3
ffffffc050407664:	0001                	nop
ffffffc050407666:	70e2                	ld	ra,56(sp)
ffffffc050407668:	7442                	ld	s0,48(sp)
ffffffc05040766a:	6121                	addi	sp,sp,64
ffffffc05040766c:	8082                	ret

ffffffc05040766e <writel>:
ffffffc05040766e:	1101                	addi	sp,sp,-32
ffffffc050407670:	ec22                	sd	s0,24(sp)
ffffffc050407672:	1000                	addi	s0,sp,32
ffffffc050407674:	87aa                	mv	a5,a0
ffffffc050407676:	feb43023          	sd	a1,-32(s0)
ffffffc05040767a:	fef42623          	sw	a5,-20(s0)
ffffffc05040767e:	0550000f          	fence	ow,ow
ffffffc050407682:	fe043783          	ld	a5,-32(s0)
ffffffc050407686:	fec42703          	lw	a4,-20(s0)
ffffffc05040768a:	c398                	sw	a4,0(a5)
ffffffc05040768c:	0001                	nop
ffffffc05040768e:	6462                	ld	s0,24(sp)
ffffffc050407690:	6105                	addi	sp,sp,32
ffffffc050407692:	8082                	ret

ffffffc050407694 <readl>:
ffffffc050407694:	7179                	addi	sp,sp,-48
ffffffc050407696:	f422                	sd	s0,40(sp)
ffffffc050407698:	1800                	addi	s0,sp,48
ffffffc05040769a:	fca43c23          	sd	a0,-40(s0)
ffffffc05040769e:	fd843783          	ld	a5,-40(s0)
ffffffc0504076a2:	439c                	lw	a5,0(a5)
ffffffc0504076a4:	fef42623          	sw	a5,-20(s0)
ffffffc0504076a8:	0aa0000f          	fence	ir,ir
ffffffc0504076ac:	fec42783          	lw	a5,-20(s0)
ffffffc0504076b0:	2781                	sext.w	a5,a5
ffffffc0504076b2:	853e                	mv	a0,a5
ffffffc0504076b4:	7422                	ld	s0,40(sp)
ffffffc0504076b6:	6145                	addi	sp,sp,48
ffffffc0504076b8:	8082                	ret

ffffffc0504076ba <local_flush_dcache_all>:
ffffffc0504076ba:	1141                	addi	sp,sp,-16
ffffffc0504076bc:	e422                	sd	s0,8(sp)
ffffffc0504076be:	0800                	addi	s0,sp,16
ffffffc0504076c0:	0ff0000f          	fence
ffffffc0504076c4:	0001                	nop
ffffffc0504076c6:	6422                	ld	s0,8(sp)
ffffffc0504076c8:	0141                	addi	sp,sp,16
ffffffc0504076ca:	8082                	ret

ffffffc0504076cc <kva2pa>:
ffffffc0504076cc:	1101                	addi	sp,sp,-32
ffffffc0504076ce:	ec22                	sd	s0,24(sp)
ffffffc0504076d0:	1000                	addi	s0,sp,32
ffffffc0504076d2:	fea43423          	sd	a0,-24(s0)
ffffffc0504076d6:	fe843703          	ld	a4,-24(s0)
ffffffc0504076da:	4785                	li	a5,1
ffffffc0504076dc:	179a                	slli	a5,a5,0x26
ffffffc0504076de:	97ba                	add	a5,a5,a4
ffffffc0504076e0:	853e                	mv	a0,a5
ffffffc0504076e2:	6462                	ld	s0,24(sp)
ffffffc0504076e4:	6105                	addi	sp,sp,32
ffffffc0504076e6:	8082                	ret

ffffffc0504076e8 <Xil_Out32>:
ffffffc0504076e8:	1101                	addi	sp,sp,-32
ffffffc0504076ea:	ec06                	sd	ra,24(sp)
ffffffc0504076ec:	e822                	sd	s0,16(sp)
ffffffc0504076ee:	1000                	addi	s0,sp,32
ffffffc0504076f0:	fea43423          	sd	a0,-24(s0)
ffffffc0504076f4:	87ae                	mv	a5,a1
ffffffc0504076f6:	fef42223          	sw	a5,-28(s0)
ffffffc0504076fa:	fe843703          	ld	a4,-24(s0)
ffffffc0504076fe:	fe442783          	lw	a5,-28(s0)
ffffffc050407702:	85ba                	mv	a1,a4
ffffffc050407704:	853e                	mv	a0,a5
ffffffc050407706:	f69ff0ef          	jal	ra,ffffffc05040766e <writel>
ffffffc05040770a:	0001                	nop
ffffffc05040770c:	60e2                	ld	ra,24(sp)
ffffffc05040770e:	6442                	ld	s0,16(sp)
ffffffc050407710:	6105                	addi	sp,sp,32
ffffffc050407712:	8082                	ret

ffffffc050407714 <Xil_In32>:
ffffffc050407714:	1101                	addi	sp,sp,-32
ffffffc050407716:	ec06                	sd	ra,24(sp)
ffffffc050407718:	e822                	sd	s0,16(sp)
ffffffc05040771a:	1000                	addi	s0,sp,32
ffffffc05040771c:	fea43423          	sd	a0,-24(s0)
ffffffc050407720:	fe843783          	ld	a5,-24(s0)
ffffffc050407724:	853e                	mv	a0,a5
ffffffc050407726:	f6fff0ef          	jal	ra,ffffffc050407694 <readl>
ffffffc05040772a:	87aa                	mv	a5,a0
ffffffc05040772c:	2781                	sext.w	a5,a5
ffffffc05040772e:	853e                	mv	a0,a5
ffffffc050407730:	60e2                	ld	ra,24(sp)
ffffffc050407732:	6442                	ld	s0,16(sp)
ffffffc050407734:	6105                	addi	sp,sp,32
ffffffc050407736:	8082                	ret

ffffffc050407738 <Xil_DCacheFlushRange>:
ffffffc050407738:	1101                	addi	sp,sp,-32
ffffffc05040773a:	ec06                	sd	ra,24(sp)
ffffffc05040773c:	e822                	sd	s0,16(sp)
ffffffc05040773e:	1000                	addi	s0,sp,32
ffffffc050407740:	fea43423          	sd	a0,-24(s0)
ffffffc050407744:	feb43023          	sd	a1,-32(s0)
ffffffc050407748:	f73ff0ef          	jal	ra,ffffffc0504076ba <local_flush_dcache_all>
ffffffc05040774c:	0001                	nop
ffffffc05040774e:	60e2                	ld	ra,24(sp)
ffffffc050407750:	6442                	ld	s0,16(sp)
ffffffc050407752:	6105                	addi	sp,sp,32
ffffffc050407754:	8082                	ret

ffffffc050407756 <Xil_DCacheInvalidateRange>:
ffffffc050407756:	1101                	addi	sp,sp,-32
ffffffc050407758:	ec06                	sd	ra,24(sp)
ffffffc05040775a:	e822                	sd	s0,16(sp)
ffffffc05040775c:	1000                	addi	s0,sp,32
ffffffc05040775e:	fea43423          	sd	a0,-24(s0)
ffffffc050407762:	feb43023          	sd	a1,-32(s0)
ffffffc050407766:	f55ff0ef          	jal	ra,ffffffc0504076ba <local_flush_dcache_all>
ffffffc05040776a:	0001                	nop
ffffffc05040776c:	60e2                	ld	ra,24(sp)
ffffffc05040776e:	6442                	ld	s0,16(sp)
ffffffc050407770:	6105                	addi	sp,sp,32
ffffffc050407772:	8082                	ret

ffffffc050407774 <xemacps_example_main>:
ffffffc050407774:	1101                	addi	sp,sp,-32
ffffffc050407776:	ec06                	sd	ra,24(sp)
ffffffc050407778:	e822                	sd	s0,16(sp)
ffffffc05040777a:	1000                	addi	s0,sp,32
ffffffc05040777c:	00006517          	auipc	a0,0x6
ffffffc050407780:	ac450513          	addi	a0,a0,-1340 # ffffffc05040d240 <__FUNCTION__.2047+0x2c0>
ffffffc050407784:	100050ef          	jal	ra,ffffffc05040c884 <printk>
ffffffc050407788:	00207517          	auipc	a0,0x207
ffffffc05040778c:	0d050513          	addi	a0,a0,208 # ffffffc05060e858 <EmacPsInstance>
ffffffc050407790:	6af000ef          	jal	ra,ffffffc05040863e <EmacPsDmaIntrExample>
ffffffc050407794:	fea43423          	sd	a0,-24(s0)
ffffffc050407798:	fe843783          	ld	a5,-24(s0)
ffffffc05040779c:	cb89                	beqz	a5,ffffffc0504077ae <xemacps_example_main+0x3a>
ffffffc05040779e:	00006517          	auipc	a0,0x6
ffffffc0504077a2:	aba50513          	addi	a0,a0,-1350 # ffffffc05040d258 <__FUNCTION__.2047+0x2d8>
ffffffc0504077a6:	9cfff0ef          	jal	ra,ffffffc050407174 <EmacPsUtilErrorTrap>
ffffffc0504077aa:	4785                	li	a5,1
ffffffc0504077ac:	a801                	j	ffffffc0504077bc <xemacps_example_main+0x48>
ffffffc0504077ae:	00006517          	auipc	a0,0x6
ffffffc0504077b2:	ad250513          	addi	a0,a0,-1326 # ffffffc05040d280 <__FUNCTION__.2047+0x300>
ffffffc0504077b6:	0ce050ef          	jal	ra,ffffffc05040c884 <printk>
ffffffc0504077ba:	4781                	li	a5,0
ffffffc0504077bc:	853e                	mv	a0,a5
ffffffc0504077be:	60e2                	ld	ra,24(sp)
ffffffc0504077c0:	6442                	ld	s0,16(sp)
ffffffc0504077c2:	6105                	addi	sp,sp,32
ffffffc0504077c4:	8082                	ret

ffffffc0504077c6 <EmacPsSetupBD>:
ffffffc0504077c6:	7139                	addi	sp,sp,-64
ffffffc0504077c8:	fc06                	sd	ra,56(sp)
ffffffc0504077ca:	f822                	sd	s0,48(sp)
ffffffc0504077cc:	f426                	sd	s1,40(sp)
ffffffc0504077ce:	0080                	addi	s0,sp,64
ffffffc0504077d0:	fca43423          	sd	a0,-56(s0)
ffffffc0504077d4:	003f9797          	auipc	a5,0x3f9
ffffffc0504077d8:	46c78793          	addi	a5,a5,1132 # ffffffc050800c40 <RxBdSpacePtr>
ffffffc0504077dc:	005f9717          	auipc	a4,0x5f9
ffffffc0504077e0:	82470713          	addi	a4,a4,-2012 # ffffffc050a00000 <bd_space>
ffffffc0504077e4:	e398                	sd	a4,0(a5)
ffffffc0504077e6:	003f9797          	auipc	a5,0x3f9
ffffffc0504077ea:	47278793          	addi	a5,a5,1138 # ffffffc050800c58 <TxBdSpacePtr>
ffffffc0504077ee:	00609717          	auipc	a4,0x609
ffffffc0504077f2:	81270713          	addi	a4,a4,-2030 # ffffffc050a10000 <bd_space+0x10000>
ffffffc0504077f6:	e398                	sd	a4,0(a5)
ffffffc0504077f8:	fd040793          	addi	a5,s0,-48
ffffffc0504077fc:	4621                	li	a2,8
ffffffc0504077fe:	4581                	li	a1,0
ffffffc050407800:	853e                	mv	a0,a5
ffffffc050407802:	64e040ef          	jal	ra,ffffffc05040be50 <memset>
ffffffc050407806:	fc843783          	ld	a5,-56(s0)
ffffffc05040780a:	09878493          	addi	s1,a5,152
ffffffc05040780e:	003f9797          	auipc	a5,0x3f9
ffffffc050407812:	43278793          	addi	a5,a5,1074 # ffffffc050800c40 <RxBdSpacePtr>
ffffffc050407816:	639c                	ld	a5,0(a5)
ffffffc050407818:	853e                	mv	a0,a5
ffffffc05040781a:	eb3ff0ef          	jal	ra,ffffffc0504076cc <kva2pa>
ffffffc05040781e:	85aa                	mv	a1,a0
ffffffc050407820:	003f9797          	auipc	a5,0x3f9
ffffffc050407824:	42078793          	addi	a5,a5,1056 # ffffffc050800c40 <RxBdSpacePtr>
ffffffc050407828:	639c                	ld	a5,0(a5)
ffffffc05040782a:	863e                	mv	a2,a5
ffffffc05040782c:	4781                	li	a5,0
ffffffc05040782e:	02100713          	li	a4,33
ffffffc050407832:	04000693          	li	a3,64
ffffffc050407836:	8526                	mv	a0,s1
ffffffc050407838:	a40fc0ef          	jal	ra,ffffffc050403a78 <XEmacPs_BdRingCreate>
ffffffc05040783c:	fca43c23          	sd	a0,-40(s0)
ffffffc050407840:	fd843783          	ld	a5,-40(s0)
ffffffc050407844:	cb89                	beqz	a5,ffffffc050407856 <EmacPsSetupBD+0x90>
ffffffc050407846:	00006517          	auipc	a0,0x6
ffffffc05040784a:	a6a50513          	addi	a0,a0,-1430 # ffffffc05040d2b0 <__FUNCTION__.2047+0x330>
ffffffc05040784e:	927ff0ef          	jal	ra,ffffffc050407174 <EmacPsUtilErrorTrap>
ffffffc050407852:	4785                	li	a5,1
ffffffc050407854:	a8f1                	j	ffffffc050407930 <EmacPsSetupBD+0x16a>
ffffffc050407856:	fc843783          	ld	a5,-56(s0)
ffffffc05040785a:	09878793          	addi	a5,a5,152
ffffffc05040785e:	fd040713          	addi	a4,s0,-48
ffffffc050407862:	4609                	li	a2,2
ffffffc050407864:	85ba                	mv	a1,a4
ffffffc050407866:	853e                	mv	a0,a5
ffffffc050407868:	c24fc0ef          	jal	ra,ffffffc050403c8c <XEmacPs_BdRingClone>
ffffffc05040786c:	fca43c23          	sd	a0,-40(s0)
ffffffc050407870:	fd843783          	ld	a5,-40(s0)
ffffffc050407874:	cb89                	beqz	a5,ffffffc050407886 <EmacPsSetupBD+0xc0>
ffffffc050407876:	00006517          	auipc	a0,0x6
ffffffc05040787a:	a6a50513          	addi	a0,a0,-1430 # ffffffc05040d2e0 <__FUNCTION__.2047+0x360>
ffffffc05040787e:	8f7ff0ef          	jal	ra,ffffffc050407174 <EmacPsUtilErrorTrap>
ffffffc050407882:	4785                	li	a5,1
ffffffc050407884:	a075                	j	ffffffc050407930 <EmacPsSetupBD+0x16a>
ffffffc050407886:	fd040793          	addi	a5,s0,-48
ffffffc05040788a:	4621                	li	a2,8
ffffffc05040788c:	4581                	li	a1,0
ffffffc05040788e:	853e                	mv	a0,a5
ffffffc050407890:	5c0040ef          	jal	ra,ffffffc05040be50 <memset>
ffffffc050407894:	fd040793          	addi	a5,s0,-48
ffffffc050407898:	0791                	addi	a5,a5,4
ffffffc05040789a:	4394                	lw	a3,0(a5)
ffffffc05040789c:	fd040793          	addi	a5,s0,-48
ffffffc0504078a0:	0791                	addi	a5,a5,4
ffffffc0504078a2:	873e                	mv	a4,a5
ffffffc0504078a4:	800007b7          	lui	a5,0x80000
ffffffc0504078a8:	8fd5                	or	a5,a5,a3
ffffffc0504078aa:	2781                	sext.w	a5,a5
ffffffc0504078ac:	c31c                	sw	a5,0(a4)
ffffffc0504078ae:	fc843783          	ld	a5,-56(s0)
ffffffc0504078b2:	02878493          	addi	s1,a5,40 # ffffffff80000028 <__BSS_END__+0x3f2f3fd108>
ffffffc0504078b6:	003f9797          	auipc	a5,0x3f9
ffffffc0504078ba:	3a278793          	addi	a5,a5,930 # ffffffc050800c58 <TxBdSpacePtr>
ffffffc0504078be:	639c                	ld	a5,0(a5)
ffffffc0504078c0:	853e                	mv	a0,a5
ffffffc0504078c2:	e0bff0ef          	jal	ra,ffffffc0504076cc <kva2pa>
ffffffc0504078c6:	85aa                	mv	a1,a0
ffffffc0504078c8:	003f9797          	auipc	a5,0x3f9
ffffffc0504078cc:	39078793          	addi	a5,a5,912 # ffffffc050800c58 <TxBdSpacePtr>
ffffffc0504078d0:	639c                	ld	a5,0(a5)
ffffffc0504078d2:	863e                	mv	a2,a5
ffffffc0504078d4:	4781                	li	a5,0
ffffffc0504078d6:	02100713          	li	a4,33
ffffffc0504078da:	04000693          	li	a3,64
ffffffc0504078de:	8526                	mv	a0,s1
ffffffc0504078e0:	998fc0ef          	jal	ra,ffffffc050403a78 <XEmacPs_BdRingCreate>
ffffffc0504078e4:	fca43c23          	sd	a0,-40(s0)
ffffffc0504078e8:	fd843783          	ld	a5,-40(s0)
ffffffc0504078ec:	cb89                	beqz	a5,ffffffc0504078fe <EmacPsSetupBD+0x138>
ffffffc0504078ee:	00006517          	auipc	a0,0x6
ffffffc0504078f2:	a2250513          	addi	a0,a0,-1502 # ffffffc05040d310 <__FUNCTION__.2047+0x390>
ffffffc0504078f6:	87fff0ef          	jal	ra,ffffffc050407174 <EmacPsUtilErrorTrap>
ffffffc0504078fa:	4785                	li	a5,1
ffffffc0504078fc:	a815                	j	ffffffc050407930 <EmacPsSetupBD+0x16a>
ffffffc0504078fe:	fc843783          	ld	a5,-56(s0)
ffffffc050407902:	02878793          	addi	a5,a5,40
ffffffc050407906:	fd040713          	addi	a4,s0,-48
ffffffc05040790a:	4605                	li	a2,1
ffffffc05040790c:	85ba                	mv	a1,a4
ffffffc05040790e:	853e                	mv	a0,a5
ffffffc050407910:	b7cfc0ef          	jal	ra,ffffffc050403c8c <XEmacPs_BdRingClone>
ffffffc050407914:	fca43c23          	sd	a0,-40(s0)
ffffffc050407918:	fd843783          	ld	a5,-40(s0)
ffffffc05040791c:	cb89                	beqz	a5,ffffffc05040792e <EmacPsSetupBD+0x168>
ffffffc05040791e:	00006517          	auipc	a0,0x6
ffffffc050407922:	a2250513          	addi	a0,a0,-1502 # ffffffc05040d340 <__FUNCTION__.2047+0x3c0>
ffffffc050407926:	84fff0ef          	jal	ra,ffffffc050407174 <EmacPsUtilErrorTrap>
ffffffc05040792a:	4785                	li	a5,1
ffffffc05040792c:	a011                	j	ffffffc050407930 <EmacPsSetupBD+0x16a>
ffffffc05040792e:	4781                	li	a5,0
ffffffc050407930:	853e                	mv	a0,a5
ffffffc050407932:	70e2                	ld	ra,56(sp)
ffffffc050407934:	7442                	ld	s0,48(sp)
ffffffc050407936:	74a2                	ld	s1,40(sp)
ffffffc050407938:	6121                	addi	sp,sp,64
ffffffc05040793a:	8082                	ret

ffffffc05040793c <EmacPsSetupRxBD>:
ffffffc05040793c:	7139                	addi	sp,sp,-64
ffffffc05040793e:	fc06                	sd	ra,56(sp)
ffffffc050407940:	f822                	sd	s0,48(sp)
ffffffc050407942:	f426                	sd	s1,40(sp)
ffffffc050407944:	0080                	addi	s0,sp,64
ffffffc050407946:	fca43423          	sd	a0,-56(s0)
ffffffc05040794a:	003f9797          	auipc	a5,0x3f9
ffffffc05040794e:	2f678793          	addi	a5,a5,758 # ffffffc050800c40 <RxBdSpacePtr>
ffffffc050407952:	005f8717          	auipc	a4,0x5f8
ffffffc050407956:	6ae70713          	addi	a4,a4,1710 # ffffffc050a00000 <bd_space>
ffffffc05040795a:	e398                	sd	a4,0(a5)
ffffffc05040795c:	fd040793          	addi	a5,s0,-48
ffffffc050407960:	4621                	li	a2,8
ffffffc050407962:	4581                	li	a1,0
ffffffc050407964:	853e                	mv	a0,a5
ffffffc050407966:	4ea040ef          	jal	ra,ffffffc05040be50 <memset>
ffffffc05040796a:	fc843783          	ld	a5,-56(s0)
ffffffc05040796e:	09878493          	addi	s1,a5,152
ffffffc050407972:	003f9797          	auipc	a5,0x3f9
ffffffc050407976:	2ce78793          	addi	a5,a5,718 # ffffffc050800c40 <RxBdSpacePtr>
ffffffc05040797a:	639c                	ld	a5,0(a5)
ffffffc05040797c:	853e                	mv	a0,a5
ffffffc05040797e:	d4fff0ef          	jal	ra,ffffffc0504076cc <kva2pa>
ffffffc050407982:	85aa                	mv	a1,a0
ffffffc050407984:	003f9797          	auipc	a5,0x3f9
ffffffc050407988:	2bc78793          	addi	a5,a5,700 # ffffffc050800c40 <RxBdSpacePtr>
ffffffc05040798c:	639c                	ld	a5,0(a5)
ffffffc05040798e:	863e                	mv	a2,a5
ffffffc050407990:	4781                	li	a5,0
ffffffc050407992:	02100713          	li	a4,33
ffffffc050407996:	04000693          	li	a3,64
ffffffc05040799a:	8526                	mv	a0,s1
ffffffc05040799c:	8dcfc0ef          	jal	ra,ffffffc050403a78 <XEmacPs_BdRingCreate>
ffffffc0504079a0:	fca43c23          	sd	a0,-40(s0)
ffffffc0504079a4:	fd843783          	ld	a5,-40(s0)
ffffffc0504079a8:	cb89                	beqz	a5,ffffffc0504079ba <EmacPsSetupRxBD+0x7e>
ffffffc0504079aa:	00006517          	auipc	a0,0x6
ffffffc0504079ae:	90650513          	addi	a0,a0,-1786 # ffffffc05040d2b0 <__FUNCTION__.2047+0x330>
ffffffc0504079b2:	fc2ff0ef          	jal	ra,ffffffc050407174 <EmacPsUtilErrorTrap>
ffffffc0504079b6:	4785                	li	a5,1
ffffffc0504079b8:	a80d                	j	ffffffc0504079ea <EmacPsSetupRxBD+0xae>
ffffffc0504079ba:	fc843783          	ld	a5,-56(s0)
ffffffc0504079be:	09878793          	addi	a5,a5,152
ffffffc0504079c2:	fd040713          	addi	a4,s0,-48
ffffffc0504079c6:	4609                	li	a2,2
ffffffc0504079c8:	85ba                	mv	a1,a4
ffffffc0504079ca:	853e                	mv	a0,a5
ffffffc0504079cc:	ac0fc0ef          	jal	ra,ffffffc050403c8c <XEmacPs_BdRingClone>
ffffffc0504079d0:	fca43c23          	sd	a0,-40(s0)
ffffffc0504079d4:	fd843783          	ld	a5,-40(s0)
ffffffc0504079d8:	cb89                	beqz	a5,ffffffc0504079ea <EmacPsSetupRxBD+0xae>
ffffffc0504079da:	00006517          	auipc	a0,0x6
ffffffc0504079de:	90650513          	addi	a0,a0,-1786 # ffffffc05040d2e0 <__FUNCTION__.2047+0x360>
ffffffc0504079e2:	f92ff0ef          	jal	ra,ffffffc050407174 <EmacPsUtilErrorTrap>
ffffffc0504079e6:	4785                	li	a5,1
ffffffc0504079e8:	a009                	j	ffffffc0504079ea <EmacPsSetupRxBD+0xae>
ffffffc0504079ea:	853e                	mv	a0,a5
ffffffc0504079ec:	70e2                	ld	ra,56(sp)
ffffffc0504079ee:	7442                	ld	s0,48(sp)
ffffffc0504079f0:	74a2                	ld	s1,40(sp)
ffffffc0504079f2:	6121                	addi	sp,sp,64
ffffffc0504079f4:	8082                	ret

ffffffc0504079f6 <EmacPsSetupTxBD>:
ffffffc0504079f6:	7139                	addi	sp,sp,-64
ffffffc0504079f8:	fc06                	sd	ra,56(sp)
ffffffc0504079fa:	f822                	sd	s0,48(sp)
ffffffc0504079fc:	f426                	sd	s1,40(sp)
ffffffc0504079fe:	0080                	addi	s0,sp,64
ffffffc050407a00:	fca43423          	sd	a0,-56(s0)
ffffffc050407a04:	003f9797          	auipc	a5,0x3f9
ffffffc050407a08:	25478793          	addi	a5,a5,596 # ffffffc050800c58 <TxBdSpacePtr>
ffffffc050407a0c:	00608717          	auipc	a4,0x608
ffffffc050407a10:	5f470713          	addi	a4,a4,1524 # ffffffc050a10000 <bd_space+0x10000>
ffffffc050407a14:	e398                	sd	a4,0(a5)
ffffffc050407a16:	fd040793          	addi	a5,s0,-48
ffffffc050407a1a:	4621                	li	a2,8
ffffffc050407a1c:	4581                	li	a1,0
ffffffc050407a1e:	853e                	mv	a0,a5
ffffffc050407a20:	430040ef          	jal	ra,ffffffc05040be50 <memset>
ffffffc050407a24:	fd040793          	addi	a5,s0,-48
ffffffc050407a28:	0791                	addi	a5,a5,4
ffffffc050407a2a:	4394                	lw	a3,0(a5)
ffffffc050407a2c:	fd040793          	addi	a5,s0,-48
ffffffc050407a30:	0791                	addi	a5,a5,4
ffffffc050407a32:	873e                	mv	a4,a5
ffffffc050407a34:	800007b7          	lui	a5,0x80000
ffffffc050407a38:	8fd5                	or	a5,a5,a3
ffffffc050407a3a:	2781                	sext.w	a5,a5
ffffffc050407a3c:	c31c                	sw	a5,0(a4)
ffffffc050407a3e:	fc843783          	ld	a5,-56(s0)
ffffffc050407a42:	02878493          	addi	s1,a5,40 # ffffffff80000028 <__BSS_END__+0x3f2f3fd108>
ffffffc050407a46:	003f9797          	auipc	a5,0x3f9
ffffffc050407a4a:	21278793          	addi	a5,a5,530 # ffffffc050800c58 <TxBdSpacePtr>
ffffffc050407a4e:	639c                	ld	a5,0(a5)
ffffffc050407a50:	853e                	mv	a0,a5
ffffffc050407a52:	c7bff0ef          	jal	ra,ffffffc0504076cc <kva2pa>
ffffffc050407a56:	85aa                	mv	a1,a0
ffffffc050407a58:	003f9797          	auipc	a5,0x3f9
ffffffc050407a5c:	20078793          	addi	a5,a5,512 # ffffffc050800c58 <TxBdSpacePtr>
ffffffc050407a60:	639c                	ld	a5,0(a5)
ffffffc050407a62:	863e                	mv	a2,a5
ffffffc050407a64:	4781                	li	a5,0
ffffffc050407a66:	02100713          	li	a4,33
ffffffc050407a6a:	04000693          	li	a3,64
ffffffc050407a6e:	8526                	mv	a0,s1
ffffffc050407a70:	808fc0ef          	jal	ra,ffffffc050403a78 <XEmacPs_BdRingCreate>
ffffffc050407a74:	fca43c23          	sd	a0,-40(s0)
ffffffc050407a78:	fd843783          	ld	a5,-40(s0)
ffffffc050407a7c:	cb89                	beqz	a5,ffffffc050407a8e <EmacPsSetupTxBD+0x98>
ffffffc050407a7e:	00006517          	auipc	a0,0x6
ffffffc050407a82:	89250513          	addi	a0,a0,-1902 # ffffffc05040d310 <__FUNCTION__.2047+0x390>
ffffffc050407a86:	eeeff0ef          	jal	ra,ffffffc050407174 <EmacPsUtilErrorTrap>
ffffffc050407a8a:	4785                	li	a5,1
ffffffc050407a8c:	a815                	j	ffffffc050407ac0 <EmacPsSetupTxBD+0xca>
ffffffc050407a8e:	fc843783          	ld	a5,-56(s0)
ffffffc050407a92:	02878793          	addi	a5,a5,40
ffffffc050407a96:	fd040713          	addi	a4,s0,-48
ffffffc050407a9a:	4605                	li	a2,1
ffffffc050407a9c:	85ba                	mv	a1,a4
ffffffc050407a9e:	853e                	mv	a0,a5
ffffffc050407aa0:	9ecfc0ef          	jal	ra,ffffffc050403c8c <XEmacPs_BdRingClone>
ffffffc050407aa4:	fca43c23          	sd	a0,-40(s0)
ffffffc050407aa8:	fd843783          	ld	a5,-40(s0)
ffffffc050407aac:	cb89                	beqz	a5,ffffffc050407abe <EmacPsSetupTxBD+0xc8>
ffffffc050407aae:	00006517          	auipc	a0,0x6
ffffffc050407ab2:	89250513          	addi	a0,a0,-1902 # ffffffc05040d340 <__FUNCTION__.2047+0x3c0>
ffffffc050407ab6:	ebeff0ef          	jal	ra,ffffffc050407174 <EmacPsUtilErrorTrap>
ffffffc050407aba:	4785                	li	a5,1
ffffffc050407abc:	a011                	j	ffffffc050407ac0 <EmacPsSetupTxBD+0xca>
ffffffc050407abe:	4781                	li	a5,0
ffffffc050407ac0:	853e                	mv	a0,a5
ffffffc050407ac2:	70e2                	ld	ra,56(sp)
ffffffc050407ac4:	7442                	ld	s0,48(sp)
ffffffc050407ac6:	74a2                	ld	s1,40(sp)
ffffffc050407ac8:	6121                	addi	sp,sp,64
ffffffc050407aca:	8082                	ret

ffffffc050407acc <EmacPsInitPhy>:
ffffffc050407acc:	7179                	addi	sp,sp,-48
ffffffc050407ace:	f406                	sd	ra,40(sp)
ffffffc050407ad0:	f022                	sd	s0,32(sp)
ffffffc050407ad2:	1800                	addi	s0,sp,48
ffffffc050407ad4:	fca43c23          	sd	a0,-40(s0)
ffffffc050407ad8:	fcb43823          	sd	a1,-48(s0)
ffffffc050407adc:	fd843503          	ld	a0,-40(s0)
ffffffc050407ae0:	d68fe0ef          	jal	ra,ffffffc050406048 <XEmacPsDetectPHY>
ffffffc050407ae4:	87aa                	mv	a5,a0
ffffffc050407ae6:	fef42223          	sw	a5,-28(s0)
ffffffc050407aea:	fe442783          	lw	a5,-28(s0)
ffffffc050407aee:	0007871b          	sext.w	a4,a5
ffffffc050407af2:	47fd                	li	a5,31
ffffffc050407af4:	00e7fa63          	bgeu	a5,a4,ffffffc050407b08 <EmacPsInitPhy+0x3c>
ffffffc050407af8:	00006517          	auipc	a0,0x6
ffffffc050407afc:	87850513          	addi	a0,a0,-1928 # ffffffc05040d370 <__FUNCTION__.2047+0x3f0>
ffffffc050407b00:	e74ff0ef          	jal	ra,ffffffc050407174 <EmacPsUtilErrorTrap>
ffffffc050407b04:	4785                	li	a5,1
ffffffc050407b06:	a87d                	j	ffffffc050407bc4 <EmacPsInitPhy+0xf8>
ffffffc050407b08:	fe240713          	addi	a4,s0,-30
ffffffc050407b0c:	fe442783          	lw	a5,-28(s0)
ffffffc050407b10:	86ba                	mv	a3,a4
ffffffc050407b12:	4609                	li	a2,2
ffffffc050407b14:	85be                	mv	a1,a5
ffffffc050407b16:	fd843503          	ld	a0,-40(s0)
ffffffc050407b1a:	e2dfd0ef          	jal	ra,ffffffc050405946 <XEmacPs_PhyRead>
ffffffc050407b1e:	87aa                	mv	a5,a0
ffffffc050407b20:	c799                	beqz	a5,ffffffc050407b2e <EmacPsInitPhy+0x62>
ffffffc050407b22:	00006517          	auipc	a0,0x6
ffffffc050407b26:	86650513          	addi	a0,a0,-1946 # ffffffc05040d388 <__FUNCTION__.2047+0x408>
ffffffc050407b2a:	e4aff0ef          	jal	ra,ffffffc050407174 <EmacPsUtilErrorTrap>
ffffffc050407b2e:	fe040713          	addi	a4,s0,-32
ffffffc050407b32:	fe442783          	lw	a5,-28(s0)
ffffffc050407b36:	86ba                	mv	a3,a4
ffffffc050407b38:	460d                	li	a2,3
ffffffc050407b3a:	85be                	mv	a1,a5
ffffffc050407b3c:	fd843503          	ld	a0,-40(s0)
ffffffc050407b40:	e07fd0ef          	jal	ra,ffffffc050405946 <XEmacPs_PhyRead>
ffffffc050407b44:	87aa                	mv	a5,a0
ffffffc050407b46:	c799                	beqz	a5,ffffffc050407b54 <EmacPsInitPhy+0x88>
ffffffc050407b48:	00006517          	auipc	a0,0x6
ffffffc050407b4c:	84050513          	addi	a0,a0,-1984 # ffffffc05040d388 <__FUNCTION__.2047+0x408>
ffffffc050407b50:	e24ff0ef          	jal	ra,ffffffc050407174 <EmacPsUtilErrorTrap>
ffffffc050407b54:	fe245783          	lhu	a5,-30(s0)
ffffffc050407b58:	2781                	sext.w	a5,a5
ffffffc050407b5a:	0107979b          	slliw	a5,a5,0x10
ffffffc050407b5e:	0007871b          	sext.w	a4,a5
ffffffc050407b62:	fe045783          	lhu	a5,-32(s0)
ffffffc050407b66:	2781                	sext.w	a5,a5
ffffffc050407b68:	8fd9                	or	a5,a5,a4
ffffffc050407b6a:	2781                	sext.w	a5,a5
ffffffc050407b6c:	85be                	mv	a1,a5
ffffffc050407b6e:	00006517          	auipc	a0,0x6
ffffffc050407b72:	82a50513          	addi	a0,a0,-2006 # ffffffc05040d398 <__FUNCTION__.2047+0x418>
ffffffc050407b76:	50f040ef          	jal	ra,ffffffc05040c884 <printk>
ffffffc050407b7a:	fe245783          	lhu	a5,-30(s0)
ffffffc050407b7e:	0007871b          	sext.w	a4,a5
ffffffc050407b82:	47f1                	li	a5,28
ffffffc050407b84:	00f71e63          	bne	a4,a5,ffffffc050407ba0 <EmacPsInitPhy+0xd4>
ffffffc050407b88:	fe442783          	lw	a5,-28(s0)
ffffffc050407b8c:	863e                	mv	a2,a5
ffffffc050407b8e:	fd043583          	ld	a1,-48(s0)
ffffffc050407b92:	fd843503          	ld	a0,-40(s0)
ffffffc050407b96:	994ff0ef          	jal	ra,ffffffc050406d2a <EmacPsUtilRtlPhyInit>
ffffffc050407b9a:	fea43423          	sd	a0,-24(s0)
ffffffc050407b9e:	a039                	j	ffffffc050407bac <EmacPsInitPhy+0xe0>
ffffffc050407ba0:	00006517          	auipc	a0,0x6
ffffffc050407ba4:	81050513          	addi	a0,a0,-2032 # ffffffc05040d3b0 <__FUNCTION__.2047+0x430>
ffffffc050407ba8:	dccff0ef          	jal	ra,ffffffc050407174 <EmacPsUtilErrorTrap>
ffffffc050407bac:	fe843783          	ld	a5,-24(s0)
ffffffc050407bb0:	cb89                	beqz	a5,ffffffc050407bc2 <EmacPsInitPhy+0xf6>
ffffffc050407bb2:	00006517          	auipc	a0,0x6
ffffffc050407bb6:	81650513          	addi	a0,a0,-2026 # ffffffc05040d3c8 <__FUNCTION__.2047+0x448>
ffffffc050407bba:	dbaff0ef          	jal	ra,ffffffc050407174 <EmacPsUtilErrorTrap>
ffffffc050407bbe:	4785                	li	a5,1
ffffffc050407bc0:	a011                	j	ffffffc050407bc4 <EmacPsInitPhy+0xf8>
ffffffc050407bc2:	4781                	li	a5,0
ffffffc050407bc4:	853e                	mv	a0,a5
ffffffc050407bc6:	70a2                	ld	ra,40(sp)
ffffffc050407bc8:	7402                	ld	s0,32(sp)
ffffffc050407bca:	6145                	addi	sp,sp,48
ffffffc050407bcc:	8082                	ret

ffffffc050407bce <EmacPsSetupDevice>:
ffffffc050407bce:	7179                	addi	sp,sp,-48
ffffffc050407bd0:	f406                	sd	ra,40(sp)
ffffffc050407bd2:	f022                	sd	s0,32(sp)
ffffffc050407bd4:	1800                	addi	s0,sp,48
ffffffc050407bd6:	fca43c23          	sd	a0,-40(s0)
ffffffc050407bda:	007f8797          	auipc	a5,0x7f8
ffffffc050407bde:	43e78793          	addi	a5,a5,1086 # ffffffc050c00018 <xemacps_config>
ffffffc050407be2:	fef43423          	sd	a5,-24(s0)
ffffffc050407be6:	fe843783          	ld	a5,-24(s0)
ffffffc050407bea:	679c                	ld	a5,8(a5)
ffffffc050407bec:	863e                	mv	a2,a5
ffffffc050407bee:	fe843583          	ld	a1,-24(s0)
ffffffc050407bf2:	fd843503          	ld	a0,-40(s0)
ffffffc050407bf6:	893fb0ef          	jal	ra,ffffffc050403488 <XEmacPs_CfgInitialize>
ffffffc050407bfa:	fea43023          	sd	a0,-32(s0)
ffffffc050407bfe:	fe043783          	ld	a5,-32(s0)
ffffffc050407c02:	cb89                	beqz	a5,ffffffc050407c14 <EmacPsSetupDevice+0x46>
ffffffc050407c04:	00005517          	auipc	a0,0x5
ffffffc050407c08:	7e450513          	addi	a0,a0,2020 # ffffffc05040d3e8 <__FUNCTION__.2047+0x468>
ffffffc050407c0c:	d68ff0ef          	jal	ra,ffffffc050407174 <EmacPsUtilErrorTrap>
ffffffc050407c10:	4785                	li	a5,1
ffffffc050407c12:	aa25                	j	ffffffc050407d4a <EmacPsSetupDevice+0x17c>
ffffffc050407c14:	00005517          	auipc	a0,0x5
ffffffc050407c18:	7ec50513          	addi	a0,a0,2028 # ffffffc05040d400 <__FUNCTION__.2047+0x480>
ffffffc050407c1c:	469040ef          	jal	ra,ffffffc05040c884 <printk>
ffffffc050407c20:	fe843783          	ld	a5,-24(s0)
ffffffc050407c24:	679c                	ld	a5,8(a5)
ffffffc050407c26:	0fc78793          	addi	a5,a5,252
ffffffc050407c2a:	853e                	mv	a0,a5
ffffffc050407c2c:	ae9ff0ef          	jal	ra,ffffffc050407714 <Xil_In32>
ffffffc050407c30:	87aa                	mv	a5,a0
ffffffc050407c32:	2781                	sext.w	a5,a5
ffffffc050407c34:	0107d79b          	srliw	a5,a5,0x10
ffffffc050407c38:	2781                	sext.w	a5,a5
ffffffc050407c3a:	873e                	mv	a4,a5
ffffffc050407c3c:	6785                	lui	a5,0x1
ffffffc050407c3e:	17fd                	addi	a5,a5,-1
ffffffc050407c40:	8ff9                	and	a5,a5,a4
ffffffc050407c42:	0007871b          	sext.w	a4,a5
ffffffc050407c46:	003f9797          	auipc	a5,0x3f9
ffffffc050407c4a:	00a78793          	addi	a5,a5,10 # ffffffc050800c50 <GemVersion>
ffffffc050407c4e:	c398                	sw	a4,0(a5)
ffffffc050407c50:	003f9797          	auipc	a5,0x3f9
ffffffc050407c54:	00078793          	mv	a5,a5
ffffffc050407c58:	439c                	lw	a5,0(a5)
ffffffc050407c5a:	85be                	mv	a1,a5
ffffffc050407c5c:	00005517          	auipc	a0,0x5
ffffffc050407c60:	7cc50513          	addi	a0,a0,1996 # ffffffc05040d428 <__FUNCTION__.2047+0x4a8>
ffffffc050407c64:	421040ef          	jal	ra,ffffffc05040c884 <printk>
ffffffc050407c68:	007f8797          	auipc	a5,0x7f8
ffffffc050407c6c:	3a078793          	addi	a5,a5,928 # ffffffc050c00008 <Platform>
ffffffc050407c70:	6715                	lui	a4,0x5
ffffffc050407c72:	c398                	sw	a4,0(a5)
ffffffc050407c74:	fd843503          	ld	a0,-40(s0)
ffffffc050407c78:	0b0010ef          	jal	ra,ffffffc050408d28 <XEmacPsClkSetup>
ffffffc050407c7c:	00005517          	auipc	a0,0x5
ffffffc050407c80:	7c450513          	addi	a0,a0,1988 # ffffffc05040d440 <__FUNCTION__.2047+0x4c0>
ffffffc050407c84:	401040ef          	jal	ra,ffffffc05040c884 <printk>
ffffffc050407c88:	fd843503          	ld	a0,-40(s0)
ffffffc050407c8c:	a11fb0ef          	jal	ra,ffffffc05040369c <XEmacPs_Reset>
ffffffc050407c90:	4605                	li	a2,1
ffffffc050407c92:	0006a597          	auipc	a1,0x6a
ffffffc050407c96:	a2e58593          	addi	a1,a1,-1490 # ffffffc0504716c0 <EmacPsMAC>
ffffffc050407c9a:	fd843503          	ld	a0,-40(s0)
ffffffc050407c9e:	c25fc0ef          	jal	ra,ffffffc0504048c2 <XEmacPs_SetMacAddress>
ffffffc050407ca2:	fea43023          	sd	a0,-32(s0)
ffffffc050407ca6:	fe043783          	ld	a5,-32(s0)
ffffffc050407caa:	cb89                	beqz	a5,ffffffc050407cbc <EmacPsSetupDevice+0xee>
ffffffc050407cac:	00005517          	auipc	a0,0x5
ffffffc050407cb0:	7b450513          	addi	a0,a0,1972 # ffffffc05040d460 <__FUNCTION__.2047+0x4e0>
ffffffc050407cb4:	cc0ff0ef          	jal	ra,ffffffc050407174 <EmacPsUtilErrorTrap>
ffffffc050407cb8:	4785                	li	a5,1
ffffffc050407cba:	a841                	j	ffffffc050407d4a <EmacPsSetupDevice+0x17c>
ffffffc050407cbc:	00005517          	auipc	a0,0x5
ffffffc050407cc0:	7c450513          	addi	a0,a0,1988 # ffffffc05040d480 <__FUNCTION__.2047+0x500>
ffffffc050407cc4:	3c1040ef          	jal	ra,ffffffc05040c884 <printk>
ffffffc050407cc8:	fd843683          	ld	a3,-40(s0)
ffffffc050407ccc:	00001617          	auipc	a2,0x1
ffffffc050407cd0:	e8e60613          	addi	a2,a2,-370 # ffffffc050408b5a <XEmacPsSendHandler>
ffffffc050407cd4:	4585                	li	a1,1
ffffffc050407cd6:	fd843503          	ld	a0,-40(s0)
ffffffc050407cda:	f28ff0ef          	jal	ra,ffffffc050407402 <XEmacPs_SetHandler>
ffffffc050407cde:	fea43023          	sd	a0,-32(s0)
ffffffc050407ce2:	fd843683          	ld	a3,-40(s0)
ffffffc050407ce6:	00001617          	auipc	a2,0x1
ffffffc050407cea:	eaa60613          	addi	a2,a2,-342 # ffffffc050408b90 <XEmacPsRecvHandler>
ffffffc050407cee:	4589                	li	a1,2
ffffffc050407cf0:	fd843503          	ld	a0,-40(s0)
ffffffc050407cf4:	f0eff0ef          	jal	ra,ffffffc050407402 <XEmacPs_SetHandler>
ffffffc050407cf8:	872a                	mv	a4,a0
ffffffc050407cfa:	fe043783          	ld	a5,-32(s0)
ffffffc050407cfe:	8fd9                	or	a5,a5,a4
ffffffc050407d00:	fef43023          	sd	a5,-32(s0)
ffffffc050407d04:	fd843683          	ld	a3,-40(s0)
ffffffc050407d08:	00001617          	auipc	a2,0x1
ffffffc050407d0c:	ed460613          	addi	a2,a2,-300 # ffffffc050408bdc <XEmacPsErrorHandler>
ffffffc050407d10:	458d                	li	a1,3
ffffffc050407d12:	fd843503          	ld	a0,-40(s0)
ffffffc050407d16:	eecff0ef          	jal	ra,ffffffc050407402 <XEmacPs_SetHandler>
ffffffc050407d1a:	872a                	mv	a4,a0
ffffffc050407d1c:	fe043783          	ld	a5,-32(s0)
ffffffc050407d20:	8fd9                	or	a5,a5,a4
ffffffc050407d22:	fef43023          	sd	a5,-32(s0)
ffffffc050407d26:	fe043783          	ld	a5,-32(s0)
ffffffc050407d2a:	cb89                	beqz	a5,ffffffc050407d3c <EmacPsSetupDevice+0x16e>
ffffffc050407d2c:	00005517          	auipc	a0,0x5
ffffffc050407d30:	76c50513          	addi	a0,a0,1900 # ffffffc05040d498 <__FUNCTION__.2047+0x518>
ffffffc050407d34:	c40ff0ef          	jal	ra,ffffffc050407174 <EmacPsUtilErrorTrap>
ffffffc050407d38:	4785                	li	a5,1
ffffffc050407d3a:	a801                	j	ffffffc050407d4a <EmacPsSetupDevice+0x17c>
ffffffc050407d3c:	00005517          	auipc	a0,0x5
ffffffc050407d40:	77c50513          	addi	a0,a0,1916 # ffffffc05040d4b8 <__FUNCTION__.2047+0x538>
ffffffc050407d44:	341040ef          	jal	ra,ffffffc05040c884 <printk>
ffffffc050407d48:	4781                	li	a5,0
ffffffc050407d4a:	853e                	mv	a0,a5
ffffffc050407d4c:	70a2                	ld	ra,40(sp)
ffffffc050407d4e:	7402                	ld	s0,32(sp)
ffffffc050407d50:	6145                	addi	sp,sp,48
ffffffc050407d52:	8082                	ret

ffffffc050407d54 <EmacPsInit>:
ffffffc050407d54:	7179                	addi	sp,sp,-48
ffffffc050407d56:	f406                	sd	ra,40(sp)
ffffffc050407d58:	f022                	sd	s0,32(sp)
ffffffc050407d5a:	1800                	addi	s0,sp,48
ffffffc050407d5c:	fca43c23          	sd	a0,-40(s0)
ffffffc050407d60:	fe043423          	sd	zero,-24(s0)
ffffffc050407d64:	fd843503          	ld	a0,-40(s0)
ffffffc050407d68:	e67ff0ef          	jal	ra,ffffffc050407bce <EmacPsSetupDevice>
ffffffc050407d6c:	fea43423          	sd	a0,-24(s0)
ffffffc050407d70:	fe843783          	ld	a5,-24(s0)
ffffffc050407d74:	c799                	beqz	a5,ffffffc050407d82 <EmacPsInit+0x2e>
ffffffc050407d76:	00005517          	auipc	a0,0x5
ffffffc050407d7a:	76250513          	addi	a0,a0,1890 # ffffffc05040d4d8 <__FUNCTION__.2047+0x558>
ffffffc050407d7e:	307040ef          	jal	ra,ffffffc05040c884 <printk>
ffffffc050407d82:	fd843503          	ld	a0,-40(s0)
ffffffc050407d86:	a41ff0ef          	jal	ra,ffffffc0504077c6 <EmacPsSetupBD>
ffffffc050407d8a:	fea43423          	sd	a0,-24(s0)
ffffffc050407d8e:	fe843783          	ld	a5,-24(s0)
ffffffc050407d92:	c799                	beqz	a5,ffffffc050407da0 <EmacPsInit+0x4c>
ffffffc050407d94:	00005517          	auipc	a0,0x5
ffffffc050407d98:	75c50513          	addi	a0,a0,1884 # ffffffc05040d4f0 <__FUNCTION__.2047+0x570>
ffffffc050407d9c:	2e9040ef          	jal	ra,ffffffc05040c884 <printk>
ffffffc050407da0:	003f9797          	auipc	a5,0x3f9
ffffffc050407da4:	eb078793          	addi	a5,a5,-336 # ffffffc050800c50 <GemVersion>
ffffffc050407da8:	439c                	lw	a5,0(a5)
ffffffc050407daa:	873e                	mv	a4,a5
ffffffc050407dac:	4789                	li	a5,2
ffffffc050407dae:	04f71363          	bne	a4,a5,ffffffc050407df4 <EmacPsInit+0xa0>
ffffffc050407db2:	459d                	li	a1,7
ffffffc050407db4:	fd843503          	ld	a0,-40(s0)
ffffffc050407db8:	b25fd0ef          	jal	ra,ffffffc0504058dc <XEmacPs_SetMdioDivisor>
ffffffc050407dbc:	4505                	li	a0,1
ffffffc050407dbe:	a56ff0ef          	jal	ra,ffffffc050407014 <EmacpsDelay>
ffffffc050407dc2:	3e800793          	li	a5,1000
ffffffc050407dc6:	fef42223          	sw	a5,-28(s0)
ffffffc050407dca:	fe440793          	addi	a5,s0,-28
ffffffc050407dce:	85be                	mv	a1,a5
ffffffc050407dd0:	fd843503          	ld	a0,-40(s0)
ffffffc050407dd4:	cf9ff0ef          	jal	ra,ffffffc050407acc <EmacPsInitPhy>
ffffffc050407dd8:	87aa                	mv	a5,a0
ffffffc050407dda:	c799                	beqz	a5,ffffffc050407de8 <EmacPsInit+0x94>
ffffffc050407ddc:	00005517          	auipc	a0,0x5
ffffffc050407de0:	72c50513          	addi	a0,a0,1836 # ffffffc05040d508 <__FUNCTION__.2047+0x588>
ffffffc050407de4:	b90ff0ef          	jal	ra,ffffffc050407174 <EmacPsUtilErrorTrap>
ffffffc050407de8:	3e800593          	li	a1,1000
ffffffc050407dec:	fd843503          	ld	a0,-40(s0)
ffffffc050407df0:	a53fd0ef          	jal	ra,ffffffc050405842 <XEmacPs_SetOperatingSpeed>
ffffffc050407df4:	fd843783          	ld	a5,-40(s0)
ffffffc050407df8:	679c                	ld	a5,8(a5)
ffffffc050407dfa:	02478713          	addi	a4,a5,36
ffffffc050407dfe:	67a1                	lui	a5,0x8
ffffffc050407e00:	fff78593          	addi	a1,a5,-1 # 7fff <_start-0xffffffc0503f8001>
ffffffc050407e04:	853a                	mv	a0,a4
ffffffc050407e06:	8e3ff0ef          	jal	ra,ffffffc0504076e8 <Xil_Out32>
ffffffc050407e0a:	fe843783          	ld	a5,-24(s0)
ffffffc050407e0e:	853e                	mv	a0,a5
ffffffc050407e10:	70a2                	ld	ra,40(sp)
ffffffc050407e12:	7402                	ld	s0,32(sp)
ffffffc050407e14:	6145                	addi	sp,sp,48
ffffffc050407e16:	8082                	ret

ffffffc050407e18 <set_irq_mode>:
ffffffc050407e18:	7179                	addi	sp,sp,-48
ffffffc050407e1a:	f406                	sd	ra,40(sp)
ffffffc050407e1c:	f022                	sd	s0,32(sp)
ffffffc050407e1e:	1800                	addi	s0,sp,48
ffffffc050407e20:	fca43c23          	sd	a0,-40(s0)
ffffffc050407e24:	87ae                	mv	a5,a1
ffffffc050407e26:	fcf42a23          	sw	a5,-44(s0)
ffffffc050407e2a:	6785                	lui	a5,0x1
ffffffc050407e2c:	cf678793          	addi	a5,a5,-778 # cf6 <_start-0xffffffc0503ff30a>
ffffffc050407e30:	fef42623          	sw	a5,-20(s0)
ffffffc050407e34:	0006a797          	auipc	a5,0x6a
ffffffc050407e38:	8ec78793          	addi	a5,a5,-1812 # ffffffc050471720 <irq_mode>
ffffffc050407e3c:	fd442703          	lw	a4,-44(s0)
ffffffc050407e40:	c398                	sw	a4,0(a5)
ffffffc050407e42:	fd442783          	lw	a5,-44(s0)
ffffffc050407e46:	2781                	sext.w	a5,a5
ffffffc050407e48:	c38d                	beqz	a5,ffffffc050407e6a <set_irq_mode+0x52>
ffffffc050407e4a:	fd843783          	ld	a5,-40(s0)
ffffffc050407e4e:	679c                	ld	a5,8(a5)
ffffffc050407e50:	02878693          	addi	a3,a5,40
ffffffc050407e54:	fec42703          	lw	a4,-20(s0)
ffffffc050407e58:	67a1                	lui	a5,0x8
ffffffc050407e5a:	17fd                	addi	a5,a5,-1
ffffffc050407e5c:	8ff9                	and	a5,a5,a4
ffffffc050407e5e:	2781                	sext.w	a5,a5
ffffffc050407e60:	85be                	mv	a1,a5
ffffffc050407e62:	8536                	mv	a0,a3
ffffffc050407e64:	885ff0ef          	jal	ra,ffffffc0504076e8 <Xil_Out32>
ffffffc050407e68:	a005                	j	ffffffc050407e88 <set_irq_mode+0x70>
ffffffc050407e6a:	fd843783          	ld	a5,-40(s0)
ffffffc050407e6e:	679c                	ld	a5,8(a5)
ffffffc050407e70:	02c78693          	addi	a3,a5,44 # 802c <_start-0xffffffc0503f7fd4>
ffffffc050407e74:	fec42703          	lw	a4,-20(s0)
ffffffc050407e78:	67a1                	lui	a5,0x8
ffffffc050407e7a:	17fd                	addi	a5,a5,-1
ffffffc050407e7c:	8ff9                	and	a5,a5,a4
ffffffc050407e7e:	2781                	sext.w	a5,a5
ffffffc050407e80:	85be                	mv	a1,a5
ffffffc050407e82:	8536                	mv	a0,a3
ffffffc050407e84:	865ff0ef          	jal	ra,ffffffc0504076e8 <Xil_Out32>
ffffffc050407e88:	0001                	nop
ffffffc050407e8a:	853e                	mv	a0,a5
ffffffc050407e8c:	70a2                	ld	ra,40(sp)
ffffffc050407e8e:	7402                	ld	s0,32(sp)
ffffffc050407e90:	6145                	addi	sp,sp,48
ffffffc050407e92:	8082                	ret

ffffffc050407e94 <EmacPsSend>:
ffffffc050407e94:	711d                	addi	sp,sp,-96
ffffffc050407e96:	ec86                	sd	ra,88(sp)
ffffffc050407e98:	e8a2                	sd	s0,80(sp)
ffffffc050407e9a:	e4a6                	sd	s1,72(sp)
ffffffc050407e9c:	1080                	addi	s0,sp,96
ffffffc050407e9e:	faa43c23          	sd	a0,-72(s0)
ffffffc050407ea2:	fab43823          	sd	a1,-80(s0)
ffffffc050407ea6:	fac43423          	sd	a2,-88(s0)
ffffffc050407eaa:	fc043c23          	sd	zero,-40(s0)
ffffffc050407eae:	fb843783          	ld	a5,-72(s0)
ffffffc050407eb2:	02878793          	addi	a5,a5,40 # 8028 <_start-0xffffffc0503f7fd8>
ffffffc050407eb6:	fc840713          	addi	a4,s0,-56
ffffffc050407eba:	863a                	mv	a2,a4
ffffffc050407ebc:	4585                	li	a1,1
ffffffc050407ebe:	853e                	mv	a0,a5
ffffffc050407ec0:	ecbfb0ef          	jal	ra,ffffffc050403d8a <XEmacPs_BdRingAlloc>
ffffffc050407ec4:	fca43c23          	sd	a0,-40(s0)
ffffffc050407ec8:	fd843783          	ld	a5,-40(s0)
ffffffc050407ecc:	cb89                	beqz	a5,ffffffc050407ede <EmacPsSend+0x4a>
ffffffc050407ece:	00005517          	auipc	a0,0x5
ffffffc050407ed2:	65250513          	addi	a0,a0,1618 # ffffffc05040d520 <__FUNCTION__.2047+0x5a0>
ffffffc050407ed6:	a9eff0ef          	jal	ra,ffffffc050407174 <EmacPsUtilErrorTrap>
ffffffc050407eda:	4785                	li	a5,1
ffffffc050407edc:	a205                	j	ffffffc050407ffc <EmacPsSend+0x168>
ffffffc050407ede:	fb043703          	ld	a4,-80(s0)
ffffffc050407ee2:	fc843783          	ld	a5,-56(s0)
ffffffc050407ee6:	2701                	sext.w	a4,a4
ffffffc050407ee8:	c398                	sw	a4,0(a5)
ffffffc050407eea:	fc843783          	ld	a5,-56(s0)
ffffffc050407eee:	0791                	addi	a5,a5,4
ffffffc050407ef0:	439c                	lw	a5,0(a5)
ffffffc050407ef2:	873e                	mv	a4,a5
ffffffc050407ef4:	77f1                	lui	a5,0xffffc
ffffffc050407ef6:	8ff9                	and	a5,a5,a4
ffffffc050407ef8:	0007869b          	sext.w	a3,a5
ffffffc050407efc:	fa843783          	ld	a5,-88(s0)
ffffffc050407f00:	2781                	sext.w	a5,a5
ffffffc050407f02:	fc843703          	ld	a4,-56(s0)
ffffffc050407f06:	0711                	addi	a4,a4,4
ffffffc050407f08:	8fd5                	or	a5,a5,a3
ffffffc050407f0a:	2781                	sext.w	a5,a5
ffffffc050407f0c:	c31c                	sw	a5,0(a4)
ffffffc050407f0e:	fc843783          	ld	a5,-56(s0)
ffffffc050407f12:	0791                	addi	a5,a5,4
ffffffc050407f14:	439c                	lw	a5,0(a5)
ffffffc050407f16:	fc843703          	ld	a4,-56(s0)
ffffffc050407f1a:	0711                	addi	a4,a4,4
ffffffc050407f1c:	86be                	mv	a3,a5
ffffffc050407f1e:	800007b7          	lui	a5,0x80000
ffffffc050407f22:	fff7c793          	not	a5,a5
ffffffc050407f26:	8ff5                	and	a5,a5,a3
ffffffc050407f28:	2781                	sext.w	a5,a5
ffffffc050407f2a:	c31c                	sw	a5,0(a4)
ffffffc050407f2c:	fc843783          	ld	a5,-56(s0)
ffffffc050407f30:	0791                	addi	a5,a5,4
ffffffc050407f32:	439c                	lw	a5,0(a5)
ffffffc050407f34:	fc843703          	ld	a4,-56(s0)
ffffffc050407f38:	0711                	addi	a4,a4,4
ffffffc050407f3a:	86be                	mv	a3,a5
ffffffc050407f3c:	67a1                	lui	a5,0x8
ffffffc050407f3e:	8fd5                	or	a5,a5,a3
ffffffc050407f40:	2781                	sext.w	a5,a5
ffffffc050407f42:	c31c                	sw	a5,0(a4)
ffffffc050407f44:	fb843783          	ld	a5,-72(s0)
ffffffc050407f48:	02878793          	addi	a5,a5,40 # 8028 <_start-0xffffffc0503f7fd8>
ffffffc050407f4c:	fc843703          	ld	a4,-56(s0)
ffffffc050407f50:	863a                	mv	a2,a4
ffffffc050407f52:	4585                	li	a1,1
ffffffc050407f54:	853e                	mv	a0,a5
ffffffc050407f56:	fe1fb0ef          	jal	ra,ffffffc050403f36 <XEmacPs_BdRingToHw>
ffffffc050407f5a:	fca43c23          	sd	a0,-40(s0)
ffffffc050407f5e:	fd843783          	ld	a5,-40(s0)
ffffffc050407f62:	cb89                	beqz	a5,ffffffc050407f74 <EmacPsSend+0xe0>
ffffffc050407f64:	00005517          	auipc	a0,0x5
ffffffc050407f68:	5d450513          	addi	a0,a0,1492 # ffffffc05040d538 <__FUNCTION__.2047+0x5b8>
ffffffc050407f6c:	a08ff0ef          	jal	ra,ffffffc050407174 <EmacPsUtilErrorTrap>
ffffffc050407f70:	4785                	li	a5,1
ffffffc050407f72:	a069                	j	ffffffc050407ffc <EmacPsSend+0x168>
ffffffc050407f74:	04000593          	li	a1,64
ffffffc050407f78:	4501                	li	a0,0
ffffffc050407f7a:	fbeff0ef          	jal	ra,ffffffc050407738 <Xil_DCacheFlushRange>
ffffffc050407f7e:	fb843783          	ld	a5,-72(s0)
ffffffc050407f82:	7b9c                	ld	a5,48(a5)
ffffffc050407f84:	4685                	li	a3,1
ffffffc050407f86:	4601                	li	a2,0
ffffffc050407f88:	85be                	mv	a1,a5
ffffffc050407f8a:	fb843503          	ld	a0,-72(s0)
ffffffc050407f8e:	a35fb0ef          	jal	ra,ffffffc0504039c2 <XEmacPs_SetQueuePtr>
ffffffc050407f92:	fb843783          	ld	a5,-72(s0)
ffffffc050407f96:	539c                	lw	a5,32(a5)
ffffffc050407f98:	1007f793          	andi	a5,a5,256
ffffffc050407f9c:	2781                	sext.w	a5,a5
ffffffc050407f9e:	cb9d                	beqz	a5,ffffffc050407fd4 <EmacPsSend+0x140>
ffffffc050407fa0:	fb843783          	ld	a5,-72(s0)
ffffffc050407fa4:	679c                	ld	a5,8(a5)
ffffffc050407fa6:	853e                	mv	a0,a5
ffffffc050407fa8:	f6cff0ef          	jal	ra,ffffffc050407714 <Xil_In32>
ffffffc050407fac:	87aa                	mv	a5,a0
ffffffc050407fae:	fcf42a23          	sw	a5,-44(s0)
ffffffc050407fb2:	fd442783          	lw	a5,-44(s0)
ffffffc050407fb6:	8ba1                	andi	a5,a5,8
ffffffc050407fb8:	2781                	sext.w	a5,a5
ffffffc050407fba:	ef89                	bnez	a5,ffffffc050407fd4 <EmacPsSend+0x140>
ffffffc050407fbc:	fb843783          	ld	a5,-72(s0)
ffffffc050407fc0:	6798                	ld	a4,8(a5)
ffffffc050407fc2:	fd442783          	lw	a5,-44(s0)
ffffffc050407fc6:	0087e793          	ori	a5,a5,8
ffffffc050407fca:	2781                	sext.w	a5,a5
ffffffc050407fcc:	85be                	mv	a1,a5
ffffffc050407fce:	853a                	mv	a0,a4
ffffffc050407fd0:	f18ff0ef          	jal	ra,ffffffc0504076e8 <Xil_Out32>
ffffffc050407fd4:	fb843783          	ld	a5,-72(s0)
ffffffc050407fd8:	6784                	ld	s1,8(a5)
ffffffc050407fda:	fb843783          	ld	a5,-72(s0)
ffffffc050407fde:	679c                	ld	a5,8(a5)
ffffffc050407fe0:	853e                	mv	a0,a5
ffffffc050407fe2:	f32ff0ef          	jal	ra,ffffffc050407714 <Xil_In32>
ffffffc050407fe6:	87aa                	mv	a5,a0
ffffffc050407fe8:	2781                	sext.w	a5,a5
ffffffc050407fea:	2007e793          	ori	a5,a5,512
ffffffc050407fee:	2781                	sext.w	a5,a5
ffffffc050407ff0:	85be                	mv	a1,a5
ffffffc050407ff2:	8526                	mv	a0,s1
ffffffc050407ff4:	ef4ff0ef          	jal	ra,ffffffc0504076e8 <Xil_Out32>
ffffffc050407ff8:	fd843783          	ld	a5,-40(s0)
ffffffc050407ffc:	853e                	mv	a0,a5
ffffffc050407ffe:	60e6                	ld	ra,88(sp)
ffffffc050408000:	6446                	ld	s0,80(sp)
ffffffc050408002:	64a6                	ld	s1,72(sp)
ffffffc050408004:	6125                	addi	sp,sp,96
ffffffc050408006:	8082                	ret

ffffffc050408008 <EmacPsWaitSend>:
ffffffc050408008:	7139                	addi	sp,sp,-64
ffffffc05040800a:	fc06                	sd	ra,56(sp)
ffffffc05040800c:	f822                	sd	s0,48(sp)
ffffffc05040800e:	0080                	addi	s0,sp,64
ffffffc050408010:	fca43423          	sd	a0,-56(s0)
ffffffc050408014:	fe043423          	sd	zero,-24(s0)
ffffffc050408018:	ab8f80ef          	jal	ra,ffffffc0504002d0 <get_current_cpu_id>
ffffffc05040801c:	87aa                	mv	a5,a0
ffffffc05040801e:	e791                	bnez	a5,ffffffc05040802a <EmacPsWaitSend+0x22>
ffffffc050408020:	001fa797          	auipc	a5,0x1fa
ffffffc050408024:	fc078793          	addi	a5,a5,-64 # ffffffc050601fe0 <current_running_core0>
ffffffc050408028:	a029                	j	ffffffc050408032 <EmacPsWaitSend+0x2a>
ffffffc05040802a:	001fa797          	auipc	a5,0x1fa
ffffffc05040802e:	fae78793          	addi	a5,a5,-82 # ffffffc050601fd8 <current_running_core1>
ffffffc050408032:	007f9717          	auipc	a4,0x7f9
ffffffc050408036:	65e70713          	addi	a4,a4,1630 # ffffffc050c01690 <current_running>
ffffffc05040803a:	e31c                	sd	a5,0(a4)
ffffffc05040803c:	00069797          	auipc	a5,0x69
ffffffc050408040:	6e478793          	addi	a5,a5,1764 # ffffffc050471720 <irq_mode>
ffffffc050408044:	439c                	lw	a5,0(a5)
ffffffc050408046:	cf99                	beqz	a5,ffffffc050408064 <EmacPsWaitSend+0x5c>
ffffffc050408048:	007f9797          	auipc	a5,0x7f9
ffffffc05040804c:	64878793          	addi	a5,a5,1608 # ffffffc050c01690 <current_running>
ffffffc050408050:	639c                	ld	a5,0(a5)
ffffffc050408052:	639c                	ld	a5,0(a5)
ffffffc050408054:	00006597          	auipc	a1,0x6
ffffffc050408058:	9c458593          	addi	a1,a1,-1596 # ffffffc05040da18 <net_send_queue>
ffffffc05040805c:	853e                	mv	a0,a5
ffffffc05040805e:	139020ef          	jal	ra,ffffffc05040a996 <do_block>
ffffffc050408062:	a089                	j	ffffffc0504080a4 <EmacPsWaitSend+0x9c>
ffffffc050408064:	fc843783          	ld	a5,-56(s0)
ffffffc050408068:	679c                	ld	a5,8(a5)
ffffffc05040806a:	07d1                	addi	a5,a5,20
ffffffc05040806c:	853e                	mv	a0,a5
ffffffc05040806e:	ea6ff0ef          	jal	ra,ffffffc050407714 <Xil_In32>
ffffffc050408072:	87aa                	mv	a5,a0
ffffffc050408074:	2781                	sext.w	a5,a5
ffffffc050408076:	fcf42e23          	sw	a5,-36(s0)
ffffffc05040807a:	fdc42783          	lw	a5,-36(s0)
ffffffc05040807e:	2781                	sext.w	a5,a5
ffffffc050408080:	0207f793          	andi	a5,a5,32
ffffffc050408084:	2781                	sext.w	a5,a5
ffffffc050408086:	dff9                	beqz	a5,ffffffc050408064 <EmacPsWaitSend+0x5c>
ffffffc050408088:	fc843783          	ld	a5,-56(s0)
ffffffc05040808c:	679c                	ld	a5,8(a5)
ffffffc05040808e:	07d1                	addi	a5,a5,20
ffffffc050408090:	fdc42703          	lw	a4,-36(s0)
ffffffc050408094:	2701                	sext.w	a4,a4
ffffffc050408096:	02076713          	ori	a4,a4,32
ffffffc05040809a:	2701                	sext.w	a4,a4
ffffffc05040809c:	85ba                	mv	a1,a4
ffffffc05040809e:	853e                	mv	a0,a5
ffffffc0504080a0:	e48ff0ef          	jal	ra,ffffffc0504076e8 <Xil_Out32>
ffffffc0504080a4:	04000593          	li	a1,64
ffffffc0504080a8:	4501                	li	a0,0
ffffffc0504080aa:	e8eff0ef          	jal	ra,ffffffc050407738 <Xil_DCacheFlushRange>
ffffffc0504080ae:	fc843783          	ld	a5,-56(s0)
ffffffc0504080b2:	02878793          	addi	a5,a5,40
ffffffc0504080b6:	fe040713          	addi	a4,s0,-32
ffffffc0504080ba:	863a                	mv	a2,a4
ffffffc0504080bc:	02000593          	li	a1,32
ffffffc0504080c0:	853e                	mv	a0,a5
ffffffc0504080c2:	fc3fb0ef          	jal	ra,ffffffc050404084 <XEmacPs_BdRingFromHwTx>
ffffffc0504080c6:	87aa                	mv	a5,a0
ffffffc0504080c8:	2781                	sext.w	a5,a5
ffffffc0504080ca:	eb89                	bnez	a5,ffffffc0504080dc <EmacPsWaitSend+0xd4>
ffffffc0504080cc:	00005517          	auipc	a0,0x5
ffffffc0504080d0:	48c50513          	addi	a0,a0,1164 # ffffffc05040d558 <__FUNCTION__.2047+0x5d8>
ffffffc0504080d4:	8a0ff0ef          	jal	ra,ffffffc050407174 <EmacPsUtilErrorTrap>
ffffffc0504080d8:	4785                	li	a5,1
ffffffc0504080da:	a8b9                	j	ffffffc050408138 <EmacPsWaitSend+0x130>
ffffffc0504080dc:	fc843783          	ld	a5,-56(s0)
ffffffc0504080e0:	02878793          	addi	a5,a5,40
ffffffc0504080e4:	fe043703          	ld	a4,-32(s0)
ffffffc0504080e8:	863a                	mv	a2,a4
ffffffc0504080ea:	4585                	li	a1,1
ffffffc0504080ec:	853e                	mv	a0,a5
ffffffc0504080ee:	b2efc0ef          	jal	ra,ffffffc05040441c <XEmacPs_BdRingFree>
ffffffc0504080f2:	fea43423          	sd	a0,-24(s0)
ffffffc0504080f6:	fe843783          	ld	a5,-24(s0)
ffffffc0504080fa:	cb89                	beqz	a5,ffffffc05040810c <EmacPsWaitSend+0x104>
ffffffc0504080fc:	00005517          	auipc	a0,0x5
ffffffc050408100:	48c50513          	addi	a0,a0,1164 # ffffffc05040d588 <__FUNCTION__.2047+0x608>
ffffffc050408104:	870ff0ef          	jal	ra,ffffffc050407174 <EmacPsUtilErrorTrap>
ffffffc050408108:	4785                	li	a5,1
ffffffc05040810a:	a03d                	j	ffffffc050408138 <EmacPsWaitSend+0x130>
ffffffc05040810c:	fc843503          	ld	a0,-56(s0)
ffffffc050408110:	8e7ff0ef          	jal	ra,ffffffc0504079f6 <EmacPsSetupTxBD>
ffffffc050408114:	00069797          	auipc	a5,0x69
ffffffc050408118:	60c78793          	addi	a5,a5,1548 # ffffffc050471720 <irq_mode>
ffffffc05040811c:	439c                	lw	a5,0(a5)
ffffffc05040811e:	cb99                	beqz	a5,ffffffc050408134 <EmacPsWaitSend+0x12c>
ffffffc050408120:	fc843783          	ld	a5,-56(s0)
ffffffc050408124:	679c                	ld	a5,8(a5)
ffffffc050408126:	02878793          	addi	a5,a5,40
ffffffc05040812a:	0f000593          	li	a1,240
ffffffc05040812e:	853e                	mv	a0,a5
ffffffc050408130:	db8ff0ef          	jal	ra,ffffffc0504076e8 <Xil_Out32>
ffffffc050408134:	fe843783          	ld	a5,-24(s0)
ffffffc050408138:	853e                	mv	a0,a5
ffffffc05040813a:	70e2                	ld	ra,56(sp)
ffffffc05040813c:	7442                	ld	s0,48(sp)
ffffffc05040813e:	6121                	addi	sp,sp,64
ffffffc050408140:	8082                	ret

ffffffc050408142 <EmacPsRecv>:
ffffffc050408142:	711d                	addi	sp,sp,-96
ffffffc050408144:	ec86                	sd	ra,88(sp)
ffffffc050408146:	e8a2                	sd	s0,80(sp)
ffffffc050408148:	1080                	addi	s0,sp,96
ffffffc05040814a:	faa43c23          	sd	a0,-72(s0)
ffffffc05040814e:	fab43823          	sd	a1,-80(s0)
ffffffc050408152:	87b2                	mv	a5,a2
ffffffc050408154:	faf42623          	sw	a5,-84(s0)
ffffffc050408158:	fc043c23          	sd	zero,-40(s0)
ffffffc05040815c:	fb843503          	ld	a0,-72(s0)
ffffffc050408160:	fdcff0ef          	jal	ra,ffffffc05040793c <EmacPsSetupRxBD>
ffffffc050408164:	fb843783          	ld	a5,-72(s0)
ffffffc050408168:	539c                	lw	a5,32(a5)
ffffffc05040816a:	2007f793          	andi	a5,a5,512
ffffffc05040816e:	2781                	sext.w	a5,a5
ffffffc050408170:	cb91                	beqz	a5,ffffffc050408184 <EmacPsRecv+0x42>
ffffffc050408172:	fb843783          	ld	a5,-72(s0)
ffffffc050408176:	679c                	ld	a5,8(a5)
ffffffc050408178:	853e                	mv	a0,a5
ffffffc05040817a:	d9aff0ef          	jal	ra,ffffffc050407714 <Xil_In32>
ffffffc05040817e:	87aa                	mv	a5,a0
ffffffc050408180:	fcf42a23          	sw	a5,-44(s0)
ffffffc050408184:	fb843783          	ld	a5,-72(s0)
ffffffc050408188:	09878793          	addi	a5,a5,152
ffffffc05040818c:	fac42703          	lw	a4,-84(s0)
ffffffc050408190:	fc840693          	addi	a3,s0,-56
ffffffc050408194:	8636                	mv	a2,a3
ffffffc050408196:	85ba                	mv	a1,a4
ffffffc050408198:	853e                	mv	a0,a5
ffffffc05040819a:	bf1fb0ef          	jal	ra,ffffffc050403d8a <XEmacPs_BdRingAlloc>
ffffffc05040819e:	fca43c23          	sd	a0,-40(s0)
ffffffc0504081a2:	fc843783          	ld	a5,-56(s0)
ffffffc0504081a6:	fef43423          	sd	a5,-24(s0)
ffffffc0504081aa:	fe042223          	sw	zero,-28(s0)
ffffffc0504081ae:	a869                	j	ffffffc050408248 <EmacPsRecv+0x106>
ffffffc0504081b0:	fe843783          	ld	a5,-24(s0)
ffffffc0504081b4:	439c                	lw	a5,0(a5)
ffffffc0504081b6:	8b8d                	andi	a5,a5,3
ffffffc0504081b8:	0007869b          	sext.w	a3,a5
ffffffc0504081bc:	fe442703          	lw	a4,-28(s0)
ffffffc0504081c0:	87ba                	mv	a5,a4
ffffffc0504081c2:	0786                	slli	a5,a5,0x1
ffffffc0504081c4:	97ba                	add	a5,a5,a4
ffffffc0504081c6:	07a6                	slli	a5,a5,0x9
ffffffc0504081c8:	873e                	mv	a4,a5
ffffffc0504081ca:	fb043783          	ld	a5,-80(s0)
ffffffc0504081ce:	97ba                	add	a5,a5,a4
ffffffc0504081d0:	2781                	sext.w	a5,a5
ffffffc0504081d2:	8736                	mv	a4,a3
ffffffc0504081d4:	8fd9                	or	a5,a5,a4
ffffffc0504081d6:	0007871b          	sext.w	a4,a5
ffffffc0504081da:	fe843783          	ld	a5,-24(s0)
ffffffc0504081de:	c398                	sw	a4,0(a5)
ffffffc0504081e0:	fe843783          	ld	a5,-24(s0)
ffffffc0504081e4:	439c                	lw	a5,0(a5)
ffffffc0504081e6:	9bf9                	andi	a5,a5,-2
ffffffc0504081e8:	0007871b          	sext.w	a4,a5
ffffffc0504081ec:	fe843783          	ld	a5,-24(s0)
ffffffc0504081f0:	c398                	sw	a4,0(a5)
ffffffc0504081f2:	fac42783          	lw	a5,-84(s0)
ffffffc0504081f6:	37fd                	addiw	a5,a5,-1
ffffffc0504081f8:	0007871b          	sext.w	a4,a5
ffffffc0504081fc:	fe442783          	lw	a5,-28(s0)
ffffffc050408200:	2781                	sext.w	a5,a5
ffffffc050408202:	00e79763          	bne	a5,a4,ffffffc050408210 <EmacPsRecv+0xce>
ffffffc050408206:	fe843783          	ld	a5,-24(s0)
ffffffc05040820a:	853e                	mv	a0,a5
ffffffc05040820c:	d46fc0ef          	jal	ra,ffffffc050404752 <XEmacPs_BdSetRxWrap>
ffffffc050408210:	fb843783          	ld	a5,-72(s0)
ffffffc050408214:	77d8                	ld	a4,168(a5)
ffffffc050408216:	fe843783          	ld	a5,-24(s0)
ffffffc05040821a:	00e7e663          	bltu	a5,a4,ffffffc050408226 <EmacPsRecv+0xe4>
ffffffc05040821e:	fb843783          	ld	a5,-72(s0)
ffffffc050408222:	73dc                	ld	a5,160(a5)
ffffffc050408224:	a819                	j	ffffffc05040823a <EmacPsRecv+0xf8>
ffffffc050408226:	fb843783          	ld	a5,-72(s0)
ffffffc05040822a:	0b87a783          	lw	a5,184(a5)
ffffffc05040822e:	02079713          	slli	a4,a5,0x20
ffffffc050408232:	9301                	srli	a4,a4,0x20
ffffffc050408234:	fe843783          	ld	a5,-24(s0)
ffffffc050408238:	97ba                	add	a5,a5,a4
ffffffc05040823a:	fef43423          	sd	a5,-24(s0)
ffffffc05040823e:	fe442783          	lw	a5,-28(s0)
ffffffc050408242:	2785                	addiw	a5,a5,1
ffffffc050408244:	fef42223          	sw	a5,-28(s0)
ffffffc050408248:	fe442703          	lw	a4,-28(s0)
ffffffc05040824c:	fac42783          	lw	a5,-84(s0)
ffffffc050408250:	2701                	sext.w	a4,a4
ffffffc050408252:	2781                	sext.w	a5,a5
ffffffc050408254:	f4f74ee3          	blt	a4,a5,ffffffc0504081b0 <EmacPsRecv+0x6e>
ffffffc050408258:	fb843783          	ld	a5,-72(s0)
ffffffc05040825c:	09878793          	addi	a5,a5,152
ffffffc050408260:	fac42703          	lw	a4,-84(s0)
ffffffc050408264:	fc843683          	ld	a3,-56(s0)
ffffffc050408268:	8636                	mv	a2,a3
ffffffc05040826a:	85ba                	mv	a1,a4
ffffffc05040826c:	853e                	mv	a0,a5
ffffffc05040826e:	cc9fb0ef          	jal	ra,ffffffc050403f36 <XEmacPs_BdRingToHw>
ffffffc050408272:	fca43c23          	sd	a0,-40(s0)
ffffffc050408276:	fd843783          	ld	a5,-40(s0)
ffffffc05040827a:	cb89                	beqz	a5,ffffffc05040828c <EmacPsRecv+0x14a>
ffffffc05040827c:	00005517          	auipc	a0,0x5
ffffffc050408280:	32450513          	addi	a0,a0,804 # ffffffc05040d5a0 <__FUNCTION__.2047+0x620>
ffffffc050408284:	ef1fe0ef          	jal	ra,ffffffc050407174 <EmacPsUtilErrorTrap>
ffffffc050408288:	4785                	li	a5,1
ffffffc05040828a:	a09d                	j	ffffffc0504082f0 <EmacPsRecv+0x1ae>
ffffffc05040828c:	04000593          	li	a1,64
ffffffc050408290:	4501                	li	a0,0
ffffffc050408292:	ca6ff0ef          	jal	ra,ffffffc050407738 <Xil_DCacheFlushRange>
ffffffc050408296:	fb843783          	ld	a5,-72(s0)
ffffffc05040829a:	73dc                	ld	a5,160(a5)
ffffffc05040829c:	4689                	li	a3,2
ffffffc05040829e:	4601                	li	a2,0
ffffffc0504082a0:	85be                	mv	a1,a5
ffffffc0504082a2:	fb843503          	ld	a0,-72(s0)
ffffffc0504082a6:	f1cfb0ef          	jal	ra,ffffffc0504039c2 <XEmacPs_SetQueuePtr>
ffffffc0504082aa:	fb843783          	ld	a5,-72(s0)
ffffffc0504082ae:	539c                	lw	a5,32(a5)
ffffffc0504082b0:	2007f793          	andi	a5,a5,512
ffffffc0504082b4:	2781                	sext.w	a5,a5
ffffffc0504082b6:	cb9d                	beqz	a5,ffffffc0504082ec <EmacPsRecv+0x1aa>
ffffffc0504082b8:	fb843783          	ld	a5,-72(s0)
ffffffc0504082bc:	679c                	ld	a5,8(a5)
ffffffc0504082be:	853e                	mv	a0,a5
ffffffc0504082c0:	c54ff0ef          	jal	ra,ffffffc050407714 <Xil_In32>
ffffffc0504082c4:	87aa                	mv	a5,a0
ffffffc0504082c6:	fcf42823          	sw	a5,-48(s0)
ffffffc0504082ca:	fd042783          	lw	a5,-48(s0)
ffffffc0504082ce:	8b91                	andi	a5,a5,4
ffffffc0504082d0:	2781                	sext.w	a5,a5
ffffffc0504082d2:	ef89                	bnez	a5,ffffffc0504082ec <EmacPsRecv+0x1aa>
ffffffc0504082d4:	fb843783          	ld	a5,-72(s0)
ffffffc0504082d8:	6798                	ld	a4,8(a5)
ffffffc0504082da:	fd042783          	lw	a5,-48(s0)
ffffffc0504082de:	0047e793          	ori	a5,a5,4
ffffffc0504082e2:	2781                	sext.w	a5,a5
ffffffc0504082e4:	85be                	mv	a1,a5
ffffffc0504082e6:	853a                	mv	a0,a4
ffffffc0504082e8:	c00ff0ef          	jal	ra,ffffffc0504076e8 <Xil_Out32>
ffffffc0504082ec:	fd843783          	ld	a5,-40(s0)
ffffffc0504082f0:	853e                	mv	a0,a5
ffffffc0504082f2:	60e6                	ld	ra,88(sp)
ffffffc0504082f4:	6446                	ld	s0,80(sp)
ffffffc0504082f6:	6125                	addi	sp,sp,96
ffffffc0504082f8:	8082                	ret

ffffffc0504082fa <EmacPsWaitRecv>:
ffffffc0504082fa:	711d                	addi	sp,sp,-96
ffffffc0504082fc:	ec86                	sd	ra,88(sp)
ffffffc0504082fe:	e8a2                	sd	s0,80(sp)
ffffffc050408300:	1080                	addi	s0,sp,96
ffffffc050408302:	faa43c23          	sd	a0,-72(s0)
ffffffc050408306:	87ae                	mv	a5,a1
ffffffc050408308:	fac43423          	sd	a2,-88(s0)
ffffffc05040830c:	faf42a23          	sw	a5,-76(s0)
ffffffc050408310:	fe043423          	sd	zero,-24(s0)
ffffffc050408314:	fc042e23          	sw	zero,-36(s0)
ffffffc050408318:	fe042223          	sw	zero,-28(s0)
ffffffc05040831c:	fb5f70ef          	jal	ra,ffffffc0504002d0 <get_current_cpu_id>
ffffffc050408320:	87aa                	mv	a5,a0
ffffffc050408322:	e791                	bnez	a5,ffffffc05040832e <EmacPsWaitRecv+0x34>
ffffffc050408324:	001fa797          	auipc	a5,0x1fa
ffffffc050408328:	cbc78793          	addi	a5,a5,-836 # ffffffc050601fe0 <current_running_core0>
ffffffc05040832c:	a029                	j	ffffffc050408336 <EmacPsWaitRecv+0x3c>
ffffffc05040832e:	001fa797          	auipc	a5,0x1fa
ffffffc050408332:	caa78793          	addi	a5,a5,-854 # ffffffc050601fd8 <current_running_core1>
ffffffc050408336:	007f9717          	auipc	a4,0x7f9
ffffffc05040833a:	35a70713          	addi	a4,a4,858 # ffffffc050c01690 <current_running>
ffffffc05040833e:	e31c                	sd	a5,0(a4)
ffffffc050408340:	a299                	j	ffffffc050408486 <EmacPsWaitRecv+0x18c>
ffffffc050408342:	00069797          	auipc	a5,0x69
ffffffc050408346:	3de78793          	addi	a5,a5,990 # ffffffc050471720 <irq_mode>
ffffffc05040834a:	439c                	lw	a5,0(a5)
ffffffc05040834c:	cf99                	beqz	a5,ffffffc05040836a <EmacPsWaitRecv+0x70>
ffffffc05040834e:	007f9797          	auipc	a5,0x7f9
ffffffc050408352:	34278793          	addi	a5,a5,834 # ffffffc050c01690 <current_running>
ffffffc050408356:	639c                	ld	a5,0(a5)
ffffffc050408358:	639c                	ld	a5,0(a5)
ffffffc05040835a:	00005597          	auipc	a1,0x5
ffffffc05040835e:	6ae58593          	addi	a1,a1,1710 # ffffffc05040da08 <net_recv_queue>
ffffffc050408362:	853e                	mv	a0,a5
ffffffc050408364:	632020ef          	jal	ra,ffffffc05040a996 <do_block>
ffffffc050408368:	a091                	j	ffffffc0504083ac <EmacPsWaitRecv+0xb2>
ffffffc05040836a:	fb843783          	ld	a5,-72(s0)
ffffffc05040836e:	679c                	ld	a5,8(a5)
ffffffc050408370:	02078793          	addi	a5,a5,32
ffffffc050408374:	853e                	mv	a0,a5
ffffffc050408376:	b9eff0ef          	jal	ra,ffffffc050407714 <Xil_In32>
ffffffc05040837a:	87aa                	mv	a5,a0
ffffffc05040837c:	2781                	sext.w	a5,a5
ffffffc05040837e:	fcf42623          	sw	a5,-52(s0)
ffffffc050408382:	fcc42783          	lw	a5,-52(s0)
ffffffc050408386:	2781                	sext.w	a5,a5
ffffffc050408388:	8b89                	andi	a5,a5,2
ffffffc05040838a:	2781                	sext.w	a5,a5
ffffffc05040838c:	dff9                	beqz	a5,ffffffc05040836a <EmacPsWaitRecv+0x70>
ffffffc05040838e:	fb843783          	ld	a5,-72(s0)
ffffffc050408392:	679c                	ld	a5,8(a5)
ffffffc050408394:	02078793          	addi	a5,a5,32
ffffffc050408398:	fcc42703          	lw	a4,-52(s0)
ffffffc05040839c:	2701                	sext.w	a4,a4
ffffffc05040839e:	00276713          	ori	a4,a4,2
ffffffc0504083a2:	2701                	sext.w	a4,a4
ffffffc0504083a4:	85ba                	mv	a1,a4
ffffffc0504083a6:	853e                	mv	a0,a5
ffffffc0504083a8:	b40ff0ef          	jal	ra,ffffffc0504076e8 <Xil_Out32>
ffffffc0504083ac:	fb843783          	ld	a5,-72(s0)
ffffffc0504083b0:	09878793          	addi	a5,a5,152
ffffffc0504083b4:	fb442703          	lw	a4,-76(s0)
ffffffc0504083b8:	fd040693          	addi	a3,s0,-48
ffffffc0504083bc:	8636                	mv	a2,a3
ffffffc0504083be:	85ba                	mv	a1,a4
ffffffc0504083c0:	853e                	mv	a0,a5
ffffffc0504083c2:	eb7fb0ef          	jal	ra,ffffffc050404278 <XEmacPs_BdRingFromHwRx>
ffffffc0504083c6:	87aa                	mv	a5,a0
ffffffc0504083c8:	fcf42e23          	sw	a5,-36(s0)
ffffffc0504083cc:	fe042023          	sw	zero,-32(s0)
ffffffc0504083d0:	a825                	j	ffffffc050408408 <EmacPsWaitRecv+0x10e>
ffffffc0504083d2:	fd043703          	ld	a4,-48(s0)
ffffffc0504083d6:	fe042783          	lw	a5,-32(s0)
ffffffc0504083da:	078e                	slli	a5,a5,0x3
ffffffc0504083dc:	97ba                	add	a5,a5,a4
ffffffc0504083de:	0791                	addi	a5,a5,4
ffffffc0504083e0:	439c                	lw	a5,0(a5)
ffffffc0504083e2:	873e                	mv	a4,a5
ffffffc0504083e4:	6789                	lui	a5,0x2
ffffffc0504083e6:	17fd                	addi	a5,a5,-1
ffffffc0504083e8:	8ff9                	and	a5,a5,a4
ffffffc0504083ea:	0007871b          	sext.w	a4,a5
ffffffc0504083ee:	fa843783          	ld	a5,-88(s0)
ffffffc0504083f2:	c398                	sw	a4,0(a5)
ffffffc0504083f4:	fa843783          	ld	a5,-88(s0)
ffffffc0504083f8:	0791                	addi	a5,a5,4
ffffffc0504083fa:	faf43423          	sd	a5,-88(s0)
ffffffc0504083fe:	fe042783          	lw	a5,-32(s0)
ffffffc050408402:	2785                	addiw	a5,a5,1
ffffffc050408404:	fef42023          	sw	a5,-32(s0)
ffffffc050408408:	fe042703          	lw	a4,-32(s0)
ffffffc05040840c:	fdc42783          	lw	a5,-36(s0)
ffffffc050408410:	2781                	sext.w	a5,a5
ffffffc050408412:	fcf760e3          	bltu	a4,a5,ffffffc0504083d2 <EmacPsWaitRecv+0xd8>
ffffffc050408416:	fdc42783          	lw	a5,-36(s0)
ffffffc05040841a:	2781                	sext.w	a5,a5
ffffffc05040841c:	e391                	bnez	a5,ffffffc050408420 <EmacPsWaitRecv+0x126>
ffffffc05040841e:	a0a5                	j	ffffffc050408486 <EmacPsWaitRecv+0x18c>
ffffffc050408420:	fe442783          	lw	a5,-28(s0)
ffffffc050408424:	fdc42703          	lw	a4,-36(s0)
ffffffc050408428:	9fb9                	addw	a5,a5,a4
ffffffc05040842a:	2781                	sext.w	a5,a5
ffffffc05040842c:	fef42223          	sw	a5,-28(s0)
ffffffc050408430:	fb843783          	ld	a5,-72(s0)
ffffffc050408434:	09878793          	addi	a5,a5,152 # 2098 <_start-0xffffffc0503fdf68>
ffffffc050408438:	fd043683          	ld	a3,-48(s0)
ffffffc05040843c:	fdc42703          	lw	a4,-36(s0)
ffffffc050408440:	8636                	mv	a2,a3
ffffffc050408442:	85ba                	mv	a1,a4
ffffffc050408444:	853e                	mv	a0,a5
ffffffc050408446:	fd7fb0ef          	jal	ra,ffffffc05040441c <XEmacPs_BdRingFree>
ffffffc05040844a:	fea43423          	sd	a0,-24(s0)
ffffffc05040844e:	fe843783          	ld	a5,-24(s0)
ffffffc050408452:	cb89                	beqz	a5,ffffffc050408464 <EmacPsWaitRecv+0x16a>
ffffffc050408454:	00005517          	auipc	a0,0x5
ffffffc050408458:	16c50513          	addi	a0,a0,364 # ffffffc05040d5c0 <__FUNCTION__.2047+0x640>
ffffffc05040845c:	d19fe0ef          	jal	ra,ffffffc050407174 <EmacPsUtilErrorTrap>
ffffffc050408460:	4785                	li	a5,1
ffffffc050408462:	a0ad                	j	ffffffc0504084cc <EmacPsWaitRecv+0x1d2>
ffffffc050408464:	00069797          	auipc	a5,0x69
ffffffc050408468:	2bc78793          	addi	a5,a5,700 # ffffffc050471720 <irq_mode>
ffffffc05040846c:	439c                	lw	a5,0(a5)
ffffffc05040846e:	cf81                	beqz	a5,ffffffc050408486 <EmacPsWaitRecv+0x18c>
ffffffc050408470:	fb843783          	ld	a5,-72(s0)
ffffffc050408474:	679c                	ld	a5,8(a5)
ffffffc050408476:	02878713          	addi	a4,a5,40
ffffffc05040847a:	6785                	lui	a5,0x1
ffffffc05040847c:	c0678593          	addi	a1,a5,-1018 # c06 <_start-0xffffffc0503ff3fa>
ffffffc050408480:	853a                	mv	a0,a4
ffffffc050408482:	a66ff0ef          	jal	ra,ffffffc0504076e8 <Xil_Out32>
ffffffc050408486:	fe442703          	lw	a4,-28(s0)
ffffffc05040848a:	fb442783          	lw	a5,-76(s0)
ffffffc05040848e:	2701                	sext.w	a4,a4
ffffffc050408490:	2781                	sext.w	a5,a5
ffffffc050408492:	eaf748e3          	blt	a4,a5,ffffffc050408342 <EmacPsWaitRecv+0x48>
ffffffc050408496:	04000593          	li	a1,64
ffffffc05040849a:	4501                	li	a0,0
ffffffc05040849c:	a9cff0ef          	jal	ra,ffffffc050407738 <Xil_DCacheFlushRange>
ffffffc0504084a0:	fb843783          	ld	a5,-72(s0)
ffffffc0504084a4:	539c                	lw	a5,32(a5)
ffffffc0504084a6:	2007f793          	andi	a5,a5,512
ffffffc0504084aa:	2781                	sext.w	a5,a5
ffffffc0504084ac:	cb91                	beqz	a5,ffffffc0504084c0 <EmacPsWaitRecv+0x1c6>
ffffffc0504084ae:	fb843783          	ld	a5,-72(s0)
ffffffc0504084b2:	679c                	ld	a5,8(a5)
ffffffc0504084b4:	853e                	mv	a0,a5
ffffffc0504084b6:	a5eff0ef          	jal	ra,ffffffc050407714 <Xil_In32>
ffffffc0504084ba:	87aa                	mv	a5,a0
ffffffc0504084bc:	fcf42c23          	sw	a5,-40(s0)
ffffffc0504084c0:	fb843503          	ld	a0,-72(s0)
ffffffc0504084c4:	c78ff0ef          	jal	ra,ffffffc05040793c <EmacPsSetupRxBD>
ffffffc0504084c8:	fe843783          	ld	a5,-24(s0)
ffffffc0504084cc:	853e                	mv	a0,a5
ffffffc0504084ce:	60e6                	ld	ra,88(sp)
ffffffc0504084d0:	6446                	ld	s0,80(sp)
ffffffc0504084d2:	6125                	addi	sp,sp,96
ffffffc0504084d4:	8082                	ret

ffffffc0504084d6 <JudgeIntr>:
ffffffc0504084d6:	7179                	addi	sp,sp,-48
ffffffc0504084d8:	f406                	sd	ra,40(sp)
ffffffc0504084da:	f022                	sd	s0,32(sp)
ffffffc0504084dc:	1800                	addi	s0,sp,48
ffffffc0504084de:	fca43c23          	sd	a0,-40(s0)
ffffffc0504084e2:	fd843783          	ld	a5,-40(s0)
ffffffc0504084e6:	679c                	ld	a5,8(a5)
ffffffc0504084e8:	02478793          	addi	a5,a5,36
ffffffc0504084ec:	853e                	mv	a0,a5
ffffffc0504084ee:	a26ff0ef          	jal	ra,ffffffc050407714 <Xil_In32>
ffffffc0504084f2:	87aa                	mv	a5,a0
ffffffc0504084f4:	fef42623          	sw	a5,-20(s0)
ffffffc0504084f8:	fd843783          	ld	a5,-40(s0)
ffffffc0504084fc:	679c                	ld	a5,8(a5)
ffffffc0504084fe:	02478793          	addi	a5,a5,36
ffffffc050408502:	fec42703          	lw	a4,-20(s0)
ffffffc050408506:	85ba                	mv	a1,a4
ffffffc050408508:	853e                	mv	a0,a5
ffffffc05040850a:	9deff0ef          	jal	ra,ffffffc0504076e8 <Xil_Out32>
ffffffc05040850e:	fec42783          	lw	a5,-20(s0)
ffffffc050408512:	8b89                	andi	a5,a5,2
ffffffc050408514:	2781                	sext.w	a5,a5
ffffffc050408516:	c399                	beqz	a5,ffffffc05040851c <JudgeIntr+0x46>
ffffffc050408518:	4785                	li	a5,1
ffffffc05040851a:	a011                	j	ffffffc05040851e <JudgeIntr+0x48>
ffffffc05040851c:	4781                	li	a5,0
ffffffc05040851e:	853e                	mv	a0,a5
ffffffc050408520:	70a2                	ld	ra,40(sp)
ffffffc050408522:	7402                	ld	s0,32(sp)
ffffffc050408524:	6145                	addi	sp,sp,48
ffffffc050408526:	8082                	ret

ffffffc050408528 <ReadTXSR>:
ffffffc050408528:	1101                	addi	sp,sp,-32
ffffffc05040852a:	ec06                	sd	ra,24(sp)
ffffffc05040852c:	e822                	sd	s0,16(sp)
ffffffc05040852e:	1000                	addi	s0,sp,32
ffffffc050408530:	fea43423          	sd	a0,-24(s0)
ffffffc050408534:	fe843783          	ld	a5,-24(s0)
ffffffc050408538:	679c                	ld	a5,8(a5)
ffffffc05040853a:	07d1                	addi	a5,a5,20
ffffffc05040853c:	853e                	mv	a0,a5
ffffffc05040853e:	9d6ff0ef          	jal	ra,ffffffc050407714 <Xil_In32>
ffffffc050408542:	87aa                	mv	a5,a0
ffffffc050408544:	2781                	sext.w	a5,a5
ffffffc050408546:	1782                	slli	a5,a5,0x20
ffffffc050408548:	9381                	srli	a5,a5,0x20
ffffffc05040854a:	0207f793          	andi	a5,a5,32
ffffffc05040854e:	853e                	mv	a0,a5
ffffffc050408550:	60e2                	ld	ra,24(sp)
ffffffc050408552:	6442                	ld	s0,16(sp)
ffffffc050408554:	6105                	addi	sp,sp,32
ffffffc050408556:	8082                	ret

ffffffc050408558 <ReadRXSR>:
ffffffc050408558:	1101                	addi	sp,sp,-32
ffffffc05040855a:	ec06                	sd	ra,24(sp)
ffffffc05040855c:	e822                	sd	s0,16(sp)
ffffffc05040855e:	1000                	addi	s0,sp,32
ffffffc050408560:	fea43423          	sd	a0,-24(s0)
ffffffc050408564:	fe843783          	ld	a5,-24(s0)
ffffffc050408568:	679c                	ld	a5,8(a5)
ffffffc05040856a:	02078793          	addi	a5,a5,32
ffffffc05040856e:	853e                	mv	a0,a5
ffffffc050408570:	9a4ff0ef          	jal	ra,ffffffc050407714 <Xil_In32>
ffffffc050408574:	87aa                	mv	a5,a0
ffffffc050408576:	2781                	sext.w	a5,a5
ffffffc050408578:	1782                	slli	a5,a5,0x20
ffffffc05040857a:	9381                	srli	a5,a5,0x20
ffffffc05040857c:	8b89                	andi	a5,a5,2
ffffffc05040857e:	853e                	mv	a0,a5
ffffffc050408580:	60e2                	ld	ra,24(sp)
ffffffc050408582:	6442                	ld	s0,16(sp)
ffffffc050408584:	6105                	addi	sp,sp,32
ffffffc050408586:	8082                	ret

ffffffc050408588 <ClearTXSR>:
ffffffc050408588:	7179                	addi	sp,sp,-48
ffffffc05040858a:	f406                	sd	ra,40(sp)
ffffffc05040858c:	f022                	sd	s0,32(sp)
ffffffc05040858e:	1800                	addi	s0,sp,48
ffffffc050408590:	fca43c23          	sd	a0,-40(s0)
ffffffc050408594:	fd843503          	ld	a0,-40(s0)
ffffffc050408598:	f91ff0ef          	jal	ra,ffffffc050408528 <ReadTXSR>
ffffffc05040859c:	87aa                	mv	a5,a0
ffffffc05040859e:	fef42623          	sw	a5,-20(s0)
ffffffc0504085a2:	fd843783          	ld	a5,-40(s0)
ffffffc0504085a6:	679c                	ld	a5,8(a5)
ffffffc0504085a8:	01478713          	addi	a4,a5,20
ffffffc0504085ac:	fec42783          	lw	a5,-20(s0)
ffffffc0504085b0:	0207e793          	ori	a5,a5,32
ffffffc0504085b4:	2781                	sext.w	a5,a5
ffffffc0504085b6:	85be                	mv	a1,a5
ffffffc0504085b8:	853a                	mv	a0,a4
ffffffc0504085ba:	92eff0ef          	jal	ra,ffffffc0504076e8 <Xil_Out32>
ffffffc0504085be:	fd843783          	ld	a5,-40(s0)
ffffffc0504085c2:	679c                	ld	a5,8(a5)
ffffffc0504085c4:	02c78793          	addi	a5,a5,44
ffffffc0504085c8:	0f000593          	li	a1,240
ffffffc0504085cc:	853e                	mv	a0,a5
ffffffc0504085ce:	91aff0ef          	jal	ra,ffffffc0504076e8 <Xil_Out32>
ffffffc0504085d2:	0001                	nop
ffffffc0504085d4:	853e                	mv	a0,a5
ffffffc0504085d6:	70a2                	ld	ra,40(sp)
ffffffc0504085d8:	7402                	ld	s0,32(sp)
ffffffc0504085da:	6145                	addi	sp,sp,48
ffffffc0504085dc:	8082                	ret

ffffffc0504085de <ClearRXSR>:
ffffffc0504085de:	7179                	addi	sp,sp,-48
ffffffc0504085e0:	f406                	sd	ra,40(sp)
ffffffc0504085e2:	f022                	sd	s0,32(sp)
ffffffc0504085e4:	1800                	addi	s0,sp,48
ffffffc0504085e6:	fca43c23          	sd	a0,-40(s0)
ffffffc0504085ea:	fd843783          	ld	a5,-40(s0)
ffffffc0504085ee:	679c                	ld	a5,8(a5)
ffffffc0504085f0:	02078793          	addi	a5,a5,32
ffffffc0504085f4:	853e                	mv	a0,a5
ffffffc0504085f6:	91eff0ef          	jal	ra,ffffffc050407714 <Xil_In32>
ffffffc0504085fa:	87aa                	mv	a5,a0
ffffffc0504085fc:	fef42623          	sw	a5,-20(s0)
ffffffc050408600:	fd843783          	ld	a5,-40(s0)
ffffffc050408604:	679c                	ld	a5,8(a5)
ffffffc050408606:	02078713          	addi	a4,a5,32
ffffffc05040860a:	fec42783          	lw	a5,-20(s0)
ffffffc05040860e:	0027e793          	ori	a5,a5,2
ffffffc050408612:	2781                	sext.w	a5,a5
ffffffc050408614:	85be                	mv	a1,a5
ffffffc050408616:	853a                	mv	a0,a4
ffffffc050408618:	8d0ff0ef          	jal	ra,ffffffc0504076e8 <Xil_Out32>
ffffffc05040861c:	fd843783          	ld	a5,-40(s0)
ffffffc050408620:	679c                	ld	a5,8(a5)
ffffffc050408622:	02c78713          	addi	a4,a5,44
ffffffc050408626:	6785                	lui	a5,0x1
ffffffc050408628:	c0678593          	addi	a1,a5,-1018 # c06 <_start-0xffffffc0503ff3fa>
ffffffc05040862c:	853a                	mv	a0,a4
ffffffc05040862e:	8baff0ef          	jal	ra,ffffffc0504076e8 <Xil_Out32>
ffffffc050408632:	0001                	nop
ffffffc050408634:	853e                	mv	a0,a5
ffffffc050408636:	70a2                	ld	ra,40(sp)
ffffffc050408638:	7402                	ld	s0,32(sp)
ffffffc05040863a:	6145                	addi	sp,sp,48
ffffffc05040863c:	8082                	ret

ffffffc05040863e <EmacPsDmaIntrExample>:
ffffffc05040863e:	7179                	addi	sp,sp,-48
ffffffc050408640:	f406                	sd	ra,40(sp)
ffffffc050408642:	f022                	sd	s0,32(sp)
ffffffc050408644:	1800                	addi	s0,sp,48
ffffffc050408646:	fca43c23          	sd	a0,-40(s0)
ffffffc05040864a:	fd843503          	ld	a0,-40(s0)
ffffffc05040864e:	f06ff0ef          	jal	ra,ffffffc050407d54 <EmacPsInit>
ffffffc050408652:	fea43423          	sd	a0,-24(s0)
ffffffc050408656:	00005517          	auipc	a0,0x5
ffffffc05040865a:	f8250513          	addi	a0,a0,-126 # ffffffc05040d5d8 <__FUNCTION__.2047+0x658>
ffffffc05040865e:	226040ef          	jal	ra,ffffffc05040c884 <printk>
ffffffc050408662:	fd843503          	ld	a0,-40(s0)
ffffffc050408666:	032000ef          	jal	ra,ffffffc050408698 <EmacPsDmaSingleFrameIntrExample>
ffffffc05040866a:	fea43423          	sd	a0,-24(s0)
ffffffc05040866e:	fe843783          	ld	a5,-24(s0)
ffffffc050408672:	c399                	beqz	a5,ffffffc050408678 <EmacPsDmaIntrExample+0x3a>
ffffffc050408674:	4785                	li	a5,1
ffffffc050408676:	a821                	j	ffffffc05040868e <EmacPsDmaIntrExample+0x50>
ffffffc050408678:	00005517          	auipc	a0,0x5
ffffffc05040867c:	fa050513          	addi	a0,a0,-96 # ffffffc05040d618 <__FUNCTION__.2047+0x698>
ffffffc050408680:	204040ef          	jal	ra,ffffffc05040c884 <printk>
ffffffc050408684:	fd843503          	ld	a0,-40(s0)
ffffffc050408688:	fa9fa0ef          	jal	ra,ffffffc050403630 <XEmacPs_Stop>
ffffffc05040868c:	4781                	li	a5,0
ffffffc05040868e:	853e                	mv	a0,a5
ffffffc050408690:	70a2                	ld	ra,40(sp)
ffffffc050408692:	7402                	ld	s0,32(sp)
ffffffc050408694:	6145                	addi	sp,sp,48
ffffffc050408696:	8082                	ret

ffffffc050408698 <EmacPsDmaSingleFrameIntrExample>:
ffffffc050408698:	7139                	addi	sp,sp,-64
ffffffc05040869a:	fc06                	sd	ra,56(sp)
ffffffc05040869c:	f822                	sd	s0,48(sp)
ffffffc05040869e:	0080                	addi	s0,sp,64
ffffffc0504086a0:	fca43423          	sd	a0,-56(s0)
ffffffc0504086a4:	3e800793          	li	a5,1000
ffffffc0504086a8:	fef42023          	sw	a5,-32(s0)
ffffffc0504086ac:	007f8797          	auipc	a5,0x7f8
ffffffc0504086b0:	96078793          	addi	a5,a5,-1696 # ffffffc050c0000c <FramesRx>
ffffffc0504086b4:	0007a023          	sw	zero,0(a5)
ffffffc0504086b8:	007f8797          	auipc	a5,0x7f8
ffffffc0504086bc:	94878793          	addi	a5,a5,-1720 # ffffffc050c00000 <FramesTx>
ffffffc0504086c0:	0007a023          	sw	zero,0(a5)
ffffffc0504086c4:	007f8797          	auipc	a5,0x7f8
ffffffc0504086c8:	94078793          	addi	a5,a5,-1728 # ffffffc050c00004 <DeviceErrors>
ffffffc0504086cc:	0007a023          	sw	zero,0(a5)
ffffffc0504086d0:	fe042783          	lw	a5,-32(s0)
ffffffc0504086d4:	27b9                	addiw	a5,a5,14
ffffffc0504086d6:	0007871b          	sext.w	a4,a5
ffffffc0504086da:	007f8797          	auipc	a5,0x7f8
ffffffc0504086de:	93678793          	addi	a5,a5,-1738 # ffffffc050c00010 <TxFrameLength>
ffffffc0504086e2:	c398                	sw	a4,0(a5)
ffffffc0504086e4:	00069597          	auipc	a1,0x69
ffffffc0504086e8:	fe458593          	addi	a1,a1,-28 # ffffffc0504716c8 <BroadcastMAC>
ffffffc0504086ec:	003f8517          	auipc	a0,0x3f8
ffffffc0504086f0:	f5450513          	addi	a0,a0,-172 # ffffffc050800640 <TxFrame>
ffffffc0504086f4:	d8efd0ef          	jal	ra,ffffffc050405c82 <EmacPsUtilFrameHdrFormatMAC>
ffffffc0504086f8:	fe042783          	lw	a5,-32(s0)
ffffffc0504086fc:	17c2                	slli	a5,a5,0x30
ffffffc0504086fe:	93c1                	srli	a5,a5,0x30
ffffffc050408700:	85be                	mv	a1,a5
ffffffc050408702:	003f8517          	auipc	a0,0x3f8
ffffffc050408706:	f3e50513          	addi	a0,a0,-194 # ffffffc050800640 <TxFrame>
ffffffc05040870a:	e1cfd0ef          	jal	ra,ffffffc050405d26 <EmacPsUtilFrameHdrFormatType>
ffffffc05040870e:	fe042783          	lw	a5,-32(s0)
ffffffc050408712:	85be                	mv	a1,a5
ffffffc050408714:	003f8517          	auipc	a0,0x3f8
ffffffc050408718:	f2c50513          	addi	a0,a0,-212 # ffffffc050800640 <TxFrame>
ffffffc05040871c:	e54fd0ef          	jal	ra,ffffffc050405d70 <EmacPsUtilFrameSetPayloadData>
ffffffc050408720:	00005517          	auipc	a0,0x5
ffffffc050408724:	f3850513          	addi	a0,a0,-200 # ffffffc05040d658 <__FUNCTION__.2047+0x6d8>
ffffffc050408728:	15c040ef          	jal	ra,ffffffc05040c884 <printk>
ffffffc05040872c:	003f8797          	auipc	a5,0x3f8
ffffffc050408730:	f1478793          	addi	a5,a5,-236 # ffffffc050800640 <TxFrame>
ffffffc050408734:	60000593          	li	a1,1536
ffffffc050408738:	853e                	mv	a0,a5
ffffffc05040873a:	ffffe0ef          	jal	ra,ffffffc050407738 <Xil_DCacheFlushRange>
ffffffc05040873e:	003f8517          	auipc	a0,0x3f8
ffffffc050408742:	8c250513          	addi	a0,a0,-1854 # ffffffc050800000 <RxFrame>
ffffffc050408746:	829fd0ef          	jal	ra,ffffffc050405f6e <EmacPsUtilFrameMemClear>
ffffffc05040874a:	00005517          	auipc	a0,0x5
ffffffc05040874e:	f3650513          	addi	a0,a0,-202 # ffffffc05040d680 <__FUNCTION__.2047+0x700>
ffffffc050408752:	132040ef          	jal	ra,ffffffc05040c884 <printk>
ffffffc050408756:	003f8797          	auipc	a5,0x3f8
ffffffc05040875a:	8aa78793          	addi	a5,a5,-1878 # ffffffc050800000 <RxFrame>
ffffffc05040875e:	60000593          	li	a1,1536
ffffffc050408762:	853e                	mv	a0,a5
ffffffc050408764:	fd5fe0ef          	jal	ra,ffffffc050407738 <Xil_DCacheFlushRange>
ffffffc050408768:	4605                	li	a2,1
ffffffc05040876a:	003f8597          	auipc	a1,0x3f8
ffffffc05040876e:	89658593          	addi	a1,a1,-1898 # ffffffc050800000 <RxFrame>
ffffffc050408772:	fc843503          	ld	a0,-56(s0)
ffffffc050408776:	9cdff0ef          	jal	ra,ffffffc050408142 <EmacPsRecv>
ffffffc05040877a:	007f8797          	auipc	a5,0x7f8
ffffffc05040877e:	89678793          	addi	a5,a5,-1898 # ffffffc050c00010 <TxFrameLength>
ffffffc050408782:	439c                	lw	a5,0(a5)
ffffffc050408784:	1782                	slli	a5,a5,0x20
ffffffc050408786:	9381                	srli	a5,a5,0x20
ffffffc050408788:	863e                	mv	a2,a5
ffffffc05040878a:	003f8597          	auipc	a1,0x3f8
ffffffc05040878e:	eb658593          	addi	a1,a1,-330 # ffffffc050800640 <TxFrame>
ffffffc050408792:	fc843503          	ld	a0,-56(s0)
ffffffc050408796:	efeff0ef          	jal	ra,ffffffc050407e94 <EmacPsSend>
ffffffc05040879a:	fc843503          	ld	a0,-56(s0)
ffffffc05040879e:	86bff0ef          	jal	ra,ffffffc050408008 <EmacPsWaitSend>
ffffffc0504087a2:	fdc40793          	addi	a5,s0,-36
ffffffc0504087a6:	863e                	mv	a2,a5
ffffffc0504087a8:	4585                	li	a1,1
ffffffc0504087aa:	fc843503          	ld	a0,-56(s0)
ffffffc0504087ae:	b4dff0ef          	jal	ra,ffffffc0504082fa <EmacPsWaitRecv>
ffffffc0504087b2:	003f8597          	auipc	a1,0x3f8
ffffffc0504087b6:	84e58593          	addi	a1,a1,-1970 # ffffffc050800000 <RxFrame>
ffffffc0504087ba:	003f8517          	auipc	a0,0x3f8
ffffffc0504087be:	e8650513          	addi	a0,a0,-378 # ffffffc050800640 <TxFrame>
ffffffc0504087c2:	e8cfd0ef          	jal	ra,ffffffc050405e4e <EmacPsUtilFrameVerify>
ffffffc0504087c6:	87aa                	mv	a5,a0
ffffffc0504087c8:	10078363          	beqz	a5,ffffffc0504088ce <EmacPsDmaSingleFrameIntrExample+0x236>
ffffffc0504087cc:	fe042623          	sw	zero,-20(s0)
ffffffc0504087d0:	a8c1                	j	ffffffc0504088a0 <EmacPsDmaSingleFrameIntrExample+0x208>
ffffffc0504087d2:	00005517          	auipc	a0,0x5
ffffffc0504087d6:	ed650513          	addi	a0,a0,-298 # ffffffc05040d6a8 <__FUNCTION__.2047+0x728>
ffffffc0504087da:	0aa040ef          	jal	ra,ffffffc05040c884 <printk>
ffffffc0504087de:	fe042423          	sw	zero,-24(s0)
ffffffc0504087e2:	a83d                	j	ffffffc050408820 <EmacPsDmaSingleFrameIntrExample+0x188>
ffffffc0504087e4:	fec42783          	lw	a5,-20(s0)
ffffffc0504087e8:	0047979b          	slliw	a5,a5,0x4
ffffffc0504087ec:	2781                	sext.w	a5,a5
ffffffc0504087ee:	fe842703          	lw	a4,-24(s0)
ffffffc0504087f2:	9fb9                	addw	a5,a5,a4
ffffffc0504087f4:	2781                	sext.w	a5,a5
ffffffc0504087f6:	873e                	mv	a4,a5
ffffffc0504087f8:	003f8797          	auipc	a5,0x3f8
ffffffc0504087fc:	e4878793          	addi	a5,a5,-440 # ffffffc050800640 <TxFrame>
ffffffc050408800:	97ba                	add	a5,a5,a4
ffffffc050408802:	0007c783          	lbu	a5,0(a5)
ffffffc050408806:	2781                	sext.w	a5,a5
ffffffc050408808:	85be                	mv	a1,a5
ffffffc05040880a:	00005517          	auipc	a0,0x5
ffffffc05040880e:	ea650513          	addi	a0,a0,-346 # ffffffc05040d6b0 <__FUNCTION__.2047+0x730>
ffffffc050408812:	072040ef          	jal	ra,ffffffc05040c884 <printk>
ffffffc050408816:	fe842783          	lw	a5,-24(s0)
ffffffc05040881a:	2785                	addiw	a5,a5,1
ffffffc05040881c:	fef42423          	sw	a5,-24(s0)
ffffffc050408820:	fe842783          	lw	a5,-24(s0)
ffffffc050408824:	0007871b          	sext.w	a4,a5
ffffffc050408828:	47bd                	li	a5,15
ffffffc05040882a:	fae7dde3          	bge	a5,a4,ffffffc0504087e4 <EmacPsDmaSingleFrameIntrExample+0x14c>
ffffffc05040882e:	00005517          	auipc	a0,0x5
ffffffc050408832:	e8a50513          	addi	a0,a0,-374 # ffffffc05040d6b8 <__FUNCTION__.2047+0x738>
ffffffc050408836:	04e040ef          	jal	ra,ffffffc05040c884 <printk>
ffffffc05040883a:	fe042223          	sw	zero,-28(s0)
ffffffc05040883e:	a83d                	j	ffffffc05040887c <EmacPsDmaSingleFrameIntrExample+0x1e4>
ffffffc050408840:	fec42783          	lw	a5,-20(s0)
ffffffc050408844:	0047979b          	slliw	a5,a5,0x4
ffffffc050408848:	2781                	sext.w	a5,a5
ffffffc05040884a:	fe442703          	lw	a4,-28(s0)
ffffffc05040884e:	9fb9                	addw	a5,a5,a4
ffffffc050408850:	2781                	sext.w	a5,a5
ffffffc050408852:	873e                	mv	a4,a5
ffffffc050408854:	003f7797          	auipc	a5,0x3f7
ffffffc050408858:	7ac78793          	addi	a5,a5,1964 # ffffffc050800000 <RxFrame>
ffffffc05040885c:	97ba                	add	a5,a5,a4
ffffffc05040885e:	0007c783          	lbu	a5,0(a5)
ffffffc050408862:	2781                	sext.w	a5,a5
ffffffc050408864:	85be                	mv	a1,a5
ffffffc050408866:	00005517          	auipc	a0,0x5
ffffffc05040886a:	e4a50513          	addi	a0,a0,-438 # ffffffc05040d6b0 <__FUNCTION__.2047+0x730>
ffffffc05040886e:	016040ef          	jal	ra,ffffffc05040c884 <printk>
ffffffc050408872:	fe442783          	lw	a5,-28(s0)
ffffffc050408876:	2785                	addiw	a5,a5,1
ffffffc050408878:	fef42223          	sw	a5,-28(s0)
ffffffc05040887c:	fe442783          	lw	a5,-28(s0)
ffffffc050408880:	0007871b          	sext.w	a4,a5
ffffffc050408884:	47bd                	li	a5,15
ffffffc050408886:	fae7dde3          	bge	a5,a4,ffffffc050408840 <EmacPsDmaSingleFrameIntrExample+0x1a8>
ffffffc05040888a:	00005517          	auipc	a0,0x5
ffffffc05040888e:	e3650513          	addi	a0,a0,-458 # ffffffc05040d6c0 <__FUNCTION__.2047+0x740>
ffffffc050408892:	7f3030ef          	jal	ra,ffffffc05040c884 <printk>
ffffffc050408896:	fec42783          	lw	a5,-20(s0)
ffffffc05040889a:	2785                	addiw	a5,a5,1
ffffffc05040889c:	fef42623          	sw	a5,-20(s0)
ffffffc0504088a0:	007f7797          	auipc	a5,0x7f7
ffffffc0504088a4:	77078793          	addi	a5,a5,1904 # ffffffc050c00010 <TxFrameLength>
ffffffc0504088a8:	439c                	lw	a5,0(a5)
ffffffc0504088aa:	0047d79b          	srliw	a5,a5,0x4
ffffffc0504088ae:	2781                	sext.w	a5,a5
ffffffc0504088b0:	37fd                	addiw	a5,a5,-1
ffffffc0504088b2:	0007871b          	sext.w	a4,a5
ffffffc0504088b6:	fec42783          	lw	a5,-20(s0)
ffffffc0504088ba:	f0e7ece3          	bltu	a5,a4,ffffffc0504087d2 <EmacPsDmaSingleFrameIntrExample+0x13a>
ffffffc0504088be:	00005517          	auipc	a0,0x5
ffffffc0504088c2:	e0a50513          	addi	a0,a0,-502 # ffffffc05040d6c8 <__FUNCTION__.2047+0x748>
ffffffc0504088c6:	8affe0ef          	jal	ra,ffffffc050407174 <EmacPsUtilErrorTrap>
ffffffc0504088ca:	4785                	li	a5,1
ffffffc0504088cc:	a821                	j	ffffffc0504088e4 <EmacPsDmaSingleFrameIntrExample+0x24c>
ffffffc0504088ce:	00005517          	auipc	a0,0x5
ffffffc0504088d2:	e0a50513          	addi	a0,a0,-502 # ffffffc05040d6d8 <__FUNCTION__.2047+0x758>
ffffffc0504088d6:	7af030ef          	jal	ra,ffffffc05040c884 <printk>
ffffffc0504088da:	fc843503          	ld	a0,-56(s0)
ffffffc0504088de:	d53fa0ef          	jal	ra,ffffffc050403630 <XEmacPs_Stop>
ffffffc0504088e2:	4781                	li	a5,0
ffffffc0504088e4:	853e                	mv	a0,a5
ffffffc0504088e6:	70e2                	ld	ra,56(sp)
ffffffc0504088e8:	7442                	ld	s0,48(sp)
ffffffc0504088ea:	6121                	addi	sp,sp,64
ffffffc0504088ec:	8082                	ret

ffffffc0504088ee <EmacPsResetDevice>:
ffffffc0504088ee:	715d                	addi	sp,sp,-80
ffffffc0504088f0:	e486                	sd	ra,72(sp)
ffffffc0504088f2:	e0a2                	sd	s0,64(sp)
ffffffc0504088f4:	fc26                	sd	s1,56(sp)
ffffffc0504088f6:	0880                	addi	s0,sp,80
ffffffc0504088f8:	faa43c23          	sd	a0,-72(s0)
ffffffc0504088fc:	fc043c23          	sd	zero,-40(s0)
ffffffc050408900:	fb843503          	ld	a0,-72(s0)
ffffffc050408904:	d2dfa0ef          	jal	ra,ffffffc050403630 <XEmacPs_Stop>
ffffffc050408908:	fc840793          	addi	a5,s0,-56
ffffffc05040890c:	4605                	li	a2,1
ffffffc05040890e:	85be                	mv	a1,a5
ffffffc050408910:	fb843503          	ld	a0,-72(s0)
ffffffc050408914:	930fc0ef          	jal	ra,ffffffc050404a44 <XEmacPs_GetMacAddress>
ffffffc050408918:	fb843503          	ld	a0,-72(s0)
ffffffc05040891c:	e43fc0ef          	jal	ra,ffffffc05040575e <XEmacPs_GetOptions>
ffffffc050408920:	87aa                	mv	a5,a0
ffffffc050408922:	fcf42a23          	sw	a5,-44(s0)
ffffffc050408926:	fb843503          	ld	a0,-72(s0)
ffffffc05040892a:	d73fa0ef          	jal	ra,ffffffc05040369c <XEmacPs_Reset>
ffffffc05040892e:	fc840793          	addi	a5,s0,-56
ffffffc050408932:	4605                	li	a2,1
ffffffc050408934:	85be                	mv	a1,a5
ffffffc050408936:	fb843503          	ld	a0,-72(s0)
ffffffc05040893a:	f89fb0ef          	jal	ra,ffffffc0504048c2 <XEmacPs_SetMacAddress>
ffffffc05040893e:	fd442783          	lw	a5,-44(s0)
ffffffc050408942:	85be                	mv	a1,a5
ffffffc050408944:	fb843503          	ld	a0,-72(s0)
ffffffc050408948:	fe8fc0ef          	jal	ra,ffffffc050405130 <XEmacPs_SetOptions>
ffffffc05040894c:	872a                	mv	a4,a0
ffffffc05040894e:	fd843783          	ld	a5,-40(s0)
ffffffc050408952:	8fd9                	or	a5,a5,a4
ffffffc050408954:	fcf43c23          	sd	a5,-40(s0)
ffffffc050408958:	fd442783          	lw	a5,-44(s0)
ffffffc05040895c:	fff7c793          	not	a5,a5
ffffffc050408960:	2781                	sext.w	a5,a5
ffffffc050408962:	85be                	mv	a1,a5
ffffffc050408964:	fb843503          	ld	a0,-72(s0)
ffffffc050408968:	af5fc0ef          	jal	ra,ffffffc05040545c <XEmacPs_ClearOptions>
ffffffc05040896c:	872a                	mv	a4,a0
ffffffc05040896e:	fd843783          	ld	a5,-40(s0)
ffffffc050408972:	8fd9                	or	a5,a5,a4
ffffffc050408974:	fcf43c23          	sd	a5,-40(s0)
ffffffc050408978:	fd843783          	ld	a5,-40(s0)
ffffffc05040897c:	cb89                	beqz	a5,ffffffc05040898e <EmacPsResetDevice+0xa0>
ffffffc05040897e:	00005517          	auipc	a0,0x5
ffffffc050408982:	d7250513          	addi	a0,a0,-654 # ffffffc05040d6f0 <__FUNCTION__.2047+0x770>
ffffffc050408986:	feefe0ef          	jal	ra,ffffffc050407174 <EmacPsUtilErrorTrap>
ffffffc05040898a:	4785                	li	a5,1
ffffffc05040898c:	a2c9                	j	ffffffc050408b4e <EmacPsResetDevice+0x260>
ffffffc05040898e:	fb843683          	ld	a3,-72(s0)
ffffffc050408992:	00000617          	auipc	a2,0x0
ffffffc050408996:	1c860613          	addi	a2,a2,456 # ffffffc050408b5a <XEmacPsSendHandler>
ffffffc05040899a:	4585                	li	a1,1
ffffffc05040899c:	fb843503          	ld	a0,-72(s0)
ffffffc0504089a0:	a63fe0ef          	jal	ra,ffffffc050407402 <XEmacPs_SetHandler>
ffffffc0504089a4:	fca43c23          	sd	a0,-40(s0)
ffffffc0504089a8:	fb843683          	ld	a3,-72(s0)
ffffffc0504089ac:	00000617          	auipc	a2,0x0
ffffffc0504089b0:	1e460613          	addi	a2,a2,484 # ffffffc050408b90 <XEmacPsRecvHandler>
ffffffc0504089b4:	4589                	li	a1,2
ffffffc0504089b6:	fb843503          	ld	a0,-72(s0)
ffffffc0504089ba:	a49fe0ef          	jal	ra,ffffffc050407402 <XEmacPs_SetHandler>
ffffffc0504089be:	872a                	mv	a4,a0
ffffffc0504089c0:	fd843783          	ld	a5,-40(s0)
ffffffc0504089c4:	8fd9                	or	a5,a5,a4
ffffffc0504089c6:	fcf43c23          	sd	a5,-40(s0)
ffffffc0504089ca:	fb843683          	ld	a3,-72(s0)
ffffffc0504089ce:	00000617          	auipc	a2,0x0
ffffffc0504089d2:	20e60613          	addi	a2,a2,526 # ffffffc050408bdc <XEmacPsErrorHandler>
ffffffc0504089d6:	458d                	li	a1,3
ffffffc0504089d8:	fb843503          	ld	a0,-72(s0)
ffffffc0504089dc:	a27fe0ef          	jal	ra,ffffffc050407402 <XEmacPs_SetHandler>
ffffffc0504089e0:	872a                	mv	a4,a0
ffffffc0504089e2:	fd843783          	ld	a5,-40(s0)
ffffffc0504089e6:	8fd9                	or	a5,a5,a4
ffffffc0504089e8:	fcf43c23          	sd	a5,-40(s0)
ffffffc0504089ec:	fd843783          	ld	a5,-40(s0)
ffffffc0504089f0:	cb89                	beqz	a5,ffffffc050408a02 <EmacPsResetDevice+0x114>
ffffffc0504089f2:	00005517          	auipc	a0,0x5
ffffffc0504089f6:	aa650513          	addi	a0,a0,-1370 # ffffffc05040d498 <__FUNCTION__.2047+0x518>
ffffffc0504089fa:	f7afe0ef          	jal	ra,ffffffc050407174 <EmacPsUtilErrorTrap>
ffffffc0504089fe:	4785                	li	a5,1
ffffffc050408a00:	a2b9                	j	ffffffc050408b4e <EmacPsResetDevice+0x260>
ffffffc050408a02:	fc040793          	addi	a5,s0,-64
ffffffc050408a06:	4621                	li	a2,8
ffffffc050408a08:	4581                	li	a1,0
ffffffc050408a0a:	853e                	mv	a0,a5
ffffffc050408a0c:	444030ef          	jal	ra,ffffffc05040be50 <memset>
ffffffc050408a10:	fb843783          	ld	a5,-72(s0)
ffffffc050408a14:	09878493          	addi	s1,a5,152
ffffffc050408a18:	003f8797          	auipc	a5,0x3f8
ffffffc050408a1c:	22878793          	addi	a5,a5,552 # ffffffc050800c40 <RxBdSpacePtr>
ffffffc050408a20:	639c                	ld	a5,0(a5)
ffffffc050408a22:	853e                	mv	a0,a5
ffffffc050408a24:	ca9fe0ef          	jal	ra,ffffffc0504076cc <kva2pa>
ffffffc050408a28:	85aa                	mv	a1,a0
ffffffc050408a2a:	003f8797          	auipc	a5,0x3f8
ffffffc050408a2e:	21678793          	addi	a5,a5,534 # ffffffc050800c40 <RxBdSpacePtr>
ffffffc050408a32:	639c                	ld	a5,0(a5)
ffffffc050408a34:	863e                	mv	a2,a5
ffffffc050408a36:	fb843783          	ld	a5,-72(s0)
ffffffc050408a3a:	02878793          	addi	a5,a5,40
ffffffc050408a3e:	02100713          	li	a4,33
ffffffc050408a42:	04000693          	li	a3,64
ffffffc050408a46:	8526                	mv	a0,s1
ffffffc050408a48:	830fb0ef          	jal	ra,ffffffc050403a78 <XEmacPs_BdRingCreate>
ffffffc050408a4c:	fca43c23          	sd	a0,-40(s0)
ffffffc050408a50:	fd843783          	ld	a5,-40(s0)
ffffffc050408a54:	cb89                	beqz	a5,ffffffc050408a66 <EmacPsResetDevice+0x178>
ffffffc050408a56:	00005517          	auipc	a0,0x5
ffffffc050408a5a:	85a50513          	addi	a0,a0,-1958 # ffffffc05040d2b0 <__FUNCTION__.2047+0x330>
ffffffc050408a5e:	f16fe0ef          	jal	ra,ffffffc050407174 <EmacPsUtilErrorTrap>
ffffffc050408a62:	4785                	li	a5,1
ffffffc050408a64:	a0ed                	j	ffffffc050408b4e <EmacPsResetDevice+0x260>
ffffffc050408a66:	fb843783          	ld	a5,-72(s0)
ffffffc050408a6a:	09878793          	addi	a5,a5,152
ffffffc050408a6e:	fc040713          	addi	a4,s0,-64
ffffffc050408a72:	4609                	li	a2,2
ffffffc050408a74:	85ba                	mv	a1,a4
ffffffc050408a76:	853e                	mv	a0,a5
ffffffc050408a78:	a14fb0ef          	jal	ra,ffffffc050403c8c <XEmacPs_BdRingClone>
ffffffc050408a7c:	fca43c23          	sd	a0,-40(s0)
ffffffc050408a80:	fd843783          	ld	a5,-40(s0)
ffffffc050408a84:	cb89                	beqz	a5,ffffffc050408a96 <EmacPsResetDevice+0x1a8>
ffffffc050408a86:	00005517          	auipc	a0,0x5
ffffffc050408a8a:	85a50513          	addi	a0,a0,-1958 # ffffffc05040d2e0 <__FUNCTION__.2047+0x360>
ffffffc050408a8e:	ee6fe0ef          	jal	ra,ffffffc050407174 <EmacPsUtilErrorTrap>
ffffffc050408a92:	4785                	li	a5,1
ffffffc050408a94:	a86d                	j	ffffffc050408b4e <EmacPsResetDevice+0x260>
ffffffc050408a96:	fc040793          	addi	a5,s0,-64
ffffffc050408a9a:	4621                	li	a2,8
ffffffc050408a9c:	4581                	li	a1,0
ffffffc050408a9e:	853e                	mv	a0,a5
ffffffc050408aa0:	3b0030ef          	jal	ra,ffffffc05040be50 <memset>
ffffffc050408aa4:	fc040793          	addi	a5,s0,-64
ffffffc050408aa8:	0791                	addi	a5,a5,4
ffffffc050408aaa:	4394                	lw	a3,0(a5)
ffffffc050408aac:	fc040793          	addi	a5,s0,-64
ffffffc050408ab0:	0791                	addi	a5,a5,4
ffffffc050408ab2:	873e                	mv	a4,a5
ffffffc050408ab4:	800007b7          	lui	a5,0x80000
ffffffc050408ab8:	8fd5                	or	a5,a5,a3
ffffffc050408aba:	2781                	sext.w	a5,a5
ffffffc050408abc:	c31c                	sw	a5,0(a4)
ffffffc050408abe:	fb843783          	ld	a5,-72(s0)
ffffffc050408ac2:	02878493          	addi	s1,a5,40 # ffffffff80000028 <__BSS_END__+0x3f2f3fd108>
ffffffc050408ac6:	003f8797          	auipc	a5,0x3f8
ffffffc050408aca:	19278793          	addi	a5,a5,402 # ffffffc050800c58 <TxBdSpacePtr>
ffffffc050408ace:	639c                	ld	a5,0(a5)
ffffffc050408ad0:	853e                	mv	a0,a5
ffffffc050408ad2:	bfbfe0ef          	jal	ra,ffffffc0504076cc <kva2pa>
ffffffc050408ad6:	85aa                	mv	a1,a0
ffffffc050408ad8:	003f8797          	auipc	a5,0x3f8
ffffffc050408adc:	18078793          	addi	a5,a5,384 # ffffffc050800c58 <TxBdSpacePtr>
ffffffc050408ae0:	639c                	ld	a5,0(a5)
ffffffc050408ae2:	863e                	mv	a2,a5
ffffffc050408ae4:	fb843783          	ld	a5,-72(s0)
ffffffc050408ae8:	09878793          	addi	a5,a5,152
ffffffc050408aec:	02100713          	li	a4,33
ffffffc050408af0:	04000693          	li	a3,64
ffffffc050408af4:	8526                	mv	a0,s1
ffffffc050408af6:	f83fa0ef          	jal	ra,ffffffc050403a78 <XEmacPs_BdRingCreate>
ffffffc050408afa:	fca43c23          	sd	a0,-40(s0)
ffffffc050408afe:	fd843783          	ld	a5,-40(s0)
ffffffc050408b02:	cb89                	beqz	a5,ffffffc050408b14 <EmacPsResetDevice+0x226>
ffffffc050408b04:	00005517          	auipc	a0,0x5
ffffffc050408b08:	80c50513          	addi	a0,a0,-2036 # ffffffc05040d310 <__FUNCTION__.2047+0x390>
ffffffc050408b0c:	e68fe0ef          	jal	ra,ffffffc050407174 <EmacPsUtilErrorTrap>
ffffffc050408b10:	4785                	li	a5,1
ffffffc050408b12:	a835                	j	ffffffc050408b4e <EmacPsResetDevice+0x260>
ffffffc050408b14:	fb843783          	ld	a5,-72(s0)
ffffffc050408b18:	02878793          	addi	a5,a5,40
ffffffc050408b1c:	fc040713          	addi	a4,s0,-64
ffffffc050408b20:	4605                	li	a2,1
ffffffc050408b22:	85ba                	mv	a1,a4
ffffffc050408b24:	853e                	mv	a0,a5
ffffffc050408b26:	966fb0ef          	jal	ra,ffffffc050403c8c <XEmacPs_BdRingClone>
ffffffc050408b2a:	fca43c23          	sd	a0,-40(s0)
ffffffc050408b2e:	fd843783          	ld	a5,-40(s0)
ffffffc050408b32:	cb89                	beqz	a5,ffffffc050408b44 <EmacPsResetDevice+0x256>
ffffffc050408b34:	00005517          	auipc	a0,0x5
ffffffc050408b38:	80c50513          	addi	a0,a0,-2036 # ffffffc05040d340 <__FUNCTION__.2047+0x3c0>
ffffffc050408b3c:	e38fe0ef          	jal	ra,ffffffc050407174 <EmacPsUtilErrorTrap>
ffffffc050408b40:	4785                	li	a5,1
ffffffc050408b42:	a031                	j	ffffffc050408b4e <EmacPsResetDevice+0x260>
ffffffc050408b44:	fb843503          	ld	a0,-72(s0)
ffffffc050408b48:	9d1fa0ef          	jal	ra,ffffffc050403518 <XEmacPs_Start>
ffffffc050408b4c:	4781                	li	a5,0
ffffffc050408b4e:	853e                	mv	a0,a5
ffffffc050408b50:	60a6                	ld	ra,72(sp)
ffffffc050408b52:	6406                	ld	s0,64(sp)
ffffffc050408b54:	74e2                	ld	s1,56(sp)
ffffffc050408b56:	6161                	addi	sp,sp,80
ffffffc050408b58:	8082                	ret

ffffffc050408b5a <XEmacPsSendHandler>:
ffffffc050408b5a:	7179                	addi	sp,sp,-48
ffffffc050408b5c:	f422                	sd	s0,40(sp)
ffffffc050408b5e:	1800                	addi	s0,sp,48
ffffffc050408b60:	fca43c23          	sd	a0,-40(s0)
ffffffc050408b64:	fd843783          	ld	a5,-40(s0)
ffffffc050408b68:	fef43423          	sd	a5,-24(s0)
ffffffc050408b6c:	007f7797          	auipc	a5,0x7f7
ffffffc050408b70:	49478793          	addi	a5,a5,1172 # ffffffc050c00000 <FramesTx>
ffffffc050408b74:	439c                	lw	a5,0(a5)
ffffffc050408b76:	2781                	sext.w	a5,a5
ffffffc050408b78:	2785                	addiw	a5,a5,1
ffffffc050408b7a:	0007871b          	sext.w	a4,a5
ffffffc050408b7e:	007f7797          	auipc	a5,0x7f7
ffffffc050408b82:	48278793          	addi	a5,a5,1154 # ffffffc050c00000 <FramesTx>
ffffffc050408b86:	c398                	sw	a4,0(a5)
ffffffc050408b88:	0001                	nop
ffffffc050408b8a:	7422                	ld	s0,40(sp)
ffffffc050408b8c:	6145                	addi	sp,sp,48
ffffffc050408b8e:	8082                	ret

ffffffc050408b90 <XEmacPsRecvHandler>:
ffffffc050408b90:	7179                	addi	sp,sp,-48
ffffffc050408b92:	f406                	sd	ra,40(sp)
ffffffc050408b94:	f022                	sd	s0,32(sp)
ffffffc050408b96:	1800                	addi	s0,sp,48
ffffffc050408b98:	fca43c23          	sd	a0,-40(s0)
ffffffc050408b9c:	fd843783          	ld	a5,-40(s0)
ffffffc050408ba0:	fef43423          	sd	a5,-24(s0)
ffffffc050408ba4:	007f7797          	auipc	a5,0x7f7
ffffffc050408ba8:	46878793          	addi	a5,a5,1128 # ffffffc050c0000c <FramesRx>
ffffffc050408bac:	439c                	lw	a5,0(a5)
ffffffc050408bae:	2781                	sext.w	a5,a5
ffffffc050408bb0:	2785                	addiw	a5,a5,1
ffffffc050408bb2:	0007871b          	sext.w	a4,a5
ffffffc050408bb6:	007f7797          	auipc	a5,0x7f7
ffffffc050408bba:	45678793          	addi	a5,a5,1110 # ffffffc050c0000c <FramesRx>
ffffffc050408bbe:	c398                	sw	a4,0(a5)
ffffffc050408bc0:	003f7797          	auipc	a5,0x3f7
ffffffc050408bc4:	44078793          	addi	a5,a5,1088 # ffffffc050800000 <RxFrame>
ffffffc050408bc8:	60000593          	li	a1,1536
ffffffc050408bcc:	853e                	mv	a0,a5
ffffffc050408bce:	b89fe0ef          	jal	ra,ffffffc050407756 <Xil_DCacheInvalidateRange>
ffffffc050408bd2:	0001                	nop
ffffffc050408bd4:	70a2                	ld	ra,40(sp)
ffffffc050408bd6:	7402                	ld	s0,32(sp)
ffffffc050408bd8:	6145                	addi	sp,sp,48
ffffffc050408bda:	8082                	ret

ffffffc050408bdc <XEmacPsErrorHandler>:
ffffffc050408bdc:	7179                	addi	sp,sp,-48
ffffffc050408bde:	f406                	sd	ra,40(sp)
ffffffc050408be0:	f022                	sd	s0,32(sp)
ffffffc050408be2:	1800                	addi	s0,sp,48
ffffffc050408be4:	fca43c23          	sd	a0,-40(s0)
ffffffc050408be8:	87ae                	mv	a5,a1
ffffffc050408bea:	8732                	mv	a4,a2
ffffffc050408bec:	fcf40ba3          	sb	a5,-41(s0)
ffffffc050408bf0:	87ba                	mv	a5,a4
ffffffc050408bf2:	fcf42823          	sw	a5,-48(s0)
ffffffc050408bf6:	fd843783          	ld	a5,-40(s0)
ffffffc050408bfa:	fef43423          	sd	a5,-24(s0)
ffffffc050408bfe:	007f7797          	auipc	a5,0x7f7
ffffffc050408c02:	40678793          	addi	a5,a5,1030 # ffffffc050c00004 <DeviceErrors>
ffffffc050408c06:	439c                	lw	a5,0(a5)
ffffffc050408c08:	2781                	sext.w	a5,a5
ffffffc050408c0a:	2785                	addiw	a5,a5,1
ffffffc050408c0c:	0007871b          	sext.w	a4,a5
ffffffc050408c10:	007f7797          	auipc	a5,0x7f7
ffffffc050408c14:	3f478793          	addi	a5,a5,1012 # ffffffc050c00004 <DeviceErrors>
ffffffc050408c18:	c398                	sw	a4,0(a5)
ffffffc050408c1a:	fd744783          	lbu	a5,-41(s0)
ffffffc050408c1e:	0007871b          	sext.w	a4,a5
ffffffc050408c22:	86ba                	mv	a3,a4
ffffffc050408c24:	4785                	li	a5,1
ffffffc050408c26:	04f68763          	beq	a3,a5,ffffffc050408c74 <XEmacPsErrorHandler+0x98>
ffffffc050408c2a:	4789                	li	a5,2
ffffffc050408c2c:	0cf71c63          	bne	a4,a5,ffffffc050408d04 <XEmacPsErrorHandler+0x128>
ffffffc050408c30:	fd042783          	lw	a5,-48(s0)
ffffffc050408c34:	8ba1                	andi	a5,a5,8
ffffffc050408c36:	2781                	sext.w	a5,a5
ffffffc050408c38:	c799                	beqz	a5,ffffffc050408c46 <XEmacPsErrorHandler+0x6a>
ffffffc050408c3a:	00005517          	auipc	a0,0x5
ffffffc050408c3e:	ade50513          	addi	a0,a0,-1314 # ffffffc05040d718 <__FUNCTION__.2047+0x798>
ffffffc050408c42:	d32fe0ef          	jal	ra,ffffffc050407174 <EmacPsUtilErrorTrap>
ffffffc050408c46:	fd042783          	lw	a5,-48(s0)
ffffffc050408c4a:	8b91                	andi	a5,a5,4
ffffffc050408c4c:	2781                	sext.w	a5,a5
ffffffc050408c4e:	c799                	beqz	a5,ffffffc050408c5c <XEmacPsErrorHandler+0x80>
ffffffc050408c50:	00005517          	auipc	a0,0x5
ffffffc050408c54:	ae050513          	addi	a0,a0,-1312 # ffffffc05040d730 <__FUNCTION__.2047+0x7b0>
ffffffc050408c58:	d1cfe0ef          	jal	ra,ffffffc050407174 <EmacPsUtilErrorTrap>
ffffffc050408c5c:	fd042783          	lw	a5,-48(s0)
ffffffc050408c60:	8b85                	andi	a5,a5,1
ffffffc050408c62:	2781                	sext.w	a5,a5
ffffffc050408c64:	cfc9                	beqz	a5,ffffffc050408cfe <XEmacPsErrorHandler+0x122>
ffffffc050408c66:	00005517          	auipc	a0,0x5
ffffffc050408c6a:	ae250513          	addi	a0,a0,-1310 # ffffffc05040d748 <__FUNCTION__.2047+0x7c8>
ffffffc050408c6e:	d06fe0ef          	jal	ra,ffffffc050407174 <EmacPsUtilErrorTrap>
ffffffc050408c72:	a071                	j	ffffffc050408cfe <XEmacPsErrorHandler+0x122>
ffffffc050408c74:	fd042783          	lw	a5,-48(s0)
ffffffc050408c78:	1007f793          	andi	a5,a5,256
ffffffc050408c7c:	2781                	sext.w	a5,a5
ffffffc050408c7e:	c799                	beqz	a5,ffffffc050408c8c <XEmacPsErrorHandler+0xb0>
ffffffc050408c80:	00005517          	auipc	a0,0x5
ffffffc050408c84:	ae850513          	addi	a0,a0,-1304 # ffffffc05040d768 <__FUNCTION__.2047+0x7e8>
ffffffc050408c88:	cecfe0ef          	jal	ra,ffffffc050407174 <EmacPsUtilErrorTrap>
ffffffc050408c8c:	fd042783          	lw	a5,-48(s0)
ffffffc050408c90:	0407f793          	andi	a5,a5,64
ffffffc050408c94:	2781                	sext.w	a5,a5
ffffffc050408c96:	c799                	beqz	a5,ffffffc050408ca4 <XEmacPsErrorHandler+0xc8>
ffffffc050408c98:	00005517          	auipc	a0,0x5
ffffffc050408c9c:	ae850513          	addi	a0,a0,-1304 # ffffffc05040d780 <__FUNCTION__.2047+0x800>
ffffffc050408ca0:	cd4fe0ef          	jal	ra,ffffffc050407174 <EmacPsUtilErrorTrap>
ffffffc050408ca4:	fd042783          	lw	a5,-48(s0)
ffffffc050408ca8:	8bc1                	andi	a5,a5,16
ffffffc050408caa:	2781                	sext.w	a5,a5
ffffffc050408cac:	c799                	beqz	a5,ffffffc050408cba <XEmacPsErrorHandler+0xde>
ffffffc050408cae:	00005517          	auipc	a0,0x5
ffffffc050408cb2:	aea50513          	addi	a0,a0,-1302 # ffffffc05040d798 <__FUNCTION__.2047+0x818>
ffffffc050408cb6:	cbefe0ef          	jal	ra,ffffffc050407174 <EmacPsUtilErrorTrap>
ffffffc050408cba:	fd042783          	lw	a5,-48(s0)
ffffffc050408cbe:	8b91                	andi	a5,a5,4
ffffffc050408cc0:	2781                	sext.w	a5,a5
ffffffc050408cc2:	c799                	beqz	a5,ffffffc050408cd0 <XEmacPsErrorHandler+0xf4>
ffffffc050408cc4:	00005517          	auipc	a0,0x5
ffffffc050408cc8:	af450513          	addi	a0,a0,-1292 # ffffffc05040d7b8 <__FUNCTION__.2047+0x838>
ffffffc050408ccc:	ca8fe0ef          	jal	ra,ffffffc050407174 <EmacPsUtilErrorTrap>
ffffffc050408cd0:	fd042783          	lw	a5,-48(s0)
ffffffc050408cd4:	8b89                	andi	a5,a5,2
ffffffc050408cd6:	2781                	sext.w	a5,a5
ffffffc050408cd8:	c799                	beqz	a5,ffffffc050408ce6 <XEmacPsErrorHandler+0x10a>
ffffffc050408cda:	00005517          	auipc	a0,0x5
ffffffc050408cde:	afe50513          	addi	a0,a0,-1282 # ffffffc05040d7d8 <__FUNCTION__.2047+0x858>
ffffffc050408ce2:	c92fe0ef          	jal	ra,ffffffc050407174 <EmacPsUtilErrorTrap>
ffffffc050408ce6:	fd042783          	lw	a5,-48(s0)
ffffffc050408cea:	8b85                	andi	a5,a5,1
ffffffc050408cec:	2781                	sext.w	a5,a5
ffffffc050408cee:	cb91                	beqz	a5,ffffffc050408d02 <XEmacPsErrorHandler+0x126>
ffffffc050408cf0:	00005517          	auipc	a0,0x5
ffffffc050408cf4:	b0050513          	addi	a0,a0,-1280 # ffffffc05040d7f0 <__FUNCTION__.2047+0x870>
ffffffc050408cf8:	c7cfe0ef          	jal	ra,ffffffc050407174 <EmacPsUtilErrorTrap>
ffffffc050408cfc:	a019                	j	ffffffc050408d02 <XEmacPsErrorHandler+0x126>
ffffffc050408cfe:	0001                	nop
ffffffc050408d00:	a011                	j	ffffffc050408d04 <XEmacPsErrorHandler+0x128>
ffffffc050408d02:	0001                	nop
ffffffc050408d04:	003f8797          	auipc	a5,0x3f8
ffffffc050408d08:	f4c78793          	addi	a5,a5,-180 # ffffffc050800c50 <GemVersion>
ffffffc050408d0c:	439c                	lw	a5,0(a5)
ffffffc050408d0e:	873e                	mv	a4,a5
ffffffc050408d10:	4789                	li	a5,2
ffffffc050408d12:	00f71663          	bne	a4,a5,ffffffc050408d1e <XEmacPsErrorHandler+0x142>
ffffffc050408d16:	fe843503          	ld	a0,-24(s0)
ffffffc050408d1a:	bd5ff0ef          	jal	ra,ffffffc0504088ee <EmacPsResetDevice>
ffffffc050408d1e:	0001                	nop
ffffffc050408d20:	70a2                	ld	ra,40(sp)
ffffffc050408d22:	7402                	ld	s0,32(sp)
ffffffc050408d24:	6145                	addi	sp,sp,48
ffffffc050408d26:	8082                	ret

ffffffc050408d28 <XEmacPsClkSetup>:
ffffffc050408d28:	7179                	addi	sp,sp,-48
ffffffc050408d2a:	f422                	sd	s0,40(sp)
ffffffc050408d2c:	1800                	addi	s0,sp,48
ffffffc050408d2e:	fca43c23          	sd	a0,-40(s0)
ffffffc050408d32:	003f8797          	auipc	a5,0x3f8
ffffffc050408d36:	f1e78793          	addi	a5,a5,-226 # ffffffc050800c50 <GemVersion>
ffffffc050408d3a:	439c                	lw	a5,0(a5)
ffffffc050408d3c:	873e                	mv	a4,a5
ffffffc050408d3e:	4789                	li	a5,2
ffffffc050408d40:	0af71363          	bne	a4,a5,ffffffc050408de6 <XEmacPsClkSetup+0xbe>
ffffffc050408d44:	003f8797          	auipc	a5,0x3f8
ffffffc050408d48:	f0478793          	addi	a5,a5,-252 # ffffffc050800c48 <XPS_SYS_CTRL_BASEADDR>
ffffffc050408d4c:	639c                	ld	a5,0(a5)
ffffffc050408d4e:	07a1                	addi	a5,a5,8
ffffffc050408d50:	873e                	mv	a4,a5
ffffffc050408d52:	67b9                	lui	a5,0xe
ffffffc050408d54:	f0d78793          	addi	a5,a5,-243 # df0d <_start-0xffffffc0503f20f3>
ffffffc050408d58:	c31c                	sw	a5,0(a4)
ffffffc050408d5a:	003f8797          	auipc	a5,0x3f8
ffffffc050408d5e:	eee78793          	addi	a5,a5,-274 # ffffffc050800c48 <XPS_SYS_CTRL_BASEADDR>
ffffffc050408d62:	639c                	ld	a5,0(a5)
ffffffc050408d64:	14078793          	addi	a5,a5,320
ffffffc050408d68:	439c                	lw	a5,0(a5)
ffffffc050408d6a:	fef42223          	sw	a5,-28(s0)
ffffffc050408d6e:	fe442703          	lw	a4,-28(s0)
ffffffc050408d72:	fc0fc7b7          	lui	a5,0xfc0fc
ffffffc050408d76:	0ff78793          	addi	a5,a5,255 # fffffffffc0fc0ff <__BSS_END__+0x3fab4f91df>
ffffffc050408d7a:	8ff9                	and	a5,a5,a4
ffffffc050408d7c:	fef42223          	sw	a5,-28(s0)
ffffffc050408d80:	fe442703          	lw	a4,-28(s0)
ffffffc050408d84:	001007b7          	lui	a5,0x100
ffffffc050408d88:	8fd9                	or	a5,a5,a4
ffffffc050408d8a:	fef42223          	sw	a5,-28(s0)
ffffffc050408d8e:	fe442703          	lw	a4,-28(s0)
ffffffc050408d92:	6785                	lui	a5,0x1
ffffffc050408d94:	80078793          	addi	a5,a5,-2048 # 800 <_start-0xffffffc0503ff800>
ffffffc050408d98:	8fd9                	or	a5,a5,a4
ffffffc050408d9a:	fef42223          	sw	a5,-28(s0)
ffffffc050408d9e:	003f8797          	auipc	a5,0x3f8
ffffffc050408da2:	eaa78793          	addi	a5,a5,-342 # ffffffc050800c48 <XPS_SYS_CTRL_BASEADDR>
ffffffc050408da6:	639c                	ld	a5,0(a5)
ffffffc050408da8:	14078793          	addi	a5,a5,320
ffffffc050408dac:	873e                	mv	a4,a5
ffffffc050408dae:	fe442783          	lw	a5,-28(s0)
ffffffc050408db2:	c31c                	sw	a5,0(a4)
ffffffc050408db4:	003f8797          	auipc	a5,0x3f8
ffffffc050408db8:	e9478793          	addi	a5,a5,-364 # ffffffc050800c48 <XPS_SYS_CTRL_BASEADDR>
ffffffc050408dbc:	639c                	ld	a5,0(a5)
ffffffc050408dbe:	0791                	addi	a5,a5,4
ffffffc050408dc0:	873e                	mv	a4,a5
ffffffc050408dc2:	679d                	lui	a5,0x7
ffffffc050408dc4:	67b78793          	addi	a5,a5,1659 # 767b <_start-0xffffffc0503f8985>
ffffffc050408dc8:	c31c                	sw	a5,0(a4)
ffffffc050408dca:	fe043423          	sd	zero,-24(s0)
ffffffc050408dce:	a031                	j	ffffffc050408dda <XEmacPsClkSetup+0xb2>
ffffffc050408dd0:	fe843783          	ld	a5,-24(s0)
ffffffc050408dd4:	0785                	addi	a5,a5,1
ffffffc050408dd6:	fef43423          	sd	a5,-24(s0)
ffffffc050408dda:	fe843703          	ld	a4,-24(s0)
ffffffc050408dde:	67c1                	lui	a5,0x10
ffffffc050408de0:	17f9                	addi	a5,a5,-2
ffffffc050408de2:	fee7f7e3          	bgeu	a5,a4,ffffffc050408dd0 <XEmacPsClkSetup+0xa8>
ffffffc050408de6:	0001                	nop
ffffffc050408de8:	7422                	ld	s0,40(sp)
ffffffc050408dea:	6145                	addi	sp,sp,48
ffffffc050408dec:	8082                	ret

ffffffc050408dee <init_list_head>:
ffffffc050408dee:	1101                	addi	sp,sp,-32
ffffffc050408df0:	ec22                	sd	s0,24(sp)
ffffffc050408df2:	1000                	addi	s0,sp,32
ffffffc050408df4:	fea43423          	sd	a0,-24(s0)
ffffffc050408df8:	fe843783          	ld	a5,-24(s0)
ffffffc050408dfc:	fe843703          	ld	a4,-24(s0)
ffffffc050408e00:	e398                	sd	a4,0(a5)
ffffffc050408e02:	fe843783          	ld	a5,-24(s0)
ffffffc050408e06:	fe843703          	ld	a4,-24(s0)
ffffffc050408e0a:	e798                	sd	a4,8(a5)
ffffffc050408e0c:	0001                	nop
ffffffc050408e0e:	6462                	ld	s0,24(sp)
ffffffc050408e10:	6105                	addi	sp,sp,32
ffffffc050408e12:	8082                	ret

ffffffc050408e14 <list_empty>:
ffffffc050408e14:	1101                	addi	sp,sp,-32
ffffffc050408e16:	ec22                	sd	s0,24(sp)
ffffffc050408e18:	1000                	addi	s0,sp,32
ffffffc050408e1a:	fea43423          	sd	a0,-24(s0)
ffffffc050408e1e:	fe843783          	ld	a5,-24(s0)
ffffffc050408e22:	639c                	ld	a5,0(a5)
ffffffc050408e24:	fe843703          	ld	a4,-24(s0)
ffffffc050408e28:	40f707b3          	sub	a5,a4,a5
ffffffc050408e2c:	0017b793          	seqz	a5,a5
ffffffc050408e30:	0ff7f793          	andi	a5,a5,255
ffffffc050408e34:	2781                	sext.w	a5,a5
ffffffc050408e36:	853e                	mv	a0,a5
ffffffc050408e38:	6462                	ld	s0,24(sp)
ffffffc050408e3a:	6105                	addi	sp,sp,32
ffffffc050408e3c:	8082                	ret

ffffffc050408e3e <atomic_swap_d>:
ffffffc050408e3e:	7179                	addi	sp,sp,-48
ffffffc050408e40:	f422                	sd	s0,40(sp)
ffffffc050408e42:	1800                	addi	s0,sp,48
ffffffc050408e44:	fca43c23          	sd	a0,-40(s0)
ffffffc050408e48:	fcb43823          	sd	a1,-48(s0)
ffffffc050408e4c:	fd043783          	ld	a5,-48(s0)
ffffffc050408e50:	fd843703          	ld	a4,-40(s0)
ffffffc050408e54:	0ee7b72f          	amoswap.d.aqrl	a4,a4,(a5)
ffffffc050408e58:	fee43423          	sd	a4,-24(s0)
ffffffc050408e5c:	fe843783          	ld	a5,-24(s0)
ffffffc050408e60:	853e                	mv	a0,a5
ffffffc050408e62:	7422                	ld	s0,40(sp)
ffffffc050408e64:	6145                	addi	sp,sp,48
ffffffc050408e66:	8082                	ret

ffffffc050408e68 <spin_lock_init>:
ffffffc050408e68:	1101                	addi	sp,sp,-32
ffffffc050408e6a:	ec22                	sd	s0,24(sp)
ffffffc050408e6c:	1000                	addi	s0,sp,32
ffffffc050408e6e:	fea43423          	sd	a0,-24(s0)
ffffffc050408e72:	fe843783          	ld	a5,-24(s0)
ffffffc050408e76:	0007a023          	sw	zero,0(a5) # 10000 <_start-0xffffffc0503f0000>
ffffffc050408e7a:	0001                	nop
ffffffc050408e7c:	6462                	ld	s0,24(sp)
ffffffc050408e7e:	6105                	addi	sp,sp,32
ffffffc050408e80:	8082                	ret

ffffffc050408e82 <spin_lock_try_acquire>:
ffffffc050408e82:	1101                	addi	sp,sp,-32
ffffffc050408e84:	ec06                	sd	ra,24(sp)
ffffffc050408e86:	e822                	sd	s0,16(sp)
ffffffc050408e88:	1000                	addi	s0,sp,32
ffffffc050408e8a:	fea43423          	sd	a0,-24(s0)
ffffffc050408e8e:	fe843783          	ld	a5,-24(s0)
ffffffc050408e92:	85be                	mv	a1,a5
ffffffc050408e94:	4505                	li	a0,1
ffffffc050408e96:	fa9ff0ef          	jal	ra,ffffffc050408e3e <atomic_swap_d>
ffffffc050408e9a:	87aa                	mv	a5,a0
ffffffc050408e9c:	2781                	sext.w	a5,a5
ffffffc050408e9e:	853e                	mv	a0,a5
ffffffc050408ea0:	60e2                	ld	ra,24(sp)
ffffffc050408ea2:	6442                	ld	s0,16(sp)
ffffffc050408ea4:	6105                	addi	sp,sp,32
ffffffc050408ea6:	8082                	ret

ffffffc050408ea8 <spin_lock_acquire>:
ffffffc050408ea8:	1101                	addi	sp,sp,-32
ffffffc050408eaa:	ec06                	sd	ra,24(sp)
ffffffc050408eac:	e822                	sd	s0,16(sp)
ffffffc050408eae:	1000                	addi	s0,sp,32
ffffffc050408eb0:	fea43423          	sd	a0,-24(s0)
ffffffc050408eb4:	0001                	nop
ffffffc050408eb6:	fe843503          	ld	a0,-24(s0)
ffffffc050408eba:	fc9ff0ef          	jal	ra,ffffffc050408e82 <spin_lock_try_acquire>
ffffffc050408ebe:	87aa                	mv	a5,a0
ffffffc050408ec0:	873e                	mv	a4,a5
ffffffc050408ec2:	4785                	li	a5,1
ffffffc050408ec4:	fef709e3          	beq	a4,a5,ffffffc050408eb6 <spin_lock_acquire+0xe>
ffffffc050408ec8:	0001                	nop
ffffffc050408eca:	0001                	nop
ffffffc050408ecc:	60e2                	ld	ra,24(sp)
ffffffc050408ece:	6442                	ld	s0,16(sp)
ffffffc050408ed0:	6105                	addi	sp,sp,32
ffffffc050408ed2:	8082                	ret

ffffffc050408ed4 <spin_lock_release>:
ffffffc050408ed4:	1101                	addi	sp,sp,-32
ffffffc050408ed6:	ec22                	sd	s0,24(sp)
ffffffc050408ed8:	1000                	addi	s0,sp,32
ffffffc050408eda:	fea43423          	sd	a0,-24(s0)
ffffffc050408ede:	fe843783          	ld	a5,-24(s0)
ffffffc050408ee2:	0007a023          	sw	zero,0(a5)
ffffffc050408ee6:	0001                	nop
ffffffc050408ee8:	6462                	ld	s0,24(sp)
ffffffc050408eea:	6105                	addi	sp,sp,32
ffffffc050408eec:	8082                	ret

ffffffc050408eee <do_mutex_lock_init>:
ffffffc050408eee:	1101                	addi	sp,sp,-32
ffffffc050408ef0:	ec06                	sd	ra,24(sp)
ffffffc050408ef2:	e822                	sd	s0,16(sp)
ffffffc050408ef4:	1000                	addi	s0,sp,32
ffffffc050408ef6:	fea43423          	sd	a0,-24(s0)
ffffffc050408efa:	fe843783          	ld	a5,-24(s0)
ffffffc050408efe:	07a1                	addi	a5,a5,8
ffffffc050408f00:	853e                	mv	a0,a5
ffffffc050408f02:	eedff0ef          	jal	ra,ffffffc050408dee <init_list_head>
ffffffc050408f06:	fe843783          	ld	a5,-24(s0)
ffffffc050408f0a:	0007a023          	sw	zero,0(a5)
ffffffc050408f0e:	0001                	nop
ffffffc050408f10:	60e2                	ld	ra,24(sp)
ffffffc050408f12:	6442                	ld	s0,16(sp)
ffffffc050408f14:	6105                	addi	sp,sp,32
ffffffc050408f16:	8082                	ret

ffffffc050408f18 <do_mutex_lock_acquire>:
ffffffc050408f18:	1101                	addi	sp,sp,-32
ffffffc050408f1a:	ec06                	sd	ra,24(sp)
ffffffc050408f1c:	e822                	sd	s0,16(sp)
ffffffc050408f1e:	1000                	addi	s0,sp,32
ffffffc050408f20:	fea43423          	sd	a0,-24(s0)
ffffffc050408f24:	bacf70ef          	jal	ra,ffffffc0504002d0 <get_current_cpu_id>
ffffffc050408f28:	87aa                	mv	a5,a0
ffffffc050408f2a:	e791                	bnez	a5,ffffffc050408f36 <do_mutex_lock_acquire+0x1e>
ffffffc050408f2c:	001f9797          	auipc	a5,0x1f9
ffffffc050408f30:	0b478793          	addi	a5,a5,180 # ffffffc050601fe0 <current_running_core0>
ffffffc050408f34:	a029                	j	ffffffc050408f3e <do_mutex_lock_acquire+0x26>
ffffffc050408f36:	001f9797          	auipc	a5,0x1f9
ffffffc050408f3a:	0a278793          	addi	a5,a5,162 # ffffffc050601fd8 <current_running_core1>
ffffffc050408f3e:	007f8717          	auipc	a4,0x7f8
ffffffc050408f42:	75270713          	addi	a4,a4,1874 # ffffffc050c01690 <current_running>
ffffffc050408f46:	e31c                	sd	a5,0(a4)
ffffffc050408f48:	fe843783          	ld	a5,-24(s0)
ffffffc050408f4c:	439c                	lw	a5,0(a5)
ffffffc050408f4e:	2781                	sext.w	a5,a5
ffffffc050408f50:	873e                	mv	a4,a5
ffffffc050408f52:	4785                	li	a5,1
ffffffc050408f54:	02f71063          	bne	a4,a5,ffffffc050408f74 <do_mutex_lock_acquire+0x5c>
ffffffc050408f58:	007f8797          	auipc	a5,0x7f8
ffffffc050408f5c:	73878793          	addi	a5,a5,1848 # ffffffc050c01690 <current_running>
ffffffc050408f60:	639c                	ld	a5,0(a5)
ffffffc050408f62:	6398                	ld	a4,0(a5)
ffffffc050408f64:	fe843783          	ld	a5,-24(s0)
ffffffc050408f68:	07a1                	addi	a5,a5,8
ffffffc050408f6a:	85be                	mv	a1,a5
ffffffc050408f6c:	853a                	mv	a0,a4
ffffffc050408f6e:	229010ef          	jal	ra,ffffffc05040a996 <do_block>
ffffffc050408f72:	a029                	j	ffffffc050408f7c <do_mutex_lock_acquire+0x64>
ffffffc050408f74:	fe843783          	ld	a5,-24(s0)
ffffffc050408f78:	4705                	li	a4,1
ffffffc050408f7a:	c398                	sw	a4,0(a5)
ffffffc050408f7c:	0001                	nop
ffffffc050408f7e:	60e2                	ld	ra,24(sp)
ffffffc050408f80:	6442                	ld	s0,16(sp)
ffffffc050408f82:	6105                	addi	sp,sp,32
ffffffc050408f84:	8082                	ret

ffffffc050408f86 <do_mutex_lock_release>:
ffffffc050408f86:	1101                	addi	sp,sp,-32
ffffffc050408f88:	ec06                	sd	ra,24(sp)
ffffffc050408f8a:	e822                	sd	s0,16(sp)
ffffffc050408f8c:	1000                	addi	s0,sp,32
ffffffc050408f8e:	fea43423          	sd	a0,-24(s0)
ffffffc050408f92:	fe843783          	ld	a5,-24(s0)
ffffffc050408f96:	07a1                	addi	a5,a5,8
ffffffc050408f98:	853e                	mv	a0,a5
ffffffc050408f9a:	e7bff0ef          	jal	ra,ffffffc050408e14 <list_empty>
ffffffc050408f9e:	87aa                	mv	a5,a0
ffffffc050408fa0:	c791                	beqz	a5,ffffffc050408fac <do_mutex_lock_release+0x26>
ffffffc050408fa2:	fe843783          	ld	a5,-24(s0)
ffffffc050408fa6:	0007a023          	sw	zero,0(a5)
ffffffc050408faa:	a039                	j	ffffffc050408fb8 <do_mutex_lock_release+0x32>
ffffffc050408fac:	fe843783          	ld	a5,-24(s0)
ffffffc050408fb0:	07a1                	addi	a5,a5,8
ffffffc050408fb2:	853e                	mv	a0,a5
ffffffc050408fb4:	2b3010ef          	jal	ra,ffffffc05040aa66 <do_unblock>
ffffffc050408fb8:	0001                	nop
ffffffc050408fba:	60e2                	ld	ra,24(sp)
ffffffc050408fbc:	6442                	ld	s0,16(sp)
ffffffc050408fbe:	6105                	addi	sp,sp,32
ffffffc050408fc0:	8082                	ret

ffffffc050408fc2 <id_gen>:
ffffffc050408fc2:	1101                	addi	sp,sp,-32
ffffffc050408fc4:	ec06                	sd	ra,24(sp)
ffffffc050408fc6:	e822                	sd	s0,16(sp)
ffffffc050408fc8:	1000                	addi	s0,sp,32
ffffffc050408fca:	6ad010ef          	jal	ra,ffffffc05040ae76 <get_ticks>
ffffffc050408fce:	fea43423          	sd	a0,-24(s0)
ffffffc050408fd2:	fe843783          	ld	a5,-24(s0)
ffffffc050408fd6:	0ff7f793          	andi	a5,a5,255
ffffffc050408fda:	2781                	sext.w	a5,a5
ffffffc050408fdc:	853e                	mv	a0,a5
ffffffc050408fde:	60e2                	ld	ra,24(sp)
ffffffc050408fe0:	6442                	ld	s0,16(sp)
ffffffc050408fe2:	6105                	addi	sp,sp,32
ffffffc050408fe4:	8082                	ret

ffffffc050408fe6 <kernel_semget>:
ffffffc050408fe6:	7179                	addi	sp,sp,-48
ffffffc050408fe8:	f406                	sd	ra,40(sp)
ffffffc050408fea:	f022                	sd	s0,32(sp)
ffffffc050408fec:	1800                	addi	s0,sp,48
ffffffc050408fee:	87aa                	mv	a5,a0
ffffffc050408ff0:	fcf42e23          	sw	a5,-36(s0)
ffffffc050408ff4:	fe042423          	sw	zero,-24(s0)
ffffffc050408ff8:	a891                	j	ffffffc05040904c <kernel_semget+0x66>
ffffffc050408ffa:	007f7717          	auipc	a4,0x7f7
ffffffc050408ffe:	05670713          	addi	a4,a4,86 # ffffffc050c00050 <sem_list>
ffffffc050409002:	fe842783          	lw	a5,-24(s0)
ffffffc050409006:	078e                	slli	a5,a5,0x3
ffffffc050409008:	97ba                	add	a5,a5,a4
ffffffc05040900a:	639c                	ld	a5,0(a5)
ffffffc05040900c:	cb9d                	beqz	a5,ffffffc050409042 <kernel_semget+0x5c>
ffffffc05040900e:	007f7717          	auipc	a4,0x7f7
ffffffc050409012:	04270713          	addi	a4,a4,66 # ffffffc050c00050 <sem_list>
ffffffc050409016:	fe842783          	lw	a5,-24(s0)
ffffffc05040901a:	078e                	slli	a5,a5,0x3
ffffffc05040901c:	97ba                	add	a5,a5,a4
ffffffc05040901e:	639c                	ld	a5,0(a5)
ffffffc050409020:	43d8                	lw	a4,4(a5)
ffffffc050409022:	fdc42783          	lw	a5,-36(s0)
ffffffc050409026:	2781                	sext.w	a5,a5
ffffffc050409028:	00e79d63          	bne	a5,a4,ffffffc050409042 <kernel_semget+0x5c>
ffffffc05040902c:	007f7717          	auipc	a4,0x7f7
ffffffc050409030:	02470713          	addi	a4,a4,36 # ffffffc050c00050 <sem_list>
ffffffc050409034:	fe842783          	lw	a5,-24(s0)
ffffffc050409038:	078e                	slli	a5,a5,0x3
ffffffc05040903a:	97ba                	add	a5,a5,a4
ffffffc05040903c:	639c                	ld	a5,0(a5)
ffffffc05040903e:	439c                	lw	a5,0(a5)
ffffffc050409040:	a851                	j	ffffffc0504090d4 <kernel_semget+0xee>
ffffffc050409042:	fe842783          	lw	a5,-24(s0)
ffffffc050409046:	2785                	addiw	a5,a5,1
ffffffc050409048:	fef42423          	sw	a5,-24(s0)
ffffffc05040904c:	fe842783          	lw	a5,-24(s0)
ffffffc050409050:	0007871b          	sext.w	a4,a5
ffffffc050409054:	0ff00793          	li	a5,255
ffffffc050409058:	fae7d1e3          	bge	a5,a4,ffffffc050408ffa <kernel_semget+0x14>
ffffffc05040905c:	f67ff0ef          	jal	ra,ffffffc050408fc2 <id_gen>
ffffffc050409060:	87aa                	mv	a5,a0
ffffffc050409062:	fef42623          	sw	a5,-20(s0)
ffffffc050409066:	a031                	j	ffffffc050409072 <kernel_semget+0x8c>
ffffffc050409068:	f5bff0ef          	jal	ra,ffffffc050408fc2 <id_gen>
ffffffc05040906c:	87aa                	mv	a5,a0
ffffffc05040906e:	fef42623          	sw	a5,-20(s0)
ffffffc050409072:	007f7717          	auipc	a4,0x7f7
ffffffc050409076:	fde70713          	addi	a4,a4,-34 # ffffffc050c00050 <sem_list>
ffffffc05040907a:	fec42783          	lw	a5,-20(s0)
ffffffc05040907e:	078e                	slli	a5,a5,0x3
ffffffc050409080:	97ba                	add	a5,a5,a4
ffffffc050409082:	639c                	ld	a5,0(a5)
ffffffc050409084:	f3f5                	bnez	a5,ffffffc050409068 <kernel_semget+0x82>
ffffffc050409086:	02000513          	li	a0,32
ffffffc05040908a:	092020ef          	jal	ra,ffffffc05040b11c <kmalloc>
ffffffc05040908e:	fea43023          	sd	a0,-32(s0)
ffffffc050409092:	fe043783          	ld	a5,-32(s0)
ffffffc050409096:	fec42703          	lw	a4,-20(s0)
ffffffc05040909a:	c398                	sw	a4,0(a5)
ffffffc05040909c:	fe043783          	ld	a5,-32(s0)
ffffffc0504090a0:	fdc42703          	lw	a4,-36(s0)
ffffffc0504090a4:	c3d8                	sw	a4,4(a5)
ffffffc0504090a6:	fe043783          	ld	a5,-32(s0)
ffffffc0504090aa:	0007a423          	sw	zero,8(a5)
ffffffc0504090ae:	fe043783          	ld	a5,-32(s0)
ffffffc0504090b2:	07c1                	addi	a5,a5,16
ffffffc0504090b4:	853e                	mv	a0,a5
ffffffc0504090b6:	d39ff0ef          	jal	ra,ffffffc050408dee <init_list_head>
ffffffc0504090ba:	007f7717          	auipc	a4,0x7f7
ffffffc0504090be:	f9670713          	addi	a4,a4,-106 # ffffffc050c00050 <sem_list>
ffffffc0504090c2:	fec42783          	lw	a5,-20(s0)
ffffffc0504090c6:	078e                	slli	a5,a5,0x3
ffffffc0504090c8:	97ba                	add	a5,a5,a4
ffffffc0504090ca:	fe043703          	ld	a4,-32(s0)
ffffffc0504090ce:	e398                	sd	a4,0(a5)
ffffffc0504090d0:	fec42783          	lw	a5,-20(s0)
ffffffc0504090d4:	853e                	mv	a0,a5
ffffffc0504090d6:	70a2                	ld	ra,40(sp)
ffffffc0504090d8:	7402                	ld	s0,32(sp)
ffffffc0504090da:	6145                	addi	sp,sp,48
ffffffc0504090dc:	8082                	ret

ffffffc0504090de <kernel_binsemop>:
ffffffc0504090de:	7179                	addi	sp,sp,-48
ffffffc0504090e0:	f406                	sd	ra,40(sp)
ffffffc0504090e2:	f022                	sd	s0,32(sp)
ffffffc0504090e4:	1800                	addi	s0,sp,48
ffffffc0504090e6:	87aa                	mv	a5,a0
ffffffc0504090e8:	872e                	mv	a4,a1
ffffffc0504090ea:	fcf42e23          	sw	a5,-36(s0)
ffffffc0504090ee:	87ba                	mv	a5,a4
ffffffc0504090f0:	fcf42c23          	sw	a5,-40(s0)
ffffffc0504090f4:	9dcf70ef          	jal	ra,ffffffc0504002d0 <get_current_cpu_id>
ffffffc0504090f8:	87aa                	mv	a5,a0
ffffffc0504090fa:	e791                	bnez	a5,ffffffc050409106 <kernel_binsemop+0x28>
ffffffc0504090fc:	001f9797          	auipc	a5,0x1f9
ffffffc050409100:	ee478793          	addi	a5,a5,-284 # ffffffc050601fe0 <current_running_core0>
ffffffc050409104:	a029                	j	ffffffc05040910e <kernel_binsemop+0x30>
ffffffc050409106:	001f9797          	auipc	a5,0x1f9
ffffffc05040910a:	ed278793          	addi	a5,a5,-302 # ffffffc050601fd8 <current_running_core1>
ffffffc05040910e:	007f8717          	auipc	a4,0x7f8
ffffffc050409112:	58270713          	addi	a4,a4,1410 # ffffffc050c01690 <current_running>
ffffffc050409116:	e31c                	sd	a5,0(a4)
ffffffc050409118:	007f7717          	auipc	a4,0x7f7
ffffffc05040911c:	f3870713          	addi	a4,a4,-200 # ffffffc050c00050 <sem_list>
ffffffc050409120:	fdc42783          	lw	a5,-36(s0)
ffffffc050409124:	078e                	slli	a5,a5,0x3
ffffffc050409126:	97ba                	add	a5,a5,a4
ffffffc050409128:	639c                	ld	a5,0(a5)
ffffffc05040912a:	fef43023          	sd	a5,-32(s0)
ffffffc05040912e:	fd842783          	lw	a5,-40(s0)
ffffffc050409132:	2781                	sext.w	a5,a5
ffffffc050409134:	e7d1                	bnez	a5,ffffffc0504091c0 <kernel_binsemop+0xe2>
ffffffc050409136:	fe043783          	ld	a5,-32(s0)
ffffffc05040913a:	479c                	lw	a5,8(a5)
ffffffc05040913c:	873e                	mv	a4,a5
ffffffc05040913e:	4785                	li	a5,1
ffffffc050409140:	02f71063          	bne	a4,a5,ffffffc050409160 <kernel_binsemop+0x82>
ffffffc050409144:	007f8797          	auipc	a5,0x7f8
ffffffc050409148:	54c78793          	addi	a5,a5,1356 # ffffffc050c01690 <current_running>
ffffffc05040914c:	639c                	ld	a5,0(a5)
ffffffc05040914e:	6398                	ld	a4,0(a5)
ffffffc050409150:	fe043783          	ld	a5,-32(s0)
ffffffc050409154:	07c1                	addi	a5,a5,16
ffffffc050409156:	85be                	mv	a1,a5
ffffffc050409158:	853a                	mv	a0,a4
ffffffc05040915a:	03d010ef          	jal	ra,ffffffc05040a996 <do_block>
ffffffc05040915e:	aa99                	j	ffffffc0504092b4 <kernel_binsemop+0x1d6>
ffffffc050409160:	970f70ef          	jal	ra,ffffffc0504002d0 <get_current_cpu_id>
ffffffc050409164:	87aa                	mv	a5,a0
ffffffc050409166:	e791                	bnez	a5,ffffffc050409172 <kernel_binsemop+0x94>
ffffffc050409168:	001f9797          	auipc	a5,0x1f9
ffffffc05040916c:	e7878793          	addi	a5,a5,-392 # ffffffc050601fe0 <current_running_core0>
ffffffc050409170:	a029                	j	ffffffc05040917a <kernel_binsemop+0x9c>
ffffffc050409172:	001f9797          	auipc	a5,0x1f9
ffffffc050409176:	e6678793          	addi	a5,a5,-410 # ffffffc050601fd8 <current_running_core1>
ffffffc05040917a:	007f8717          	auipc	a4,0x7f8
ffffffc05040917e:	51670713          	addi	a4,a4,1302 # ffffffc050c01690 <current_running>
ffffffc050409182:	e31c                	sd	a5,0(a4)
ffffffc050409184:	fe043783          	ld	a5,-32(s0)
ffffffc050409188:	4705                	li	a4,1
ffffffc05040918a:	c798                	sw	a4,8(a5)
ffffffc05040918c:	007f8797          	auipc	a5,0x7f8
ffffffc050409190:	50478793          	addi	a5,a5,1284 # ffffffc050c01690 <current_running>
ffffffc050409194:	639c                	ld	a5,0(a5)
ffffffc050409196:	6394                	ld	a3,0(a5)
ffffffc050409198:	007f8797          	auipc	a5,0x7f8
ffffffc05040919c:	4f878793          	addi	a5,a5,1272 # ffffffc050c01690 <current_running>
ffffffc0504091a0:	639c                	ld	a5,0(a5)
ffffffc0504091a2:	6398                	ld	a4,0(a5)
ffffffc0504091a4:	0ac72783          	lw	a5,172(a4)
ffffffc0504091a8:	0017861b          	addiw	a2,a5,1
ffffffc0504091ac:	2601                	sext.w	a2,a2
ffffffc0504091ae:	0ac72623          	sw	a2,172(a4)
ffffffc0504091b2:	07e1                	addi	a5,a5,24
ffffffc0504091b4:	078a                	slli	a5,a5,0x2
ffffffc0504091b6:	97b6                	add	a5,a5,a3
ffffffc0504091b8:	fdc42703          	lw	a4,-36(s0)
ffffffc0504091bc:	c7d8                	sw	a4,12(a5)
ffffffc0504091be:	a8dd                	j	ffffffc0504092b4 <kernel_binsemop+0x1d6>
ffffffc0504091c0:	fd842783          	lw	a5,-40(s0)
ffffffc0504091c4:	0007871b          	sext.w	a4,a5
ffffffc0504091c8:	4785                	li	a5,1
ffffffc0504091ca:	0cf71e63          	bne	a4,a5,ffffffc0504092a6 <kernel_binsemop+0x1c8>
ffffffc0504091ce:	fe043783          	ld	a5,-32(s0)
ffffffc0504091d2:	07c1                	addi	a5,a5,16
ffffffc0504091d4:	853e                	mv	a0,a5
ffffffc0504091d6:	c3fff0ef          	jal	ra,ffffffc050408e14 <list_empty>
ffffffc0504091da:	87aa                	mv	a5,a0
ffffffc0504091dc:	cfc1                	beqz	a5,ffffffc050409274 <kernel_binsemop+0x196>
ffffffc0504091de:	8f2f70ef          	jal	ra,ffffffc0504002d0 <get_current_cpu_id>
ffffffc0504091e2:	87aa                	mv	a5,a0
ffffffc0504091e4:	e791                	bnez	a5,ffffffc0504091f0 <kernel_binsemop+0x112>
ffffffc0504091e6:	001f9797          	auipc	a5,0x1f9
ffffffc0504091ea:	dfa78793          	addi	a5,a5,-518 # ffffffc050601fe0 <current_running_core0>
ffffffc0504091ee:	a029                	j	ffffffc0504091f8 <kernel_binsemop+0x11a>
ffffffc0504091f0:	001f9797          	auipc	a5,0x1f9
ffffffc0504091f4:	de878793          	addi	a5,a5,-536 # ffffffc050601fd8 <current_running_core1>
ffffffc0504091f8:	007f8717          	auipc	a4,0x7f8
ffffffc0504091fc:	49870713          	addi	a4,a4,1176 # ffffffc050c01690 <current_running>
ffffffc050409200:	e31c                	sd	a5,0(a4)
ffffffc050409202:	fe042623          	sw	zero,-20(s0)
ffffffc050409206:	a0a9                	j	ffffffc050409250 <kernel_binsemop+0x172>
ffffffc050409208:	007f8797          	auipc	a5,0x7f8
ffffffc05040920c:	48878793          	addi	a5,a5,1160 # ffffffc050c01690 <current_running>
ffffffc050409210:	639c                	ld	a5,0(a5)
ffffffc050409212:	6398                	ld	a4,0(a5)
ffffffc050409214:	fec42783          	lw	a5,-20(s0)
ffffffc050409218:	07e1                	addi	a5,a5,24
ffffffc05040921a:	078a                	slli	a5,a5,0x2
ffffffc05040921c:	97ba                	add	a5,a5,a4
ffffffc05040921e:	47d8                	lw	a4,12(a5)
ffffffc050409220:	fdc42783          	lw	a5,-36(s0)
ffffffc050409224:	2781                	sext.w	a5,a5
ffffffc050409226:	02e79063          	bne	a5,a4,ffffffc050409246 <kernel_binsemop+0x168>
ffffffc05040922a:	007f8797          	auipc	a5,0x7f8
ffffffc05040922e:	46678793          	addi	a5,a5,1126 # ffffffc050c01690 <current_running>
ffffffc050409232:	639c                	ld	a5,0(a5)
ffffffc050409234:	6398                	ld	a4,0(a5)
ffffffc050409236:	fec42783          	lw	a5,-20(s0)
ffffffc05040923a:	07e1                	addi	a5,a5,24
ffffffc05040923c:	078a                	slli	a5,a5,0x2
ffffffc05040923e:	97ba                	add	a5,a5,a4
ffffffc050409240:	577d                	li	a4,-1
ffffffc050409242:	c7d8                	sw	a4,12(a5)
ffffffc050409244:	a01d                	j	ffffffc05040926a <kernel_binsemop+0x18c>
ffffffc050409246:	fec42783          	lw	a5,-20(s0)
ffffffc05040924a:	2785                	addiw	a5,a5,1
ffffffc05040924c:	fef42623          	sw	a5,-20(s0)
ffffffc050409250:	007f8797          	auipc	a5,0x7f8
ffffffc050409254:	44078793          	addi	a5,a5,1088 # ffffffc050c01690 <current_running>
ffffffc050409258:	639c                	ld	a5,0(a5)
ffffffc05040925a:	639c                	ld	a5,0(a5)
ffffffc05040925c:	0ac7a703          	lw	a4,172(a5)
ffffffc050409260:	fec42783          	lw	a5,-20(s0)
ffffffc050409264:	2781                	sext.w	a5,a5
ffffffc050409266:	fae7c1e3          	blt	a5,a4,ffffffc050409208 <kernel_binsemop+0x12a>
ffffffc05040926a:	fe043783          	ld	a5,-32(s0)
ffffffc05040926e:	0007a423          	sw	zero,8(a5)
ffffffc050409272:	a089                	j	ffffffc0504092b4 <kernel_binsemop+0x1d6>
ffffffc050409274:	85cf70ef          	jal	ra,ffffffc0504002d0 <get_current_cpu_id>
ffffffc050409278:	87aa                	mv	a5,a0
ffffffc05040927a:	e791                	bnez	a5,ffffffc050409286 <kernel_binsemop+0x1a8>
ffffffc05040927c:	001f9797          	auipc	a5,0x1f9
ffffffc050409280:	d6478793          	addi	a5,a5,-668 # ffffffc050601fe0 <current_running_core0>
ffffffc050409284:	a029                	j	ffffffc05040928e <kernel_binsemop+0x1b0>
ffffffc050409286:	001f9797          	auipc	a5,0x1f9
ffffffc05040928a:	d5278793          	addi	a5,a5,-686 # ffffffc050601fd8 <current_running_core1>
ffffffc05040928e:	007f8717          	auipc	a4,0x7f8
ffffffc050409292:	40270713          	addi	a4,a4,1026 # ffffffc050c01690 <current_running>
ffffffc050409296:	e31c                	sd	a5,0(a4)
ffffffc050409298:	fe043783          	ld	a5,-32(s0)
ffffffc05040929c:	6b9c                	ld	a5,16(a5)
ffffffc05040929e:	853e                	mv	a0,a5
ffffffc0504092a0:	7c6010ef          	jal	ra,ffffffc05040aa66 <do_unblock>
ffffffc0504092a4:	a801                	j	ffffffc0504092b4 <kernel_binsemop+0x1d6>
ffffffc0504092a6:	00004517          	auipc	a0,0x4
ffffffc0504092aa:	56a50513          	addi	a0,a0,1386 # ffffffc05040d810 <__FUNCTION__.2047+0x890>
ffffffc0504092ae:	65e030ef          	jal	ra,ffffffc05040c90c <prints>
ffffffc0504092b2:	a001                	j	ffffffc0504092b2 <kernel_binsemop+0x1d4>
ffffffc0504092b4:	0001                	nop
ffffffc0504092b6:	853e                	mv	a0,a5
ffffffc0504092b8:	70a2                	ld	ra,40(sp)
ffffffc0504092ba:	7402                	ld	s0,32(sp)
ffffffc0504092bc:	6145                	addi	sp,sp,48
ffffffc0504092be:	8082                	ret

ffffffc0504092c0 <kernel_sem_wait>:
ffffffc0504092c0:	7179                	addi	sp,sp,-48
ffffffc0504092c2:	f406                	sd	ra,40(sp)
ffffffc0504092c4:	f022                	sd	s0,32(sp)
ffffffc0504092c6:	1800                	addi	s0,sp,48
ffffffc0504092c8:	87aa                	mv	a5,a0
ffffffc0504092ca:	872e                	mv	a4,a1
ffffffc0504092cc:	fcf42e23          	sw	a5,-36(s0)
ffffffc0504092d0:	87ba                	mv	a5,a4
ffffffc0504092d2:	fcf42c23          	sw	a5,-40(s0)
ffffffc0504092d6:	ffbf60ef          	jal	ra,ffffffc0504002d0 <get_current_cpu_id>
ffffffc0504092da:	87aa                	mv	a5,a0
ffffffc0504092dc:	e791                	bnez	a5,ffffffc0504092e8 <kernel_sem_wait+0x28>
ffffffc0504092de:	001f9797          	auipc	a5,0x1f9
ffffffc0504092e2:	d0278793          	addi	a5,a5,-766 # ffffffc050601fe0 <current_running_core0>
ffffffc0504092e6:	a029                	j	ffffffc0504092f0 <kernel_sem_wait+0x30>
ffffffc0504092e8:	001f9797          	auipc	a5,0x1f9
ffffffc0504092ec:	cf078793          	addi	a5,a5,-784 # ffffffc050601fd8 <current_running_core1>
ffffffc0504092f0:	007f8717          	auipc	a4,0x7f8
ffffffc0504092f4:	3a070713          	addi	a4,a4,928 # ffffffc050c01690 <current_running>
ffffffc0504092f8:	e31c                	sd	a5,0(a4)
ffffffc0504092fa:	007f7717          	auipc	a4,0x7f7
ffffffc0504092fe:	d5670713          	addi	a4,a4,-682 # ffffffc050c00050 <sem_list>
ffffffc050409302:	fdc42783          	lw	a5,-36(s0)
ffffffc050409306:	078e                	slli	a5,a5,0x3
ffffffc050409308:	97ba                	add	a5,a5,a4
ffffffc05040930a:	639c                	ld	a5,0(a5)
ffffffc05040930c:	fef43423          	sd	a5,-24(s0)
ffffffc050409310:	fe843783          	ld	a5,-24(s0)
ffffffc050409314:	479c                	lw	a5,8(a5)
ffffffc050409316:	2785                	addiw	a5,a5,1
ffffffc050409318:	0007871b          	sext.w	a4,a5
ffffffc05040931c:	fe843783          	ld	a5,-24(s0)
ffffffc050409320:	c798                	sw	a4,8(a5)
ffffffc050409322:	fd842783          	lw	a5,-40(s0)
ffffffc050409326:	4585                	li	a1,1
ffffffc050409328:	853e                	mv	a0,a5
ffffffc05040932a:	db5ff0ef          	jal	ra,ffffffc0504090de <kernel_binsemop>
ffffffc05040932e:	fa3f60ef          	jal	ra,ffffffc0504002d0 <get_current_cpu_id>
ffffffc050409332:	87aa                	mv	a5,a0
ffffffc050409334:	e791                	bnez	a5,ffffffc050409340 <kernel_sem_wait+0x80>
ffffffc050409336:	001f9797          	auipc	a5,0x1f9
ffffffc05040933a:	caa78793          	addi	a5,a5,-854 # ffffffc050601fe0 <current_running_core0>
ffffffc05040933e:	a029                	j	ffffffc050409348 <kernel_sem_wait+0x88>
ffffffc050409340:	001f9797          	auipc	a5,0x1f9
ffffffc050409344:	c9878793          	addi	a5,a5,-872 # ffffffc050601fd8 <current_running_core1>
ffffffc050409348:	007f8717          	auipc	a4,0x7f8
ffffffc05040934c:	34870713          	addi	a4,a4,840 # ffffffc050c01690 <current_running>
ffffffc050409350:	e31c                	sd	a5,0(a4)
ffffffc050409352:	007f8797          	auipc	a5,0x7f8
ffffffc050409356:	33e78793          	addi	a5,a5,830 # ffffffc050c01690 <current_running>
ffffffc05040935a:	639c                	ld	a5,0(a5)
ffffffc05040935c:	6398                	ld	a4,0(a5)
ffffffc05040935e:	fe843783          	ld	a5,-24(s0)
ffffffc050409362:	07c1                	addi	a5,a5,16
ffffffc050409364:	85be                	mv	a1,a5
ffffffc050409366:	853a                	mv	a0,a4
ffffffc050409368:	62e010ef          	jal	ra,ffffffc05040a996 <do_block>
ffffffc05040936c:	fd842783          	lw	a5,-40(s0)
ffffffc050409370:	4581                	li	a1,0
ffffffc050409372:	853e                	mv	a0,a5
ffffffc050409374:	d6bff0ef          	jal	ra,ffffffc0504090de <kernel_binsemop>
ffffffc050409378:	0001                	nop
ffffffc05040937a:	853e                	mv	a0,a5
ffffffc05040937c:	70a2                	ld	ra,40(sp)
ffffffc05040937e:	7402                	ld	s0,32(sp)
ffffffc050409380:	6145                	addi	sp,sp,48
ffffffc050409382:	8082                	ret

ffffffc050409384 <kernel_sem_signal>:
ffffffc050409384:	7179                	addi	sp,sp,-48
ffffffc050409386:	f406                	sd	ra,40(sp)
ffffffc050409388:	f022                	sd	s0,32(sp)
ffffffc05040938a:	1800                	addi	s0,sp,48
ffffffc05040938c:	87aa                	mv	a5,a0
ffffffc05040938e:	fcf42e23          	sw	a5,-36(s0)
ffffffc050409392:	007f7717          	auipc	a4,0x7f7
ffffffc050409396:	cbe70713          	addi	a4,a4,-834 # ffffffc050c00050 <sem_list>
ffffffc05040939a:	fdc42783          	lw	a5,-36(s0)
ffffffc05040939e:	078e                	slli	a5,a5,0x3
ffffffc0504093a0:	97ba                	add	a5,a5,a4
ffffffc0504093a2:	639c                	ld	a5,0(a5)
ffffffc0504093a4:	fef43423          	sd	a5,-24(s0)
ffffffc0504093a8:	fe843783          	ld	a5,-24(s0)
ffffffc0504093ac:	479c                	lw	a5,8(a5)
ffffffc0504093ae:	00f05863          	blez	a5,ffffffc0504093be <kernel_sem_signal+0x3a>
ffffffc0504093b2:	fe843783          	ld	a5,-24(s0)
ffffffc0504093b6:	6b9c                	ld	a5,16(a5)
ffffffc0504093b8:	853e                	mv	a0,a5
ffffffc0504093ba:	6ac010ef          	jal	ra,ffffffc05040aa66 <do_unblock>
ffffffc0504093be:	fe843783          	ld	a5,-24(s0)
ffffffc0504093c2:	479c                	lw	a5,8(a5)
ffffffc0504093c4:	37fd                	addiw	a5,a5,-1
ffffffc0504093c6:	0007871b          	sext.w	a4,a5
ffffffc0504093ca:	fe843783          	ld	a5,-24(s0)
ffffffc0504093ce:	c798                	sw	a4,8(a5)
ffffffc0504093d0:	0001                	nop
ffffffc0504093d2:	853e                	mv	a0,a5
ffffffc0504093d4:	70a2                	ld	ra,40(sp)
ffffffc0504093d6:	7402                	ld	s0,32(sp)
ffffffc0504093d8:	6145                	addi	sp,sp,48
ffffffc0504093da:	8082                	ret

ffffffc0504093dc <kernel_sem_broadcast>:
ffffffc0504093dc:	7139                	addi	sp,sp,-64
ffffffc0504093de:	fc06                	sd	ra,56(sp)
ffffffc0504093e0:	f822                	sd	s0,48(sp)
ffffffc0504093e2:	0080                	addi	s0,sp,64
ffffffc0504093e4:	87aa                	mv	a5,a0
ffffffc0504093e6:	fcf42623          	sw	a5,-52(s0)
ffffffc0504093ea:	007f7717          	auipc	a4,0x7f7
ffffffc0504093ee:	c6670713          	addi	a4,a4,-922 # ffffffc050c00050 <sem_list>
ffffffc0504093f2:	fcc42783          	lw	a5,-52(s0)
ffffffc0504093f6:	078e                	slli	a5,a5,0x3
ffffffc0504093f8:	97ba                	add	a5,a5,a4
ffffffc0504093fa:	639c                	ld	a5,0(a5)
ffffffc0504093fc:	fef43023          	sd	a5,-32(s0)
ffffffc050409400:	fe043783          	ld	a5,-32(s0)
ffffffc050409404:	6b9c                	ld	a5,16(a5)
ffffffc050409406:	fef43423          	sd	a5,-24(s0)
ffffffc05040940a:	a831                	j	ffffffc050409426 <kernel_sem_broadcast+0x4a>
ffffffc05040940c:	fe843783          	ld	a5,-24(s0)
ffffffc050409410:	639c                	ld	a5,0(a5)
ffffffc050409412:	fcf43c23          	sd	a5,-40(s0)
ffffffc050409416:	fe843503          	ld	a0,-24(s0)
ffffffc05040941a:	64c010ef          	jal	ra,ffffffc05040aa66 <do_unblock>
ffffffc05040941e:	fd843783          	ld	a5,-40(s0)
ffffffc050409422:	fef43423          	sd	a5,-24(s0)
ffffffc050409426:	fe043783          	ld	a5,-32(s0)
ffffffc05040942a:	07c1                	addi	a5,a5,16
ffffffc05040942c:	fe843703          	ld	a4,-24(s0)
ffffffc050409430:	fcf71ee3          	bne	a4,a5,ffffffc05040940c <kernel_sem_broadcast+0x30>
ffffffc050409434:	fe043783          	ld	a5,-32(s0)
ffffffc050409438:	0007a423          	sw	zero,8(a5)
ffffffc05040943c:	0001                	nop
ffffffc05040943e:	853e                	mv	a0,a5
ffffffc050409440:	70e2                	ld	ra,56(sp)
ffffffc050409442:	7442                	ld	s0,48(sp)
ffffffc050409444:	6121                	addi	sp,sp,64
ffffffc050409446:	8082                	ret

ffffffc050409448 <kernel_barrier_wait>:
ffffffc050409448:	7139                	addi	sp,sp,-64
ffffffc05040944a:	fc06                	sd	ra,56(sp)
ffffffc05040944c:	f822                	sd	s0,48(sp)
ffffffc05040944e:	0080                	addi	s0,sp,64
ffffffc050409450:	87aa                	mv	a5,a0
ffffffc050409452:	872e                	mv	a4,a1
ffffffc050409454:	fcf42623          	sw	a5,-52(s0)
ffffffc050409458:	87ba                	mv	a5,a4
ffffffc05040945a:	fcf42423          	sw	a5,-56(s0)
ffffffc05040945e:	e73f60ef          	jal	ra,ffffffc0504002d0 <get_current_cpu_id>
ffffffc050409462:	87aa                	mv	a5,a0
ffffffc050409464:	e791                	bnez	a5,ffffffc050409470 <kernel_barrier_wait+0x28>
ffffffc050409466:	001f9797          	auipc	a5,0x1f9
ffffffc05040946a:	b7a78793          	addi	a5,a5,-1158 # ffffffc050601fe0 <current_running_core0>
ffffffc05040946e:	a029                	j	ffffffc050409478 <kernel_barrier_wait+0x30>
ffffffc050409470:	001f9797          	auipc	a5,0x1f9
ffffffc050409474:	b6878793          	addi	a5,a5,-1176 # ffffffc050601fd8 <current_running_core1>
ffffffc050409478:	007f8717          	auipc	a4,0x7f8
ffffffc05040947c:	21870713          	addi	a4,a4,536 # ffffffc050c01690 <current_running>
ffffffc050409480:	e31c                	sd	a5,0(a4)
ffffffc050409482:	007f7717          	auipc	a4,0x7f7
ffffffc050409486:	bce70713          	addi	a4,a4,-1074 # ffffffc050c00050 <sem_list>
ffffffc05040948a:	fcc42783          	lw	a5,-52(s0)
ffffffc05040948e:	078e                	slli	a5,a5,0x3
ffffffc050409490:	97ba                	add	a5,a5,a4
ffffffc050409492:	639c                	ld	a5,0(a5)
ffffffc050409494:	fef43023          	sd	a5,-32(s0)
ffffffc050409498:	fe043783          	ld	a5,-32(s0)
ffffffc05040949c:	479c                	lw	a5,8(a5)
ffffffc05040949e:	2785                	addiw	a5,a5,1
ffffffc0504094a0:	0007871b          	sext.w	a4,a5
ffffffc0504094a4:	fe043783          	ld	a5,-32(s0)
ffffffc0504094a8:	c798                	sw	a4,8(a5)
ffffffc0504094aa:	fe043783          	ld	a5,-32(s0)
ffffffc0504094ae:	4798                	lw	a4,8(a5)
ffffffc0504094b0:	fc842783          	lw	a5,-56(s0)
ffffffc0504094b4:	2781                	sext.w	a5,a5
ffffffc0504094b6:	04e79163          	bne	a5,a4,ffffffc0504094f8 <kernel_barrier_wait+0xb0>
ffffffc0504094ba:	fe043783          	ld	a5,-32(s0)
ffffffc0504094be:	0007a423          	sw	zero,8(a5)
ffffffc0504094c2:	fe043783          	ld	a5,-32(s0)
ffffffc0504094c6:	6b9c                	ld	a5,16(a5)
ffffffc0504094c8:	fef43423          	sd	a5,-24(s0)
ffffffc0504094cc:	a831                	j	ffffffc0504094e8 <kernel_barrier_wait+0xa0>
ffffffc0504094ce:	fe843783          	ld	a5,-24(s0)
ffffffc0504094d2:	639c                	ld	a5,0(a5)
ffffffc0504094d4:	fcf43c23          	sd	a5,-40(s0)
ffffffc0504094d8:	fe843503          	ld	a0,-24(s0)
ffffffc0504094dc:	58a010ef          	jal	ra,ffffffc05040aa66 <do_unblock>
ffffffc0504094e0:	fd843783          	ld	a5,-40(s0)
ffffffc0504094e4:	fef43423          	sd	a5,-24(s0)
ffffffc0504094e8:	fe043783          	ld	a5,-32(s0)
ffffffc0504094ec:	07c1                	addi	a5,a5,16
ffffffc0504094ee:	fe843703          	ld	a4,-24(s0)
ffffffc0504094f2:	fcf71ee3          	bne	a4,a5,ffffffc0504094ce <kernel_barrier_wait+0x86>
ffffffc0504094f6:	a831                	j	ffffffc050409512 <kernel_barrier_wait+0xca>
ffffffc0504094f8:	007f8797          	auipc	a5,0x7f8
ffffffc0504094fc:	19878793          	addi	a5,a5,408 # ffffffc050c01690 <current_running>
ffffffc050409500:	639c                	ld	a5,0(a5)
ffffffc050409502:	6398                	ld	a4,0(a5)
ffffffc050409504:	fe043783          	ld	a5,-32(s0)
ffffffc050409508:	07c1                	addi	a5,a5,16
ffffffc05040950a:	85be                	mv	a1,a5
ffffffc05040950c:	853a                	mv	a0,a4
ffffffc05040950e:	488010ef          	jal	ra,ffffffc05040a996 <do_block>
ffffffc050409512:	0001                	nop
ffffffc050409514:	853e                	mv	a0,a5
ffffffc050409516:	70e2                	ld	ra,56(sp)
ffffffc050409518:	7442                	ld	s0,48(sp)
ffffffc05040951a:	6121                	addi	sp,sp,64
ffffffc05040951c:	8082                	ret

ffffffc05040951e <kernel_keygen>:
ffffffc05040951e:	1101                	addi	sp,sp,-32
ffffffc050409520:	ec06                	sd	ra,24(sp)
ffffffc050409522:	e822                	sd	s0,16(sp)
ffffffc050409524:	e426                	sd	s1,8(sp)
ffffffc050409526:	1000                	addi	s0,sp,32
ffffffc050409528:	00068797          	auipc	a5,0x68
ffffffc05040952c:	1fc78793          	addi	a5,a5,508 # ffffffc050471724 <global_key>
ffffffc050409530:	439c                	lw	a5,0(a5)
ffffffc050409532:	2785                	addiw	a5,a5,1
ffffffc050409534:	0007849b          	sext.w	s1,a5
ffffffc050409538:	35b020ef          	jal	ra,ffffffc05040c092 <rand>
ffffffc05040953c:	87aa                	mv	a5,a0
ffffffc05040953e:	873e                	mv	a4,a5
ffffffc050409540:	4795                	li	a5,5
ffffffc050409542:	02f767bb          	remw	a5,a4,a5
ffffffc050409546:	2781                	sext.w	a5,a5
ffffffc050409548:	9fa5                	addw	a5,a5,s1
ffffffc05040954a:	2781                	sext.w	a5,a5
ffffffc05040954c:	873e                	mv	a4,a5
ffffffc05040954e:	41f7579b          	sraiw	a5,a4,0x1f
ffffffc050409552:	0147d79b          	srliw	a5,a5,0x14
ffffffc050409556:	00f706bb          	addw	a3,a4,a5
ffffffc05040955a:	6705                	lui	a4,0x1
ffffffc05040955c:	177d                	addi	a4,a4,-1
ffffffc05040955e:	8f75                	and	a4,a4,a3
ffffffc050409560:	40f707bb          	subw	a5,a4,a5
ffffffc050409564:	0007871b          	sext.w	a4,a5
ffffffc050409568:	00068797          	auipc	a5,0x68
ffffffc05040956c:	1bc78793          	addi	a5,a5,444 # ffffffc050471724 <global_key>
ffffffc050409570:	c398                	sw	a4,0(a5)
ffffffc050409572:	00068797          	auipc	a5,0x68
ffffffc050409576:	1b278793          	addi	a5,a5,434 # ffffffc050471724 <global_key>
ffffffc05040957a:	439c                	lw	a5,0(a5)
ffffffc05040957c:	853e                	mv	a0,a5
ffffffc05040957e:	60e2                	ld	ra,24(sp)
ffffffc050409580:	6442                	ld	s0,16(sp)
ffffffc050409582:	64a2                	ld	s1,8(sp)
ffffffc050409584:	6105                	addi	sp,sp,32
ffffffc050409586:	8082                	ret

ffffffc050409588 <kernel_mbox_open>:
ffffffc050409588:	7139                	addi	sp,sp,-64
ffffffc05040958a:	fc06                	sd	ra,56(sp)
ffffffc05040958c:	f822                	sd	s0,48(sp)
ffffffc05040958e:	f426                	sd	s1,40(sp)
ffffffc050409590:	0080                	addi	s0,sp,64
ffffffc050409592:	fca43423          	sd	a0,-56(s0)
ffffffc050409596:	fc042e23          	sw	zero,-36(s0)
ffffffc05040959a:	fc042e23          	sw	zero,-36(s0)
ffffffc05040959e:	a89d                	j	ffffffc050409614 <kernel_mbox_open+0x8c>
ffffffc0504095a0:	007f7717          	auipc	a4,0x7f7
ffffffc0504095a4:	2b070713          	addi	a4,a4,688 # ffffffc050c00850 <mbox_list>
ffffffc0504095a8:	fdc42783          	lw	a5,-36(s0)
ffffffc0504095ac:	078e                	slli	a5,a5,0x3
ffffffc0504095ae:	97ba                	add	a5,a5,a4
ffffffc0504095b0:	639c                	ld	a5,0(a5)
ffffffc0504095b2:	cfa1                	beqz	a5,ffffffc05040960a <kernel_mbox_open+0x82>
ffffffc0504095b4:	007f7717          	auipc	a4,0x7f7
ffffffc0504095b8:	29c70713          	addi	a4,a4,668 # ffffffc050c00850 <mbox_list>
ffffffc0504095bc:	fdc42783          	lw	a5,-36(s0)
ffffffc0504095c0:	078e                	slli	a5,a5,0x3
ffffffc0504095c2:	97ba                	add	a5,a5,a4
ffffffc0504095c4:	639c                	ld	a5,0(a5)
ffffffc0504095c6:	0791                	addi	a5,a5,4
ffffffc0504095c8:	85be                	mv	a1,a5
ffffffc0504095ca:	fc843503          	ld	a0,-56(s0)
ffffffc0504095ce:	153020ef          	jal	ra,ffffffc05040bf20 <kstrcmp>
ffffffc0504095d2:	87aa                	mv	a5,a0
ffffffc0504095d4:	eb9d                	bnez	a5,ffffffc05040960a <kernel_mbox_open+0x82>
ffffffc0504095d6:	007f7717          	auipc	a4,0x7f7
ffffffc0504095da:	27a70713          	addi	a4,a4,634 # ffffffc050c00850 <mbox_list>
ffffffc0504095de:	fdc42783          	lw	a5,-36(s0)
ffffffc0504095e2:	078e                	slli	a5,a5,0x3
ffffffc0504095e4:	97ba                	add	a5,a5,a4
ffffffc0504095e6:	639c                	ld	a5,0(a5)
ffffffc0504095e8:	14c7a703          	lw	a4,332(a5)
ffffffc0504095ec:	2705                	addiw	a4,a4,1
ffffffc0504095ee:	2701                	sext.w	a4,a4
ffffffc0504095f0:	14e7a623          	sw	a4,332(a5)
ffffffc0504095f4:	007f7717          	auipc	a4,0x7f7
ffffffc0504095f8:	25c70713          	addi	a4,a4,604 # ffffffc050c00850 <mbox_list>
ffffffc0504095fc:	fdc42783          	lw	a5,-36(s0)
ffffffc050409600:	078e                	slli	a5,a5,0x3
ffffffc050409602:	97ba                	add	a5,a5,a4
ffffffc050409604:	639c                	ld	a5,0(a5)
ffffffc050409606:	439c                	lw	a5,0(a5)
ffffffc050409608:	aaad                	j	ffffffc050409782 <kernel_mbox_open+0x1fa>
ffffffc05040960a:	fdc42783          	lw	a5,-36(s0)
ffffffc05040960e:	2785                	addiw	a5,a5,1
ffffffc050409610:	fcf42e23          	sw	a5,-36(s0)
ffffffc050409614:	fdc42783          	lw	a5,-36(s0)
ffffffc050409618:	0007871b          	sext.w	a4,a5
ffffffc05040961c:	0ff00793          	li	a5,255
ffffffc050409620:	f8e7d0e3          	bge	a5,a4,ffffffc0504095a0 <kernel_mbox_open+0x18>
ffffffc050409624:	99fff0ef          	jal	ra,ffffffc050408fc2 <id_gen>
ffffffc050409628:	87aa                	mv	a5,a0
ffffffc05040962a:	fcf42c23          	sw	a5,-40(s0)
ffffffc05040962e:	007f7717          	auipc	a4,0x7f7
ffffffc050409632:	22270713          	addi	a4,a4,546 # ffffffc050c00850 <mbox_list>
ffffffc050409636:	fd842783          	lw	a5,-40(s0)
ffffffc05040963a:	078e                	slli	a5,a5,0x3
ffffffc05040963c:	97ba                	add	a5,a5,a4
ffffffc05040963e:	639c                	ld	a5,0(a5)
ffffffc050409640:	c391                	beqz	a5,ffffffc050409644 <kernel_mbox_open+0xbc>
ffffffc050409642:	b7cd                	j	ffffffc050409624 <kernel_mbox_open+0x9c>
ffffffc050409644:	0001                	nop
ffffffc050409646:	16000513          	li	a0,352
ffffffc05040964a:	2d3010ef          	jal	ra,ffffffc05040b11c <kmalloc>
ffffffc05040964e:	fca43823          	sd	a0,-48(s0)
ffffffc050409652:	fd043783          	ld	a5,-48(s0)
ffffffc050409656:	fd842703          	lw	a4,-40(s0)
ffffffc05040965a:	c398                	sw	a4,0(a5)
ffffffc05040965c:	fd043783          	ld	a5,-48(s0)
ffffffc050409660:	439c                	lw	a5,0(a5)
ffffffc050409662:	007f7717          	auipc	a4,0x7f7
ffffffc050409666:	1ee70713          	addi	a4,a4,494 # ffffffc050c00850 <mbox_list>
ffffffc05040966a:	078e                	slli	a5,a5,0x3
ffffffc05040966c:	97ba                	add	a5,a5,a4
ffffffc05040966e:	fd043703          	ld	a4,-48(s0)
ffffffc050409672:	e398                	sd	a4,0(a5)
ffffffc050409674:	fd043783          	ld	a5,-48(s0)
ffffffc050409678:	439c                	lw	a5,0(a5)
ffffffc05040967a:	007f7717          	auipc	a4,0x7f7
ffffffc05040967e:	1d670713          	addi	a4,a4,470 # ffffffc050c00850 <mbox_list>
ffffffc050409682:	078e                	slli	a5,a5,0x3
ffffffc050409684:	97ba                	add	a5,a5,a4
ffffffc050409686:	639c                	ld	a5,0(a5)
ffffffc050409688:	0791                	addi	a5,a5,4
ffffffc05040968a:	fc843583          	ld	a1,-56(s0)
ffffffc05040968e:	853e                	mv	a0,a5
ffffffc050409690:	11f020ef          	jal	ra,ffffffc05040bfae <kstrcpy>
ffffffc050409694:	fd043783          	ld	a5,-48(s0)
ffffffc050409698:	439c                	lw	a5,0(a5)
ffffffc05040969a:	007f7717          	auipc	a4,0x7f7
ffffffc05040969e:	1b670713          	addi	a4,a4,438 # ffffffc050c00850 <mbox_list>
ffffffc0504096a2:	078e                	slli	a5,a5,0x3
ffffffc0504096a4:	97ba                	add	a5,a5,a4
ffffffc0504096a6:	639c                	ld	a5,0(a5)
ffffffc0504096a8:	14c7a703          	lw	a4,332(a5)
ffffffc0504096ac:	2705                	addiw	a4,a4,1
ffffffc0504096ae:	2701                	sext.w	a4,a4
ffffffc0504096b0:	14e7a623          	sw	a4,332(a5)
ffffffc0504096b4:	fd043783          	ld	a5,-48(s0)
ffffffc0504096b8:	439c                	lw	a5,0(a5)
ffffffc0504096ba:	007f7717          	auipc	a4,0x7f7
ffffffc0504096be:	19670713          	addi	a4,a4,406 # ffffffc050c00850 <mbox_list>
ffffffc0504096c2:	078e                	slli	a5,a5,0x3
ffffffc0504096c4:	97ba                	add	a5,a5,a4
ffffffc0504096c6:	6398                	ld	a4,0(a5)
ffffffc0504096c8:	14072423          	sw	zero,328(a4)
ffffffc0504096cc:	fd043783          	ld	a5,-48(s0)
ffffffc0504096d0:	439c                	lw	a5,0(a5)
ffffffc0504096d2:	007f7697          	auipc	a3,0x7f7
ffffffc0504096d6:	17e68693          	addi	a3,a3,382 # ffffffc050c00850 <mbox_list>
ffffffc0504096da:	078e                	slli	a5,a5,0x3
ffffffc0504096dc:	97b6                	add	a5,a5,a3
ffffffc0504096de:	639c                	ld	a5,0(a5)
ffffffc0504096e0:	14872703          	lw	a4,328(a4)
ffffffc0504096e4:	14e7a223          	sw	a4,324(a5)
ffffffc0504096e8:	fd043703          	ld	a4,-48(s0)
ffffffc0504096ec:	4318                	lw	a4,0(a4)
ffffffc0504096ee:	007f7697          	auipc	a3,0x7f7
ffffffc0504096f2:	16268693          	addi	a3,a3,354 # ffffffc050c00850 <mbox_list>
ffffffc0504096f6:	070e                	slli	a4,a4,0x3
ffffffc0504096f8:	9736                	add	a4,a4,a3
ffffffc0504096fa:	6318                	ld	a4,0(a4)
ffffffc0504096fc:	1447a783          	lw	a5,324(a5)
ffffffc050409700:	14f72823          	sw	a5,336(a4)
ffffffc050409704:	e1bff0ef          	jal	ra,ffffffc05040951e <kernel_keygen>
ffffffc050409708:	87aa                	mv	a5,a0
ffffffc05040970a:	86be                	mv	a3,a5
ffffffc05040970c:	fd043783          	ld	a5,-48(s0)
ffffffc050409710:	439c                	lw	a5,0(a5)
ffffffc050409712:	007f7717          	auipc	a4,0x7f7
ffffffc050409716:	13e70713          	addi	a4,a4,318 # ffffffc050c00850 <mbox_list>
ffffffc05040971a:	078e                	slli	a5,a5,0x3
ffffffc05040971c:	97ba                	add	a5,a5,a4
ffffffc05040971e:	6384                	ld	s1,0(a5)
ffffffc050409720:	8536                	mv	a0,a3
ffffffc050409722:	8c5ff0ef          	jal	ra,ffffffc050408fe6 <kernel_semget>
ffffffc050409726:	87aa                	mv	a5,a0
ffffffc050409728:	14f4ac23          	sw	a5,344(s1)
ffffffc05040972c:	df3ff0ef          	jal	ra,ffffffc05040951e <kernel_keygen>
ffffffc050409730:	87aa                	mv	a5,a0
ffffffc050409732:	86be                	mv	a3,a5
ffffffc050409734:	fd043783          	ld	a5,-48(s0)
ffffffc050409738:	439c                	lw	a5,0(a5)
ffffffc05040973a:	007f7717          	auipc	a4,0x7f7
ffffffc05040973e:	11670713          	addi	a4,a4,278 # ffffffc050c00850 <mbox_list>
ffffffc050409742:	078e                	slli	a5,a5,0x3
ffffffc050409744:	97ba                	add	a5,a5,a4
ffffffc050409746:	6384                	ld	s1,0(a5)
ffffffc050409748:	8536                	mv	a0,a3
ffffffc05040974a:	89dff0ef          	jal	ra,ffffffc050408fe6 <kernel_semget>
ffffffc05040974e:	87aa                	mv	a5,a0
ffffffc050409750:	14f4aa23          	sw	a5,340(s1)
ffffffc050409754:	dcbff0ef          	jal	ra,ffffffc05040951e <kernel_keygen>
ffffffc050409758:	87aa                	mv	a5,a0
ffffffc05040975a:	86be                	mv	a3,a5
ffffffc05040975c:	fd043783          	ld	a5,-48(s0)
ffffffc050409760:	439c                	lw	a5,0(a5)
ffffffc050409762:	007f7717          	auipc	a4,0x7f7
ffffffc050409766:	0ee70713          	addi	a4,a4,238 # ffffffc050c00850 <mbox_list>
ffffffc05040976a:	078e                	slli	a5,a5,0x3
ffffffc05040976c:	97ba                	add	a5,a5,a4
ffffffc05040976e:	6384                	ld	s1,0(a5)
ffffffc050409770:	8536                	mv	a0,a3
ffffffc050409772:	875ff0ef          	jal	ra,ffffffc050408fe6 <kernel_semget>
ffffffc050409776:	87aa                	mv	a5,a0
ffffffc050409778:	14f4ae23          	sw	a5,348(s1)
ffffffc05040977c:	fd043783          	ld	a5,-48(s0)
ffffffc050409780:	439c                	lw	a5,0(a5)
ffffffc050409782:	853e                	mv	a0,a5
ffffffc050409784:	70e2                	ld	ra,56(sp)
ffffffc050409786:	7442                	ld	s0,48(sp)
ffffffc050409788:	74a2                	ld	s1,40(sp)
ffffffc05040978a:	6121                	addi	sp,sp,64
ffffffc05040978c:	8082                	ret

ffffffc05040978e <kernel_mbox_close>:
ffffffc05040978e:	1101                	addi	sp,sp,-32
ffffffc050409790:	ec22                	sd	s0,24(sp)
ffffffc050409792:	1000                	addi	s0,sp,32
ffffffc050409794:	87aa                	mv	a5,a0
ffffffc050409796:	fef42623          	sw	a5,-20(s0)
ffffffc05040979a:	007f7717          	auipc	a4,0x7f7
ffffffc05040979e:	0b670713          	addi	a4,a4,182 # ffffffc050c00850 <mbox_list>
ffffffc0504097a2:	fec42783          	lw	a5,-20(s0)
ffffffc0504097a6:	078e                	slli	a5,a5,0x3
ffffffc0504097a8:	97ba                	add	a5,a5,a4
ffffffc0504097aa:	0007b023          	sd	zero,0(a5)
ffffffc0504097ae:	0001                	nop
ffffffc0504097b0:	6462                	ld	s0,24(sp)
ffffffc0504097b2:	6105                	addi	sp,sp,32
ffffffc0504097b4:	8082                	ret

ffffffc0504097b6 <kernel_mbox_send>:
ffffffc0504097b6:	7179                	addi	sp,sp,-48
ffffffc0504097b8:	f406                	sd	ra,40(sp)
ffffffc0504097ba:	f022                	sd	s0,32(sp)
ffffffc0504097bc:	1800                	addi	s0,sp,48
ffffffc0504097be:	87aa                	mv	a5,a0
ffffffc0504097c0:	fcb43823          	sd	a1,-48(s0)
ffffffc0504097c4:	8732                	mv	a4,a2
ffffffc0504097c6:	fcf42e23          	sw	a5,-36(s0)
ffffffc0504097ca:	87ba                	mv	a5,a4
ffffffc0504097cc:	fcf42c23          	sw	a5,-40(s0)
ffffffc0504097d0:	007f7717          	auipc	a4,0x7f7
ffffffc0504097d4:	08070713          	addi	a4,a4,128 # ffffffc050c00850 <mbox_list>
ffffffc0504097d8:	fdc42783          	lw	a5,-36(s0)
ffffffc0504097dc:	078e                	slli	a5,a5,0x3
ffffffc0504097de:	97ba                	add	a5,a5,a4
ffffffc0504097e0:	639c                	ld	a5,0(a5)
ffffffc0504097e2:	fef43423          	sd	a5,-24(s0)
ffffffc0504097e6:	fe843783          	ld	a5,-24(s0)
ffffffc0504097ea:	15c7a783          	lw	a5,348(a5)
ffffffc0504097ee:	4581                	li	a1,0
ffffffc0504097f0:	853e                	mv	a0,a5
ffffffc0504097f2:	8edff0ef          	jal	ra,ffffffc0504090de <kernel_binsemop>
ffffffc0504097f6:	a829                	j	ffffffc050409810 <kernel_mbox_send+0x5a>
ffffffc0504097f8:	fe843783          	ld	a5,-24(s0)
ffffffc0504097fc:	1587a703          	lw	a4,344(a5)
ffffffc050409800:	fe843783          	ld	a5,-24(s0)
ffffffc050409804:	15c7a783          	lw	a5,348(a5)
ffffffc050409808:	85be                	mv	a1,a5
ffffffc05040980a:	853a                	mv	a0,a4
ffffffc05040980c:	ab5ff0ef          	jal	ra,ffffffc0504092c0 <kernel_sem_wait>
ffffffc050409810:	fe843783          	ld	a5,-24(s0)
ffffffc050409814:	1507a783          	lw	a5,336(a5)
ffffffc050409818:	10000713          	li	a4,256
ffffffc05040981c:	40f707bb          	subw	a5,a4,a5
ffffffc050409820:	0007871b          	sext.w	a4,a5
ffffffc050409824:	fd842783          	lw	a5,-40(s0)
ffffffc050409828:	2781                	sext.w	a5,a5
ffffffc05040982a:	fcf747e3          	blt	a4,a5,ffffffc0504097f8 <kernel_mbox_send+0x42>
ffffffc05040982e:	fe843783          	ld	a5,-24(s0)
ffffffc050409832:	1487a783          	lw	a5,328(a5)
ffffffc050409836:	10000713          	li	a4,256
ffffffc05040983a:	40f707bb          	subw	a5,a4,a5
ffffffc05040983e:	0007871b          	sext.w	a4,a5
ffffffc050409842:	fd842783          	lw	a5,-40(s0)
ffffffc050409846:	2781                	sext.w	a5,a5
ffffffc050409848:	08f75663          	bge	a4,a5,ffffffc0504098d4 <kernel_mbox_send+0x11e>
ffffffc05040984c:	fe843783          	ld	a5,-24(s0)
ffffffc050409850:	04478793          	addi	a5,a5,68
ffffffc050409854:	fe843703          	ld	a4,-24(s0)
ffffffc050409858:	14872703          	lw	a4,328(a4)
ffffffc05040985c:	00e786b3          	add	a3,a5,a4
ffffffc050409860:	fe843783          	ld	a5,-24(s0)
ffffffc050409864:	1487a783          	lw	a5,328(a5)
ffffffc050409868:	10000713          	li	a4,256
ffffffc05040986c:	40f707bb          	subw	a5,a4,a5
ffffffc050409870:	2781                	sext.w	a5,a5
ffffffc050409872:	863e                	mv	a2,a5
ffffffc050409874:	fd043583          	ld	a1,-48(s0)
ffffffc050409878:	8536                	mv	a0,a3
ffffffc05040987a:	532020ef          	jal	ra,ffffffc05040bdac <kmemcpy>
ffffffc05040987e:	fe843783          	ld	a5,-24(s0)
ffffffc050409882:	1487a783          	lw	a5,328(a5)
ffffffc050409886:	10000713          	li	a4,256
ffffffc05040988a:	40f707bb          	subw	a5,a4,a5
ffffffc05040988e:	2781                	sext.w	a5,a5
ffffffc050409890:	fd842703          	lw	a4,-40(s0)
ffffffc050409894:	40f707bb          	subw	a5,a4,a5
ffffffc050409898:	0007871b          	sext.w	a4,a5
ffffffc05040989c:	fe843783          	ld	a5,-24(s0)
ffffffc0504098a0:	14e7a423          	sw	a4,328(a5)
ffffffc0504098a4:	fe843783          	ld	a5,-24(s0)
ffffffc0504098a8:	04478693          	addi	a3,a5,68
ffffffc0504098ac:	fd842783          	lw	a5,-40(s0)
ffffffc0504098b0:	fe843703          	ld	a4,-24(s0)
ffffffc0504098b4:	14872703          	lw	a4,328(a4)
ffffffc0504098b8:	8f99                	sub	a5,a5,a4
ffffffc0504098ba:	fd043703          	ld	a4,-48(s0)
ffffffc0504098be:	973e                	add	a4,a4,a5
ffffffc0504098c0:	fe843783          	ld	a5,-24(s0)
ffffffc0504098c4:	1487a783          	lw	a5,328(a5)
ffffffc0504098c8:	863e                	mv	a2,a5
ffffffc0504098ca:	85ba                	mv	a1,a4
ffffffc0504098cc:	8536                	mv	a0,a3
ffffffc0504098ce:	4de020ef          	jal	ra,ffffffc05040bdac <kmemcpy>
ffffffc0504098d2:	a83d                	j	ffffffc050409910 <kernel_mbox_send+0x15a>
ffffffc0504098d4:	fe843783          	ld	a5,-24(s0)
ffffffc0504098d8:	04478793          	addi	a5,a5,68
ffffffc0504098dc:	fe843703          	ld	a4,-24(s0)
ffffffc0504098e0:	14872703          	lw	a4,328(a4)
ffffffc0504098e4:	97ba                	add	a5,a5,a4
ffffffc0504098e6:	fd842703          	lw	a4,-40(s0)
ffffffc0504098ea:	863a                	mv	a2,a4
ffffffc0504098ec:	fd043583          	ld	a1,-48(s0)
ffffffc0504098f0:	853e                	mv	a0,a5
ffffffc0504098f2:	4ba020ef          	jal	ra,ffffffc05040bdac <kmemcpy>
ffffffc0504098f6:	fe843783          	ld	a5,-24(s0)
ffffffc0504098fa:	1487a783          	lw	a5,328(a5)
ffffffc0504098fe:	fd842703          	lw	a4,-40(s0)
ffffffc050409902:	9fb9                	addw	a5,a5,a4
ffffffc050409904:	0007871b          	sext.w	a4,a5
ffffffc050409908:	fe843783          	ld	a5,-24(s0)
ffffffc05040990c:	14e7a423          	sw	a4,328(a5)
ffffffc050409910:	fe843783          	ld	a5,-24(s0)
ffffffc050409914:	1507a783          	lw	a5,336(a5)
ffffffc050409918:	fd842703          	lw	a4,-40(s0)
ffffffc05040991c:	9fb9                	addw	a5,a5,a4
ffffffc05040991e:	0007871b          	sext.w	a4,a5
ffffffc050409922:	fe843783          	ld	a5,-24(s0)
ffffffc050409926:	14e7a823          	sw	a4,336(a5)
ffffffc05040992a:	fe843783          	ld	a5,-24(s0)
ffffffc05040992e:	1547a783          	lw	a5,340(a5)
ffffffc050409932:	853e                	mv	a0,a5
ffffffc050409934:	aa9ff0ef          	jal	ra,ffffffc0504093dc <kernel_sem_broadcast>
ffffffc050409938:	fe843783          	ld	a5,-24(s0)
ffffffc05040993c:	15c7a783          	lw	a5,348(a5)
ffffffc050409940:	4585                	li	a1,1
ffffffc050409942:	853e                	mv	a0,a5
ffffffc050409944:	f9aff0ef          	jal	ra,ffffffc0504090de <kernel_binsemop>
ffffffc050409948:	0001                	nop
ffffffc05040994a:	70a2                	ld	ra,40(sp)
ffffffc05040994c:	7402                	ld	s0,32(sp)
ffffffc05040994e:	6145                	addi	sp,sp,48
ffffffc050409950:	8082                	ret

ffffffc050409952 <kernel_mbox_recv>:
ffffffc050409952:	7179                	addi	sp,sp,-48
ffffffc050409954:	f406                	sd	ra,40(sp)
ffffffc050409956:	f022                	sd	s0,32(sp)
ffffffc050409958:	1800                	addi	s0,sp,48
ffffffc05040995a:	87aa                	mv	a5,a0
ffffffc05040995c:	fcb43823          	sd	a1,-48(s0)
ffffffc050409960:	8732                	mv	a4,a2
ffffffc050409962:	fcf42e23          	sw	a5,-36(s0)
ffffffc050409966:	87ba                	mv	a5,a4
ffffffc050409968:	fcf42c23          	sw	a5,-40(s0)
ffffffc05040996c:	007f7717          	auipc	a4,0x7f7
ffffffc050409970:	ee470713          	addi	a4,a4,-284 # ffffffc050c00850 <mbox_list>
ffffffc050409974:	fdc42783          	lw	a5,-36(s0)
ffffffc050409978:	078e                	slli	a5,a5,0x3
ffffffc05040997a:	97ba                	add	a5,a5,a4
ffffffc05040997c:	639c                	ld	a5,0(a5)
ffffffc05040997e:	fef43423          	sd	a5,-24(s0)
ffffffc050409982:	fe843783          	ld	a5,-24(s0)
ffffffc050409986:	15c7a783          	lw	a5,348(a5)
ffffffc05040998a:	4581                	li	a1,0
ffffffc05040998c:	853e                	mv	a0,a5
ffffffc05040998e:	f50ff0ef          	jal	ra,ffffffc0504090de <kernel_binsemop>
ffffffc050409992:	a829                	j	ffffffc0504099ac <kernel_mbox_recv+0x5a>
ffffffc050409994:	fe843783          	ld	a5,-24(s0)
ffffffc050409998:	1547a703          	lw	a4,340(a5)
ffffffc05040999c:	fe843783          	ld	a5,-24(s0)
ffffffc0504099a0:	15c7a783          	lw	a5,348(a5)
ffffffc0504099a4:	85be                	mv	a1,a5
ffffffc0504099a6:	853a                	mv	a0,a4
ffffffc0504099a8:	919ff0ef          	jal	ra,ffffffc0504092c0 <kernel_sem_wait>
ffffffc0504099ac:	fe843783          	ld	a5,-24(s0)
ffffffc0504099b0:	1507a703          	lw	a4,336(a5)
ffffffc0504099b4:	fd842783          	lw	a5,-40(s0)
ffffffc0504099b8:	2781                	sext.w	a5,a5
ffffffc0504099ba:	fcf74de3          	blt	a4,a5,ffffffc050409994 <kernel_mbox_recv+0x42>
ffffffc0504099be:	fe843783          	ld	a5,-24(s0)
ffffffc0504099c2:	1447a783          	lw	a5,324(a5)
ffffffc0504099c6:	10000713          	li	a4,256
ffffffc0504099ca:	40f707bb          	subw	a5,a4,a5
ffffffc0504099ce:	0007871b          	sext.w	a4,a5
ffffffc0504099d2:	fd842783          	lw	a5,-40(s0)
ffffffc0504099d6:	2781                	sext.w	a5,a5
ffffffc0504099d8:	08f75663          	bge	a4,a5,ffffffc050409a64 <kernel_mbox_recv+0x112>
ffffffc0504099dc:	fe843783          	ld	a5,-24(s0)
ffffffc0504099e0:	04478793          	addi	a5,a5,68
ffffffc0504099e4:	fe843703          	ld	a4,-24(s0)
ffffffc0504099e8:	14472703          	lw	a4,324(a4)
ffffffc0504099ec:	00e786b3          	add	a3,a5,a4
ffffffc0504099f0:	fe843783          	ld	a5,-24(s0)
ffffffc0504099f4:	1447a783          	lw	a5,324(a5)
ffffffc0504099f8:	10000713          	li	a4,256
ffffffc0504099fc:	40f707bb          	subw	a5,a4,a5
ffffffc050409a00:	2781                	sext.w	a5,a5
ffffffc050409a02:	863e                	mv	a2,a5
ffffffc050409a04:	85b6                	mv	a1,a3
ffffffc050409a06:	fd043503          	ld	a0,-48(s0)
ffffffc050409a0a:	3a2020ef          	jal	ra,ffffffc05040bdac <kmemcpy>
ffffffc050409a0e:	fe843783          	ld	a5,-24(s0)
ffffffc050409a12:	1447a783          	lw	a5,324(a5)
ffffffc050409a16:	10000713          	li	a4,256
ffffffc050409a1a:	40f707bb          	subw	a5,a4,a5
ffffffc050409a1e:	2781                	sext.w	a5,a5
ffffffc050409a20:	fd842703          	lw	a4,-40(s0)
ffffffc050409a24:	40f707bb          	subw	a5,a4,a5
ffffffc050409a28:	0007871b          	sext.w	a4,a5
ffffffc050409a2c:	fe843783          	ld	a5,-24(s0)
ffffffc050409a30:	14e7a223          	sw	a4,324(a5)
ffffffc050409a34:	fd842783          	lw	a5,-40(s0)
ffffffc050409a38:	fe843703          	ld	a4,-24(s0)
ffffffc050409a3c:	14472703          	lw	a4,324(a4)
ffffffc050409a40:	8f99                	sub	a5,a5,a4
ffffffc050409a42:	fd043703          	ld	a4,-48(s0)
ffffffc050409a46:	973e                	add	a4,a4,a5
ffffffc050409a48:	fe843783          	ld	a5,-24(s0)
ffffffc050409a4c:	04478693          	addi	a3,a5,68
ffffffc050409a50:	fe843783          	ld	a5,-24(s0)
ffffffc050409a54:	1447a783          	lw	a5,324(a5)
ffffffc050409a58:	863e                	mv	a2,a5
ffffffc050409a5a:	85b6                	mv	a1,a3
ffffffc050409a5c:	853a                	mv	a0,a4
ffffffc050409a5e:	34e020ef          	jal	ra,ffffffc05040bdac <kmemcpy>
ffffffc050409a62:	a83d                	j	ffffffc050409aa0 <kernel_mbox_recv+0x14e>
ffffffc050409a64:	fe843783          	ld	a5,-24(s0)
ffffffc050409a68:	04478793          	addi	a5,a5,68
ffffffc050409a6c:	fe843703          	ld	a4,-24(s0)
ffffffc050409a70:	14472703          	lw	a4,324(a4)
ffffffc050409a74:	97ba                	add	a5,a5,a4
ffffffc050409a76:	fd842703          	lw	a4,-40(s0)
ffffffc050409a7a:	863a                	mv	a2,a4
ffffffc050409a7c:	85be                	mv	a1,a5
ffffffc050409a7e:	fd043503          	ld	a0,-48(s0)
ffffffc050409a82:	32a020ef          	jal	ra,ffffffc05040bdac <kmemcpy>
ffffffc050409a86:	fe843783          	ld	a5,-24(s0)
ffffffc050409a8a:	1447a783          	lw	a5,324(a5)
ffffffc050409a8e:	fd842703          	lw	a4,-40(s0)
ffffffc050409a92:	9fb9                	addw	a5,a5,a4
ffffffc050409a94:	0007871b          	sext.w	a4,a5
ffffffc050409a98:	fe843783          	ld	a5,-24(s0)
ffffffc050409a9c:	14e7a223          	sw	a4,324(a5)
ffffffc050409aa0:	fe843783          	ld	a5,-24(s0)
ffffffc050409aa4:	1507a703          	lw	a4,336(a5)
ffffffc050409aa8:	fd842783          	lw	a5,-40(s0)
ffffffc050409aac:	40f707bb          	subw	a5,a4,a5
ffffffc050409ab0:	0007871b          	sext.w	a4,a5
ffffffc050409ab4:	fe843783          	ld	a5,-24(s0)
ffffffc050409ab8:	14e7a823          	sw	a4,336(a5)
ffffffc050409abc:	fe843783          	ld	a5,-24(s0)
ffffffc050409ac0:	1587a783          	lw	a5,344(a5)
ffffffc050409ac4:	853e                	mv	a0,a5
ffffffc050409ac6:	917ff0ef          	jal	ra,ffffffc0504093dc <kernel_sem_broadcast>
ffffffc050409aca:	fe843783          	ld	a5,-24(s0)
ffffffc050409ace:	15c7a783          	lw	a5,348(a5)
ffffffc050409ad2:	4585                	li	a1,1
ffffffc050409ad4:	853e                	mv	a0,a5
ffffffc050409ad6:	e08ff0ef          	jal	ra,ffffffc0504090de <kernel_binsemop>
ffffffc050409ada:	0001                	nop
ffffffc050409adc:	70a2                	ld	ra,40(sp)
ffffffc050409ade:	7402                	ld	s0,32(sp)
ffffffc050409ae0:	6145                	addi	sp,sp,48
ffffffc050409ae2:	8082                	ret

ffffffc050409ae4 <init_list_head>:
ffffffc050409ae4:	1101                	addi	sp,sp,-32
ffffffc050409ae6:	ec22                	sd	s0,24(sp)
ffffffc050409ae8:	1000                	addi	s0,sp,32
ffffffc050409aea:	fea43423          	sd	a0,-24(s0)
ffffffc050409aee:	fe843783          	ld	a5,-24(s0)
ffffffc050409af2:	fe843703          	ld	a4,-24(s0)
ffffffc050409af6:	e398                	sd	a4,0(a5)
ffffffc050409af8:	fe843783          	ld	a5,-24(s0)
ffffffc050409afc:	fe843703          	ld	a4,-24(s0)
ffffffc050409b00:	e798                	sd	a4,8(a5)
ffffffc050409b02:	0001                	nop
ffffffc050409b04:	6462                	ld	s0,24(sp)
ffffffc050409b06:	6105                	addi	sp,sp,32
ffffffc050409b08:	8082                	ret

ffffffc050409b0a <_list_add>:
ffffffc050409b0a:	7179                	addi	sp,sp,-48
ffffffc050409b0c:	f422                	sd	s0,40(sp)
ffffffc050409b0e:	1800                	addi	s0,sp,48
ffffffc050409b10:	fea43423          	sd	a0,-24(s0)
ffffffc050409b14:	feb43023          	sd	a1,-32(s0)
ffffffc050409b18:	fcc43c23          	sd	a2,-40(s0)
ffffffc050409b1c:	fd843783          	ld	a5,-40(s0)
ffffffc050409b20:	fe843703          	ld	a4,-24(s0)
ffffffc050409b24:	e798                	sd	a4,8(a5)
ffffffc050409b26:	fe843783          	ld	a5,-24(s0)
ffffffc050409b2a:	fd843703          	ld	a4,-40(s0)
ffffffc050409b2e:	e398                	sd	a4,0(a5)
ffffffc050409b30:	fe843783          	ld	a5,-24(s0)
ffffffc050409b34:	fe043703          	ld	a4,-32(s0)
ffffffc050409b38:	e798                	sd	a4,8(a5)
ffffffc050409b3a:	fe043783          	ld	a5,-32(s0)
ffffffc050409b3e:	fe843703          	ld	a4,-24(s0)
ffffffc050409b42:	e398                	sd	a4,0(a5)
ffffffc050409b44:	0001                	nop
ffffffc050409b46:	7422                	ld	s0,40(sp)
ffffffc050409b48:	6145                	addi	sp,sp,48
ffffffc050409b4a:	8082                	ret

ffffffc050409b4c <list_add_tail>:
ffffffc050409b4c:	1101                	addi	sp,sp,-32
ffffffc050409b4e:	ec06                	sd	ra,24(sp)
ffffffc050409b50:	e822                	sd	s0,16(sp)
ffffffc050409b52:	1000                	addi	s0,sp,32
ffffffc050409b54:	fea43423          	sd	a0,-24(s0)
ffffffc050409b58:	feb43023          	sd	a1,-32(s0)
ffffffc050409b5c:	fe043783          	ld	a5,-32(s0)
ffffffc050409b60:	679c                	ld	a5,8(a5)
ffffffc050409b62:	fe043603          	ld	a2,-32(s0)
ffffffc050409b66:	85be                	mv	a1,a5
ffffffc050409b68:	fe843503          	ld	a0,-24(s0)
ffffffc050409b6c:	f9fff0ef          	jal	ra,ffffffc050409b0a <_list_add>
ffffffc050409b70:	0001                	nop
ffffffc050409b72:	60e2                	ld	ra,24(sp)
ffffffc050409b74:	6442                	ld	s0,16(sp)
ffffffc050409b76:	6105                	addi	sp,sp,32
ffffffc050409b78:	8082                	ret

ffffffc050409b7a <list_empty>:
ffffffc050409b7a:	1101                	addi	sp,sp,-32
ffffffc050409b7c:	ec22                	sd	s0,24(sp)
ffffffc050409b7e:	1000                	addi	s0,sp,32
ffffffc050409b80:	fea43423          	sd	a0,-24(s0)
ffffffc050409b84:	fe843783          	ld	a5,-24(s0)
ffffffc050409b88:	639c                	ld	a5,0(a5)
ffffffc050409b8a:	fe843703          	ld	a4,-24(s0)
ffffffc050409b8e:	40f707b3          	sub	a5,a4,a5
ffffffc050409b92:	0017b793          	seqz	a5,a5
ffffffc050409b96:	0ff7f793          	andi	a5,a5,255
ffffffc050409b9a:	2781                	sext.w	a5,a5
ffffffc050409b9c:	853e                	mv	a0,a5
ffffffc050409b9e:	6462                	ld	s0,24(sp)
ffffffc050409ba0:	6105                	addi	sp,sp,32
ffffffc050409ba2:	8082                	ret

ffffffc050409ba4 <_panic>:
ffffffc050409ba4:	7179                	addi	sp,sp,-48
ffffffc050409ba6:	f406                	sd	ra,40(sp)
ffffffc050409ba8:	f022                	sd	s0,32(sp)
ffffffc050409baa:	1800                	addi	s0,sp,48
ffffffc050409bac:	fea43423          	sd	a0,-24(s0)
ffffffc050409bb0:	87ae                	mv	a5,a1
ffffffc050409bb2:	fcc43c23          	sd	a2,-40(s0)
ffffffc050409bb6:	fef42223          	sw	a5,-28(s0)
ffffffc050409bba:	fe442783          	lw	a5,-28(s0)
ffffffc050409bbe:	86be                	mv	a3,a5
ffffffc050409bc0:	fe843603          	ld	a2,-24(s0)
ffffffc050409bc4:	fd843583          	ld	a1,-40(s0)
ffffffc050409bc8:	00004517          	auipc	a0,0x4
ffffffc050409bcc:	c7050513          	addi	a0,a0,-912 # ffffffc05040d838 <__FUNCTION__.2047+0x8b8>
ffffffc050409bd0:	4b5020ef          	jal	ra,ffffffc05040c884 <printk>
ffffffc050409bd4:	a001                	j	ffffffc050409bd4 <_panic+0x30>

ffffffc050409bd6 <init_system_futex>:
ffffffc050409bd6:	1101                	addi	sp,sp,-32
ffffffc050409bd8:	ec06                	sd	ra,24(sp)
ffffffc050409bda:	e822                	sd	s0,16(sp)
ffffffc050409bdc:	1000                	addi	s0,sp,32
ffffffc050409bde:	cdaf60ef          	jal	ra,ffffffc0504000b8 <disable_preempt>
ffffffc050409be2:	fe042623          	sw	zero,-20(s0)
ffffffc050409be6:	a015                	j	ffffffc050409c0a <init_system_futex+0x34>
ffffffc050409be8:	fec42783          	lw	a5,-20(s0)
ffffffc050409bec:	00479713          	slli	a4,a5,0x4
ffffffc050409bf0:	007f7797          	auipc	a5,0x7f7
ffffffc050409bf4:	46078793          	addi	a5,a5,1120 # ffffffc050c01050 <futex_buckets>
ffffffc050409bf8:	97ba                	add	a5,a5,a4
ffffffc050409bfa:	853e                	mv	a0,a5
ffffffc050409bfc:	ee9ff0ef          	jal	ra,ffffffc050409ae4 <init_list_head>
ffffffc050409c00:	fec42783          	lw	a5,-20(s0)
ffffffc050409c04:	2785                	addiw	a5,a5,1
ffffffc050409c06:	fef42623          	sw	a5,-20(s0)
ffffffc050409c0a:	fec42783          	lw	a5,-20(s0)
ffffffc050409c0e:	0007871b          	sext.w	a4,a5
ffffffc050409c12:	06300793          	li	a5,99
ffffffc050409c16:	fce7d9e3          	bge	a5,a4,ffffffc050409be8 <init_system_futex+0x12>
ffffffc050409c1a:	c66f60ef          	jal	ra,ffffffc050400080 <enable_preempt>
ffffffc050409c1e:	0001                	nop
ffffffc050409c20:	60e2                	ld	ra,24(sp)
ffffffc050409c22:	6442                	ld	s0,16(sp)
ffffffc050409c24:	6105                	addi	sp,sp,32
ffffffc050409c26:	8082                	ret

ffffffc050409c28 <futex_hash>:
ffffffc050409c28:	1101                	addi	sp,sp,-32
ffffffc050409c2a:	ec22                	sd	s0,24(sp)
ffffffc050409c2c:	1000                	addi	s0,sp,32
ffffffc050409c2e:	fea43423          	sd	a0,-24(s0)
ffffffc050409c32:	fe843783          	ld	a5,-24(s0)
ffffffc050409c36:	01e7d713          	srli	a4,a5,0x1e
ffffffc050409c3a:	fe843783          	ld	a5,-24(s0)
ffffffc050409c3e:	8f3d                	xor	a4,a4,a5
ffffffc050409c40:	00004797          	auipc	a5,0x4
ffffffc050409c44:	c5078793          	addi	a5,a5,-944 # ffffffc05040d890 <__FUNCTION__.1388+0x10>
ffffffc050409c48:	639c                	ld	a5,0(a5)
ffffffc050409c4a:	02f707b3          	mul	a5,a4,a5
ffffffc050409c4e:	fef43423          	sd	a5,-24(s0)
ffffffc050409c52:	fe843783          	ld	a5,-24(s0)
ffffffc050409c56:	01b7d713          	srli	a4,a5,0x1b
ffffffc050409c5a:	fe843783          	ld	a5,-24(s0)
ffffffc050409c5e:	8f3d                	xor	a4,a4,a5
ffffffc050409c60:	00004797          	auipc	a5,0x4
ffffffc050409c64:	c3878793          	addi	a5,a5,-968 # ffffffc05040d898 <__FUNCTION__.1388+0x18>
ffffffc050409c68:	639c                	ld	a5,0(a5)
ffffffc050409c6a:	02f707b3          	mul	a5,a4,a5
ffffffc050409c6e:	fef43423          	sd	a5,-24(s0)
ffffffc050409c72:	fe843783          	ld	a5,-24(s0)
ffffffc050409c76:	83fd                	srli	a5,a5,0x1f
ffffffc050409c78:	fe843703          	ld	a4,-24(s0)
ffffffc050409c7c:	8fb9                	xor	a5,a5,a4
ffffffc050409c7e:	fef43423          	sd	a5,-24(s0)
ffffffc050409c82:	fe843703          	ld	a4,-24(s0)
ffffffc050409c86:	06400793          	li	a5,100
ffffffc050409c8a:	02f777b3          	remu	a5,a4,a5
ffffffc050409c8e:	2781                	sext.w	a5,a5
ffffffc050409c90:	853e                	mv	a0,a5
ffffffc050409c92:	6462                	ld	s0,24(sp)
ffffffc050409c94:	6105                	addi	sp,sp,32
ffffffc050409c96:	8082                	ret

ffffffc050409c98 <get_node>:
ffffffc050409c98:	715d                	addi	sp,sp,-80
ffffffc050409c9a:	e486                	sd	ra,72(sp)
ffffffc050409c9c:	e0a2                	sd	s0,64(sp)
ffffffc050409c9e:	0880                	addi	s0,sp,80
ffffffc050409ca0:	faa43c23          	sd	a0,-72(s0)
ffffffc050409ca4:	87ae                	mv	a5,a1
ffffffc050409ca6:	faf42a23          	sw	a5,-76(s0)
ffffffc050409caa:	fb843783          	ld	a5,-72(s0)
ffffffc050409cae:	853e                	mv	a0,a5
ffffffc050409cb0:	f79ff0ef          	jal	ra,ffffffc050409c28 <futex_hash>
ffffffc050409cb4:	87aa                	mv	a5,a0
ffffffc050409cb6:	fef42223          	sw	a5,-28(s0)
ffffffc050409cba:	fe442783          	lw	a5,-28(s0)
ffffffc050409cbe:	00479713          	slli	a4,a5,0x4
ffffffc050409cc2:	007f7797          	auipc	a5,0x7f7
ffffffc050409cc6:	38e78793          	addi	a5,a5,910 # ffffffc050c01050 <futex_buckets>
ffffffc050409cca:	97ba                	add	a5,a5,a4
ffffffc050409ccc:	fcf43c23          	sd	a5,-40(s0)
ffffffc050409cd0:	fd843783          	ld	a5,-40(s0)
ffffffc050409cd4:	639c                	ld	a5,0(a5)
ffffffc050409cd6:	fef43423          	sd	a5,-24(s0)
ffffffc050409cda:	a80d                	j	ffffffc050409d0c <get_node+0x74>
ffffffc050409cdc:	fe843783          	ld	a5,-24(s0)
ffffffc050409ce0:	fcf43423          	sd	a5,-56(s0)
ffffffc050409ce4:	fc843783          	ld	a5,-56(s0)
ffffffc050409ce8:	17e1                	addi	a5,a5,-8
ffffffc050409cea:	fcf43023          	sd	a5,-64(s0)
ffffffc050409cee:	fc043783          	ld	a5,-64(s0)
ffffffc050409cf2:	6398                	ld	a4,0(a5)
ffffffc050409cf4:	fb843783          	ld	a5,-72(s0)
ffffffc050409cf8:	00f71563          	bne	a4,a5,ffffffc050409d02 <get_node+0x6a>
ffffffc050409cfc:	fc043783          	ld	a5,-64(s0)
ffffffc050409d00:	a0b5                	j	ffffffc050409d6c <get_node+0xd4>
ffffffc050409d02:	fe843783          	ld	a5,-24(s0)
ffffffc050409d06:	639c                	ld	a5,0(a5)
ffffffc050409d08:	fef43423          	sd	a5,-24(s0)
ffffffc050409d0c:	fe843703          	ld	a4,-24(s0)
ffffffc050409d10:	fd843783          	ld	a5,-40(s0)
ffffffc050409d14:	fcf714e3          	bne	a4,a5,ffffffc050409cdc <get_node+0x44>
ffffffc050409d18:	fb442783          	lw	a5,-76(s0)
ffffffc050409d1c:	2781                	sext.w	a5,a5
ffffffc050409d1e:	c7b1                	beqz	a5,ffffffc050409d6a <get_node+0xd2>
ffffffc050409d20:	02800513          	li	a0,40
ffffffc050409d24:	3f8010ef          	jal	ra,ffffffc05040b11c <kmalloc>
ffffffc050409d28:	fca43823          	sd	a0,-48(s0)
ffffffc050409d2c:	fb843703          	ld	a4,-72(s0)
ffffffc050409d30:	fd043783          	ld	a5,-48(s0)
ffffffc050409d34:	e398                	sd	a4,0(a5)
ffffffc050409d36:	fd043783          	ld	a5,-48(s0)
ffffffc050409d3a:	07e1                	addi	a5,a5,24
ffffffc050409d3c:	853e                	mv	a0,a5
ffffffc050409d3e:	da7ff0ef          	jal	ra,ffffffc050409ae4 <init_list_head>
ffffffc050409d42:	fd043783          	ld	a5,-48(s0)
ffffffc050409d46:	00878693          	addi	a3,a5,8
ffffffc050409d4a:	fe442783          	lw	a5,-28(s0)
ffffffc050409d4e:	00479713          	slli	a4,a5,0x4
ffffffc050409d52:	007f7797          	auipc	a5,0x7f7
ffffffc050409d56:	2fe78793          	addi	a5,a5,766 # ffffffc050c01050 <futex_buckets>
ffffffc050409d5a:	97ba                	add	a5,a5,a4
ffffffc050409d5c:	85be                	mv	a1,a5
ffffffc050409d5e:	8536                	mv	a0,a3
ffffffc050409d60:	dedff0ef          	jal	ra,ffffffc050409b4c <list_add_tail>
ffffffc050409d64:	fd043783          	ld	a5,-48(s0)
ffffffc050409d68:	a011                	j	ffffffc050409d6c <get_node+0xd4>
ffffffc050409d6a:	4781                	li	a5,0
ffffffc050409d6c:	853e                	mv	a0,a5
ffffffc050409d6e:	60a6                	ld	ra,72(sp)
ffffffc050409d70:	6406                	ld	s0,64(sp)
ffffffc050409d72:	6161                	addi	sp,sp,80
ffffffc050409d74:	8082                	ret

ffffffc050409d76 <futex_wait>:
ffffffc050409d76:	7179                	addi	sp,sp,-48
ffffffc050409d78:	f406                	sd	ra,40(sp)
ffffffc050409d7a:	f022                	sd	s0,32(sp)
ffffffc050409d7c:	1800                	addi	s0,sp,48
ffffffc050409d7e:	fca43c23          	sd	a0,-40(s0)
ffffffc050409d82:	fcb43823          	sd	a1,-48(s0)
ffffffc050409d86:	d4af60ef          	jal	ra,ffffffc0504002d0 <get_current_cpu_id>
ffffffc050409d8a:	87aa                	mv	a5,a0
ffffffc050409d8c:	e791                	bnez	a5,ffffffc050409d98 <futex_wait+0x22>
ffffffc050409d8e:	001f8797          	auipc	a5,0x1f8
ffffffc050409d92:	25278793          	addi	a5,a5,594 # ffffffc050601fe0 <current_running_core0>
ffffffc050409d96:	a029                	j	ffffffc050409da0 <futex_wait+0x2a>
ffffffc050409d98:	001f8797          	auipc	a5,0x1f8
ffffffc050409d9c:	24078793          	addi	a5,a5,576 # ffffffc050601fd8 <current_running_core1>
ffffffc050409da0:	007f8717          	auipc	a4,0x7f8
ffffffc050409da4:	8f070713          	addi	a4,a4,-1808 # ffffffc050c01690 <current_running>
ffffffc050409da8:	e31c                	sd	a5,0(a4)
ffffffc050409daa:	b0ef60ef          	jal	ra,ffffffc0504000b8 <disable_preempt>
ffffffc050409dae:	4585                	li	a1,1
ffffffc050409db0:	fd843503          	ld	a0,-40(s0)
ffffffc050409db4:	ee5ff0ef          	jal	ra,ffffffc050409c98 <get_node>
ffffffc050409db8:	fea43423          	sd	a0,-24(s0)
ffffffc050409dbc:	fe843783          	ld	a5,-24(s0)
ffffffc050409dc0:	ef89                	bnez	a5,ffffffc050409dda <futex_wait+0x64>
ffffffc050409dc2:	00004617          	auipc	a2,0x4
ffffffc050409dc6:	abe60613          	addi	a2,a2,-1346 # ffffffc05040d880 <__FUNCTION__.1388>
ffffffc050409dca:	03600593          	li	a1,54
ffffffc050409dce:	00004517          	auipc	a0,0x4
ffffffc050409dd2:	a9250513          	addi	a0,a0,-1390 # ffffffc05040d860 <__FUNCTION__.2047+0x8e0>
ffffffc050409dd6:	dcfff0ef          	jal	ra,ffffffc050409ba4 <_panic>
ffffffc050409dda:	fd843783          	ld	a5,-40(s0)
ffffffc050409dde:	639c                	ld	a5,0(a5)
ffffffc050409de0:	fd043703          	ld	a4,-48(s0)
ffffffc050409de4:	02f71363          	bne	a4,a5,ffffffc050409e0a <futex_wait+0x94>
ffffffc050409de8:	007f8797          	auipc	a5,0x7f8
ffffffc050409dec:	8a878793          	addi	a5,a5,-1880 # ffffffc050c01690 <current_running>
ffffffc050409df0:	639c                	ld	a5,0(a5)
ffffffc050409df2:	639c                	ld	a5,0(a5)
ffffffc050409df4:	01878713          	addi	a4,a5,24
ffffffc050409df8:	fe843783          	ld	a5,-24(s0)
ffffffc050409dfc:	07e1                	addi	a5,a5,24
ffffffc050409dfe:	85be                	mv	a1,a5
ffffffc050409e00:	853a                	mv	a0,a4
ffffffc050409e02:	395000ef          	jal	ra,ffffffc05040a996 <do_block>
ffffffc050409e06:	45a000ef          	jal	ra,ffffffc05040a260 <do_scheduler>
ffffffc050409e0a:	a76f60ef          	jal	ra,ffffffc050400080 <enable_preempt>
ffffffc050409e0e:	0001                	nop
ffffffc050409e10:	70a2                	ld	ra,40(sp)
ffffffc050409e12:	7402                	ld	s0,32(sp)
ffffffc050409e14:	6145                	addi	sp,sp,48
ffffffc050409e16:	8082                	ret

ffffffc050409e18 <futex_wakeup>:
ffffffc050409e18:	7179                	addi	sp,sp,-48
ffffffc050409e1a:	f406                	sd	ra,40(sp)
ffffffc050409e1c:	f022                	sd	s0,32(sp)
ffffffc050409e1e:	1800                	addi	s0,sp,48
ffffffc050409e20:	fca43c23          	sd	a0,-40(s0)
ffffffc050409e24:	87ae                	mv	a5,a1
ffffffc050409e26:	fcf42a23          	sw	a5,-44(s0)
ffffffc050409e2a:	a8ef60ef          	jal	ra,ffffffc0504000b8 <disable_preempt>
ffffffc050409e2e:	4581                	li	a1,0
ffffffc050409e30:	fd843503          	ld	a0,-40(s0)
ffffffc050409e34:	e65ff0ef          	jal	ra,ffffffc050409c98 <get_node>
ffffffc050409e38:	fea43023          	sd	a0,-32(s0)
ffffffc050409e3c:	fe043783          	ld	a5,-32(s0)
ffffffc050409e40:	c3a9                	beqz	a5,ffffffc050409e82 <futex_wakeup+0x6a>
ffffffc050409e42:	fe042623          	sw	zero,-20(s0)
ffffffc050409e46:	a025                	j	ffffffc050409e6e <futex_wakeup+0x56>
ffffffc050409e48:	fe043783          	ld	a5,-32(s0)
ffffffc050409e4c:	07e1                	addi	a5,a5,24
ffffffc050409e4e:	853e                	mv	a0,a5
ffffffc050409e50:	d2bff0ef          	jal	ra,ffffffc050409b7a <list_empty>
ffffffc050409e54:	87aa                	mv	a5,a0
ffffffc050409e56:	e78d                	bnez	a5,ffffffc050409e80 <futex_wakeup+0x68>
ffffffc050409e58:	fe043783          	ld	a5,-32(s0)
ffffffc050409e5c:	6f9c                	ld	a5,24(a5)
ffffffc050409e5e:	853e                	mv	a0,a5
ffffffc050409e60:	407000ef          	jal	ra,ffffffc05040aa66 <do_unblock>
ffffffc050409e64:	fec42783          	lw	a5,-20(s0)
ffffffc050409e68:	2785                	addiw	a5,a5,1
ffffffc050409e6a:	fef42623          	sw	a5,-20(s0)
ffffffc050409e6e:	fec42703          	lw	a4,-20(s0)
ffffffc050409e72:	fd442783          	lw	a5,-44(s0)
ffffffc050409e76:	2701                	sext.w	a4,a4
ffffffc050409e78:	2781                	sext.w	a5,a5
ffffffc050409e7a:	fcf747e3          	blt	a4,a5,ffffffc050409e48 <futex_wakeup+0x30>
ffffffc050409e7e:	a011                	j	ffffffc050409e82 <futex_wakeup+0x6a>
ffffffc050409e80:	0001                	nop
ffffffc050409e82:	3de000ef          	jal	ra,ffffffc05040a260 <do_scheduler>
ffffffc050409e86:	9faf60ef          	jal	ra,ffffffc050400080 <enable_preempt>
ffffffc050409e8a:	0001                	nop
ffffffc050409e8c:	70a2                	ld	ra,40(sp)
ffffffc050409e8e:	7402                	ld	s0,32(sp)
ffffffc050409e90:	6145                	addi	sp,sp,48
ffffffc050409e92:	8082                	ret

ffffffc050409e94 <_list_add>:
ffffffc050409e94:	7179                	addi	sp,sp,-48
ffffffc050409e96:	f422                	sd	s0,40(sp)
ffffffc050409e98:	1800                	addi	s0,sp,48
ffffffc050409e9a:	fea43423          	sd	a0,-24(s0)
ffffffc050409e9e:	feb43023          	sd	a1,-32(s0)
ffffffc050409ea2:	fcc43c23          	sd	a2,-40(s0)
ffffffc050409ea6:	fd843783          	ld	a5,-40(s0)
ffffffc050409eaa:	fe843703          	ld	a4,-24(s0)
ffffffc050409eae:	e798                	sd	a4,8(a5)
ffffffc050409eb0:	fe843783          	ld	a5,-24(s0)
ffffffc050409eb4:	fd843703          	ld	a4,-40(s0)
ffffffc050409eb8:	e398                	sd	a4,0(a5)
ffffffc050409eba:	fe843783          	ld	a5,-24(s0)
ffffffc050409ebe:	fe043703          	ld	a4,-32(s0)
ffffffc050409ec2:	e798                	sd	a4,8(a5)
ffffffc050409ec4:	fe043783          	ld	a5,-32(s0)
ffffffc050409ec8:	fe843703          	ld	a4,-24(s0)
ffffffc050409ecc:	e398                	sd	a4,0(a5)
ffffffc050409ece:	0001                	nop
ffffffc050409ed0:	7422                	ld	s0,40(sp)
ffffffc050409ed2:	6145                	addi	sp,sp,48
ffffffc050409ed4:	8082                	ret

ffffffc050409ed6 <_list_del>:
ffffffc050409ed6:	1101                	addi	sp,sp,-32
ffffffc050409ed8:	ec22                	sd	s0,24(sp)
ffffffc050409eda:	1000                	addi	s0,sp,32
ffffffc050409edc:	fea43423          	sd	a0,-24(s0)
ffffffc050409ee0:	feb43023          	sd	a1,-32(s0)
ffffffc050409ee4:	fe043783          	ld	a5,-32(s0)
ffffffc050409ee8:	fe843703          	ld	a4,-24(s0)
ffffffc050409eec:	e798                	sd	a4,8(a5)
ffffffc050409eee:	fe843783          	ld	a5,-24(s0)
ffffffc050409ef2:	fe043703          	ld	a4,-32(s0)
ffffffc050409ef6:	e398                	sd	a4,0(a5)
ffffffc050409ef8:	0001                	nop
ffffffc050409efa:	6462                	ld	s0,24(sp)
ffffffc050409efc:	6105                	addi	sp,sp,32
ffffffc050409efe:	8082                	ret

ffffffc050409f00 <list_del>:
ffffffc050409f00:	1101                	addi	sp,sp,-32
ffffffc050409f02:	ec06                	sd	ra,24(sp)
ffffffc050409f04:	e822                	sd	s0,16(sp)
ffffffc050409f06:	1000                	addi	s0,sp,32
ffffffc050409f08:	fea43423          	sd	a0,-24(s0)
ffffffc050409f0c:	fe843783          	ld	a5,-24(s0)
ffffffc050409f10:	679c                	ld	a5,8(a5)
ffffffc050409f12:	c79d                	beqz	a5,ffffffc050409f40 <list_del+0x40>
ffffffc050409f14:	fe843783          	ld	a5,-24(s0)
ffffffc050409f18:	639c                	ld	a5,0(a5)
ffffffc050409f1a:	c39d                	beqz	a5,ffffffc050409f40 <list_del+0x40>
ffffffc050409f1c:	fe843783          	ld	a5,-24(s0)
ffffffc050409f20:	6798                	ld	a4,8(a5)
ffffffc050409f22:	fe843783          	ld	a5,-24(s0)
ffffffc050409f26:	639c                	ld	a5,0(a5)
ffffffc050409f28:	85be                	mv	a1,a5
ffffffc050409f2a:	853a                	mv	a0,a4
ffffffc050409f2c:	fabff0ef          	jal	ra,ffffffc050409ed6 <_list_del>
ffffffc050409f30:	fe843783          	ld	a5,-24(s0)
ffffffc050409f34:	0007b423          	sd	zero,8(a5)
ffffffc050409f38:	fe843783          	ld	a5,-24(s0)
ffffffc050409f3c:	0007b023          	sd	zero,0(a5)
ffffffc050409f40:	0001                	nop
ffffffc050409f42:	60e2                	ld	ra,24(sp)
ffffffc050409f44:	6442                	ld	s0,16(sp)
ffffffc050409f46:	6105                	addi	sp,sp,32
ffffffc050409f48:	8082                	ret

ffffffc050409f4a <list_add_tail>:
ffffffc050409f4a:	1101                	addi	sp,sp,-32
ffffffc050409f4c:	ec06                	sd	ra,24(sp)
ffffffc050409f4e:	e822                	sd	s0,16(sp)
ffffffc050409f50:	1000                	addi	s0,sp,32
ffffffc050409f52:	fea43423          	sd	a0,-24(s0)
ffffffc050409f56:	feb43023          	sd	a1,-32(s0)
ffffffc050409f5a:	fe043783          	ld	a5,-32(s0)
ffffffc050409f5e:	679c                	ld	a5,8(a5)
ffffffc050409f60:	fe043603          	ld	a2,-32(s0)
ffffffc050409f64:	85be                	mv	a1,a5
ffffffc050409f66:	fe843503          	ld	a0,-24(s0)
ffffffc050409f6a:	f2bff0ef          	jal	ra,ffffffc050409e94 <_list_add>
ffffffc050409f6e:	0001                	nop
ffffffc050409f70:	60e2                	ld	ra,24(sp)
ffffffc050409f72:	6442                	ld	s0,16(sp)
ffffffc050409f74:	6105                	addi	sp,sp,32
ffffffc050409f76:	8082                	ret

ffffffc050409f78 <list_empty>:
ffffffc050409f78:	1101                	addi	sp,sp,-32
ffffffc050409f7a:	ec22                	sd	s0,24(sp)
ffffffc050409f7c:	1000                	addi	s0,sp,32
ffffffc050409f7e:	fea43423          	sd	a0,-24(s0)
ffffffc050409f82:	fe843783          	ld	a5,-24(s0)
ffffffc050409f86:	639c                	ld	a5,0(a5)
ffffffc050409f88:	fe843703          	ld	a4,-24(s0)
ffffffc050409f8c:	40f707b3          	sub	a5,a4,a5
ffffffc050409f90:	0017b793          	seqz	a5,a5
ffffffc050409f94:	0ff7f793          	andi	a5,a5,255
ffffffc050409f98:	2781                	sext.w	a5,a5
ffffffc050409f9a:	853e                	mv	a0,a5
ffffffc050409f9c:	6462                	ld	s0,24(sp)
ffffffc050409f9e:	6105                	addi	sp,sp,32
ffffffc050409fa0:	8082                	ret

ffffffc050409fa2 <local_flush_tlb_all>:
ffffffc050409fa2:	1141                	addi	sp,sp,-16
ffffffc050409fa4:	e422                	sd	s0,8(sp)
ffffffc050409fa6:	0800                	addi	s0,sp,16
ffffffc050409fa8:	12000073          	sfence.vma
ffffffc050409fac:	0001                	nop
ffffffc050409fae:	6422                	ld	s0,8(sp)
ffffffc050409fb0:	0141                	addi	sp,sp,16
ffffffc050409fb2:	8082                	ret

ffffffc050409fb4 <set_satp>:
ffffffc050409fb4:	7179                	addi	sp,sp,-48
ffffffc050409fb6:	f422                	sd	s0,40(sp)
ffffffc050409fb8:	1800                	addi	s0,sp,48
ffffffc050409fba:	87aa                	mv	a5,a0
ffffffc050409fbc:	872e                	mv	a4,a1
ffffffc050409fbe:	fcc43823          	sd	a2,-48(s0)
ffffffc050409fc2:	fcf42e23          	sw	a5,-36(s0)
ffffffc050409fc6:	87ba                	mv	a5,a4
ffffffc050409fc8:	fcf42c23          	sw	a5,-40(s0)
ffffffc050409fcc:	fdc46783          	lwu	a5,-36(s0)
ffffffc050409fd0:	03c79713          	slli	a4,a5,0x3c
ffffffc050409fd4:	fd846783          	lwu	a5,-40(s0)
ffffffc050409fd8:	17b2                	slli	a5,a5,0x2c
ffffffc050409fda:	8fd9                	or	a5,a5,a4
ffffffc050409fdc:	fd043703          	ld	a4,-48(s0)
ffffffc050409fe0:	8fd9                	or	a5,a5,a4
ffffffc050409fe2:	fef43423          	sd	a5,-24(s0)
ffffffc050409fe6:	fe843783          	ld	a5,-24(s0)
ffffffc050409fea:	12000073          	sfence.vma
ffffffc050409fee:	18079073          	csrw	satp,a5
ffffffc050409ff2:	0001                	nop
ffffffc050409ff4:	7422                	ld	s0,40(sp)
ffffffc050409ff6:	6145                	addi	sp,sp,48
ffffffc050409ff8:	8082                	ret

ffffffc050409ffa <score>:
ffffffc050409ffa:	7179                	addi	sp,sp,-48
ffffffc050409ffc:	f406                	sd	ra,40(sp)
ffffffc050409ffe:	f022                	sd	s0,32(sp)
ffffffc05040a000:	ec26                	sd	s1,24(sp)
ffffffc05040a002:	1800                	addi	s0,sp,48
ffffffc05040a004:	87aa                	mv	a5,a0
ffffffc05040a006:	fcb43823          	sd	a1,-48(s0)
ffffffc05040a00a:	fcf42e23          	sw	a5,-36(s0)
ffffffc05040a00e:	fdc42783          	lw	a5,-36(s0)
ffffffc05040a012:	17c2                	slli	a5,a5,0x30
ffffffc05040a014:	93c1                	srli	a5,a5,0x30
ffffffc05040a016:	873e                	mv	a4,a5
ffffffc05040a018:	87ba                	mv	a5,a4
ffffffc05040a01a:	0027979b          	slliw	a5,a5,0x2
ffffffc05040a01e:	9fb9                	addw	a5,a5,a4
ffffffc05040a020:	03079493          	slli	s1,a5,0x30
ffffffc05040a024:	90c1                	srli	s1,s1,0x30
ffffffc05040a026:	651000ef          	jal	ra,ffffffc05040ae76 <get_ticks>
ffffffc05040a02a:	872a                	mv	a4,a0
ffffffc05040a02c:	fd043783          	ld	a5,-48(s0)
ffffffc05040a030:	8f1d                	sub	a4,a4,a5
ffffffc05040a032:	6789                	lui	a5,0x2
ffffffc05040a034:	71078793          	addi	a5,a5,1808 # 2710 <_start-0xffffffc0503fd8f0>
ffffffc05040a038:	02f757b3          	divu	a5,a4,a5
ffffffc05040a03c:	17c2                	slli	a5,a5,0x30
ffffffc05040a03e:	93c1                	srli	a5,a5,0x30
ffffffc05040a040:	9fa5                	addw	a5,a5,s1
ffffffc05040a042:	17c2                	slli	a5,a5,0x30
ffffffc05040a044:	93c1                	srli	a5,a5,0x30
ffffffc05040a046:	853e                	mv	a0,a5
ffffffc05040a048:	70a2                	ld	ra,40(sp)
ffffffc05040a04a:	7402                	ld	s0,32(sp)
ffffffc05040a04c:	64e2                	ld	s1,24(sp)
ffffffc05040a04e:	6145                	addi	sp,sp,48
ffffffc05040a050:	8082                	ret

ffffffc05040a052 <findnext>:
ffffffc05040a052:	715d                	addi	sp,sp,-80
ffffffc05040a054:	e486                	sd	ra,72(sp)
ffffffc05040a056:	e0a2                	sd	s0,64(sp)
ffffffc05040a058:	0880                	addi	s0,sp,80
ffffffc05040a05a:	faa43c23          	sd	a0,-72(s0)
ffffffc05040a05e:	fe043423          	sd	zero,-24(s0)
ffffffc05040a062:	fb843783          	ld	a5,-72(s0)
ffffffc05040a066:	639c                	ld	a5,0(a5)
ffffffc05040a068:	fef43023          	sd	a5,-32(s0)
ffffffc05040a06c:	fe043783          	ld	a5,-32(s0)
ffffffc05040a070:	fcf43823          	sd	a5,-48(s0)
ffffffc05040a074:	fd043783          	ld	a5,-48(s0)
ffffffc05040a078:	17a1                	addi	a5,a5,-24
ffffffc05040a07a:	fcf43423          	sd	a5,-56(s0)
ffffffc05040a07e:	fc843783          	ld	a5,-56(s0)
ffffffc05040a082:	fef43423          	sd	a5,-24(s0)
ffffffc05040a086:	fc040fa3          	sb	zero,-33(s0)
ffffffc05040a08a:	a0a5                	j	ffffffc05040a0f2 <findnext+0xa0>
ffffffc05040a08c:	fe043783          	ld	a5,-32(s0)
ffffffc05040a090:	fcf43023          	sd	a5,-64(s0)
ffffffc05040a094:	fc043783          	ld	a5,-64(s0)
ffffffc05040a098:	17a1                	addi	a5,a5,-24
ffffffc05040a09a:	fcf43423          	sd	a5,-56(s0)
ffffffc05040a09e:	fc843783          	ld	a5,-56(s0)
ffffffc05040a0a2:	4fb8                	lw	a4,88(a5)
ffffffc05040a0a4:	fc843783          	ld	a5,-56(s0)
ffffffc05040a0a8:	73bc                	ld	a5,96(a5)
ffffffc05040a0aa:	85be                	mv	a1,a5
ffffffc05040a0ac:	853a                	mv	a0,a4
ffffffc05040a0ae:	f4dff0ef          	jal	ra,ffffffc050409ffa <score>
ffffffc05040a0b2:	87aa                	mv	a5,a0
ffffffc05040a0b4:	873e                	mv	a4,a5
ffffffc05040a0b6:	fdf44783          	lbu	a5,-33(s0)
ffffffc05040a0ba:	17c2                	slli	a5,a5,0x30
ffffffc05040a0bc:	93c1                	srli	a5,a5,0x30
ffffffc05040a0be:	2701                	sext.w	a4,a4
ffffffc05040a0c0:	2781                	sext.w	a5,a5
ffffffc05040a0c2:	02e7f363          	bgeu	a5,a4,ffffffc05040a0e8 <findnext+0x96>
ffffffc05040a0c6:	fc843783          	ld	a5,-56(s0)
ffffffc05040a0ca:	fef43423          	sd	a5,-24(s0)
ffffffc05040a0ce:	fc843783          	ld	a5,-56(s0)
ffffffc05040a0d2:	4fb8                	lw	a4,88(a5)
ffffffc05040a0d4:	fc843783          	ld	a5,-56(s0)
ffffffc05040a0d8:	73bc                	ld	a5,96(a5)
ffffffc05040a0da:	85be                	mv	a1,a5
ffffffc05040a0dc:	853a                	mv	a0,a4
ffffffc05040a0de:	f1dff0ef          	jal	ra,ffffffc050409ffa <score>
ffffffc05040a0e2:	87aa                	mv	a5,a0
ffffffc05040a0e4:	fcf40fa3          	sb	a5,-33(s0)
ffffffc05040a0e8:	fe043783          	ld	a5,-32(s0)
ffffffc05040a0ec:	639c                	ld	a5,0(a5)
ffffffc05040a0ee:	fef43023          	sd	a5,-32(s0)
ffffffc05040a0f2:	fe043703          	ld	a4,-32(s0)
ffffffc05040a0f6:	fb843783          	ld	a5,-72(s0)
ffffffc05040a0fa:	f8f719e3          	bne	a4,a5,ffffffc05040a08c <findnext+0x3a>
ffffffc05040a0fe:	fe843783          	ld	a5,-24(s0)
ffffffc05040a102:	853e                	mv	a0,a5
ffffffc05040a104:	60a6                	ld	ra,72(sp)
ffffffc05040a106:	6406                	ld	s0,64(sp)
ffffffc05040a108:	6161                	addi	sp,sp,80
ffffffc05040a10a:	8082                	ret

ffffffc05040a10c <findnext_core>:
ffffffc05040a10c:	7139                	addi	sp,sp,-64
ffffffc05040a10e:	fc06                	sd	ra,56(sp)
ffffffc05040a110:	f822                	sd	s0,48(sp)
ffffffc05040a112:	0080                	addi	s0,sp,64
ffffffc05040a114:	00004797          	auipc	a5,0x4
ffffffc05040a118:	ac478793          	addi	a5,a5,-1340 # ffffffc05040dbd8 <ready_queue>
ffffffc05040a11c:	639c                	ld	a5,0(a5)
ffffffc05040a11e:	fef43423          	sd	a5,-24(s0)
ffffffc05040a122:	478d                	li	a5,3
ffffffc05040a124:	fef403a3          	sb	a5,-25(s0)
ffffffc05040a128:	9a8f60ef          	jal	ra,ffffffc0504002d0 <get_current_cpu_id>
ffffffc05040a12c:	87aa                	mv	a5,a0
ffffffc05040a12e:	fef42023          	sw	a5,-32(s0)
ffffffc05040a132:	a869                	j	ffffffc05040a1cc <findnext_core+0xc0>
ffffffc05040a134:	fe843783          	ld	a5,-24(s0)
ffffffc05040a138:	fcf43c23          	sd	a5,-40(s0)
ffffffc05040a13c:	fd843783          	ld	a5,-40(s0)
ffffffc05040a140:	17a1                	addi	a5,a5,-24
ffffffc05040a142:	fcf43823          	sd	a5,-48(s0)
ffffffc05040a146:	fd043783          	ld	a5,-48(s0)
ffffffc05040a14a:	0b07c703          	lbu	a4,176(a5)
ffffffc05040a14e:	fe744783          	lbu	a5,-25(s0)
ffffffc05040a152:	8ff9                	and	a5,a5,a4
ffffffc05040a154:	fcf407a3          	sb	a5,-49(s0)
ffffffc05040a158:	fe042783          	lw	a5,-32(s0)
ffffffc05040a15c:	2781                	sext.w	a5,a5
ffffffc05040a15e:	e795                	bnez	a5,ffffffc05040a18a <findnext_core+0x7e>
ffffffc05040a160:	fcf44783          	lbu	a5,-49(s0)
ffffffc05040a164:	0ff7f713          	andi	a4,a5,255
ffffffc05040a168:	4785                	li	a5,1
ffffffc05040a16a:	00f70963          	beq	a4,a5,ffffffc05040a17c <findnext_core+0x70>
ffffffc05040a16e:	fcf44783          	lbu	a5,-49(s0)
ffffffc05040a172:	0ff7f713          	andi	a4,a5,255
ffffffc05040a176:	478d                	li	a5,3
ffffffc05040a178:	00f71963          	bne	a4,a5,ffffffc05040a18a <findnext_core+0x7e>
ffffffc05040a17c:	fe843503          	ld	a0,-24(s0)
ffffffc05040a180:	d81ff0ef          	jal	ra,ffffffc050409f00 <list_del>
ffffffc05040a184:	fd043783          	ld	a5,-48(s0)
ffffffc05040a188:	a899                	j	ffffffc05040a1de <findnext_core+0xd2>
ffffffc05040a18a:	fe042783          	lw	a5,-32(s0)
ffffffc05040a18e:	0007871b          	sext.w	a4,a5
ffffffc05040a192:	4785                	li	a5,1
ffffffc05040a194:	02f71763          	bne	a4,a5,ffffffc05040a1c2 <findnext_core+0xb6>
ffffffc05040a198:	fcf44783          	lbu	a5,-49(s0)
ffffffc05040a19c:	0ff7f713          	andi	a4,a5,255
ffffffc05040a1a0:	4789                	li	a5,2
ffffffc05040a1a2:	00f70963          	beq	a4,a5,ffffffc05040a1b4 <findnext_core+0xa8>
ffffffc05040a1a6:	fcf44783          	lbu	a5,-49(s0)
ffffffc05040a1aa:	0ff7f713          	andi	a4,a5,255
ffffffc05040a1ae:	478d                	li	a5,3
ffffffc05040a1b0:	00f71963          	bne	a4,a5,ffffffc05040a1c2 <findnext_core+0xb6>
ffffffc05040a1b4:	fe843503          	ld	a0,-24(s0)
ffffffc05040a1b8:	d49ff0ef          	jal	ra,ffffffc050409f00 <list_del>
ffffffc05040a1bc:	fd043783          	ld	a5,-48(s0)
ffffffc05040a1c0:	a839                	j	ffffffc05040a1de <findnext_core+0xd2>
ffffffc05040a1c2:	fe843783          	ld	a5,-24(s0)
ffffffc05040a1c6:	639c                	ld	a5,0(a5)
ffffffc05040a1c8:	fef43423          	sd	a5,-24(s0)
ffffffc05040a1cc:	fe843703          	ld	a4,-24(s0)
ffffffc05040a1d0:	00004797          	auipc	a5,0x4
ffffffc05040a1d4:	a0878793          	addi	a5,a5,-1528 # ffffffc05040dbd8 <ready_queue>
ffffffc05040a1d8:	f4f71ee3          	bne	a4,a5,ffffffc05040a134 <findnext_core+0x28>
ffffffc05040a1dc:	4781                	li	a5,0
ffffffc05040a1de:	853e                	mv	a0,a5
ffffffc05040a1e0:	70e2                	ld	ra,56(sp)
ffffffc05040a1e2:	7442                	ld	s0,48(sp)
ffffffc05040a1e4:	6121                	addi	sp,sp,64
ffffffc05040a1e6:	8082                	ret

ffffffc05040a1e8 <free_all_page>:
ffffffc05040a1e8:	7139                	addi	sp,sp,-64
ffffffc05040a1ea:	fc06                	sd	ra,56(sp)
ffffffc05040a1ec:	f822                	sd	s0,48(sp)
ffffffc05040a1ee:	0080                	addi	s0,sp,64
ffffffc05040a1f0:	87aa                	mv	a5,a0
ffffffc05040a1f2:	fcf42623          	sw	a5,-52(s0)
ffffffc05040a1f6:	fcc42783          	lw	a5,-52(s0)
ffffffc05040a1fa:	37fd                	addiw	a5,a5,-1
ffffffc05040a1fc:	0007871b          	sext.w	a4,a5
ffffffc05040a200:	0d800793          	li	a5,216
ffffffc05040a204:	02f707b3          	mul	a5,a4,a5
ffffffc05040a208:	0c078713          	addi	a4,a5,192
ffffffc05040a20c:	007f7797          	auipc	a5,0x7f7
ffffffc05040a210:	48c78793          	addi	a5,a5,1164 # ffffffc050c01698 <pcb>
ffffffc05040a214:	97ba                	add	a5,a5,a4
ffffffc05040a216:	fef43423          	sd	a5,-24(s0)
ffffffc05040a21a:	a03d                	j	ffffffc05040a248 <free_all_page+0x60>
ffffffc05040a21c:	fe843783          	ld	a5,-24(s0)
ffffffc05040a220:	639c                	ld	a5,0(a5)
ffffffc05040a222:	fef43023          	sd	a5,-32(s0)
ffffffc05040a226:	fe043783          	ld	a5,-32(s0)
ffffffc05040a22a:	1781                	addi	a5,a5,-32
ffffffc05040a22c:	fcf43c23          	sd	a5,-40(s0)
ffffffc05040a230:	fd843783          	ld	a5,-40(s0)
ffffffc05040a234:	639c                	ld	a5,0(a5)
ffffffc05040a236:	853e                	mv	a0,a5
ffffffc05040a238:	6d3000ef          	jal	ra,ffffffc05040b10a <freePage>
ffffffc05040a23c:	fe843783          	ld	a5,-24(s0)
ffffffc05040a240:	639c                	ld	a5,0(a5)
ffffffc05040a242:	853e                	mv	a0,a5
ffffffc05040a244:	cbdff0ef          	jal	ra,ffffffc050409f00 <list_del>
ffffffc05040a248:	fe843503          	ld	a0,-24(s0)
ffffffc05040a24c:	d2dff0ef          	jal	ra,ffffffc050409f78 <list_empty>
ffffffc05040a250:	87aa                	mv	a5,a0
ffffffc05040a252:	d7e9                	beqz	a5,ffffffc05040a21c <free_all_page+0x34>
ffffffc05040a254:	0001                	nop
ffffffc05040a256:	0001                	nop
ffffffc05040a258:	70e2                	ld	ra,56(sp)
ffffffc05040a25a:	7442                	ld	s0,48(sp)
ffffffc05040a25c:	6121                	addi	sp,sp,64
ffffffc05040a25e:	8082                	ret

ffffffc05040a260 <do_scheduler>:
ffffffc05040a260:	7179                	addi	sp,sp,-48
ffffffc05040a262:	f406                	sd	ra,40(sp)
ffffffc05040a264:	f022                	sd	s0,32(sp)
ffffffc05040a266:	ec26                	sd	s1,24(sp)
ffffffc05040a268:	1800                	addi	s0,sp,48
ffffffc05040a26a:	866f60ef          	jal	ra,ffffffc0504002d0 <get_current_cpu_id>
ffffffc05040a26e:	87aa                	mv	a5,a0
ffffffc05040a270:	e791                	bnez	a5,ffffffc05040a27c <do_scheduler+0x1c>
ffffffc05040a272:	001f8797          	auipc	a5,0x1f8
ffffffc05040a276:	d6e78793          	addi	a5,a5,-658 # ffffffc050601fe0 <current_running_core0>
ffffffc05040a27a:	a029                	j	ffffffc05040a284 <do_scheduler+0x24>
ffffffc05040a27c:	001f8797          	auipc	a5,0x1f8
ffffffc05040a280:	d5c78793          	addi	a5,a5,-676 # ffffffc050601fd8 <current_running_core1>
ffffffc05040a284:	007f7717          	auipc	a4,0x7f7
ffffffc05040a288:	40c70713          	addi	a4,a4,1036 # ffffffc050c01690 <current_running>
ffffffc05040a28c:	e31c                	sd	a5,0(a4)
ffffffc05040a28e:	e7fff0ef          	jal	ra,ffffffc05040a10c <findnext_core>
ffffffc05040a292:	fca43c23          	sd	a0,-40(s0)
ffffffc05040a296:	fd843783          	ld	a5,-40(s0)
ffffffc05040a29a:	e3dd                	bnez	a5,ffffffc05040a340 <do_scheduler+0xe0>
ffffffc05040a29c:	007f7797          	auipc	a5,0x7f7
ffffffc05040a2a0:	3f478793          	addi	a5,a5,1012 # ffffffc050c01690 <current_running>
ffffffc05040a2a4:	639c                	ld	a5,0(a5)
ffffffc05040a2a6:	639c                	ld	a5,0(a5)
ffffffc05040a2a8:	5b9c                	lw	a5,48(a5)
ffffffc05040a2aa:	873e                	mv	a4,a5
ffffffc05040a2ac:	4785                	li	a5,1
ffffffc05040a2ae:	06f71a63          	bne	a4,a5,ffffffc05040a322 <do_scheduler+0xc2>
ffffffc05040a2b2:	81ef60ef          	jal	ra,ffffffc0504002d0 <get_current_cpu_id>
ffffffc05040a2b6:	87aa                	mv	a5,a0
ffffffc05040a2b8:	ef89                	bnez	a5,ffffffc05040a2d2 <do_scheduler+0x72>
ffffffc05040a2ba:	007f7797          	auipc	a5,0x7f7
ffffffc05040a2be:	3d678793          	addi	a5,a5,982 # ffffffc050c01690 <current_running>
ffffffc05040a2c2:	639c                	ld	a5,0(a5)
ffffffc05040a2c4:	639c                	ld	a5,0(a5)
ffffffc05040a2c6:	0b07c783          	lbu	a5,176(a5)
ffffffc05040a2ca:	873e                	mv	a4,a5
ffffffc05040a2cc:	4785                	li	a5,1
ffffffc05040a2ce:	04f70163          	beq	a4,a5,ffffffc05040a310 <do_scheduler+0xb0>
ffffffc05040a2d2:	ffff50ef          	jal	ra,ffffffc0504002d0 <get_current_cpu_id>
ffffffc05040a2d6:	87aa                	mv	a5,a0
ffffffc05040a2d8:	873e                	mv	a4,a5
ffffffc05040a2da:	4785                	li	a5,1
ffffffc05040a2dc:	00f71e63          	bne	a4,a5,ffffffc05040a2f8 <do_scheduler+0x98>
ffffffc05040a2e0:	007f7797          	auipc	a5,0x7f7
ffffffc05040a2e4:	3b078793          	addi	a5,a5,944 # ffffffc050c01690 <current_running>
ffffffc05040a2e8:	639c                	ld	a5,0(a5)
ffffffc05040a2ea:	639c                	ld	a5,0(a5)
ffffffc05040a2ec:	0b07c783          	lbu	a5,176(a5)
ffffffc05040a2f0:	873e                	mv	a4,a5
ffffffc05040a2f2:	4789                	li	a5,2
ffffffc05040a2f4:	00f70e63          	beq	a4,a5,ffffffc05040a310 <do_scheduler+0xb0>
ffffffc05040a2f8:	007f7797          	auipc	a5,0x7f7
ffffffc05040a2fc:	39878793          	addi	a5,a5,920 # ffffffc050c01690 <current_running>
ffffffc05040a300:	639c                	ld	a5,0(a5)
ffffffc05040a302:	639c                	ld	a5,0(a5)
ffffffc05040a304:	0b07c783          	lbu	a5,176(a5)
ffffffc05040a308:	873e                	mv	a4,a5
ffffffc05040a30a:	478d                	li	a5,3
ffffffc05040a30c:	00f71b63          	bne	a4,a5,ffffffc05040a322 <do_scheduler+0xc2>
ffffffc05040a310:	007f7797          	auipc	a5,0x7f7
ffffffc05040a314:	38078793          	addi	a5,a5,896 # ffffffc050c01690 <current_running>
ffffffc05040a318:	639c                	ld	a5,0(a5)
ffffffc05040a31a:	639c                	ld	a5,0(a5)
ffffffc05040a31c:	fcf43c23          	sd	a5,-40(s0)
ffffffc05040a320:	a005                	j	ffffffc05040a340 <do_scheduler+0xe0>
ffffffc05040a322:	faff50ef          	jal	ra,ffffffc0504002d0 <get_current_cpu_id>
ffffffc05040a326:	87aa                	mv	a5,a0
ffffffc05040a328:	e791                	bnez	a5,ffffffc05040a334 <do_scheduler+0xd4>
ffffffc05040a32a:	00003797          	auipc	a5,0x3
ffffffc05040a32e:	6fe78793          	addi	a5,a5,1790 # ffffffc05040da28 <pid0_pcb_core0>
ffffffc05040a332:	a029                	j	ffffffc05040a33c <do_scheduler+0xdc>
ffffffc05040a334:	00003797          	auipc	a5,0x3
ffffffc05040a338:	7cc78793          	addi	a5,a5,1996 # ffffffc05040db00 <pid0_pcb_core1>
ffffffc05040a33c:	fcf43c23          	sd	a5,-40(s0)
ffffffc05040a340:	007f7797          	auipc	a5,0x7f7
ffffffc05040a344:	35078793          	addi	a5,a5,848 # ffffffc050c01690 <current_running>
ffffffc05040a348:	639c                	ld	a5,0(a5)
ffffffc05040a34a:	639c                	ld	a5,0(a5)
ffffffc05040a34c:	fcf43823          	sd	a5,-48(s0)
ffffffc05040a350:	007f7797          	auipc	a5,0x7f7
ffffffc05040a354:	34078793          	addi	a5,a5,832 # ffffffc050c01690 <current_running>
ffffffc05040a358:	639c                	ld	a5,0(a5)
ffffffc05040a35a:	639c                	ld	a5,0(a5)
ffffffc05040a35c:	5b9c                	lw	a5,48(a5)
ffffffc05040a35e:	873e                	mv	a4,a5
ffffffc05040a360:	4785                	li	a5,1
ffffffc05040a362:	04f71963          	bne	a4,a5,ffffffc05040a3b4 <do_scheduler+0x154>
ffffffc05040a366:	007f7797          	auipc	a5,0x7f7
ffffffc05040a36a:	32a78793          	addi	a5,a5,810 # ffffffc050c01690 <current_running>
ffffffc05040a36e:	639c                	ld	a5,0(a5)
ffffffc05040a370:	639c                	ld	a5,0(a5)
ffffffc05040a372:	579c                	lw	a5,40(a5)
ffffffc05040a374:	c3a1                	beqz	a5,ffffffc05040a3b4 <do_scheduler+0x154>
ffffffc05040a376:	007f7797          	auipc	a5,0x7f7
ffffffc05040a37a:	31a78793          	addi	a5,a5,794 # ffffffc050c01690 <current_running>
ffffffc05040a37e:	639c                	ld	a5,0(a5)
ffffffc05040a380:	639c                	ld	a5,0(a5)
ffffffc05040a382:	fd843703          	ld	a4,-40(s0)
ffffffc05040a386:	02f70763          	beq	a4,a5,ffffffc05040a3b4 <do_scheduler+0x154>
ffffffc05040a38a:	007f7797          	auipc	a5,0x7f7
ffffffc05040a38e:	30678793          	addi	a5,a5,774 # ffffffc050c01690 <current_running>
ffffffc05040a392:	639c                	ld	a5,0(a5)
ffffffc05040a394:	639c                	ld	a5,0(a5)
ffffffc05040a396:	85be                	mv	a1,a5
ffffffc05040a398:	00004517          	auipc	a0,0x4
ffffffc05040a39c:	84050513          	addi	a0,a0,-1984 # ffffffc05040dbd8 <ready_queue>
ffffffc05040a3a0:	654000ef          	jal	ra,ffffffc05040a9f4 <enqueue>
ffffffc05040a3a4:	007f7797          	auipc	a5,0x7f7
ffffffc05040a3a8:	2ec78793          	addi	a5,a5,748 # ffffffc050c01690 <current_running>
ffffffc05040a3ac:	639c                	ld	a5,0(a5)
ffffffc05040a3ae:	639c                	ld	a5,0(a5)
ffffffc05040a3b0:	4709                	li	a4,2
ffffffc05040a3b2:	db98                	sw	a4,48(a5)
ffffffc05040a3b4:	fd843783          	ld	a5,-40(s0)
ffffffc05040a3b8:	4705                	li	a4,1
ffffffc05040a3ba:	db98                	sw	a4,48(a5)
ffffffc05040a3bc:	007f7797          	auipc	a5,0x7f7
ffffffc05040a3c0:	2d478793          	addi	a5,a5,724 # ffffffc050c01690 <current_running>
ffffffc05040a3c4:	639c                	ld	a5,0(a5)
ffffffc05040a3c6:	6384                	ld	s1,0(a5)
ffffffc05040a3c8:	2af000ef          	jal	ra,ffffffc05040ae76 <get_ticks>
ffffffc05040a3cc:	87aa                	mv	a5,a0
ffffffc05040a3ce:	f0bc                	sd	a5,96(s1)
ffffffc05040a3d0:	007f7797          	auipc	a5,0x7f7
ffffffc05040a3d4:	2c078793          	addi	a5,a5,704 # ffffffc050c01690 <current_running>
ffffffc05040a3d8:	639c                	ld	a5,0(a5)
ffffffc05040a3da:	fd843703          	ld	a4,-40(s0)
ffffffc05040a3de:	e398                	sd	a4,0(a5)
ffffffc05040a3e0:	007f7797          	auipc	a5,0x7f7
ffffffc05040a3e4:	2b078793          	addi	a5,a5,688 # ffffffc050c01690 <current_running>
ffffffc05040a3e8:	639c                	ld	a5,0(a5)
ffffffc05040a3ea:	639c                	ld	a5,0(a5)
ffffffc05040a3ec:	5798                	lw	a4,40(a5)
ffffffc05040a3ee:	00067797          	auipc	a5,0x67
ffffffc05040a3f2:	2ea78793          	addi	a5,a5,746 # ffffffc0504716d8 <process_id>
ffffffc05040a3f6:	c398                	sw	a4,0(a5)
ffffffc05040a3f8:	fd843783          	ld	a5,-40(s0)
ffffffc05040a3fc:	7fdc                	ld	a5,184(a5)
ffffffc05040a3fe:	83b1                	srli	a5,a5,0xc
ffffffc05040a400:	863e                	mv	a2,a5
ffffffc05040a402:	4585                	li	a1,1
ffffffc05040a404:	4521                	li	a0,8
ffffffc05040a406:	bafff0ef          	jal	ra,ffffffc050409fb4 <set_satp>
ffffffc05040a40a:	b99ff0ef          	jal	ra,ffffffc050409fa2 <local_flush_tlb_all>
ffffffc05040a40e:	fd843583          	ld	a1,-40(s0)
ffffffc05040a412:	fd043503          	ld	a0,-48(s0)
ffffffc05040a416:	cdff50ef          	jal	ra,ffffffc0504000f4 <switch_to>
ffffffc05040a41a:	0001                	nop
ffffffc05040a41c:	70a2                	ld	ra,40(sp)
ffffffc05040a41e:	7402                	ld	s0,32(sp)
ffffffc05040a420:	64e2                	ld	s1,24(sp)
ffffffc05040a422:	6145                	addi	sp,sp,48
ffffffc05040a424:	8082                	ret

ffffffc05040a426 <do_kill>:
ffffffc05040a426:	1101                	addi	sp,sp,-32
ffffffc05040a428:	ec06                	sd	ra,24(sp)
ffffffc05040a42a:	e822                	sd	s0,16(sp)
ffffffc05040a42c:	1000                	addi	s0,sp,32
ffffffc05040a42e:	87aa                	mv	a5,a0
ffffffc05040a430:	fef42623          	sw	a5,-20(s0)
ffffffc05040a434:	fec42783          	lw	a5,-20(s0)
ffffffc05040a438:	0007871b          	sext.w	a4,a5
ffffffc05040a43c:	4785                	li	a5,1
ffffffc05040a43e:	00f71a63          	bne	a4,a5,ffffffc05040a452 <do_kill+0x2c>
ffffffc05040a442:	00003517          	auipc	a0,0x3
ffffffc05040a446:	45e50513          	addi	a0,a0,1118 # ffffffc05040d8a0 <__FUNCTION__.1388+0x20>
ffffffc05040a44a:	4c2020ef          	jal	ra,ffffffc05040c90c <prints>
ffffffc05040a44e:	4781                	li	a5,0
ffffffc05040a450:	a8f9                	j	ffffffc05040a52e <do_kill+0x108>
ffffffc05040a452:	fec42783          	lw	a5,-20(s0)
ffffffc05040a456:	37fd                	addiw	a5,a5,-1
ffffffc05040a458:	0007869b          	sext.w	a3,a5
ffffffc05040a45c:	007f7717          	auipc	a4,0x7f7
ffffffc05040a460:	23c70713          	addi	a4,a4,572 # ffffffc050c01698 <pcb>
ffffffc05040a464:	0d800793          	li	a5,216
ffffffc05040a468:	02f687b3          	mul	a5,a3,a5
ffffffc05040a46c:	97ba                	add	a5,a5,a4
ffffffc05040a46e:	579c                	lw	a5,40(a5)
ffffffc05040a470:	e399                	bnez	a5,ffffffc05040a476 <do_kill+0x50>
ffffffc05040a472:	4781                	li	a5,0
ffffffc05040a474:	a86d                	j	ffffffc05040a52e <do_kill+0x108>
ffffffc05040a476:	fec42783          	lw	a5,-20(s0)
ffffffc05040a47a:	37fd                	addiw	a5,a5,-1
ffffffc05040a47c:	0007869b          	sext.w	a3,a5
ffffffc05040a480:	007f7717          	auipc	a4,0x7f7
ffffffc05040a484:	21870713          	addi	a4,a4,536 # ffffffc050c01698 <pcb>
ffffffc05040a488:	0d800793          	li	a5,216
ffffffc05040a48c:	02f687b3          	mul	a5,a3,a5
ffffffc05040a490:	97ba                	add	a5,a5,a4
ffffffc05040a492:	470d                	li	a4,3
ffffffc05040a494:	db98                	sw	a4,48(a5)
ffffffc05040a496:	fec42783          	lw	a5,-20(s0)
ffffffc05040a49a:	37fd                	addiw	a5,a5,-1
ffffffc05040a49c:	0007869b          	sext.w	a3,a5
ffffffc05040a4a0:	007f7717          	auipc	a4,0x7f7
ffffffc05040a4a4:	1f870713          	addi	a4,a4,504 # ffffffc050c01698 <pcb>
ffffffc05040a4a8:	0d800793          	li	a5,216
ffffffc05040a4ac:	02f687b3          	mul	a5,a3,a5
ffffffc05040a4b0:	97ba                	add	a5,a5,a4
ffffffc05040a4b2:	0207a423          	sw	zero,40(a5)
ffffffc05040a4b6:	fec42783          	lw	a5,-20(s0)
ffffffc05040a4ba:	37fd                	addiw	a5,a5,-1
ffffffc05040a4bc:	0007871b          	sext.w	a4,a5
ffffffc05040a4c0:	0d800793          	li	a5,216
ffffffc05040a4c4:	02f707b3          	mul	a5,a4,a5
ffffffc05040a4c8:	01078713          	addi	a4,a5,16
ffffffc05040a4cc:	007f7797          	auipc	a5,0x7f7
ffffffc05040a4d0:	1cc78793          	addi	a5,a5,460 # ffffffc050c01698 <pcb>
ffffffc05040a4d4:	97ba                	add	a5,a5,a4
ffffffc05040a4d6:	07a1                	addi	a5,a5,8
ffffffc05040a4d8:	853e                	mv	a0,a5
ffffffc05040a4da:	a27ff0ef          	jal	ra,ffffffc050409f00 <list_del>
ffffffc05040a4de:	fec42783          	lw	a5,-20(s0)
ffffffc05040a4e2:	853e                	mv	a0,a5
ffffffc05040a4e4:	d05ff0ef          	jal	ra,ffffffc05040a1e8 <free_all_page>
ffffffc05040a4e8:	fec42783          	lw	a5,-20(s0)
ffffffc05040a4ec:	37fd                	addiw	a5,a5,-1
ffffffc05040a4ee:	0007869b          	sext.w	a3,a5
ffffffc05040a4f2:	007f7717          	auipc	a4,0x7f7
ffffffc05040a4f6:	1a670713          	addi	a4,a4,422 # ffffffc050c01698 <pcb>
ffffffc05040a4fa:	0d800793          	li	a5,216
ffffffc05040a4fe:	02f687b3          	mul	a5,a3,a5
ffffffc05040a502:	97ba                	add	a5,a5,a4
ffffffc05040a504:	5bdc                	lw	a5,52(a5)
ffffffc05040a506:	e39d                	bnez	a5,ffffffc05040a52c <do_kill+0x106>
ffffffc05040a508:	fec42783          	lw	a5,-20(s0)
ffffffc05040a50c:	37fd                	addiw	a5,a5,-1
ffffffc05040a50e:	0007869b          	sext.w	a3,a5
ffffffc05040a512:	007f7717          	auipc	a4,0x7f7
ffffffc05040a516:	18670713          	addi	a4,a4,390 # ffffffc050c01698 <pcb>
ffffffc05040a51a:	0d800793          	li	a5,216
ffffffc05040a51e:	02f687b3          	mul	a5,a3,a5
ffffffc05040a522:	97ba                	add	a5,a5,a4
ffffffc05040a524:	57bc                	lw	a5,104(a5)
ffffffc05040a526:	853e                	mv	a0,a5
ffffffc05040a528:	586000ef          	jal	ra,ffffffc05040aaae <zombie_check>
ffffffc05040a52c:	4785                	li	a5,1
ffffffc05040a52e:	853e                	mv	a0,a5
ffffffc05040a530:	60e2                	ld	ra,24(sp)
ffffffc05040a532:	6442                	ld	s0,16(sp)
ffffffc05040a534:	6105                	addi	sp,sp,32
ffffffc05040a536:	8082                	ret

ffffffc05040a538 <do_process_show>:
ffffffc05040a538:	1101                	addi	sp,sp,-32
ffffffc05040a53a:	ec06                	sd	ra,24(sp)
ffffffc05040a53c:	e822                	sd	s0,16(sp)
ffffffc05040a53e:	1000                	addi	s0,sp,32
ffffffc05040a540:	00003517          	auipc	a0,0x3
ffffffc05040a544:	37850513          	addi	a0,a0,888 # ffffffc05040d8b8 <__FUNCTION__.1388+0x38>
ffffffc05040a548:	3c4020ef          	jal	ra,ffffffc05040c90c <prints>
ffffffc05040a54c:	fe042623          	sw	zero,-20(s0)
ffffffc05040a550:	a691                	j	ffffffc05040a894 <do_process_show+0x35c>
ffffffc05040a552:	007f7717          	auipc	a4,0x7f7
ffffffc05040a556:	14670713          	addi	a4,a4,326 # ffffffc050c01698 <pcb>
ffffffc05040a55a:	fec42683          	lw	a3,-20(s0)
ffffffc05040a55e:	0d800793          	li	a5,216
ffffffc05040a562:	02f687b3          	mul	a5,a3,a5
ffffffc05040a566:	97ba                	add	a5,a5,a4
ffffffc05040a568:	579c                	lw	a5,40(a5)
ffffffc05040a56a:	30078d63          	beqz	a5,ffffffc05040a884 <do_process_show+0x34c>
ffffffc05040a56e:	007f7717          	auipc	a4,0x7f7
ffffffc05040a572:	12a70713          	addi	a4,a4,298 # ffffffc050c01698 <pcb>
ffffffc05040a576:	fec42683          	lw	a3,-20(s0)
ffffffc05040a57a:	0d800793          	li	a5,216
ffffffc05040a57e:	02f687b3          	mul	a5,a3,a5
ffffffc05040a582:	97ba                	add	a5,a5,a4
ffffffc05040a584:	5b9c                	lw	a5,48(a5)
ffffffc05040a586:	86be                	mv	a3,a5
ffffffc05040a588:	470d                	li	a4,3
ffffffc05040a58a:	26e68163          	beq	a3,a4,ffffffc05040a7ec <do_process_show+0x2b4>
ffffffc05040a58e:	86be                	mv	a3,a5
ffffffc05040a590:	470d                	li	a4,3
ffffffc05040a592:	2ed76c63          	bltu	a4,a3,ffffffc05040a88a <do_process_show+0x352>
ffffffc05040a596:	86be                	mv	a3,a5
ffffffc05040a598:	4709                	li	a4,2
ffffffc05040a59a:	28e68f63          	beq	a3,a4,ffffffc05040a838 <do_process_show+0x300>
ffffffc05040a59e:	86be                	mv	a3,a5
ffffffc05040a5a0:	4709                	li	a4,2
ffffffc05040a5a2:	2ed76463          	bltu	a4,a3,ffffffc05040a88a <do_process_show+0x352>
ffffffc05040a5a6:	1e078d63          	beqz	a5,ffffffc05040a7a0 <do_process_show+0x268>
ffffffc05040a5aa:	873e                	mv	a4,a5
ffffffc05040a5ac:	4785                	li	a5,1
ffffffc05040a5ae:	2cf71e63          	bne	a4,a5,ffffffc05040a88a <do_process_show+0x352>
ffffffc05040a5b2:	007f7797          	auipc	a5,0x7f7
ffffffc05040a5b6:	0de78793          	addi	a5,a5,222 # ffffffc050c01690 <current_running>
ffffffc05040a5ba:	639c                	ld	a5,0(a5)
ffffffc05040a5bc:	6398                	ld	a4,0(a5)
ffffffc05040a5be:	fec42683          	lw	a3,-20(s0)
ffffffc05040a5c2:	0d800793          	li	a5,216
ffffffc05040a5c6:	02f686b3          	mul	a3,a3,a5
ffffffc05040a5ca:	007f7797          	auipc	a5,0x7f7
ffffffc05040a5ce:	0ce78793          	addi	a5,a5,206 # ffffffc050c01698 <pcb>
ffffffc05040a5d2:	97b6                	add	a5,a5,a3
ffffffc05040a5d4:	04f71b63          	bne	a4,a5,ffffffc05040a62a <do_process_show+0xf2>
ffffffc05040a5d8:	cf9f50ef          	jal	ra,ffffffc0504002d0 <get_current_cpu_id>
ffffffc05040a5dc:	87aa                	mv	a5,a0
ffffffc05040a5de:	e7b1                	bnez	a5,ffffffc05040a62a <do_process_show+0xf2>
ffffffc05040a5e0:	007f7717          	auipc	a4,0x7f7
ffffffc05040a5e4:	0b870713          	addi	a4,a4,184 # ffffffc050c01698 <pcb>
ffffffc05040a5e8:	fec42683          	lw	a3,-20(s0)
ffffffc05040a5ec:	0d800793          	li	a5,216
ffffffc05040a5f0:	02f687b3          	mul	a5,a3,a5
ffffffc05040a5f4:	97ba                	add	a5,a5,a4
ffffffc05040a5f6:	578c                	lw	a1,40(a5)
ffffffc05040a5f8:	007f7717          	auipc	a4,0x7f7
ffffffc05040a5fc:	0a070713          	addi	a4,a4,160 # ffffffc050c01698 <pcb>
ffffffc05040a600:	fec42683          	lw	a3,-20(s0)
ffffffc05040a604:	0d800793          	li	a5,216
ffffffc05040a608:	02f687b3          	mul	a5,a3,a5
ffffffc05040a60c:	97ba                	add	a5,a5,a4
ffffffc05040a60e:	0b07c783          	lbu	a5,176(a5)
ffffffc05040a612:	2781                	sext.w	a5,a5
ffffffc05040a614:	86be                	mv	a3,a5
ffffffc05040a616:	00003617          	auipc	a2,0x3
ffffffc05040a61a:	2ba60613          	addi	a2,a2,698 # ffffffc05040d8d0 <__FUNCTION__.1388+0x50>
ffffffc05040a61e:	00003517          	auipc	a0,0x3
ffffffc05040a622:	2ca50513          	addi	a0,a0,714 # ffffffc05040d8e8 <__FUNCTION__.1388+0x68>
ffffffc05040a626:	2e6020ef          	jal	ra,ffffffc05040c90c <prints>
ffffffc05040a62a:	007f7797          	auipc	a5,0x7f7
ffffffc05040a62e:	06678793          	addi	a5,a5,102 # ffffffc050c01690 <current_running>
ffffffc05040a632:	639c                	ld	a5,0(a5)
ffffffc05040a634:	6398                	ld	a4,0(a5)
ffffffc05040a636:	fec42683          	lw	a3,-20(s0)
ffffffc05040a63a:	0d800793          	li	a5,216
ffffffc05040a63e:	02f686b3          	mul	a3,a3,a5
ffffffc05040a642:	007f7797          	auipc	a5,0x7f7
ffffffc05040a646:	05678793          	addi	a5,a5,86 # ffffffc050c01698 <pcb>
ffffffc05040a64a:	97b6                	add	a5,a5,a3
ffffffc05040a64c:	04f71e63          	bne	a4,a5,ffffffc05040a6a8 <do_process_show+0x170>
ffffffc05040a650:	c81f50ef          	jal	ra,ffffffc0504002d0 <get_current_cpu_id>
ffffffc05040a654:	87aa                	mv	a5,a0
ffffffc05040a656:	873e                	mv	a4,a5
ffffffc05040a658:	4785                	li	a5,1
ffffffc05040a65a:	04f71763          	bne	a4,a5,ffffffc05040a6a8 <do_process_show+0x170>
ffffffc05040a65e:	007f7717          	auipc	a4,0x7f7
ffffffc05040a662:	03a70713          	addi	a4,a4,58 # ffffffc050c01698 <pcb>
ffffffc05040a666:	fec42683          	lw	a3,-20(s0)
ffffffc05040a66a:	0d800793          	li	a5,216
ffffffc05040a66e:	02f687b3          	mul	a5,a3,a5
ffffffc05040a672:	97ba                	add	a5,a5,a4
ffffffc05040a674:	578c                	lw	a1,40(a5)
ffffffc05040a676:	007f7717          	auipc	a4,0x7f7
ffffffc05040a67a:	02270713          	addi	a4,a4,34 # ffffffc050c01698 <pcb>
ffffffc05040a67e:	fec42683          	lw	a3,-20(s0)
ffffffc05040a682:	0d800793          	li	a5,216
ffffffc05040a686:	02f687b3          	mul	a5,a3,a5
ffffffc05040a68a:	97ba                	add	a5,a5,a4
ffffffc05040a68c:	0b07c783          	lbu	a5,176(a5)
ffffffc05040a690:	2781                	sext.w	a5,a5
ffffffc05040a692:	86be                	mv	a3,a5
ffffffc05040a694:	00003617          	auipc	a2,0x3
ffffffc05040a698:	26c60613          	addi	a2,a2,620 # ffffffc05040d900 <__FUNCTION__.1388+0x80>
ffffffc05040a69c:	00003517          	auipc	a0,0x3
ffffffc05040a6a0:	24c50513          	addi	a0,a0,588 # ffffffc05040d8e8 <__FUNCTION__.1388+0x68>
ffffffc05040a6a4:	268020ef          	jal	ra,ffffffc05040c90c <prints>
ffffffc05040a6a8:	007f7797          	auipc	a5,0x7f7
ffffffc05040a6ac:	fe878793          	addi	a5,a5,-24 # ffffffc050c01690 <current_running>
ffffffc05040a6b0:	639c                	ld	a5,0(a5)
ffffffc05040a6b2:	6398                	ld	a4,0(a5)
ffffffc05040a6b4:	fec42683          	lw	a3,-20(s0)
ffffffc05040a6b8:	0d800793          	li	a5,216
ffffffc05040a6bc:	02f686b3          	mul	a3,a3,a5
ffffffc05040a6c0:	007f7797          	auipc	a5,0x7f7
ffffffc05040a6c4:	fd878793          	addi	a5,a5,-40 # ffffffc050c01698 <pcb>
ffffffc05040a6c8:	97b6                	add	a5,a5,a3
ffffffc05040a6ca:	04f70b63          	beq	a4,a5,ffffffc05040a720 <do_process_show+0x1e8>
ffffffc05040a6ce:	c03f50ef          	jal	ra,ffffffc0504002d0 <get_current_cpu_id>
ffffffc05040a6d2:	87aa                	mv	a5,a0
ffffffc05040a6d4:	e7b1                	bnez	a5,ffffffc05040a720 <do_process_show+0x1e8>
ffffffc05040a6d6:	007f7717          	auipc	a4,0x7f7
ffffffc05040a6da:	fc270713          	addi	a4,a4,-62 # ffffffc050c01698 <pcb>
ffffffc05040a6de:	fec42683          	lw	a3,-20(s0)
ffffffc05040a6e2:	0d800793          	li	a5,216
ffffffc05040a6e6:	02f687b3          	mul	a5,a3,a5
ffffffc05040a6ea:	97ba                	add	a5,a5,a4
ffffffc05040a6ec:	578c                	lw	a1,40(a5)
ffffffc05040a6ee:	007f7717          	auipc	a4,0x7f7
ffffffc05040a6f2:	faa70713          	addi	a4,a4,-86 # ffffffc050c01698 <pcb>
ffffffc05040a6f6:	fec42683          	lw	a3,-20(s0)
ffffffc05040a6fa:	0d800793          	li	a5,216
ffffffc05040a6fe:	02f687b3          	mul	a5,a3,a5
ffffffc05040a702:	97ba                	add	a5,a5,a4
ffffffc05040a704:	0b07c783          	lbu	a5,176(a5)
ffffffc05040a708:	2781                	sext.w	a5,a5
ffffffc05040a70a:	86be                	mv	a3,a5
ffffffc05040a70c:	00003617          	auipc	a2,0x3
ffffffc05040a710:	1f460613          	addi	a2,a2,500 # ffffffc05040d900 <__FUNCTION__.1388+0x80>
ffffffc05040a714:	00003517          	auipc	a0,0x3
ffffffc05040a718:	1d450513          	addi	a0,a0,468 # ffffffc05040d8e8 <__FUNCTION__.1388+0x68>
ffffffc05040a71c:	1f0020ef          	jal	ra,ffffffc05040c90c <prints>
ffffffc05040a720:	007f7797          	auipc	a5,0x7f7
ffffffc05040a724:	f7078793          	addi	a5,a5,-144 # ffffffc050c01690 <current_running>
ffffffc05040a728:	639c                	ld	a5,0(a5)
ffffffc05040a72a:	6398                	ld	a4,0(a5)
ffffffc05040a72c:	fec42683          	lw	a3,-20(s0)
ffffffc05040a730:	0d800793          	li	a5,216
ffffffc05040a734:	02f686b3          	mul	a3,a3,a5
ffffffc05040a738:	007f7797          	auipc	a5,0x7f7
ffffffc05040a73c:	f6078793          	addi	a5,a5,-160 # ffffffc050c01698 <pcb>
ffffffc05040a740:	97b6                	add	a5,a5,a3
ffffffc05040a742:	14f70363          	beq	a4,a5,ffffffc05040a888 <do_process_show+0x350>
ffffffc05040a746:	b8bf50ef          	jal	ra,ffffffc0504002d0 <get_current_cpu_id>
ffffffc05040a74a:	87aa                	mv	a5,a0
ffffffc05040a74c:	873e                	mv	a4,a5
ffffffc05040a74e:	4785                	li	a5,1
ffffffc05040a750:	12f71c63          	bne	a4,a5,ffffffc05040a888 <do_process_show+0x350>
ffffffc05040a754:	007f7717          	auipc	a4,0x7f7
ffffffc05040a758:	f4470713          	addi	a4,a4,-188 # ffffffc050c01698 <pcb>
ffffffc05040a75c:	fec42683          	lw	a3,-20(s0)
ffffffc05040a760:	0d800793          	li	a5,216
ffffffc05040a764:	02f687b3          	mul	a5,a3,a5
ffffffc05040a768:	97ba                	add	a5,a5,a4
ffffffc05040a76a:	578c                	lw	a1,40(a5)
ffffffc05040a76c:	007f7717          	auipc	a4,0x7f7
ffffffc05040a770:	f2c70713          	addi	a4,a4,-212 # ffffffc050c01698 <pcb>
ffffffc05040a774:	fec42683          	lw	a3,-20(s0)
ffffffc05040a778:	0d800793          	li	a5,216
ffffffc05040a77c:	02f687b3          	mul	a5,a3,a5
ffffffc05040a780:	97ba                	add	a5,a5,a4
ffffffc05040a782:	0b07c783          	lbu	a5,176(a5)
ffffffc05040a786:	2781                	sext.w	a5,a5
ffffffc05040a788:	86be                	mv	a3,a5
ffffffc05040a78a:	00003617          	auipc	a2,0x3
ffffffc05040a78e:	14660613          	addi	a2,a2,326 # ffffffc05040d8d0 <__FUNCTION__.1388+0x50>
ffffffc05040a792:	00003517          	auipc	a0,0x3
ffffffc05040a796:	15650513          	addi	a0,a0,342 # ffffffc05040d8e8 <__FUNCTION__.1388+0x68>
ffffffc05040a79a:	172020ef          	jal	ra,ffffffc05040c90c <prints>
ffffffc05040a79e:	a0ed                	j	ffffffc05040a888 <do_process_show+0x350>
ffffffc05040a7a0:	007f7717          	auipc	a4,0x7f7
ffffffc05040a7a4:	ef870713          	addi	a4,a4,-264 # ffffffc050c01698 <pcb>
ffffffc05040a7a8:	fec42683          	lw	a3,-20(s0)
ffffffc05040a7ac:	0d800793          	li	a5,216
ffffffc05040a7b0:	02f687b3          	mul	a5,a3,a5
ffffffc05040a7b4:	97ba                	add	a5,a5,a4
ffffffc05040a7b6:	578c                	lw	a1,40(a5)
ffffffc05040a7b8:	007f7717          	auipc	a4,0x7f7
ffffffc05040a7bc:	ee070713          	addi	a4,a4,-288 # ffffffc050c01698 <pcb>
ffffffc05040a7c0:	fec42683          	lw	a3,-20(s0)
ffffffc05040a7c4:	0d800793          	li	a5,216
ffffffc05040a7c8:	02f687b3          	mul	a5,a3,a5
ffffffc05040a7cc:	97ba                	add	a5,a5,a4
ffffffc05040a7ce:	0b07c783          	lbu	a5,176(a5)
ffffffc05040a7d2:	2781                	sext.w	a5,a5
ffffffc05040a7d4:	86be                	mv	a3,a5
ffffffc05040a7d6:	00003617          	auipc	a2,0x3
ffffffc05040a7da:	14260613          	addi	a2,a2,322 # ffffffc05040d918 <__FUNCTION__.1388+0x98>
ffffffc05040a7de:	00003517          	auipc	a0,0x3
ffffffc05040a7e2:	10a50513          	addi	a0,a0,266 # ffffffc05040d8e8 <__FUNCTION__.1388+0x68>
ffffffc05040a7e6:	126020ef          	jal	ra,ffffffc05040c90c <prints>
ffffffc05040a7ea:	a045                	j	ffffffc05040a88a <do_process_show+0x352>
ffffffc05040a7ec:	007f7717          	auipc	a4,0x7f7
ffffffc05040a7f0:	eac70713          	addi	a4,a4,-340 # ffffffc050c01698 <pcb>
ffffffc05040a7f4:	fec42683          	lw	a3,-20(s0)
ffffffc05040a7f8:	0d800793          	li	a5,216
ffffffc05040a7fc:	02f687b3          	mul	a5,a3,a5
ffffffc05040a800:	97ba                	add	a5,a5,a4
ffffffc05040a802:	578c                	lw	a1,40(a5)
ffffffc05040a804:	007f7717          	auipc	a4,0x7f7
ffffffc05040a808:	e9470713          	addi	a4,a4,-364 # ffffffc050c01698 <pcb>
ffffffc05040a80c:	fec42683          	lw	a3,-20(s0)
ffffffc05040a810:	0d800793          	li	a5,216
ffffffc05040a814:	02f687b3          	mul	a5,a3,a5
ffffffc05040a818:	97ba                	add	a5,a5,a4
ffffffc05040a81a:	0b07c783          	lbu	a5,176(a5)
ffffffc05040a81e:	2781                	sext.w	a5,a5
ffffffc05040a820:	86be                	mv	a3,a5
ffffffc05040a822:	00003617          	auipc	a2,0x3
ffffffc05040a826:	0fe60613          	addi	a2,a2,254 # ffffffc05040d920 <__FUNCTION__.1388+0xa0>
ffffffc05040a82a:	00003517          	auipc	a0,0x3
ffffffc05040a82e:	0be50513          	addi	a0,a0,190 # ffffffc05040d8e8 <__FUNCTION__.1388+0x68>
ffffffc05040a832:	0da020ef          	jal	ra,ffffffc05040c90c <prints>
ffffffc05040a836:	a891                	j	ffffffc05040a88a <do_process_show+0x352>
ffffffc05040a838:	007f7717          	auipc	a4,0x7f7
ffffffc05040a83c:	e6070713          	addi	a4,a4,-416 # ffffffc050c01698 <pcb>
ffffffc05040a840:	fec42683          	lw	a3,-20(s0)
ffffffc05040a844:	0d800793          	li	a5,216
ffffffc05040a848:	02f687b3          	mul	a5,a3,a5
ffffffc05040a84c:	97ba                	add	a5,a5,a4
ffffffc05040a84e:	578c                	lw	a1,40(a5)
ffffffc05040a850:	007f7717          	auipc	a4,0x7f7
ffffffc05040a854:	e4870713          	addi	a4,a4,-440 # ffffffc050c01698 <pcb>
ffffffc05040a858:	fec42683          	lw	a3,-20(s0)
ffffffc05040a85c:	0d800793          	li	a5,216
ffffffc05040a860:	02f687b3          	mul	a5,a3,a5
ffffffc05040a864:	97ba                	add	a5,a5,a4
ffffffc05040a866:	0b07c783          	lbu	a5,176(a5)
ffffffc05040a86a:	2781                	sext.w	a5,a5
ffffffc05040a86c:	86be                	mv	a3,a5
ffffffc05040a86e:	00003617          	auipc	a2,0x3
ffffffc05040a872:	0ba60613          	addi	a2,a2,186 # ffffffc05040d928 <__FUNCTION__.1388+0xa8>
ffffffc05040a876:	00003517          	auipc	a0,0x3
ffffffc05040a87a:	07250513          	addi	a0,a0,114 # ffffffc05040d8e8 <__FUNCTION__.1388+0x68>
ffffffc05040a87e:	08e020ef          	jal	ra,ffffffc05040c90c <prints>
ffffffc05040a882:	a021                	j	ffffffc05040a88a <do_process_show+0x352>
ffffffc05040a884:	0001                	nop
ffffffc05040a886:	a011                	j	ffffffc05040a88a <do_process_show+0x352>
ffffffc05040a888:	0001                	nop
ffffffc05040a88a:	fec42783          	lw	a5,-20(s0)
ffffffc05040a88e:	2785                	addiw	a5,a5,1
ffffffc05040a890:	fef42623          	sw	a5,-20(s0)
ffffffc05040a894:	fec42783          	lw	a5,-20(s0)
ffffffc05040a898:	0007871b          	sext.w	a4,a5
ffffffc05040a89c:	47bd                	li	a5,15
ffffffc05040a89e:	cae7dae3          	bge	a5,a4,ffffffc05040a552 <do_process_show+0x1a>
ffffffc05040a8a2:	0001                	nop
ffffffc05040a8a4:	0001                	nop
ffffffc05040a8a6:	60e2                	ld	ra,24(sp)
ffffffc05040a8a8:	6442                	ld	s0,16(sp)
ffffffc05040a8aa:	6105                	addi	sp,sp,32
ffffffc05040a8ac:	8082                	ret

ffffffc05040a8ae <do_getpid>:
ffffffc05040a8ae:	1141                	addi	sp,sp,-16
ffffffc05040a8b0:	e406                	sd	ra,8(sp)
ffffffc05040a8b2:	e022                	sd	s0,0(sp)
ffffffc05040a8b4:	0800                	addi	s0,sp,16
ffffffc05040a8b6:	a1bf50ef          	jal	ra,ffffffc0504002d0 <get_current_cpu_id>
ffffffc05040a8ba:	87aa                	mv	a5,a0
ffffffc05040a8bc:	e791                	bnez	a5,ffffffc05040a8c8 <do_getpid+0x1a>
ffffffc05040a8be:	001f7797          	auipc	a5,0x1f7
ffffffc05040a8c2:	72278793          	addi	a5,a5,1826 # ffffffc050601fe0 <current_running_core0>
ffffffc05040a8c6:	a029                	j	ffffffc05040a8d0 <do_getpid+0x22>
ffffffc05040a8c8:	001f7797          	auipc	a5,0x1f7
ffffffc05040a8cc:	71078793          	addi	a5,a5,1808 # ffffffc050601fd8 <current_running_core1>
ffffffc05040a8d0:	007f7717          	auipc	a4,0x7f7
ffffffc05040a8d4:	dc070713          	addi	a4,a4,-576 # ffffffc050c01690 <current_running>
ffffffc05040a8d8:	e31c                	sd	a5,0(a4)
ffffffc05040a8da:	007f7797          	auipc	a5,0x7f7
ffffffc05040a8de:	db678793          	addi	a5,a5,-586 # ffffffc050c01690 <current_running>
ffffffc05040a8e2:	639c                	ld	a5,0(a5)
ffffffc05040a8e4:	639c                	ld	a5,0(a5)
ffffffc05040a8e6:	579c                	lw	a5,40(a5)
ffffffc05040a8e8:	853e                	mv	a0,a5
ffffffc05040a8ea:	60a2                	ld	ra,8(sp)
ffffffc05040a8ec:	6402                	ld	s0,0(sp)
ffffffc05040a8ee:	0141                	addi	sp,sp,16
ffffffc05040a8f0:	8082                	ret

ffffffc05040a8f2 <do_sleep>:
ffffffc05040a8f2:	1101                	addi	sp,sp,-32
ffffffc05040a8f4:	ec06                	sd	ra,24(sp)
ffffffc05040a8f6:	e822                	sd	s0,16(sp)
ffffffc05040a8f8:	1000                	addi	s0,sp,32
ffffffc05040a8fa:	87aa                	mv	a5,a0
ffffffc05040a8fc:	fef42623          	sw	a5,-20(s0)
ffffffc05040a900:	9d1f50ef          	jal	ra,ffffffc0504002d0 <get_current_cpu_id>
ffffffc05040a904:	87aa                	mv	a5,a0
ffffffc05040a906:	e791                	bnez	a5,ffffffc05040a912 <do_sleep+0x20>
ffffffc05040a908:	001f7797          	auipc	a5,0x1f7
ffffffc05040a90c:	6d878793          	addi	a5,a5,1752 # ffffffc050601fe0 <current_running_core0>
ffffffc05040a910:	a029                	j	ffffffc05040a91a <do_sleep+0x28>
ffffffc05040a912:	001f7797          	auipc	a5,0x1f7
ffffffc05040a916:	6c678793          	addi	a5,a5,1734 # ffffffc050601fd8 <current_running_core1>
ffffffc05040a91a:	007f7717          	auipc	a4,0x7f7
ffffffc05040a91e:	d7670713          	addi	a4,a4,-650 # ffffffc050c01690 <current_running>
ffffffc05040a922:	e31c                	sd	a5,0(a4)
ffffffc05040a924:	007f7797          	auipc	a5,0x7f7
ffffffc05040a928:	d6c78793          	addi	a5,a5,-660 # ffffffc050c01690 <current_running>
ffffffc05040a92c:	639c                	ld	a5,0(a5)
ffffffc05040a92e:	639c                	ld	a5,0(a5)
ffffffc05040a930:	0207a823          	sw	zero,48(a5)
ffffffc05040a934:	99df50ef          	jal	ra,ffffffc0504002d0 <get_current_cpu_id>
ffffffc05040a938:	87aa                	mv	a5,a0
ffffffc05040a93a:	873e                	mv	a4,a5
ffffffc05040a93c:	007f7797          	auipc	a5,0x7f7
ffffffc05040a940:	d5478793          	addi	a5,a5,-684 # ffffffc050c01690 <current_running>
ffffffc05040a944:	639c                	ld	a5,0(a5)
ffffffc05040a946:	639c                	ld	a5,0(a5)
ffffffc05040a948:	0ff77713          	andi	a4,a4,255
ffffffc05040a94c:	0ae788a3          	sb	a4,177(a5)
ffffffc05040a950:	007f7797          	auipc	a5,0x7f7
ffffffc05040a954:	d4078793          	addi	a5,a5,-704 # ffffffc050c01690 <current_running>
ffffffc05040a958:	639c                	ld	a5,0(a5)
ffffffc05040a95a:	639c                	ld	a5,0(a5)
ffffffc05040a95c:	01878693          	addi	a3,a5,24
ffffffc05040a960:	00067797          	auipc	a5,0x67
ffffffc05040a964:	dd078793          	addi	a5,a5,-560 # ffffffc050471730 <time_base>
ffffffc05040a968:	439c                	lw	a5,0(a5)
ffffffc05040a96a:	fec42703          	lw	a4,-20(s0)
ffffffc05040a96e:	02f707bb          	mulw	a5,a4,a5
ffffffc05040a972:	2781                	sext.w	a5,a5
ffffffc05040a974:	1782                	slli	a5,a5,0x20
ffffffc05040a976:	9381                	srli	a5,a5,0x20
ffffffc05040a978:	863e                	mv	a2,a5
ffffffc05040a97a:	85b6                	mv	a1,a3
ffffffc05040a97c:	00000517          	auipc	a0,0x0
ffffffc05040a980:	0ea50513          	addi	a0,a0,234 # ffffffc05040aa66 <do_unblock>
ffffffc05040a984:	36a000ef          	jal	ra,ffffffc05040acee <timer_create>
ffffffc05040a988:	8d9ff0ef          	jal	ra,ffffffc05040a260 <do_scheduler>
ffffffc05040a98c:	0001                	nop
ffffffc05040a98e:	60e2                	ld	ra,24(sp)
ffffffc05040a990:	6442                	ld	s0,16(sp)
ffffffc05040a992:	6105                	addi	sp,sp,32
ffffffc05040a994:	8082                	ret

ffffffc05040a996 <do_block>:
ffffffc05040a996:	1101                	addi	sp,sp,-32
ffffffc05040a998:	ec06                	sd	ra,24(sp)
ffffffc05040a99a:	e822                	sd	s0,16(sp)
ffffffc05040a99c:	1000                	addi	s0,sp,32
ffffffc05040a99e:	fea43423          	sd	a0,-24(s0)
ffffffc05040a9a2:	feb43023          	sd	a1,-32(s0)
ffffffc05040a9a6:	92bf50ef          	jal	ra,ffffffc0504002d0 <get_current_cpu_id>
ffffffc05040a9aa:	87aa                	mv	a5,a0
ffffffc05040a9ac:	e791                	bnez	a5,ffffffc05040a9b8 <do_block+0x22>
ffffffc05040a9ae:	001f7797          	auipc	a5,0x1f7
ffffffc05040a9b2:	63278793          	addi	a5,a5,1586 # ffffffc050601fe0 <current_running_core0>
ffffffc05040a9b6:	a029                	j	ffffffc05040a9c0 <do_block+0x2a>
ffffffc05040a9b8:	001f7797          	auipc	a5,0x1f7
ffffffc05040a9bc:	62078793          	addi	a5,a5,1568 # ffffffc050601fd8 <current_running_core1>
ffffffc05040a9c0:	007f7717          	auipc	a4,0x7f7
ffffffc05040a9c4:	cd070713          	addi	a4,a4,-816 # ffffffc050c01690 <current_running>
ffffffc05040a9c8:	e31c                	sd	a5,0(a4)
ffffffc05040a9ca:	fe843583          	ld	a1,-24(s0)
ffffffc05040a9ce:	fe043503          	ld	a0,-32(s0)
ffffffc05040a9d2:	022000ef          	jal	ra,ffffffc05040a9f4 <enqueue>
ffffffc05040a9d6:	007f7797          	auipc	a5,0x7f7
ffffffc05040a9da:	cba78793          	addi	a5,a5,-838 # ffffffc050c01690 <current_running>
ffffffc05040a9de:	639c                	ld	a5,0(a5)
ffffffc05040a9e0:	639c                	ld	a5,0(a5)
ffffffc05040a9e2:	0207a823          	sw	zero,48(a5)
ffffffc05040a9e6:	87bff0ef          	jal	ra,ffffffc05040a260 <do_scheduler>
ffffffc05040a9ea:	0001                	nop
ffffffc05040a9ec:	60e2                	ld	ra,24(sp)
ffffffc05040a9ee:	6442                	ld	s0,16(sp)
ffffffc05040a9f0:	6105                	addi	sp,sp,32
ffffffc05040a9f2:	8082                	ret

ffffffc05040a9f4 <enqueue>:
ffffffc05040a9f4:	1101                	addi	sp,sp,-32
ffffffc05040a9f6:	ec06                	sd	ra,24(sp)
ffffffc05040a9f8:	e822                	sd	s0,16(sp)
ffffffc05040a9fa:	1000                	addi	s0,sp,32
ffffffc05040a9fc:	fea43423          	sd	a0,-24(s0)
ffffffc05040aa00:	feb43023          	sd	a1,-32(s0)
ffffffc05040aa04:	fe043783          	ld	a5,-32(s0)
ffffffc05040aa08:	07e1                	addi	a5,a5,24
ffffffc05040aa0a:	fe843583          	ld	a1,-24(s0)
ffffffc05040aa0e:	853e                	mv	a0,a5
ffffffc05040aa10:	d3aff0ef          	jal	ra,ffffffc050409f4a <list_add_tail>
ffffffc05040aa14:	0001                	nop
ffffffc05040aa16:	60e2                	ld	ra,24(sp)
ffffffc05040aa18:	6442                	ld	s0,16(sp)
ffffffc05040aa1a:	6105                	addi	sp,sp,32
ffffffc05040aa1c:	8082                	ret

ffffffc05040aa1e <dequeue>:
ffffffc05040aa1e:	7179                	addi	sp,sp,-48
ffffffc05040aa20:	f406                	sd	ra,40(sp)
ffffffc05040aa22:	f022                	sd	s0,32(sp)
ffffffc05040aa24:	1800                	addi	s0,sp,48
ffffffc05040aa26:	fca43c23          	sd	a0,-40(s0)
ffffffc05040aa2a:	fd843503          	ld	a0,-40(s0)
ffffffc05040aa2e:	d4aff0ef          	jal	ra,ffffffc050409f78 <list_empty>
ffffffc05040aa32:	87aa                	mv	a5,a0
ffffffc05040aa34:	e785                	bnez	a5,ffffffc05040aa5c <dequeue+0x3e>
ffffffc05040aa36:	fd843783          	ld	a5,-40(s0)
ffffffc05040aa3a:	639c                	ld	a5,0(a5)
ffffffc05040aa3c:	fef43423          	sd	a5,-24(s0)
ffffffc05040aa40:	fe843783          	ld	a5,-24(s0)
ffffffc05040aa44:	17a1                	addi	a5,a5,-24
ffffffc05040aa46:	fef43023          	sd	a5,-32(s0)
ffffffc05040aa4a:	fd843783          	ld	a5,-40(s0)
ffffffc05040aa4e:	639c                	ld	a5,0(a5)
ffffffc05040aa50:	853e                	mv	a0,a5
ffffffc05040aa52:	caeff0ef          	jal	ra,ffffffc050409f00 <list_del>
ffffffc05040aa56:	fe043783          	ld	a5,-32(s0)
ffffffc05040aa5a:	a009                	j	ffffffc05040aa5c <dequeue+0x3e>
ffffffc05040aa5c:	853e                	mv	a0,a5
ffffffc05040aa5e:	70a2                	ld	ra,40(sp)
ffffffc05040aa60:	7402                	ld	s0,32(sp)
ffffffc05040aa62:	6145                	addi	sp,sp,48
ffffffc05040aa64:	8082                	ret

ffffffc05040aa66 <do_unblock>:
ffffffc05040aa66:	7179                	addi	sp,sp,-48
ffffffc05040aa68:	f406                	sd	ra,40(sp)
ffffffc05040aa6a:	f022                	sd	s0,32(sp)
ffffffc05040aa6c:	1800                	addi	s0,sp,48
ffffffc05040aa6e:	fca43c23          	sd	a0,-40(s0)
ffffffc05040aa72:	fd843783          	ld	a5,-40(s0)
ffffffc05040aa76:	fef43423          	sd	a5,-24(s0)
ffffffc05040aa7a:	fe843783          	ld	a5,-24(s0)
ffffffc05040aa7e:	17a1                	addi	a5,a5,-24
ffffffc05040aa80:	fef43023          	sd	a5,-32(s0)
ffffffc05040aa84:	fd843503          	ld	a0,-40(s0)
ffffffc05040aa88:	c78ff0ef          	jal	ra,ffffffc050409f00 <list_del>
ffffffc05040aa8c:	fe043783          	ld	a5,-32(s0)
ffffffc05040aa90:	4709                	li	a4,2
ffffffc05040aa92:	db98                	sw	a4,48(a5)
ffffffc05040aa94:	fe043583          	ld	a1,-32(s0)
ffffffc05040aa98:	00003517          	auipc	a0,0x3
ffffffc05040aa9c:	14050513          	addi	a0,a0,320 # ffffffc05040dbd8 <ready_queue>
ffffffc05040aaa0:	f55ff0ef          	jal	ra,ffffffc05040a9f4 <enqueue>
ffffffc05040aaa4:	0001                	nop
ffffffc05040aaa6:	70a2                	ld	ra,40(sp)
ffffffc05040aaa8:	7402                	ld	s0,32(sp)
ffffffc05040aaaa:	6145                	addi	sp,sp,48
ffffffc05040aaac:	8082                	ret

ffffffc05040aaae <zombie_check>:
ffffffc05040aaae:	1101                	addi	sp,sp,-32
ffffffc05040aab0:	ec06                	sd	ra,24(sp)
ffffffc05040aab2:	e822                	sd	s0,16(sp)
ffffffc05040aab4:	1000                	addi	s0,sp,32
ffffffc05040aab6:	87aa                	mv	a5,a0
ffffffc05040aab8:	fef42623          	sw	a5,-20(s0)
ffffffc05040aabc:	fec42783          	lw	a5,-20(s0)
ffffffc05040aac0:	2781                	sext.w	a5,a5
ffffffc05040aac2:	c795                	beqz	a5,ffffffc05040aaee <zombie_check+0x40>
ffffffc05040aac4:	fec42783          	lw	a5,-20(s0)
ffffffc05040aac8:	37fd                	addiw	a5,a5,-1
ffffffc05040aaca:	0007871b          	sext.w	a4,a5
ffffffc05040aace:	0d800793          	li	a5,216
ffffffc05040aad2:	02f707b3          	mul	a5,a4,a5
ffffffc05040aad6:	01078713          	addi	a4,a5,16
ffffffc05040aada:	007f7797          	auipc	a5,0x7f7
ffffffc05040aade:	bbe78793          	addi	a5,a5,-1090 # ffffffc050c01698 <pcb>
ffffffc05040aae2:	97ba                	add	a5,a5,a4
ffffffc05040aae4:	07a1                	addi	a5,a5,8
ffffffc05040aae6:	853e                	mv	a0,a5
ffffffc05040aae8:	f7fff0ef          	jal	ra,ffffffc05040aa66 <do_unblock>
ffffffc05040aaec:	a011                	j	ffffffc05040aaf0 <zombie_check+0x42>
ffffffc05040aaee:	0001                	nop
ffffffc05040aaf0:	60e2                	ld	ra,24(sp)
ffffffc05040aaf2:	6442                	ld	s0,16(sp)
ffffffc05040aaf4:	6105                	addi	sp,sp,32
ffffffc05040aaf6:	8082                	ret

ffffffc05040aaf8 <do_exit>:
ffffffc05040aaf8:	1141                	addi	sp,sp,-16
ffffffc05040aafa:	e406                	sd	ra,8(sp)
ffffffc05040aafc:	e022                	sd	s0,0(sp)
ffffffc05040aafe:	0800                	addi	s0,sp,16
ffffffc05040ab00:	fd0f50ef          	jal	ra,ffffffc0504002d0 <get_current_cpu_id>
ffffffc05040ab04:	87aa                	mv	a5,a0
ffffffc05040ab06:	e791                	bnez	a5,ffffffc05040ab12 <do_exit+0x1a>
ffffffc05040ab08:	001f7797          	auipc	a5,0x1f7
ffffffc05040ab0c:	4d878793          	addi	a5,a5,1240 # ffffffc050601fe0 <current_running_core0>
ffffffc05040ab10:	a029                	j	ffffffc05040ab1a <do_exit+0x22>
ffffffc05040ab12:	001f7797          	auipc	a5,0x1f7
ffffffc05040ab16:	4c678793          	addi	a5,a5,1222 # ffffffc050601fd8 <current_running_core1>
ffffffc05040ab1a:	007f7717          	auipc	a4,0x7f7
ffffffc05040ab1e:	b7670713          	addi	a4,a4,-1162 # ffffffc050c01690 <current_running>
ffffffc05040ab22:	e31c                	sd	a5,0(a4)
ffffffc05040ab24:	007f7797          	auipc	a5,0x7f7
ffffffc05040ab28:	b6c78793          	addi	a5,a5,-1172 # ffffffc050c01690 <current_running>
ffffffc05040ab2c:	639c                	ld	a5,0(a5)
ffffffc05040ab2e:	639c                	ld	a5,0(a5)
ffffffc05040ab30:	579c                	lw	a5,40(a5)
ffffffc05040ab32:	853e                	mv	a0,a5
ffffffc05040ab34:	eb4ff0ef          	jal	ra,ffffffc05040a1e8 <free_all_page>
ffffffc05040ab38:	007f7797          	auipc	a5,0x7f7
ffffffc05040ab3c:	b5878793          	addi	a5,a5,-1192 # ffffffc050c01690 <current_running>
ffffffc05040ab40:	639c                	ld	a5,0(a5)
ffffffc05040ab42:	639c                	ld	a5,0(a5)
ffffffc05040ab44:	5bdc                	lw	a5,52(a5)
ffffffc05040ab46:	873e                	mv	a4,a5
ffffffc05040ab48:	4785                	li	a5,1
ffffffc05040ab4a:	02f71363          	bne	a4,a5,ffffffc05040ab70 <do_exit+0x78>
ffffffc05040ab4e:	007f7797          	auipc	a5,0x7f7
ffffffc05040ab52:	b4278793          	addi	a5,a5,-1214 # ffffffc050c01690 <current_running>
ffffffc05040ab56:	639c                	ld	a5,0(a5)
ffffffc05040ab58:	639c                	ld	a5,0(a5)
ffffffc05040ab5a:	0207a423          	sw	zero,40(a5)
ffffffc05040ab5e:	007f7797          	auipc	a5,0x7f7
ffffffc05040ab62:	b3278793          	addi	a5,a5,-1230 # ffffffc050c01690 <current_running>
ffffffc05040ab66:	639c                	ld	a5,0(a5)
ffffffc05040ab68:	639c                	ld	a5,0(a5)
ffffffc05040ab6a:	470d                	li	a4,3
ffffffc05040ab6c:	db98                	sw	a4,48(a5)
ffffffc05040ab6e:	a81d                	j	ffffffc05040aba4 <do_exit+0xac>
ffffffc05040ab70:	007f7797          	auipc	a5,0x7f7
ffffffc05040ab74:	b2078793          	addi	a5,a5,-1248 # ffffffc050c01690 <current_running>
ffffffc05040ab78:	639c                	ld	a5,0(a5)
ffffffc05040ab7a:	639c                	ld	a5,0(a5)
ffffffc05040ab7c:	470d                	li	a4,3
ffffffc05040ab7e:	db98                	sw	a4,48(a5)
ffffffc05040ab80:	007f7797          	auipc	a5,0x7f7
ffffffc05040ab84:	b1078793          	addi	a5,a5,-1264 # ffffffc050c01690 <current_running>
ffffffc05040ab88:	639c                	ld	a5,0(a5)
ffffffc05040ab8a:	639c                	ld	a5,0(a5)
ffffffc05040ab8c:	0207a423          	sw	zero,40(a5)
ffffffc05040ab90:	007f7797          	auipc	a5,0x7f7
ffffffc05040ab94:	b0078793          	addi	a5,a5,-1280 # ffffffc050c01690 <current_running>
ffffffc05040ab98:	639c                	ld	a5,0(a5)
ffffffc05040ab9a:	639c                	ld	a5,0(a5)
ffffffc05040ab9c:	57bc                	lw	a5,104(a5)
ffffffc05040ab9e:	853e                	mv	a0,a5
ffffffc05040aba0:	f0fff0ef          	jal	ra,ffffffc05040aaae <zombie_check>
ffffffc05040aba4:	ebcff0ef          	jal	ra,ffffffc05040a260 <do_scheduler>
ffffffc05040aba8:	0001                	nop
ffffffc05040abaa:	60a2                	ld	ra,8(sp)
ffffffc05040abac:	6402                	ld	s0,0(sp)
ffffffc05040abae:	0141                	addi	sp,sp,16
ffffffc05040abb0:	8082                	ret

ffffffc05040abb2 <do_waitpid>:
ffffffc05040abb2:	1101                	addi	sp,sp,-32
ffffffc05040abb4:	ec06                	sd	ra,24(sp)
ffffffc05040abb6:	e822                	sd	s0,16(sp)
ffffffc05040abb8:	1000                	addi	s0,sp,32
ffffffc05040abba:	87aa                	mv	a5,a0
ffffffc05040abbc:	fef42623          	sw	a5,-20(s0)
ffffffc05040abc0:	f10f50ef          	jal	ra,ffffffc0504002d0 <get_current_cpu_id>
ffffffc05040abc4:	87aa                	mv	a5,a0
ffffffc05040abc6:	e791                	bnez	a5,ffffffc05040abd2 <do_waitpid+0x20>
ffffffc05040abc8:	001f7797          	auipc	a5,0x1f7
ffffffc05040abcc:	41878793          	addi	a5,a5,1048 # ffffffc050601fe0 <current_running_core0>
ffffffc05040abd0:	a029                	j	ffffffc05040abda <do_waitpid+0x28>
ffffffc05040abd2:	001f7797          	auipc	a5,0x1f7
ffffffc05040abd6:	40678793          	addi	a5,a5,1030 # ffffffc050601fd8 <current_running_core1>
ffffffc05040abda:	007f7717          	auipc	a4,0x7f7
ffffffc05040abde:	ab670713          	addi	a4,a4,-1354 # ffffffc050c01690 <current_running>
ffffffc05040abe2:	e31c                	sd	a5,0(a4)
ffffffc05040abe4:	fec42783          	lw	a5,-20(s0)
ffffffc05040abe8:	37fd                	addiw	a5,a5,-1
ffffffc05040abea:	0007869b          	sext.w	a3,a5
ffffffc05040abee:	007f7717          	auipc	a4,0x7f7
ffffffc05040abf2:	aaa70713          	addi	a4,a4,-1366 # ffffffc050c01698 <pcb>
ffffffc05040abf6:	0d800793          	li	a5,216
ffffffc05040abfa:	02f687b3          	mul	a5,a3,a5
ffffffc05040abfe:	97ba                	add	a5,a5,a4
ffffffc05040ac00:	579c                	lw	a5,40(a5)
ffffffc05040ac02:	c7bd                	beqz	a5,ffffffc05040ac70 <do_waitpid+0xbe>
ffffffc05040ac04:	fec42783          	lw	a5,-20(s0)
ffffffc05040ac08:	37fd                	addiw	a5,a5,-1
ffffffc05040ac0a:	0007869b          	sext.w	a3,a5
ffffffc05040ac0e:	007f7717          	auipc	a4,0x7f7
ffffffc05040ac12:	a8a70713          	addi	a4,a4,-1398 # ffffffc050c01698 <pcb>
ffffffc05040ac16:	0d800793          	li	a5,216
ffffffc05040ac1a:	02f687b3          	mul	a5,a3,a5
ffffffc05040ac1e:	97ba                	add	a5,a5,a4
ffffffc05040ac20:	5b9c                	lw	a5,48(a5)
ffffffc05040ac22:	873e                	mv	a4,a5
ffffffc05040ac24:	478d                	li	a5,3
ffffffc05040ac26:	04f70563          	beq	a4,a5,ffffffc05040ac70 <do_waitpid+0xbe>
ffffffc05040ac2a:	007f7797          	auipc	a5,0x7f7
ffffffc05040ac2e:	a6678793          	addi	a5,a5,-1434 # ffffffc050c01690 <current_running>
ffffffc05040ac32:	639c                	ld	a5,0(a5)
ffffffc05040ac34:	639c                	ld	a5,0(a5)
ffffffc05040ac36:	fec42703          	lw	a4,-20(s0)
ffffffc05040ac3a:	377d                	addiw	a4,a4,-1
ffffffc05040ac3c:	0007061b          	sext.w	a2,a4
ffffffc05040ac40:	5798                	lw	a4,40(a5)
ffffffc05040ac42:	007f7697          	auipc	a3,0x7f7
ffffffc05040ac46:	a5668693          	addi	a3,a3,-1450 # ffffffc050c01698 <pcb>
ffffffc05040ac4a:	0d800793          	li	a5,216
ffffffc05040ac4e:	02f607b3          	mul	a5,a2,a5
ffffffc05040ac52:	97b6                	add	a5,a5,a3
ffffffc05040ac54:	d7b8                	sw	a4,104(a5)
ffffffc05040ac56:	007f7797          	auipc	a5,0x7f7
ffffffc05040ac5a:	a3a78793          	addi	a5,a5,-1478 # ffffffc050c01690 <current_running>
ffffffc05040ac5e:	639c                	ld	a5,0(a5)
ffffffc05040ac60:	639c                	ld	a5,0(a5)
ffffffc05040ac62:	00003597          	auipc	a1,0x3
ffffffc05040ac66:	f8658593          	addi	a1,a1,-122 # ffffffc05040dbe8 <wait_queue>
ffffffc05040ac6a:	853e                	mv	a0,a5
ffffffc05040ac6c:	d2bff0ef          	jal	ra,ffffffc05040a996 <do_block>
ffffffc05040ac70:	fec42783          	lw	a5,-20(s0)
ffffffc05040ac74:	853e                	mv	a0,a5
ffffffc05040ac76:	60e2                	ld	ra,24(sp)
ffffffc05040ac78:	6442                	ld	s0,16(sp)
ffffffc05040ac7a:	6105                	addi	sp,sp,32
ffffffc05040ac7c:	8082                	ret

ffffffc05040ac7e <_list_add>:
ffffffc05040ac7e:	7179                	addi	sp,sp,-48
ffffffc05040ac80:	f422                	sd	s0,40(sp)
ffffffc05040ac82:	1800                	addi	s0,sp,48
ffffffc05040ac84:	fea43423          	sd	a0,-24(s0)
ffffffc05040ac88:	feb43023          	sd	a1,-32(s0)
ffffffc05040ac8c:	fcc43c23          	sd	a2,-40(s0)
ffffffc05040ac90:	fd843783          	ld	a5,-40(s0)
ffffffc05040ac94:	fe843703          	ld	a4,-24(s0)
ffffffc05040ac98:	e798                	sd	a4,8(a5)
ffffffc05040ac9a:	fe843783          	ld	a5,-24(s0)
ffffffc05040ac9e:	fd843703          	ld	a4,-40(s0)
ffffffc05040aca2:	e398                	sd	a4,0(a5)
ffffffc05040aca4:	fe843783          	ld	a5,-24(s0)
ffffffc05040aca8:	fe043703          	ld	a4,-32(s0)
ffffffc05040acac:	e798                	sd	a4,8(a5)
ffffffc05040acae:	fe043783          	ld	a5,-32(s0)
ffffffc05040acb2:	fe843703          	ld	a4,-24(s0)
ffffffc05040acb6:	e398                	sd	a4,0(a5)
ffffffc05040acb8:	0001                	nop
ffffffc05040acba:	7422                	ld	s0,40(sp)
ffffffc05040acbc:	6145                	addi	sp,sp,48
ffffffc05040acbe:	8082                	ret

ffffffc05040acc0 <list_add_tail>:
ffffffc05040acc0:	1101                	addi	sp,sp,-32
ffffffc05040acc2:	ec06                	sd	ra,24(sp)
ffffffc05040acc4:	e822                	sd	s0,16(sp)
ffffffc05040acc6:	1000                	addi	s0,sp,32
ffffffc05040acc8:	fea43423          	sd	a0,-24(s0)
ffffffc05040accc:	feb43023          	sd	a1,-32(s0)
ffffffc05040acd0:	fe043783          	ld	a5,-32(s0)
ffffffc05040acd4:	679c                	ld	a5,8(a5)
ffffffc05040acd6:	fe043603          	ld	a2,-32(s0)
ffffffc05040acda:	85be                	mv	a1,a5
ffffffc05040acdc:	fe843503          	ld	a0,-24(s0)
ffffffc05040ace0:	f9fff0ef          	jal	ra,ffffffc05040ac7e <_list_add>
ffffffc05040ace4:	0001                	nop
ffffffc05040ace6:	60e2                	ld	ra,24(sp)
ffffffc05040ace8:	6442                	ld	s0,16(sp)
ffffffc05040acea:	6105                	addi	sp,sp,32
ffffffc05040acec:	8082                	ret

ffffffc05040acee <timer_create>:
ffffffc05040acee:	7179                	addi	sp,sp,-48
ffffffc05040acf0:	f406                	sd	ra,40(sp)
ffffffc05040acf2:	f022                	sd	s0,32(sp)
ffffffc05040acf4:	1800                	addi	s0,sp,48
ffffffc05040acf6:	fea43423          	sd	a0,-24(s0)
ffffffc05040acfa:	feb43023          	sd	a1,-32(s0)
ffffffc05040acfe:	fcc43c23          	sd	a2,-40(s0)
ffffffc05040ad02:	bb6f50ef          	jal	ra,ffffffc0504000b8 <disable_preempt>
ffffffc05040ad06:	dcaf50ef          	jal	ra,ffffffc0504002d0 <get_current_cpu_id>
ffffffc05040ad0a:	87aa                	mv	a5,a0
ffffffc05040ad0c:	e791                	bnez	a5,ffffffc05040ad18 <timer_create+0x2a>
ffffffc05040ad0e:	001f7797          	auipc	a5,0x1f7
ffffffc05040ad12:	2d278793          	addi	a5,a5,722 # ffffffc050601fe0 <current_running_core0>
ffffffc05040ad16:	a029                	j	ffffffc05040ad20 <timer_create+0x32>
ffffffc05040ad18:	001f7797          	auipc	a5,0x1f7
ffffffc05040ad1c:	2c078793          	addi	a5,a5,704 # ffffffc050601fd8 <current_running_core1>
ffffffc05040ad20:	007f7717          	auipc	a4,0x7f7
ffffffc05040ad24:	97070713          	addi	a4,a4,-1680 # ffffffc050c01690 <current_running>
ffffffc05040ad28:	e31c                	sd	a5,0(a4)
ffffffc05040ad2a:	14c000ef          	jal	ra,ffffffc05040ae76 <get_ticks>
ffffffc05040ad2e:	86aa                	mv	a3,a0
ffffffc05040ad30:	007f7797          	auipc	a5,0x7f7
ffffffc05040ad34:	96078793          	addi	a5,a5,-1696 # ffffffc050c01690 <current_running>
ffffffc05040ad38:	639c                	ld	a5,0(a5)
ffffffc05040ad3a:	639c                	ld	a5,0(a5)
ffffffc05040ad3c:	fd843703          	ld	a4,-40(s0)
ffffffc05040ad40:	9736                	add	a4,a4,a3
ffffffc05040ad42:	e3b8                	sd	a4,64(a5)
ffffffc05040ad44:	007f7797          	auipc	a5,0x7f7
ffffffc05040ad48:	94c78793          	addi	a5,a5,-1716 # ffffffc050c01690 <current_running>
ffffffc05040ad4c:	639c                	ld	a5,0(a5)
ffffffc05040ad4e:	639c                	ld	a5,0(a5)
ffffffc05040ad50:	fe843703          	ld	a4,-24(s0)
ffffffc05040ad54:	e7b8                	sd	a4,72(a5)
ffffffc05040ad56:	007f7797          	auipc	a5,0x7f7
ffffffc05040ad5a:	93a78793          	addi	a5,a5,-1734 # ffffffc050c01690 <current_running>
ffffffc05040ad5e:	639c                	ld	a5,0(a5)
ffffffc05040ad60:	639c                	ld	a5,0(a5)
ffffffc05040ad62:	fe043703          	ld	a4,-32(s0)
ffffffc05040ad66:	ebb8                	sd	a4,80(a5)
ffffffc05040ad68:	007f7797          	auipc	a5,0x7f7
ffffffc05040ad6c:	92878793          	addi	a5,a5,-1752 # ffffffc050c01690 <current_running>
ffffffc05040ad70:	639c                	ld	a5,0(a5)
ffffffc05040ad72:	639c                	ld	a5,0(a5)
ffffffc05040ad74:	85be                	mv	a1,a5
ffffffc05040ad76:	00003517          	auipc	a0,0x3
ffffffc05040ad7a:	e8250513          	addi	a0,a0,-382 # ffffffc05040dbf8 <sleep_queue>
ffffffc05040ad7e:	012000ef          	jal	ra,ffffffc05040ad90 <enqueue_timer>
ffffffc05040ad82:	afef50ef          	jal	ra,ffffffc050400080 <enable_preempt>
ffffffc05040ad86:	0001                	nop
ffffffc05040ad88:	70a2                	ld	ra,40(sp)
ffffffc05040ad8a:	7402                	ld	s0,32(sp)
ffffffc05040ad8c:	6145                	addi	sp,sp,48
ffffffc05040ad8e:	8082                	ret

ffffffc05040ad90 <enqueue_timer>:
ffffffc05040ad90:	1101                	addi	sp,sp,-32
ffffffc05040ad92:	ec06                	sd	ra,24(sp)
ffffffc05040ad94:	e822                	sd	s0,16(sp)
ffffffc05040ad96:	1000                	addi	s0,sp,32
ffffffc05040ad98:	fea43423          	sd	a0,-24(s0)
ffffffc05040ad9c:	feb43023          	sd	a1,-32(s0)
ffffffc05040ada0:	fe043783          	ld	a5,-32(s0)
ffffffc05040ada4:	07e1                	addi	a5,a5,24
ffffffc05040ada6:	fe843583          	ld	a1,-24(s0)
ffffffc05040adaa:	853e                	mv	a0,a5
ffffffc05040adac:	f15ff0ef          	jal	ra,ffffffc05040acc0 <list_add_tail>
ffffffc05040adb0:	0001                	nop
ffffffc05040adb2:	60e2                	ld	ra,24(sp)
ffffffc05040adb4:	6442                	ld	s0,16(sp)
ffffffc05040adb6:	6105                	addi	sp,sp,32
ffffffc05040adb8:	8082                	ret

ffffffc05040adba <gethead_timer>:
ffffffc05040adba:	7179                	addi	sp,sp,-48
ffffffc05040adbc:	f422                	sd	s0,40(sp)
ffffffc05040adbe:	1800                	addi	s0,sp,48
ffffffc05040adc0:	fca43c23          	sd	a0,-40(s0)
ffffffc05040adc4:	fd843783          	ld	a5,-40(s0)
ffffffc05040adc8:	fef43423          	sd	a5,-24(s0)
ffffffc05040adcc:	fe843783          	ld	a5,-24(s0)
ffffffc05040add0:	17a1                	addi	a5,a5,-24
ffffffc05040add2:	fef43023          	sd	a5,-32(s0)
ffffffc05040add6:	fe043783          	ld	a5,-32(s0)
ffffffc05040adda:	853e                	mv	a0,a5
ffffffc05040addc:	7422                	ld	s0,40(sp)
ffffffc05040adde:	6145                	addi	sp,sp,48
ffffffc05040ade0:	8082                	ret

ffffffc05040ade2 <timer_check>:
ffffffc05040ade2:	7139                	addi	sp,sp,-64
ffffffc05040ade4:	fc06                	sd	ra,56(sp)
ffffffc05040ade6:	f822                	sd	s0,48(sp)
ffffffc05040ade8:	0080                	addi	s0,sp,64
ffffffc05040adea:	acef50ef          	jal	ra,ffffffc0504000b8 <disable_preempt>
ffffffc05040adee:	ce2f50ef          	jal	ra,ffffffc0504002d0 <get_current_cpu_id>
ffffffc05040adf2:	87aa                	mv	a5,a0
ffffffc05040adf4:	fef403a3          	sb	a5,-25(s0)
ffffffc05040adf8:	00003797          	auipc	a5,0x3
ffffffc05040adfc:	e0078793          	addi	a5,a5,-512 # ffffffc05040dbf8 <sleep_queue>
ffffffc05040ae00:	639c                	ld	a5,0(a5)
ffffffc05040ae02:	fef43423          	sd	a5,-24(s0)
ffffffc05040ae06:	a889                	j	ffffffc05040ae58 <timer_check+0x76>
ffffffc05040ae08:	fe843783          	ld	a5,-24(s0)
ffffffc05040ae0c:	fcf43c23          	sd	a5,-40(s0)
ffffffc05040ae10:	fd843783          	ld	a5,-40(s0)
ffffffc05040ae14:	17a1                	addi	a5,a5,-24
ffffffc05040ae16:	fcf43823          	sd	a5,-48(s0)
ffffffc05040ae1a:	fe843783          	ld	a5,-24(s0)
ffffffc05040ae1e:	639c                	ld	a5,0(a5)
ffffffc05040ae20:	fcf43423          	sd	a5,-56(s0)
ffffffc05040ae24:	fd043783          	ld	a5,-48(s0)
ffffffc05040ae28:	0b17c703          	lbu	a4,177(a5)
ffffffc05040ae2c:	fe744783          	lbu	a5,-25(s0)
ffffffc05040ae30:	0ff7f793          	andi	a5,a5,255
ffffffc05040ae34:	00e79e63          	bne	a5,a4,ffffffc05040ae50 <timer_check+0x6e>
ffffffc05040ae38:	03e000ef          	jal	ra,ffffffc05040ae76 <get_ticks>
ffffffc05040ae3c:	872a                	mv	a4,a0
ffffffc05040ae3e:	fd043783          	ld	a5,-48(s0)
ffffffc05040ae42:	63bc                	ld	a5,64(a5)
ffffffc05040ae44:	00f76663          	bltu	a4,a5,ffffffc05040ae50 <timer_check+0x6e>
ffffffc05040ae48:	fe843503          	ld	a0,-24(s0)
ffffffc05040ae4c:	c1bff0ef          	jal	ra,ffffffc05040aa66 <do_unblock>
ffffffc05040ae50:	fc843783          	ld	a5,-56(s0)
ffffffc05040ae54:	fef43423          	sd	a5,-24(s0)
ffffffc05040ae58:	fe843703          	ld	a4,-24(s0)
ffffffc05040ae5c:	00003797          	auipc	a5,0x3
ffffffc05040ae60:	d9c78793          	addi	a5,a5,-612 # ffffffc05040dbf8 <sleep_queue>
ffffffc05040ae64:	faf712e3          	bne	a4,a5,ffffffc05040ae08 <timer_check+0x26>
ffffffc05040ae68:	a18f50ef          	jal	ra,ffffffc050400080 <enable_preempt>
ffffffc05040ae6c:	0001                	nop
ffffffc05040ae6e:	70e2                	ld	ra,56(sp)
ffffffc05040ae70:	7442                	ld	s0,48(sp)
ffffffc05040ae72:	6121                	addi	sp,sp,64
ffffffc05040ae74:	8082                	ret

ffffffc05040ae76 <get_ticks>:
ffffffc05040ae76:	1141                	addi	sp,sp,-16
ffffffc05040ae78:	e422                	sd	s0,8(sp)
ffffffc05040ae7a:	0800                	addi	s0,sp,16
ffffffc05040ae7c:	c0102773          	rdtime	a4
ffffffc05040ae80:	00067797          	auipc	a5,0x67
ffffffc05040ae84:	8a878793          	addi	a5,a5,-1880 # ffffffc050471728 <time_elapsed>
ffffffc05040ae88:	e398                	sd	a4,0(a5)
ffffffc05040ae8a:	00067797          	auipc	a5,0x67
ffffffc05040ae8e:	89e78793          	addi	a5,a5,-1890 # ffffffc050471728 <time_elapsed>
ffffffc05040ae92:	639c                	ld	a5,0(a5)
ffffffc05040ae94:	853e                	mv	a0,a5
ffffffc05040ae96:	6422                	ld	s0,8(sp)
ffffffc05040ae98:	0141                	addi	sp,sp,16
ffffffc05040ae9a:	8082                	ret

ffffffc05040ae9c <get_timer>:
ffffffc05040ae9c:	1141                	addi	sp,sp,-16
ffffffc05040ae9e:	e406                	sd	ra,8(sp)
ffffffc05040aea0:	e022                	sd	s0,0(sp)
ffffffc05040aea2:	0800                	addi	s0,sp,16
ffffffc05040aea4:	fd3ff0ef          	jal	ra,ffffffc05040ae76 <get_ticks>
ffffffc05040aea8:	872a                	mv	a4,a0
ffffffc05040aeaa:	00067797          	auipc	a5,0x67
ffffffc05040aeae:	88678793          	addi	a5,a5,-1914 # ffffffc050471730 <time_base>
ffffffc05040aeb2:	439c                	lw	a5,0(a5)
ffffffc05040aeb4:	1782                	slli	a5,a5,0x20
ffffffc05040aeb6:	9381                	srli	a5,a5,0x20
ffffffc05040aeb8:	02f757b3          	divu	a5,a4,a5
ffffffc05040aebc:	853e                	mv	a0,a5
ffffffc05040aebe:	60a2                	ld	ra,8(sp)
ffffffc05040aec0:	6402                	ld	s0,0(sp)
ffffffc05040aec2:	0141                	addi	sp,sp,16
ffffffc05040aec4:	8082                	ret

ffffffc05040aec6 <get_time_base>:
ffffffc05040aec6:	1141                	addi	sp,sp,-16
ffffffc05040aec8:	e422                	sd	s0,8(sp)
ffffffc05040aeca:	0800                	addi	s0,sp,16
ffffffc05040aecc:	00067797          	auipc	a5,0x67
ffffffc05040aed0:	86478793          	addi	a5,a5,-1948 # ffffffc050471730 <time_base>
ffffffc05040aed4:	439c                	lw	a5,0(a5)
ffffffc05040aed6:	1782                	slli	a5,a5,0x20
ffffffc05040aed8:	9381                	srli	a5,a5,0x20
ffffffc05040aeda:	853e                	mv	a0,a5
ffffffc05040aedc:	6422                	ld	s0,8(sp)
ffffffc05040aede:	0141                	addi	sp,sp,16
ffffffc05040aee0:	8082                	ret

ffffffc05040aee2 <latency>:
ffffffc05040aee2:	7179                	addi	sp,sp,-48
ffffffc05040aee4:	f406                	sd	ra,40(sp)
ffffffc05040aee6:	f022                	sd	s0,32(sp)
ffffffc05040aee8:	1800                	addi	s0,sp,48
ffffffc05040aeea:	fca43c23          	sd	a0,-40(s0)
ffffffc05040aeee:	fafff0ef          	jal	ra,ffffffc05040ae9c <get_timer>
ffffffc05040aef2:	fea43423          	sd	a0,-24(s0)
ffffffc05040aef6:	0001                	nop
ffffffc05040aef8:	fa5ff0ef          	jal	ra,ffffffc05040ae9c <get_timer>
ffffffc05040aefc:	872a                	mv	a4,a0
ffffffc05040aefe:	fe843783          	ld	a5,-24(s0)
ffffffc05040af02:	40f707b3          	sub	a5,a4,a5
ffffffc05040af06:	fd843703          	ld	a4,-40(s0)
ffffffc05040af0a:	fee7e7e3          	bltu	a5,a4,ffffffc05040aef8 <latency+0x16>
ffffffc05040af0e:	0001                	nop
ffffffc05040af10:	70a2                	ld	ra,40(sp)
ffffffc05040af12:	7402                	ld	s0,32(sp)
ffffffc05040af14:	6145                	addi	sp,sp,48
ffffffc05040af16:	8082                	ret

ffffffc05040af18 <smp_init>:
ffffffc05040af18:	1141                	addi	sp,sp,-16
ffffffc05040af1a:	e422                	sd	s0,8(sp)
ffffffc05040af1c:	0800                	addi	s0,sp,16
ffffffc05040af1e:	0001                	nop
ffffffc05040af20:	6422                	ld	s0,8(sp)
ffffffc05040af22:	0141                	addi	sp,sp,16
ffffffc05040af24:	8082                	ret

ffffffc05040af26 <wakeup_other_hart>:
ffffffc05040af26:	1141                	addi	sp,sp,-16
ffffffc05040af28:	e422                	sd	s0,8(sp)
ffffffc05040af2a:	0800                	addi	s0,sp,16
ffffffc05040af2c:	0001                	nop
ffffffc05040af2e:	6422                	ld	s0,8(sp)
ffffffc05040af30:	0141                	addi	sp,sp,16
ffffffc05040af32:	8082                	ret

ffffffc05040af34 <lock_kernel>:
ffffffc05040af34:	1141                	addi	sp,sp,-16
ffffffc05040af36:	e422                	sd	s0,8(sp)
ffffffc05040af38:	0800                	addi	s0,sp,16
ffffffc05040af3a:	0001                	nop
ffffffc05040af3c:	6422                	ld	s0,8(sp)
ffffffc05040af3e:	0141                	addi	sp,sp,16
ffffffc05040af40:	8082                	ret

ffffffc05040af42 <unlock_kernel>:
ffffffc05040af42:	1141                	addi	sp,sp,-16
ffffffc05040af44:	e422                	sd	s0,8(sp)
ffffffc05040af46:	0800                	addi	s0,sp,16
ffffffc05040af48:	0001                	nop
ffffffc05040af4a:	6422                	ld	s0,8(sp)
ffffffc05040af4c:	0141                	addi	sp,sp,16
ffffffc05040af4e:	8082                	ret

ffffffc05040af50 <_list_del>:
ffffffc05040af50:	1101                	addi	sp,sp,-32
ffffffc05040af52:	ec22                	sd	s0,24(sp)
ffffffc05040af54:	1000                	addi	s0,sp,32
ffffffc05040af56:	fea43423          	sd	a0,-24(s0)
ffffffc05040af5a:	feb43023          	sd	a1,-32(s0)
ffffffc05040af5e:	fe043783          	ld	a5,-32(s0)
ffffffc05040af62:	fe843703          	ld	a4,-24(s0)
ffffffc05040af66:	e798                	sd	a4,8(a5)
ffffffc05040af68:	fe843783          	ld	a5,-24(s0)
ffffffc05040af6c:	fe043703          	ld	a4,-32(s0)
ffffffc05040af70:	e398                	sd	a4,0(a5)
ffffffc05040af72:	0001                	nop
ffffffc05040af74:	6462                	ld	s0,24(sp)
ffffffc05040af76:	6105                	addi	sp,sp,32
ffffffc05040af78:	8082                	ret

ffffffc05040af7a <list_del>:
ffffffc05040af7a:	1101                	addi	sp,sp,-32
ffffffc05040af7c:	ec06                	sd	ra,24(sp)
ffffffc05040af7e:	e822                	sd	s0,16(sp)
ffffffc05040af80:	1000                	addi	s0,sp,32
ffffffc05040af82:	fea43423          	sd	a0,-24(s0)
ffffffc05040af86:	fe843783          	ld	a5,-24(s0)
ffffffc05040af8a:	679c                	ld	a5,8(a5)
ffffffc05040af8c:	c79d                	beqz	a5,ffffffc05040afba <list_del+0x40>
ffffffc05040af8e:	fe843783          	ld	a5,-24(s0)
ffffffc05040af92:	639c                	ld	a5,0(a5)
ffffffc05040af94:	c39d                	beqz	a5,ffffffc05040afba <list_del+0x40>
ffffffc05040af96:	fe843783          	ld	a5,-24(s0)
ffffffc05040af9a:	6798                	ld	a4,8(a5)
ffffffc05040af9c:	fe843783          	ld	a5,-24(s0)
ffffffc05040afa0:	639c                	ld	a5,0(a5)
ffffffc05040afa2:	85be                	mv	a1,a5
ffffffc05040afa4:	853a                	mv	a0,a4
ffffffc05040afa6:	fabff0ef          	jal	ra,ffffffc05040af50 <_list_del>
ffffffc05040afaa:	fe843783          	ld	a5,-24(s0)
ffffffc05040afae:	0007b423          	sd	zero,8(a5)
ffffffc05040afb2:	fe843783          	ld	a5,-24(s0)
ffffffc05040afb6:	0007b023          	sd	zero,0(a5)
ffffffc05040afba:	0001                	nop
ffffffc05040afbc:	60e2                	ld	ra,24(sp)
ffffffc05040afbe:	6442                	ld	s0,16(sp)
ffffffc05040afc0:	6105                	addi	sp,sp,32
ffffffc05040afc2:	8082                	ret

ffffffc05040afc4 <list_empty>:
ffffffc05040afc4:	1101                	addi	sp,sp,-32
ffffffc05040afc6:	ec22                	sd	s0,24(sp)
ffffffc05040afc8:	1000                	addi	s0,sp,32
ffffffc05040afca:	fea43423          	sd	a0,-24(s0)
ffffffc05040afce:	fe843783          	ld	a5,-24(s0)
ffffffc05040afd2:	639c                	ld	a5,0(a5)
ffffffc05040afd4:	fe843703          	ld	a4,-24(s0)
ffffffc05040afd8:	40f707b3          	sub	a5,a4,a5
ffffffc05040afdc:	0017b793          	seqz	a5,a5
ffffffc05040afe0:	0ff7f793          	andi	a5,a5,255
ffffffc05040afe4:	2781                	sext.w	a5,a5
ffffffc05040afe6:	853e                	mv	a0,a5
ffffffc05040afe8:	6462                	ld	s0,24(sp)
ffffffc05040afea:	6105                	addi	sp,sp,32
ffffffc05040afec:	8082                	ret

ffffffc05040afee <kva2pa>:
ffffffc05040afee:	1101                	addi	sp,sp,-32
ffffffc05040aff0:	ec22                	sd	s0,24(sp)
ffffffc05040aff2:	1000                	addi	s0,sp,32
ffffffc05040aff4:	fea43423          	sd	a0,-24(s0)
ffffffc05040aff8:	fe843703          	ld	a4,-24(s0)
ffffffc05040affc:	4785                	li	a5,1
ffffffc05040affe:	179a                	slli	a5,a5,0x26
ffffffc05040b000:	97ba                	add	a5,a5,a4
ffffffc05040b002:	853e                	mv	a0,a5
ffffffc05040b004:	6462                	ld	s0,24(sp)
ffffffc05040b006:	6105                	addi	sp,sp,32
ffffffc05040b008:	8082                	ret

ffffffc05040b00a <pa2kva>:
ffffffc05040b00a:	1101                	addi	sp,sp,-32
ffffffc05040b00c:	ec22                	sd	s0,24(sp)
ffffffc05040b00e:	1000                	addi	s0,sp,32
ffffffc05040b010:	fea43423          	sd	a0,-24(s0)
ffffffc05040b014:	fe843703          	ld	a4,-24(s0)
ffffffc05040b018:	57fd                	li	a5,-1
ffffffc05040b01a:	179a                	slli	a5,a5,0x26
ffffffc05040b01c:	97ba                	add	a5,a5,a4
ffffffc05040b01e:	853e                	mv	a0,a5
ffffffc05040b020:	6462                	ld	s0,24(sp)
ffffffc05040b022:	6105                	addi	sp,sp,32
ffffffc05040b024:	8082                	ret

ffffffc05040b026 <set_pfn>:
ffffffc05040b026:	7179                	addi	sp,sp,-48
ffffffc05040b028:	f422                	sd	s0,40(sp)
ffffffc05040b02a:	1800                	addi	s0,sp,48
ffffffc05040b02c:	fca43c23          	sd	a0,-40(s0)
ffffffc05040b030:	fcb43823          	sd	a1,-48(s0)
ffffffc05040b034:	c0000793          	li	a5,-1024
ffffffc05040b038:	fef43423          	sd	a5,-24(s0)
ffffffc05040b03c:	fd843783          	ld	a5,-40(s0)
ffffffc05040b040:	6398                	ld	a4,0(a5)
ffffffc05040b042:	fd043783          	ld	a5,-48(s0)
ffffffc05040b046:	00a79693          	slli	a3,a5,0xa
ffffffc05040b04a:	fe843783          	ld	a5,-24(s0)
ffffffc05040b04e:	8ff5                	and	a5,a5,a3
ffffffc05040b050:	8f5d                	or	a4,a4,a5
ffffffc05040b052:	fd843783          	ld	a5,-40(s0)
ffffffc05040b056:	e398                	sd	a4,0(a5)
ffffffc05040b058:	0001                	nop
ffffffc05040b05a:	7422                	ld	s0,40(sp)
ffffffc05040b05c:	6145                	addi	sp,sp,48
ffffffc05040b05e:	8082                	ret

ffffffc05040b060 <set_attribute>:
ffffffc05040b060:	1101                	addi	sp,sp,-32
ffffffc05040b062:	ec22                	sd	s0,24(sp)
ffffffc05040b064:	1000                	addi	s0,sp,32
ffffffc05040b066:	fea43423          	sd	a0,-24(s0)
ffffffc05040b06a:	feb43023          	sd	a1,-32(s0)
ffffffc05040b06e:	fe843783          	ld	a5,-24(s0)
ffffffc05040b072:	6398                	ld	a4,0(a5)
ffffffc05040b074:	fe043783          	ld	a5,-32(s0)
ffffffc05040b078:	8f5d                	or	a4,a4,a5
ffffffc05040b07a:	fe843783          	ld	a5,-24(s0)
ffffffc05040b07e:	e398                	sd	a4,0(a5)
ffffffc05040b080:	0001                	nop
ffffffc05040b082:	6462                	ld	s0,24(sp)
ffffffc05040b084:	6105                	addi	sp,sp,32
ffffffc05040b086:	8082                	ret

ffffffc05040b088 <allocPage>:
ffffffc05040b088:	7179                	addi	sp,sp,-48
ffffffc05040b08a:	f406                	sd	ra,40(sp)
ffffffc05040b08c:	f022                	sd	s0,32(sp)
ffffffc05040b08e:	1800                	addi	s0,sp,48
ffffffc05040b090:	00003517          	auipc	a0,0x3
ffffffc05040b094:	b7850513          	addi	a0,a0,-1160 # ffffffc05040dc08 <freePageList>
ffffffc05040b098:	f2dff0ef          	jal	ra,ffffffc05040afc4 <list_empty>
ffffffc05040b09c:	87aa                	mv	a5,a0
ffffffc05040b09e:	e3a1                	bnez	a5,ffffffc05040b0de <allocPage+0x56>
ffffffc05040b0a0:	00003797          	auipc	a5,0x3
ffffffc05040b0a4:	b6878793          	addi	a5,a5,-1176 # ffffffc05040dc08 <freePageList>
ffffffc05040b0a8:	639c                	ld	a5,0(a5)
ffffffc05040b0aa:	fef43423          	sd	a5,-24(s0)
ffffffc05040b0ae:	fe843783          	ld	a5,-24(s0)
ffffffc05040b0b2:	1781                	addi	a5,a5,-32
ffffffc05040b0b4:	fef43023          	sd	a5,-32(s0)
ffffffc05040b0b8:	fe043783          	ld	a5,-32(s0)
ffffffc05040b0bc:	639c                	ld	a5,0(a5)
ffffffc05040b0be:	853e                	mv	a0,a5
ffffffc05040b0c0:	f4bff0ef          	jal	ra,ffffffc05040b00a <pa2kva>
ffffffc05040b0c4:	fca43c23          	sd	a0,-40(s0)
ffffffc05040b0c8:	00003797          	auipc	a5,0x3
ffffffc05040b0cc:	b4078793          	addi	a5,a5,-1216 # ffffffc05040dc08 <freePageList>
ffffffc05040b0d0:	639c                	ld	a5,0(a5)
ffffffc05040b0d2:	853e                	mv	a0,a5
ffffffc05040b0d4:	ea7ff0ef          	jal	ra,ffffffc05040af7a <list_del>
ffffffc05040b0d8:	fd843783          	ld	a5,-40(s0)
ffffffc05040b0dc:	a015                	j	ffffffc05040b100 <allocPage+0x78>
ffffffc05040b0de:	00066797          	auipc	a5,0x66
ffffffc05040b0e2:	60278793          	addi	a5,a5,1538 # ffffffc0504716e0 <memCurr>
ffffffc05040b0e6:	6398                	ld	a4,0(a5)
ffffffc05040b0e8:	6785                	lui	a5,0x1
ffffffc05040b0ea:	973e                	add	a4,a4,a5
ffffffc05040b0ec:	00066797          	auipc	a5,0x66
ffffffc05040b0f0:	5f478793          	addi	a5,a5,1524 # ffffffc0504716e0 <memCurr>
ffffffc05040b0f4:	e398                	sd	a4,0(a5)
ffffffc05040b0f6:	00066797          	auipc	a5,0x66
ffffffc05040b0fa:	5ea78793          	addi	a5,a5,1514 # ffffffc0504716e0 <memCurr>
ffffffc05040b0fe:	639c                	ld	a5,0(a5)
ffffffc05040b100:	853e                	mv	a0,a5
ffffffc05040b102:	70a2                	ld	ra,40(sp)
ffffffc05040b104:	7402                	ld	s0,32(sp)
ffffffc05040b106:	6145                	addi	sp,sp,48
ffffffc05040b108:	8082                	ret

ffffffc05040b10a <freePage>:
ffffffc05040b10a:	1101                	addi	sp,sp,-32
ffffffc05040b10c:	ec22                	sd	s0,24(sp)
ffffffc05040b10e:	1000                	addi	s0,sp,32
ffffffc05040b110:	fea43423          	sd	a0,-24(s0)
ffffffc05040b114:	0001                	nop
ffffffc05040b116:	6462                	ld	s0,24(sp)
ffffffc05040b118:	6105                	addi	sp,sp,32
ffffffc05040b11a:	8082                	ret

ffffffc05040b11c <kmalloc>:
ffffffc05040b11c:	7179                	addi	sp,sp,-48
ffffffc05040b11e:	f422                	sd	s0,40(sp)
ffffffc05040b120:	1800                	addi	s0,sp,48
ffffffc05040b122:	fca43c23          	sd	a0,-40(s0)
ffffffc05040b126:	00066797          	auipc	a5,0x66
ffffffc05040b12a:	5c278793          	addi	a5,a5,1474 # ffffffc0504716e8 <heapCurr>
ffffffc05040b12e:	639c                	ld	a5,0(a5)
ffffffc05040b130:	078d                	addi	a5,a5,3
ffffffc05040b132:	9bf1                	andi	a5,a5,-4
ffffffc05040b134:	fef43423          	sd	a5,-24(s0)
ffffffc05040b138:	fe843703          	ld	a4,-24(s0)
ffffffc05040b13c:	fd843783          	ld	a5,-40(s0)
ffffffc05040b140:	973e                	add	a4,a4,a5
ffffffc05040b142:	00066797          	auipc	a5,0x66
ffffffc05040b146:	5a678793          	addi	a5,a5,1446 # ffffffc0504716e8 <heapCurr>
ffffffc05040b14a:	e398                	sd	a4,0(a5)
ffffffc05040b14c:	fe843783          	ld	a5,-24(s0)
ffffffc05040b150:	853e                	mv	a0,a5
ffffffc05040b152:	7422                	ld	s0,40(sp)
ffffffc05040b154:	6145                	addi	sp,sp,48
ffffffc05040b156:	8082                	ret

ffffffc05040b158 <shm_page_get>:
ffffffc05040b158:	715d                	addi	sp,sp,-80
ffffffc05040b15a:	e486                	sd	ra,72(sp)
ffffffc05040b15c:	e0a2                	sd	s0,64(sp)
ffffffc05040b15e:	fc26                	sd	s1,56(sp)
ffffffc05040b160:	0880                	addi	s0,sp,80
ffffffc05040b162:	87aa                	mv	a5,a0
ffffffc05040b164:	faf42e23          	sw	a5,-68(s0)
ffffffc05040b168:	968f50ef          	jal	ra,ffffffc0504002d0 <get_current_cpu_id>
ffffffc05040b16c:	87aa                	mv	a5,a0
ffffffc05040b16e:	e791                	bnez	a5,ffffffc05040b17a <shm_page_get+0x22>
ffffffc05040b170:	001f7797          	auipc	a5,0x1f7
ffffffc05040b174:	e7078793          	addi	a5,a5,-400 # ffffffc050601fe0 <current_running_core0>
ffffffc05040b178:	a029                	j	ffffffc05040b182 <shm_page_get+0x2a>
ffffffc05040b17a:	001f7797          	auipc	a5,0x1f7
ffffffc05040b17e:	e5e78793          	addi	a5,a5,-418 # ffffffc050601fd8 <current_running_core1>
ffffffc05040b182:	007f6717          	auipc	a4,0x7f6
ffffffc05040b186:	50e70713          	addi	a4,a4,1294 # ffffffc050c01690 <current_running>
ffffffc05040b18a:	e31c                	sd	a5,0(a4)
ffffffc05040b18c:	00c007b7          	lui	a5,0xc00
ffffffc05040b190:	fcf43c23          	sd	a5,-40(s0)
ffffffc05040b194:	fc042a23          	sw	zero,-44(s0)
ffffffc05040b198:	aa39                	j	ffffffc05040b2b6 <shm_page_get+0x15e>
ffffffc05040b19a:	007f7697          	auipc	a3,0x7f7
ffffffc05040b19e:	27e68693          	addi	a3,a3,638 # ffffffc050c02418 <spage>
ffffffc05040b1a2:	fd442703          	lw	a4,-44(s0)
ffffffc05040b1a6:	87ba                	mv	a5,a4
ffffffc05040b1a8:	078e                	slli	a5,a5,0x3
ffffffc05040b1aa:	97ba                	add	a5,a5,a4
ffffffc05040b1ac:	0792                	slli	a5,a5,0x4
ffffffc05040b1ae:	97b6                	add	a5,a5,a3
ffffffc05040b1b0:	0007c783          	lbu	a5,0(a5) # c00000 <_start-0xffffffc04f800000>
ffffffc05040b1b4:	0e078c63          	beqz	a5,ffffffc05040b2ac <shm_page_get+0x154>
ffffffc05040b1b8:	007f7697          	auipc	a3,0x7f7
ffffffc05040b1bc:	26068693          	addi	a3,a3,608 # ffffffc050c02418 <spage>
ffffffc05040b1c0:	fd442703          	lw	a4,-44(s0)
ffffffc05040b1c4:	87ba                	mv	a5,a4
ffffffc05040b1c6:	078e                	slli	a5,a5,0x3
ffffffc05040b1c8:	97ba                	add	a5,a5,a4
ffffffc05040b1ca:	0792                	slli	a5,a5,0x4
ffffffc05040b1cc:	97b6                	add	a5,a5,a3
ffffffc05040b1ce:	0017c783          	lbu	a5,1(a5)
ffffffc05040b1d2:	0007871b          	sext.w	a4,a5
ffffffc05040b1d6:	fbc42783          	lw	a5,-68(s0)
ffffffc05040b1da:	2781                	sext.w	a5,a5
ffffffc05040b1dc:	0ce79863          	bne	a5,a4,ffffffc05040b2ac <shm_page_get+0x154>
ffffffc05040b1e0:	007f6797          	auipc	a5,0x7f6
ffffffc05040b1e4:	4b078793          	addi	a5,a5,1200 # ffffffc050c01690 <current_running>
ffffffc05040b1e8:	639c                	ld	a5,0(a5)
ffffffc05040b1ea:	639c                	ld	a5,0(a5)
ffffffc05040b1ec:	7fdc                	ld	a5,184(a5)
ffffffc05040b1ee:	853e                	mv	a0,a5
ffffffc05040b1f0:	e1bff0ef          	jal	ra,ffffffc05040b00a <pa2kva>
ffffffc05040b1f4:	87aa                	mv	a5,a0
ffffffc05040b1f6:	85be                	mv	a1,a5
ffffffc05040b1f8:	fd843503          	ld	a0,-40(s0)
ffffffc05040b1fc:	754000ef          	jal	ra,ffffffc05040b950 <check_page_helper>
ffffffc05040b200:	87aa                	mv	a5,a0
ffffffc05040b202:	cb81                	beqz	a5,ffffffc05040b212 <shm_page_get+0xba>
ffffffc05040b204:	fd843703          	ld	a4,-40(s0)
ffffffc05040b208:	6785                	lui	a5,0x1
ffffffc05040b20a:	97ba                	add	a5,a5,a4
ffffffc05040b20c:	fcf43c23          	sd	a5,-40(s0)
ffffffc05040b210:	bfc1                	j	ffffffc05040b1e0 <shm_page_get+0x88>
ffffffc05040b212:	0001                	nop
ffffffc05040b214:	007f7697          	auipc	a3,0x7f7
ffffffc05040b218:	20468693          	addi	a3,a3,516 # ffffffc050c02418 <spage>
ffffffc05040b21c:	fd442703          	lw	a4,-44(s0)
ffffffc05040b220:	87ba                	mv	a5,a4
ffffffc05040b222:	078e                	slli	a5,a5,0x3
ffffffc05040b224:	97ba                	add	a5,a5,a4
ffffffc05040b226:	0792                	slli	a5,a5,0x4
ffffffc05040b228:	97b6                	add	a5,a5,a3
ffffffc05040b22a:	6784                	ld	s1,8(a5)
ffffffc05040b22c:	007f6797          	auipc	a5,0x7f6
ffffffc05040b230:	46478793          	addi	a5,a5,1124 # ffffffc050c01690 <current_running>
ffffffc05040b234:	639c                	ld	a5,0(a5)
ffffffc05040b236:	639c                	ld	a5,0(a5)
ffffffc05040b238:	7fdc                	ld	a5,184(a5)
ffffffc05040b23a:	853e                	mv	a0,a5
ffffffc05040b23c:	dcfff0ef          	jal	ra,ffffffc05040b00a <pa2kva>
ffffffc05040b240:	87aa                	mv	a5,a0
ffffffc05040b242:	863e                	mv	a2,a5
ffffffc05040b244:	85a6                	mv	a1,s1
ffffffc05040b246:	fd843503          	ld	a0,-40(s0)
ffffffc05040b24a:	364000ef          	jal	ra,ffffffc05040b5ae <setup_shm_page>
ffffffc05040b24e:	007f6797          	auipc	a5,0x7f6
ffffffc05040b252:	44278793          	addi	a5,a5,1090 # ffffffc050c01690 <current_running>
ffffffc05040b256:	639c                	ld	a5,0(a5)
ffffffc05040b258:	639c                	ld	a5,0(a5)
ffffffc05040b25a:	5790                	lw	a2,40(a5)
ffffffc05040b25c:	007f7697          	auipc	a3,0x7f7
ffffffc05040b260:	1bc68693          	addi	a3,a3,444 # ffffffc050c02418 <spage>
ffffffc05040b264:	fd442703          	lw	a4,-44(s0)
ffffffc05040b268:	87ba                	mv	a5,a4
ffffffc05040b26a:	078e                	slli	a5,a5,0x3
ffffffc05040b26c:	97ba                	add	a5,a5,a4
ffffffc05040b26e:	0786                	slli	a5,a5,0x1
ffffffc05040b270:	97b2                	add	a5,a5,a2
ffffffc05040b272:	0789                	addi	a5,a5,2
ffffffc05040b274:	078e                	slli	a5,a5,0x3
ffffffc05040b276:	97b6                	add	a5,a5,a3
ffffffc05040b278:	fd843703          	ld	a4,-40(s0)
ffffffc05040b27c:	e398                	sd	a4,0(a5)
ffffffc05040b27e:	007f6797          	auipc	a5,0x7f6
ffffffc05040b282:	41278793          	addi	a5,a5,1042 # ffffffc050c01690 <current_running>
ffffffc05040b286:	639c                	ld	a5,0(a5)
ffffffc05040b288:	639c                	ld	a5,0(a5)
ffffffc05040b28a:	5790                	lw	a2,40(a5)
ffffffc05040b28c:	007f7697          	auipc	a3,0x7f7
ffffffc05040b290:	18c68693          	addi	a3,a3,396 # ffffffc050c02418 <spage>
ffffffc05040b294:	fd442703          	lw	a4,-44(s0)
ffffffc05040b298:	87ba                	mv	a5,a4
ffffffc05040b29a:	078e                	slli	a5,a5,0x3
ffffffc05040b29c:	97ba                	add	a5,a5,a4
ffffffc05040b29e:	0786                	slli	a5,a5,0x1
ffffffc05040b2a0:	97b2                	add	a5,a5,a2
ffffffc05040b2a2:	0789                	addi	a5,a5,2
ffffffc05040b2a4:	078e                	slli	a5,a5,0x3
ffffffc05040b2a6:	97b6                	add	a5,a5,a3
ffffffc05040b2a8:	639c                	ld	a5,0(a5)
ffffffc05040b2aa:	aa81                	j	ffffffc05040b3fa <shm_page_get+0x2a2>
ffffffc05040b2ac:	fd442783          	lw	a5,-44(s0)
ffffffc05040b2b0:	2785                	addiw	a5,a5,1
ffffffc05040b2b2:	fcf42a23          	sw	a5,-44(s0)
ffffffc05040b2b6:	fd442783          	lw	a5,-44(s0)
ffffffc05040b2ba:	0007871b          	sext.w	a4,a5
ffffffc05040b2be:	47bd                	li	a5,15
ffffffc05040b2c0:	ece7dde3          	bge	a5,a4,ffffffc05040b19a <shm_page_get+0x42>
ffffffc05040b2c4:	007f6797          	auipc	a5,0x7f6
ffffffc05040b2c8:	3cc78793          	addi	a5,a5,972 # ffffffc050c01690 <current_running>
ffffffc05040b2cc:	639c                	ld	a5,0(a5)
ffffffc05040b2ce:	639c                	ld	a5,0(a5)
ffffffc05040b2d0:	7fdc                	ld	a5,184(a5)
ffffffc05040b2d2:	853e                	mv	a0,a5
ffffffc05040b2d4:	d37ff0ef          	jal	ra,ffffffc05040b00a <pa2kva>
ffffffc05040b2d8:	87aa                	mv	a5,a0
ffffffc05040b2da:	4605                	li	a2,1
ffffffc05040b2dc:	85be                	mv	a1,a5
ffffffc05040b2de:	fd843503          	ld	a0,-40(s0)
ffffffc05040b2e2:	422000ef          	jal	ra,ffffffc05040b704 <alloc_page_helper>
ffffffc05040b2e6:	fca43423          	sd	a0,-56(s0)
ffffffc05040b2ea:	fc843783          	ld	a5,-56(s0)
ffffffc05040b2ee:	eb81                	bnez	a5,ffffffc05040b2fe <shm_page_get+0x1a6>
ffffffc05040b2f0:	fd843703          	ld	a4,-40(s0)
ffffffc05040b2f4:	6785                	lui	a5,0x1
ffffffc05040b2f6:	97ba                	add	a5,a5,a4
ffffffc05040b2f8:	fcf43c23          	sd	a5,-40(s0)
ffffffc05040b2fc:	b7e1                	j	ffffffc05040b2c4 <shm_page_get+0x16c>
ffffffc05040b2fe:	0001                	nop
ffffffc05040b300:	fc042a23          	sw	zero,-44(s0)
ffffffc05040b304:	a025                	j	ffffffc05040b32c <shm_page_get+0x1d4>
ffffffc05040b306:	007f7697          	auipc	a3,0x7f7
ffffffc05040b30a:	11268693          	addi	a3,a3,274 # ffffffc050c02418 <spage>
ffffffc05040b30e:	fd442703          	lw	a4,-44(s0)
ffffffc05040b312:	87ba                	mv	a5,a4
ffffffc05040b314:	078e                	slli	a5,a5,0x3
ffffffc05040b316:	97ba                	add	a5,a5,a4
ffffffc05040b318:	0792                	slli	a5,a5,0x4
ffffffc05040b31a:	97b6                	add	a5,a5,a3
ffffffc05040b31c:	0007c783          	lbu	a5,0(a5) # 1000 <_start-0xffffffc0503ff000>
ffffffc05040b320:	cf91                	beqz	a5,ffffffc05040b33c <shm_page_get+0x1e4>
ffffffc05040b322:	fd442783          	lw	a5,-44(s0)
ffffffc05040b326:	2785                	addiw	a5,a5,1
ffffffc05040b328:	fcf42a23          	sw	a5,-44(s0)
ffffffc05040b32c:	fd442783          	lw	a5,-44(s0)
ffffffc05040b330:	0007871b          	sext.w	a4,a5
ffffffc05040b334:	47bd                	li	a5,15
ffffffc05040b336:	fce7d8e3          	bge	a5,a4,ffffffc05040b306 <shm_page_get+0x1ae>
ffffffc05040b33a:	a011                	j	ffffffc05040b33e <shm_page_get+0x1e6>
ffffffc05040b33c:	0001                	nop
ffffffc05040b33e:	007f7697          	auipc	a3,0x7f7
ffffffc05040b342:	0da68693          	addi	a3,a3,218 # ffffffc050c02418 <spage>
ffffffc05040b346:	fd442703          	lw	a4,-44(s0)
ffffffc05040b34a:	87ba                	mv	a5,a4
ffffffc05040b34c:	078e                	slli	a5,a5,0x3
ffffffc05040b34e:	97ba                	add	a5,a5,a4
ffffffc05040b350:	0792                	slli	a5,a5,0x4
ffffffc05040b352:	97b6                	add	a5,a5,a3
ffffffc05040b354:	4705                	li	a4,1
ffffffc05040b356:	00e78023          	sb	a4,0(a5)
ffffffc05040b35a:	fbc42783          	lw	a5,-68(s0)
ffffffc05040b35e:	0ff7f693          	andi	a3,a5,255
ffffffc05040b362:	007f7617          	auipc	a2,0x7f7
ffffffc05040b366:	0b660613          	addi	a2,a2,182 # ffffffc050c02418 <spage>
ffffffc05040b36a:	fd442703          	lw	a4,-44(s0)
ffffffc05040b36e:	87ba                	mv	a5,a4
ffffffc05040b370:	078e                	slli	a5,a5,0x3
ffffffc05040b372:	97ba                	add	a5,a5,a4
ffffffc05040b374:	0792                	slli	a5,a5,0x4
ffffffc05040b376:	97b2                	add	a5,a5,a2
ffffffc05040b378:	00d780a3          	sb	a3,1(a5)
ffffffc05040b37c:	fc843503          	ld	a0,-56(s0)
ffffffc05040b380:	c6fff0ef          	jal	ra,ffffffc05040afee <kva2pa>
ffffffc05040b384:	862a                	mv	a2,a0
ffffffc05040b386:	007f7697          	auipc	a3,0x7f7
ffffffc05040b38a:	09268693          	addi	a3,a3,146 # ffffffc050c02418 <spage>
ffffffc05040b38e:	fd442703          	lw	a4,-44(s0)
ffffffc05040b392:	87ba                	mv	a5,a4
ffffffc05040b394:	078e                	slli	a5,a5,0x3
ffffffc05040b396:	97ba                	add	a5,a5,a4
ffffffc05040b398:	0792                	slli	a5,a5,0x4
ffffffc05040b39a:	97b6                	add	a5,a5,a3
ffffffc05040b39c:	e790                	sd	a2,8(a5)
ffffffc05040b39e:	007f6797          	auipc	a5,0x7f6
ffffffc05040b3a2:	2f278793          	addi	a5,a5,754 # ffffffc050c01690 <current_running>
ffffffc05040b3a6:	639c                	ld	a5,0(a5)
ffffffc05040b3a8:	639c                	ld	a5,0(a5)
ffffffc05040b3aa:	5790                	lw	a2,40(a5)
ffffffc05040b3ac:	007f7697          	auipc	a3,0x7f7
ffffffc05040b3b0:	06c68693          	addi	a3,a3,108 # ffffffc050c02418 <spage>
ffffffc05040b3b4:	fd442703          	lw	a4,-44(s0)
ffffffc05040b3b8:	87ba                	mv	a5,a4
ffffffc05040b3ba:	078e                	slli	a5,a5,0x3
ffffffc05040b3bc:	97ba                	add	a5,a5,a4
ffffffc05040b3be:	0786                	slli	a5,a5,0x1
ffffffc05040b3c0:	97b2                	add	a5,a5,a2
ffffffc05040b3c2:	0789                	addi	a5,a5,2
ffffffc05040b3c4:	078e                	slli	a5,a5,0x3
ffffffc05040b3c6:	97b6                	add	a5,a5,a3
ffffffc05040b3c8:	fd843703          	ld	a4,-40(s0)
ffffffc05040b3cc:	e398                	sd	a4,0(a5)
ffffffc05040b3ce:	007f6797          	auipc	a5,0x7f6
ffffffc05040b3d2:	2c278793          	addi	a5,a5,706 # ffffffc050c01690 <current_running>
ffffffc05040b3d6:	639c                	ld	a5,0(a5)
ffffffc05040b3d8:	639c                	ld	a5,0(a5)
ffffffc05040b3da:	5790                	lw	a2,40(a5)
ffffffc05040b3dc:	007f7697          	auipc	a3,0x7f7
ffffffc05040b3e0:	03c68693          	addi	a3,a3,60 # ffffffc050c02418 <spage>
ffffffc05040b3e4:	fd442703          	lw	a4,-44(s0)
ffffffc05040b3e8:	87ba                	mv	a5,a4
ffffffc05040b3ea:	078e                	slli	a5,a5,0x3
ffffffc05040b3ec:	97ba                	add	a5,a5,a4
ffffffc05040b3ee:	0786                	slli	a5,a5,0x1
ffffffc05040b3f0:	97b2                	add	a5,a5,a2
ffffffc05040b3f2:	0789                	addi	a5,a5,2
ffffffc05040b3f4:	078e                	slli	a5,a5,0x3
ffffffc05040b3f6:	97b6                	add	a5,a5,a3
ffffffc05040b3f8:	639c                	ld	a5,0(a5)
ffffffc05040b3fa:	853e                	mv	a0,a5
ffffffc05040b3fc:	60a6                	ld	ra,72(sp)
ffffffc05040b3fe:	6406                	ld	s0,64(sp)
ffffffc05040b400:	74e2                	ld	s1,56(sp)
ffffffc05040b402:	6161                	addi	sp,sp,80
ffffffc05040b404:	8082                	ret

ffffffc05040b406 <shm_page_dt>:
ffffffc05040b406:	7139                	addi	sp,sp,-64
ffffffc05040b408:	fc06                	sd	ra,56(sp)
ffffffc05040b40a:	f822                	sd	s0,48(sp)
ffffffc05040b40c:	0080                	addi	s0,sp,64
ffffffc05040b40e:	fca43423          	sd	a0,-56(s0)
ffffffc05040b412:	ebff40ef          	jal	ra,ffffffc0504002d0 <get_current_cpu_id>
ffffffc05040b416:	87aa                	mv	a5,a0
ffffffc05040b418:	e791                	bnez	a5,ffffffc05040b424 <shm_page_dt+0x1e>
ffffffc05040b41a:	001f7797          	auipc	a5,0x1f7
ffffffc05040b41e:	bc678793          	addi	a5,a5,-1082 # ffffffc050601fe0 <current_running_core0>
ffffffc05040b422:	a029                	j	ffffffc05040b42c <shm_page_dt+0x26>
ffffffc05040b424:	001f7797          	auipc	a5,0x1f7
ffffffc05040b428:	bb478793          	addi	a5,a5,-1100 # ffffffc050601fd8 <current_running_core1>
ffffffc05040b42c:	007f6717          	auipc	a4,0x7f6
ffffffc05040b430:	26470713          	addi	a4,a4,612 # ffffffc050c01690 <current_running>
ffffffc05040b434:	e31c                	sd	a5,0(a4)
ffffffc05040b436:	fc843703          	ld	a4,-56(s0)
ffffffc05040b43a:	77fd                	lui	a5,0xfffff
ffffffc05040b43c:	8ff9                	and	a5,a5,a4
ffffffc05040b43e:	fcf43c23          	sd	a5,-40(s0)
ffffffc05040b442:	fe042623          	sw	zero,-20(s0)
ffffffc05040b446:	a8b1                	j	ffffffc05040b4a2 <shm_page_dt+0x9c>
ffffffc05040b448:	007f7697          	auipc	a3,0x7f7
ffffffc05040b44c:	fd068693          	addi	a3,a3,-48 # ffffffc050c02418 <spage>
ffffffc05040b450:	fec42703          	lw	a4,-20(s0)
ffffffc05040b454:	87ba                	mv	a5,a4
ffffffc05040b456:	078e                	slli	a5,a5,0x3
ffffffc05040b458:	97ba                	add	a5,a5,a4
ffffffc05040b45a:	0792                	slli	a5,a5,0x4
ffffffc05040b45c:	97b6                	add	a5,a5,a3
ffffffc05040b45e:	0007c783          	lbu	a5,0(a5) # fffffffffffff000 <__BSS_END__+0x3faf3fc0e0>
ffffffc05040b462:	cb9d                	beqz	a5,ffffffc05040b498 <shm_page_dt+0x92>
ffffffc05040b464:	007f6797          	auipc	a5,0x7f6
ffffffc05040b468:	22c78793          	addi	a5,a5,556 # ffffffc050c01690 <current_running>
ffffffc05040b46c:	639c                	ld	a5,0(a5)
ffffffc05040b46e:	639c                	ld	a5,0(a5)
ffffffc05040b470:	5790                	lw	a2,40(a5)
ffffffc05040b472:	007f7697          	auipc	a3,0x7f7
ffffffc05040b476:	fa668693          	addi	a3,a3,-90 # ffffffc050c02418 <spage>
ffffffc05040b47a:	fec42703          	lw	a4,-20(s0)
ffffffc05040b47e:	87ba                	mv	a5,a4
ffffffc05040b480:	078e                	slli	a5,a5,0x3
ffffffc05040b482:	97ba                	add	a5,a5,a4
ffffffc05040b484:	0786                	slli	a5,a5,0x1
ffffffc05040b486:	97b2                	add	a5,a5,a2
ffffffc05040b488:	0789                	addi	a5,a5,2
ffffffc05040b48a:	078e                	slli	a5,a5,0x3
ffffffc05040b48c:	97b6                	add	a5,a5,a3
ffffffc05040b48e:	639c                	ld	a5,0(a5)
ffffffc05040b490:	fd843703          	ld	a4,-40(s0)
ffffffc05040b494:	00f70f63          	beq	a4,a5,ffffffc05040b4b2 <shm_page_dt+0xac>
ffffffc05040b498:	fec42783          	lw	a5,-20(s0)
ffffffc05040b49c:	2785                	addiw	a5,a5,1
ffffffc05040b49e:	fef42623          	sw	a5,-20(s0)
ffffffc05040b4a2:	fec42783          	lw	a5,-20(s0)
ffffffc05040b4a6:	0007871b          	sext.w	a4,a5
ffffffc05040b4aa:	47bd                	li	a5,15
ffffffc05040b4ac:	f8e7dee3          	bge	a5,a4,ffffffc05040b448 <shm_page_dt+0x42>
ffffffc05040b4b0:	a011                	j	ffffffc05040b4b4 <shm_page_dt+0xae>
ffffffc05040b4b2:	0001                	nop
ffffffc05040b4b4:	007f6797          	auipc	a5,0x7f6
ffffffc05040b4b8:	1dc78793          	addi	a5,a5,476 # ffffffc050c01690 <current_running>
ffffffc05040b4bc:	639c                	ld	a5,0(a5)
ffffffc05040b4be:	639c                	ld	a5,0(a5)
ffffffc05040b4c0:	5790                	lw	a2,40(a5)
ffffffc05040b4c2:	007f7697          	auipc	a3,0x7f7
ffffffc05040b4c6:	f5668693          	addi	a3,a3,-170 # ffffffc050c02418 <spage>
ffffffc05040b4ca:	fec42703          	lw	a4,-20(s0)
ffffffc05040b4ce:	87ba                	mv	a5,a4
ffffffc05040b4d0:	078e                	slli	a5,a5,0x3
ffffffc05040b4d2:	97ba                	add	a5,a5,a4
ffffffc05040b4d4:	0786                	slli	a5,a5,0x1
ffffffc05040b4d6:	97b2                	add	a5,a5,a2
ffffffc05040b4d8:	0789                	addi	a5,a5,2
ffffffc05040b4da:	078e                	slli	a5,a5,0x3
ffffffc05040b4dc:	97b6                	add	a5,a5,a3
ffffffc05040b4de:	0007b023          	sd	zero,0(a5)
ffffffc05040b4e2:	007f6797          	auipc	a5,0x7f6
ffffffc05040b4e6:	1ae78793          	addi	a5,a5,430 # ffffffc050c01690 <current_running>
ffffffc05040b4ea:	639c                	ld	a5,0(a5)
ffffffc05040b4ec:	639c                	ld	a5,0(a5)
ffffffc05040b4ee:	7fdc                	ld	a5,184(a5)
ffffffc05040b4f0:	853e                	mv	a0,a5
ffffffc05040b4f2:	b19ff0ef          	jal	ra,ffffffc05040b00a <pa2kva>
ffffffc05040b4f6:	87aa                	mv	a5,a0
ffffffc05040b4f8:	85be                	mv	a1,a5
ffffffc05040b4fa:	fd843503          	ld	a0,-40(s0)
ffffffc05040b4fe:	3ae000ef          	jal	ra,ffffffc05040b8ac <free_page_helper>
ffffffc05040b502:	fe042423          	sw	zero,-24(s0)
ffffffc05040b506:	fe042223          	sw	zero,-28(s0)
ffffffc05040b50a:	a81d                	j	ffffffc05040b540 <shm_page_dt+0x13a>
ffffffc05040b50c:	007f7697          	auipc	a3,0x7f7
ffffffc05040b510:	f0c68693          	addi	a3,a3,-244 # ffffffc050c02418 <spage>
ffffffc05040b514:	fe442603          	lw	a2,-28(s0)
ffffffc05040b518:	fec42703          	lw	a4,-20(s0)
ffffffc05040b51c:	87ba                	mv	a5,a4
ffffffc05040b51e:	078e                	slli	a5,a5,0x3
ffffffc05040b520:	97ba                	add	a5,a5,a4
ffffffc05040b522:	0786                	slli	a5,a5,0x1
ffffffc05040b524:	97b2                	add	a5,a5,a2
ffffffc05040b526:	0789                	addi	a5,a5,2
ffffffc05040b528:	078e                	slli	a5,a5,0x3
ffffffc05040b52a:	97b6                	add	a5,a5,a3
ffffffc05040b52c:	639c                	ld	a5,0(a5)
ffffffc05040b52e:	c781                	beqz	a5,ffffffc05040b536 <shm_page_dt+0x130>
ffffffc05040b530:	4785                	li	a5,1
ffffffc05040b532:	fef42423          	sw	a5,-24(s0)
ffffffc05040b536:	fe442783          	lw	a5,-28(s0)
ffffffc05040b53a:	2785                	addiw	a5,a5,1
ffffffc05040b53c:	fef42223          	sw	a5,-28(s0)
ffffffc05040b540:	fe442783          	lw	a5,-28(s0)
ffffffc05040b544:	0007871b          	sext.w	a4,a5
ffffffc05040b548:	47bd                	li	a5,15
ffffffc05040b54a:	fce7d1e3          	bge	a5,a4,ffffffc05040b50c <shm_page_dt+0x106>
ffffffc05040b54e:	fe842783          	lw	a5,-24(s0)
ffffffc05040b552:	2781                	sext.w	a5,a5
ffffffc05040b554:	ef8d                	bnez	a5,ffffffc05040b58e <shm_page_dt+0x188>
ffffffc05040b556:	007f7697          	auipc	a3,0x7f7
ffffffc05040b55a:	ec268693          	addi	a3,a3,-318 # ffffffc050c02418 <spage>
ffffffc05040b55e:	fec42703          	lw	a4,-20(s0)
ffffffc05040b562:	87ba                	mv	a5,a4
ffffffc05040b564:	078e                	slli	a5,a5,0x3
ffffffc05040b566:	97ba                	add	a5,a5,a4
ffffffc05040b568:	0792                	slli	a5,a5,0x4
ffffffc05040b56a:	97b6                	add	a5,a5,a3
ffffffc05040b56c:	00078023          	sb	zero,0(a5)
ffffffc05040b570:	007f7697          	auipc	a3,0x7f7
ffffffc05040b574:	ea868693          	addi	a3,a3,-344 # ffffffc050c02418 <spage>
ffffffc05040b578:	fec42703          	lw	a4,-20(s0)
ffffffc05040b57c:	87ba                	mv	a5,a4
ffffffc05040b57e:	078e                	slli	a5,a5,0x3
ffffffc05040b580:	97ba                	add	a5,a5,a4
ffffffc05040b582:	0792                	slli	a5,a5,0x4
ffffffc05040b584:	97b6                	add	a5,a5,a3
ffffffc05040b586:	679c                	ld	a5,8(a5)
ffffffc05040b588:	853e                	mv	a0,a5
ffffffc05040b58a:	b81ff0ef          	jal	ra,ffffffc05040b10a <freePage>
ffffffc05040b58e:	0001                	nop
ffffffc05040b590:	70e2                	ld	ra,56(sp)
ffffffc05040b592:	7442                	ld	s0,48(sp)
ffffffc05040b594:	6121                	addi	sp,sp,64
ffffffc05040b596:	8082                	ret

ffffffc05040b598 <share_pgtable>:
ffffffc05040b598:	1101                	addi	sp,sp,-32
ffffffc05040b59a:	ec22                	sd	s0,24(sp)
ffffffc05040b59c:	1000                	addi	s0,sp,32
ffffffc05040b59e:	fea43423          	sd	a0,-24(s0)
ffffffc05040b5a2:	feb43023          	sd	a1,-32(s0)
ffffffc05040b5a6:	0001                	nop
ffffffc05040b5a8:	6462                	ld	s0,24(sp)
ffffffc05040b5aa:	6105                	addi	sp,sp,32
ffffffc05040b5ac:	8082                	ret

ffffffc05040b5ae <setup_shm_page>:
ffffffc05040b5ae:	7175                	addi	sp,sp,-144
ffffffc05040b5b0:	e506                	sd	ra,136(sp)
ffffffc05040b5b2:	e122                	sd	s0,128(sp)
ffffffc05040b5b4:	fca6                	sd	s1,120(sp)
ffffffc05040b5b6:	0900                	addi	s0,sp,144
ffffffc05040b5b8:	f8a43423          	sd	a0,-120(s0)
ffffffc05040b5bc:	f8b43023          	sd	a1,-128(s0)
ffffffc05040b5c0:	f6c43c23          	sd	a2,-136(s0)
ffffffc05040b5c4:	f8843783          	ld	a5,-120(s0)
ffffffc05040b5c8:	83b1                	srli	a5,a5,0xc
ffffffc05040b5ca:	1ff7f793          	andi	a5,a5,511
ffffffc05040b5ce:	f8f43c23          	sd	a5,-104(s0)
ffffffc05040b5d2:	f8843783          	ld	a5,-120(s0)
ffffffc05040b5d6:	83d5                	srli	a5,a5,0x15
ffffffc05040b5d8:	1ff7f793          	andi	a5,a5,511
ffffffc05040b5dc:	faf43023          	sd	a5,-96(s0)
ffffffc05040b5e0:	f8843783          	ld	a5,-120(s0)
ffffffc05040b5e4:	83f9                	srli	a5,a5,0x1e
ffffffc05040b5e6:	1ff7f793          	andi	a5,a5,511
ffffffc05040b5ea:	faf43423          	sd	a5,-88(s0)
ffffffc05040b5ee:	fa843783          	ld	a5,-88(s0)
ffffffc05040b5f2:	00379713          	slli	a4,a5,0x3
ffffffc05040b5f6:	f7843783          	ld	a5,-136(s0)
ffffffc05040b5fa:	97ba                	add	a5,a5,a4
ffffffc05040b5fc:	fcf43423          	sd	a5,-56(s0)
ffffffc05040b600:	fc043c23          	sd	zero,-40(s0)
ffffffc05040b604:	fc043823          	sd	zero,-48(s0)
ffffffc05040b608:	fc843783          	ld	a5,-56(s0)
ffffffc05040b60c:	639c                	ld	a5,0(a5)
ffffffc05040b60e:	8b85                	andi	a5,a5,1
ffffffc05040b610:	ef9d                	bnez	a5,ffffffc05040b64e <setup_shm_page+0xa0>
ffffffc05040b612:	a77ff0ef          	jal	ra,ffffffc05040b088 <allocPage>
ffffffc05040b616:	fca43023          	sd	a0,-64(s0)
ffffffc05040b61a:	fc043503          	ld	a0,-64(s0)
ffffffc05040b61e:	9d1ff0ef          	jal	ra,ffffffc05040afee <kva2pa>
ffffffc05040b622:	87aa                	mv	a5,a0
ffffffc05040b624:	83b1                	srli	a5,a5,0xc
ffffffc05040b626:	00a79713          	slli	a4,a5,0xa
ffffffc05040b62a:	fc843783          	ld	a5,-56(s0)
ffffffc05040b62e:	e398                	sd	a4,0(a5)
ffffffc05040b630:	4585                	li	a1,1
ffffffc05040b632:	fc843503          	ld	a0,-56(s0)
ffffffc05040b636:	a2bff0ef          	jal	ra,ffffffc05040b060 <set_attribute>
ffffffc05040b63a:	fa043783          	ld	a5,-96(s0)
ffffffc05040b63e:	00379713          	slli	a4,a5,0x3
ffffffc05040b642:	fc043783          	ld	a5,-64(s0)
ffffffc05040b646:	97ba                	add	a5,a5,a4
ffffffc05040b648:	fcf43c23          	sd	a5,-40(s0)
ffffffc05040b64c:	a00d                	j	ffffffc05040b66e <setup_shm_page+0xc0>
ffffffc05040b64e:	fa043783          	ld	a5,-96(s0)
ffffffc05040b652:	00379493          	slli	s1,a5,0x3
ffffffc05040b656:	fc843783          	ld	a5,-56(s0)
ffffffc05040b65a:	639c                	ld	a5,0(a5)
ffffffc05040b65c:	83a9                	srli	a5,a5,0xa
ffffffc05040b65e:	07b2                	slli	a5,a5,0xc
ffffffc05040b660:	853e                	mv	a0,a5
ffffffc05040b662:	9a9ff0ef          	jal	ra,ffffffc05040b00a <pa2kva>
ffffffc05040b666:	87aa                	mv	a5,a0
ffffffc05040b668:	97a6                	add	a5,a5,s1
ffffffc05040b66a:	fcf43c23          	sd	a5,-40(s0)
ffffffc05040b66e:	fd843783          	ld	a5,-40(s0)
ffffffc05040b672:	639c                	ld	a5,0(a5)
ffffffc05040b674:	8b85                	andi	a5,a5,1
ffffffc05040b676:	ef9d                	bnez	a5,ffffffc05040b6b4 <setup_shm_page+0x106>
ffffffc05040b678:	a11ff0ef          	jal	ra,ffffffc05040b088 <allocPage>
ffffffc05040b67c:	faa43c23          	sd	a0,-72(s0)
ffffffc05040b680:	fb843503          	ld	a0,-72(s0)
ffffffc05040b684:	96bff0ef          	jal	ra,ffffffc05040afee <kva2pa>
ffffffc05040b688:	87aa                	mv	a5,a0
ffffffc05040b68a:	83b1                	srli	a5,a5,0xc
ffffffc05040b68c:	00a79713          	slli	a4,a5,0xa
ffffffc05040b690:	fd843783          	ld	a5,-40(s0)
ffffffc05040b694:	e398                	sd	a4,0(a5)
ffffffc05040b696:	4585                	li	a1,1
ffffffc05040b698:	fd843503          	ld	a0,-40(s0)
ffffffc05040b69c:	9c5ff0ef          	jal	ra,ffffffc05040b060 <set_attribute>
ffffffc05040b6a0:	f9843783          	ld	a5,-104(s0)
ffffffc05040b6a4:	00379713          	slli	a4,a5,0x3
ffffffc05040b6a8:	fb843783          	ld	a5,-72(s0)
ffffffc05040b6ac:	97ba                	add	a5,a5,a4
ffffffc05040b6ae:	fcf43823          	sd	a5,-48(s0)
ffffffc05040b6b2:	a00d                	j	ffffffc05040b6d4 <setup_shm_page+0x126>
ffffffc05040b6b4:	f9843783          	ld	a5,-104(s0)
ffffffc05040b6b8:	00379493          	slli	s1,a5,0x3
ffffffc05040b6bc:	fd843783          	ld	a5,-40(s0)
ffffffc05040b6c0:	639c                	ld	a5,0(a5)
ffffffc05040b6c2:	83a9                	srli	a5,a5,0xa
ffffffc05040b6c4:	07b2                	slli	a5,a5,0xc
ffffffc05040b6c6:	853e                	mv	a0,a5
ffffffc05040b6c8:	943ff0ef          	jal	ra,ffffffc05040b00a <pa2kva>
ffffffc05040b6cc:	87aa                	mv	a5,a0
ffffffc05040b6ce:	97a6                	add	a5,a5,s1
ffffffc05040b6d0:	fcf43823          	sd	a5,-48(s0)
ffffffc05040b6d4:	f8043783          	ld	a5,-128(s0)
ffffffc05040b6d8:	83b1                	srli	a5,a5,0xc
ffffffc05040b6da:	85be                	mv	a1,a5
ffffffc05040b6dc:	fd043503          	ld	a0,-48(s0)
ffffffc05040b6e0:	947ff0ef          	jal	ra,ffffffc05040b026 <set_pfn>
ffffffc05040b6e4:	0df00793          	li	a5,223
ffffffc05040b6e8:	faf43823          	sd	a5,-80(s0)
ffffffc05040b6ec:	fb043583          	ld	a1,-80(s0)
ffffffc05040b6f0:	fd043503          	ld	a0,-48(s0)
ffffffc05040b6f4:	96dff0ef          	jal	ra,ffffffc05040b060 <set_attribute>
ffffffc05040b6f8:	0001                	nop
ffffffc05040b6fa:	60aa                	ld	ra,136(sp)
ffffffc05040b6fc:	640a                	ld	s0,128(sp)
ffffffc05040b6fe:	74e6                	ld	s1,120(sp)
ffffffc05040b700:	6149                	addi	sp,sp,144
ffffffc05040b702:	8082                	ret

ffffffc05040b704 <alloc_page_helper>:
ffffffc05040b704:	7175                	addi	sp,sp,-144
ffffffc05040b706:	e506                	sd	ra,136(sp)
ffffffc05040b708:	e122                	sd	s0,128(sp)
ffffffc05040b70a:	fca6                	sd	s1,120(sp)
ffffffc05040b70c:	0900                	addi	s0,sp,144
ffffffc05040b70e:	f8a43423          	sd	a0,-120(s0)
ffffffc05040b712:	f8b43023          	sd	a1,-128(s0)
ffffffc05040b716:	87b2                	mv	a5,a2
ffffffc05040b718:	f6f42e23          	sw	a5,-132(s0)
ffffffc05040b71c:	f8843783          	ld	a5,-120(s0)
ffffffc05040b720:	83b1                	srli	a5,a5,0xc
ffffffc05040b722:	1ff7f793          	andi	a5,a5,511
ffffffc05040b726:	f8f43823          	sd	a5,-112(s0)
ffffffc05040b72a:	f8843783          	ld	a5,-120(s0)
ffffffc05040b72e:	83d5                	srli	a5,a5,0x15
ffffffc05040b730:	1ff7f793          	andi	a5,a5,511
ffffffc05040b734:	f8f43c23          	sd	a5,-104(s0)
ffffffc05040b738:	f8843783          	ld	a5,-120(s0)
ffffffc05040b73c:	83f9                	srli	a5,a5,0x1e
ffffffc05040b73e:	1ff7f793          	andi	a5,a5,511
ffffffc05040b742:	faf43023          	sd	a5,-96(s0)
ffffffc05040b746:	fa043783          	ld	a5,-96(s0)
ffffffc05040b74a:	00379713          	slli	a4,a5,0x3
ffffffc05040b74e:	f8043783          	ld	a5,-128(s0)
ffffffc05040b752:	97ba                	add	a5,a5,a4
ffffffc05040b754:	fcf43423          	sd	a5,-56(s0)
ffffffc05040b758:	fc043c23          	sd	zero,-40(s0)
ffffffc05040b75c:	fc043823          	sd	zero,-48(s0)
ffffffc05040b760:	fc843783          	ld	a5,-56(s0)
ffffffc05040b764:	639c                	ld	a5,0(a5)
ffffffc05040b766:	8b85                	andi	a5,a5,1
ffffffc05040b768:	e7b1                	bnez	a5,ffffffc05040b7b4 <alloc_page_helper+0xb0>
ffffffc05040b76a:	91fff0ef          	jal	ra,ffffffc05040b088 <allocPage>
ffffffc05040b76e:	fca43023          	sd	a0,-64(s0)
ffffffc05040b772:	fc043503          	ld	a0,-64(s0)
ffffffc05040b776:	879ff0ef          	jal	ra,ffffffc05040afee <kva2pa>
ffffffc05040b77a:	87aa                	mv	a5,a0
ffffffc05040b77c:	83b1                	srli	a5,a5,0xc
ffffffc05040b77e:	00a79713          	slli	a4,a5,0xa
ffffffc05040b782:	fc843783          	ld	a5,-56(s0)
ffffffc05040b786:	e398                	sd	a4,0(a5)
ffffffc05040b788:	f7c42783          	lw	a5,-132(s0)
ffffffc05040b78c:	2781                	sext.w	a5,a5
ffffffc05040b78e:	c399                	beqz	a5,ffffffc05040b794 <alloc_page_helper+0x90>
ffffffc05040b790:	47c5                	li	a5,17
ffffffc05040b792:	a011                	j	ffffffc05040b796 <alloc_page_helper+0x92>
ffffffc05040b794:	4785                	li	a5,1
ffffffc05040b796:	85be                	mv	a1,a5
ffffffc05040b798:	fc843503          	ld	a0,-56(s0)
ffffffc05040b79c:	8c5ff0ef          	jal	ra,ffffffc05040b060 <set_attribute>
ffffffc05040b7a0:	f9843783          	ld	a5,-104(s0)
ffffffc05040b7a4:	00379713          	slli	a4,a5,0x3
ffffffc05040b7a8:	fc043783          	ld	a5,-64(s0)
ffffffc05040b7ac:	97ba                	add	a5,a5,a4
ffffffc05040b7ae:	fcf43c23          	sd	a5,-40(s0)
ffffffc05040b7b2:	a00d                	j	ffffffc05040b7d4 <alloc_page_helper+0xd0>
ffffffc05040b7b4:	f9843783          	ld	a5,-104(s0)
ffffffc05040b7b8:	00379493          	slli	s1,a5,0x3
ffffffc05040b7bc:	fc843783          	ld	a5,-56(s0)
ffffffc05040b7c0:	639c                	ld	a5,0(a5)
ffffffc05040b7c2:	83a9                	srli	a5,a5,0xa
ffffffc05040b7c4:	07b2                	slli	a5,a5,0xc
ffffffc05040b7c6:	853e                	mv	a0,a5
ffffffc05040b7c8:	843ff0ef          	jal	ra,ffffffc05040b00a <pa2kva>
ffffffc05040b7cc:	87aa                	mv	a5,a0
ffffffc05040b7ce:	97a6                	add	a5,a5,s1
ffffffc05040b7d0:	fcf43c23          	sd	a5,-40(s0)
ffffffc05040b7d4:	fd843783          	ld	a5,-40(s0)
ffffffc05040b7d8:	639c                	ld	a5,0(a5)
ffffffc05040b7da:	8b85                	andi	a5,a5,1
ffffffc05040b7dc:	e7b1                	bnez	a5,ffffffc05040b828 <alloc_page_helper+0x124>
ffffffc05040b7de:	8abff0ef          	jal	ra,ffffffc05040b088 <allocPage>
ffffffc05040b7e2:	faa43c23          	sd	a0,-72(s0)
ffffffc05040b7e6:	fb843503          	ld	a0,-72(s0)
ffffffc05040b7ea:	805ff0ef          	jal	ra,ffffffc05040afee <kva2pa>
ffffffc05040b7ee:	87aa                	mv	a5,a0
ffffffc05040b7f0:	83b1                	srli	a5,a5,0xc
ffffffc05040b7f2:	00a79713          	slli	a4,a5,0xa
ffffffc05040b7f6:	fd843783          	ld	a5,-40(s0)
ffffffc05040b7fa:	e398                	sd	a4,0(a5)
ffffffc05040b7fc:	f7c42783          	lw	a5,-132(s0)
ffffffc05040b800:	2781                	sext.w	a5,a5
ffffffc05040b802:	c399                	beqz	a5,ffffffc05040b808 <alloc_page_helper+0x104>
ffffffc05040b804:	47c5                	li	a5,17
ffffffc05040b806:	a011                	j	ffffffc05040b80a <alloc_page_helper+0x106>
ffffffc05040b808:	4785                	li	a5,1
ffffffc05040b80a:	85be                	mv	a1,a5
ffffffc05040b80c:	fd843503          	ld	a0,-40(s0)
ffffffc05040b810:	851ff0ef          	jal	ra,ffffffc05040b060 <set_attribute>
ffffffc05040b814:	f9043783          	ld	a5,-112(s0)
ffffffc05040b818:	00379713          	slli	a4,a5,0x3
ffffffc05040b81c:	fb843783          	ld	a5,-72(s0)
ffffffc05040b820:	97ba                	add	a5,a5,a4
ffffffc05040b822:	fcf43823          	sd	a5,-48(s0)
ffffffc05040b826:	a00d                	j	ffffffc05040b848 <alloc_page_helper+0x144>
ffffffc05040b828:	f9043783          	ld	a5,-112(s0)
ffffffc05040b82c:	00379493          	slli	s1,a5,0x3
ffffffc05040b830:	fd843783          	ld	a5,-40(s0)
ffffffc05040b834:	639c                	ld	a5,0(a5)
ffffffc05040b836:	83a9                	srli	a5,a5,0xa
ffffffc05040b838:	07b2                	slli	a5,a5,0xc
ffffffc05040b83a:	853e                	mv	a0,a5
ffffffc05040b83c:	fceff0ef          	jal	ra,ffffffc05040b00a <pa2kva>
ffffffc05040b840:	87aa                	mv	a5,a0
ffffffc05040b842:	97a6                	add	a5,a5,s1
ffffffc05040b844:	fcf43823          	sd	a5,-48(s0)
ffffffc05040b848:	fd043783          	ld	a5,-48(s0)
ffffffc05040b84c:	639c                	ld	a5,0(a5)
ffffffc05040b84e:	8b85                	andi	a5,a5,1
ffffffc05040b850:	c399                	beqz	a5,ffffffc05040b856 <alloc_page_helper+0x152>
ffffffc05040b852:	4781                	li	a5,0
ffffffc05040b854:	a0b1                	j	ffffffc05040b8a0 <alloc_page_helper+0x19c>
ffffffc05040b856:	833ff0ef          	jal	ra,ffffffc05040b088 <allocPage>
ffffffc05040b85a:	faa43823          	sd	a0,-80(s0)
ffffffc05040b85e:	fb043503          	ld	a0,-80(s0)
ffffffc05040b862:	f8cff0ef          	jal	ra,ffffffc05040afee <kva2pa>
ffffffc05040b866:	87aa                	mv	a5,a0
ffffffc05040b868:	83b1                	srli	a5,a5,0xc
ffffffc05040b86a:	85be                	mv	a1,a5
ffffffc05040b86c:	fd043503          	ld	a0,-48(s0)
ffffffc05040b870:	fb6ff0ef          	jal	ra,ffffffc05040b026 <set_pfn>
ffffffc05040b874:	f7c42783          	lw	a5,-132(s0)
ffffffc05040b878:	0007871b          	sext.w	a4,a5
ffffffc05040b87c:	4785                	li	a5,1
ffffffc05040b87e:	00f71463          	bne	a4,a5,ffffffc05040b886 <alloc_page_helper+0x182>
ffffffc05040b882:	47fd                	li	a5,31
ffffffc05040b884:	a011                	j	ffffffc05040b888 <alloc_page_helper+0x184>
ffffffc05040b886:	47bd                	li	a5,15
ffffffc05040b888:	faf43423          	sd	a5,-88(s0)
ffffffc05040b88c:	fa843583          	ld	a1,-88(s0)
ffffffc05040b890:	fd043503          	ld	a0,-48(s0)
ffffffc05040b894:	fccff0ef          	jal	ra,ffffffc05040b060 <set_attribute>
ffffffc05040b898:	fb043703          	ld	a4,-80(s0)
ffffffc05040b89c:	77fd                	lui	a5,0xfffff
ffffffc05040b89e:	8ff9                	and	a5,a5,a4
ffffffc05040b8a0:	853e                	mv	a0,a5
ffffffc05040b8a2:	60aa                	ld	ra,136(sp)
ffffffc05040b8a4:	640a                	ld	s0,128(sp)
ffffffc05040b8a6:	74e6                	ld	s1,120(sp)
ffffffc05040b8a8:	6149                	addi	sp,sp,144
ffffffc05040b8aa:	8082                	ret

ffffffc05040b8ac <free_page_helper>:
ffffffc05040b8ac:	711d                	addi	sp,sp,-96
ffffffc05040b8ae:	ec86                	sd	ra,88(sp)
ffffffc05040b8b0:	e8a2                	sd	s0,80(sp)
ffffffc05040b8b2:	e4a6                	sd	s1,72(sp)
ffffffc05040b8b4:	1080                	addi	s0,sp,96
ffffffc05040b8b6:	faa43423          	sd	a0,-88(s0)
ffffffc05040b8ba:	fab43023          	sd	a1,-96(s0)
ffffffc05040b8be:	fa843783          	ld	a5,-88(s0)
ffffffc05040b8c2:	83b1                	srli	a5,a5,0xc
ffffffc05040b8c4:	1ff7f793          	andi	a5,a5,511
ffffffc05040b8c8:	faf43823          	sd	a5,-80(s0)
ffffffc05040b8cc:	fa843783          	ld	a5,-88(s0)
ffffffc05040b8d0:	83d5                	srli	a5,a5,0x15
ffffffc05040b8d2:	1ff7f793          	andi	a5,a5,511
ffffffc05040b8d6:	faf43c23          	sd	a5,-72(s0)
ffffffc05040b8da:	fa843783          	ld	a5,-88(s0)
ffffffc05040b8de:	83f9                	srli	a5,a5,0x1e
ffffffc05040b8e0:	1ff7f793          	andi	a5,a5,511
ffffffc05040b8e4:	fcf43023          	sd	a5,-64(s0)
ffffffc05040b8e8:	fc043783          	ld	a5,-64(s0)
ffffffc05040b8ec:	00379713          	slli	a4,a5,0x3
ffffffc05040b8f0:	fa043783          	ld	a5,-96(s0)
ffffffc05040b8f4:	97ba                	add	a5,a5,a4
ffffffc05040b8f6:	fcf43c23          	sd	a5,-40(s0)
ffffffc05040b8fa:	fb843783          	ld	a5,-72(s0)
ffffffc05040b8fe:	00379493          	slli	s1,a5,0x3
ffffffc05040b902:	fd843783          	ld	a5,-40(s0)
ffffffc05040b906:	639c                	ld	a5,0(a5)
ffffffc05040b908:	83a9                	srli	a5,a5,0xa
ffffffc05040b90a:	07b2                	slli	a5,a5,0xc
ffffffc05040b90c:	853e                	mv	a0,a5
ffffffc05040b90e:	efcff0ef          	jal	ra,ffffffc05040b00a <pa2kva>
ffffffc05040b912:	87aa                	mv	a5,a0
ffffffc05040b914:	97a6                	add	a5,a5,s1
ffffffc05040b916:	fcf43823          	sd	a5,-48(s0)
ffffffc05040b91a:	fb043783          	ld	a5,-80(s0)
ffffffc05040b91e:	00379493          	slli	s1,a5,0x3
ffffffc05040b922:	fd043783          	ld	a5,-48(s0)
ffffffc05040b926:	639c                	ld	a5,0(a5)
ffffffc05040b928:	83a9                	srli	a5,a5,0xa
ffffffc05040b92a:	07b2                	slli	a5,a5,0xc
ffffffc05040b92c:	853e                	mv	a0,a5
ffffffc05040b92e:	edcff0ef          	jal	ra,ffffffc05040b00a <pa2kva>
ffffffc05040b932:	87aa                	mv	a5,a0
ffffffc05040b934:	97a6                	add	a5,a5,s1
ffffffc05040b936:	fcf43423          	sd	a5,-56(s0)
ffffffc05040b93a:	fc843783          	ld	a5,-56(s0)
ffffffc05040b93e:	0007b023          	sd	zero,0(a5) # fffffffffffff000 <__BSS_END__+0x3faf3fc0e0>
ffffffc05040b942:	0001                	nop
ffffffc05040b944:	853e                	mv	a0,a5
ffffffc05040b946:	60e6                	ld	ra,88(sp)
ffffffc05040b948:	6446                	ld	s0,80(sp)
ffffffc05040b94a:	64a6                	ld	s1,72(sp)
ffffffc05040b94c:	6125                	addi	sp,sp,96
ffffffc05040b94e:	8082                	ret

ffffffc05040b950 <check_page_helper>:
ffffffc05040b950:	711d                	addi	sp,sp,-96
ffffffc05040b952:	ec86                	sd	ra,88(sp)
ffffffc05040b954:	e8a2                	sd	s0,80(sp)
ffffffc05040b956:	e4a6                	sd	s1,72(sp)
ffffffc05040b958:	1080                	addi	s0,sp,96
ffffffc05040b95a:	faa43423          	sd	a0,-88(s0)
ffffffc05040b95e:	fab43023          	sd	a1,-96(s0)
ffffffc05040b962:	fa843783          	ld	a5,-88(s0)
ffffffc05040b966:	83b1                	srli	a5,a5,0xc
ffffffc05040b968:	1ff7f793          	andi	a5,a5,511
ffffffc05040b96c:	faf43823          	sd	a5,-80(s0)
ffffffc05040b970:	fa843783          	ld	a5,-88(s0)
ffffffc05040b974:	83d5                	srli	a5,a5,0x15
ffffffc05040b976:	1ff7f793          	andi	a5,a5,511
ffffffc05040b97a:	faf43c23          	sd	a5,-72(s0)
ffffffc05040b97e:	fa843783          	ld	a5,-88(s0)
ffffffc05040b982:	83f9                	srli	a5,a5,0x1e
ffffffc05040b984:	1ff7f793          	andi	a5,a5,511
ffffffc05040b988:	fcf43023          	sd	a5,-64(s0)
ffffffc05040b98c:	fc043783          	ld	a5,-64(s0)
ffffffc05040b990:	00379713          	slli	a4,a5,0x3
ffffffc05040b994:	fa043783          	ld	a5,-96(s0)
ffffffc05040b998:	97ba                	add	a5,a5,a4
ffffffc05040b99a:	fcf43c23          	sd	a5,-40(s0)
ffffffc05040b99e:	fd843783          	ld	a5,-40(s0)
ffffffc05040b9a2:	639c                	ld	a5,0(a5)
ffffffc05040b9a4:	8b85                	andi	a5,a5,1
ffffffc05040b9a6:	e399                	bnez	a5,ffffffc05040b9ac <check_page_helper+0x5c>
ffffffc05040b9a8:	4781                	li	a5,0
ffffffc05040b9aa:	a08d                	j	ffffffc05040ba0c <check_page_helper+0xbc>
ffffffc05040b9ac:	fb843783          	ld	a5,-72(s0)
ffffffc05040b9b0:	00379493          	slli	s1,a5,0x3
ffffffc05040b9b4:	fd843783          	ld	a5,-40(s0)
ffffffc05040b9b8:	639c                	ld	a5,0(a5)
ffffffc05040b9ba:	83a9                	srli	a5,a5,0xa
ffffffc05040b9bc:	07b2                	slli	a5,a5,0xc
ffffffc05040b9be:	853e                	mv	a0,a5
ffffffc05040b9c0:	e4aff0ef          	jal	ra,ffffffc05040b00a <pa2kva>
ffffffc05040b9c4:	87aa                	mv	a5,a0
ffffffc05040b9c6:	97a6                	add	a5,a5,s1
ffffffc05040b9c8:	fcf43823          	sd	a5,-48(s0)
ffffffc05040b9cc:	fd043783          	ld	a5,-48(s0)
ffffffc05040b9d0:	639c                	ld	a5,0(a5)
ffffffc05040b9d2:	8b85                	andi	a5,a5,1
ffffffc05040b9d4:	e399                	bnez	a5,ffffffc05040b9da <check_page_helper+0x8a>
ffffffc05040b9d6:	4781                	li	a5,0
ffffffc05040b9d8:	a815                	j	ffffffc05040ba0c <check_page_helper+0xbc>
ffffffc05040b9da:	fb043783          	ld	a5,-80(s0)
ffffffc05040b9de:	00379493          	slli	s1,a5,0x3
ffffffc05040b9e2:	fd043783          	ld	a5,-48(s0)
ffffffc05040b9e6:	639c                	ld	a5,0(a5)
ffffffc05040b9e8:	83a9                	srli	a5,a5,0xa
ffffffc05040b9ea:	07b2                	slli	a5,a5,0xc
ffffffc05040b9ec:	853e                	mv	a0,a5
ffffffc05040b9ee:	e1cff0ef          	jal	ra,ffffffc05040b00a <pa2kva>
ffffffc05040b9f2:	87aa                	mv	a5,a0
ffffffc05040b9f4:	97a6                	add	a5,a5,s1
ffffffc05040b9f6:	fcf43423          	sd	a5,-56(s0)
ffffffc05040b9fa:	fc843783          	ld	a5,-56(s0)
ffffffc05040b9fe:	639c                	ld	a5,0(a5)
ffffffc05040ba00:	8b85                	andi	a5,a5,1
ffffffc05040ba02:	e399                	bnez	a5,ffffffc05040ba08 <check_page_helper+0xb8>
ffffffc05040ba04:	4781                	li	a5,0
ffffffc05040ba06:	a019                	j	ffffffc05040ba0c <check_page_helper+0xbc>
ffffffc05040ba08:	fc843783          	ld	a5,-56(s0)
ffffffc05040ba0c:	853e                	mv	a0,a5
ffffffc05040ba0e:	60e6                	ld	ra,88(sp)
ffffffc05040ba10:	6446                	ld	s0,80(sp)
ffffffc05040ba12:	64a6                	ld	s1,72(sp)
ffffffc05040ba14:	6125                	addi	sp,sp,96
ffffffc05040ba16:	8082                	ret

ffffffc05040ba18 <uva2pa>:
ffffffc05040ba18:	7139                	addi	sp,sp,-64
ffffffc05040ba1a:	fc06                	sd	ra,56(sp)
ffffffc05040ba1c:	f822                	sd	s0,48(sp)
ffffffc05040ba1e:	0080                	addi	s0,sp,64
ffffffc05040ba20:	fca43423          	sd	a0,-56(s0)
ffffffc05040ba24:	fcb43023          	sd	a1,-64(s0)
ffffffc05040ba28:	fc043503          	ld	a0,-64(s0)
ffffffc05040ba2c:	ddeff0ef          	jal	ra,ffffffc05040b00a <pa2kva>
ffffffc05040ba30:	87aa                	mv	a5,a0
ffffffc05040ba32:	85be                	mv	a1,a5
ffffffc05040ba34:	fc843503          	ld	a0,-56(s0)
ffffffc05040ba38:	f19ff0ef          	jal	ra,ffffffc05040b950 <check_page_helper>
ffffffc05040ba3c:	fea43423          	sd	a0,-24(s0)
ffffffc05040ba40:	fe843783          	ld	a5,-24(s0)
ffffffc05040ba44:	e399                	bnez	a5,ffffffc05040ba4a <uva2pa+0x32>
ffffffc05040ba46:	4781                	li	a5,0
ffffffc05040ba48:	a01d                	j	ffffffc05040ba6e <uva2pa+0x56>
ffffffc05040ba4a:	fe843783          	ld	a5,-24(s0)
ffffffc05040ba4e:	83a9                	srli	a5,a5,0xa
ffffffc05040ba50:	07b2                	slli	a5,a5,0xc
ffffffc05040ba52:	fef43023          	sd	a5,-32(s0)
ffffffc05040ba56:	6785                	lui	a5,0x1
ffffffc05040ba58:	17fd                	addi	a5,a5,-1
ffffffc05040ba5a:	fcf43c23          	sd	a5,-40(s0)
ffffffc05040ba5e:	fc843703          	ld	a4,-56(s0)
ffffffc05040ba62:	fd843783          	ld	a5,-40(s0)
ffffffc05040ba66:	8f7d                	and	a4,a4,a5
ffffffc05040ba68:	fe043783          	ld	a5,-32(s0)
ffffffc05040ba6c:	97ba                	add	a5,a5,a4
ffffffc05040ba6e:	853e                	mv	a0,a5
ffffffc05040ba70:	70e2                	ld	ra,56(sp)
ffffffc05040ba72:	7442                	ld	s0,48(sp)
ffffffc05040ba74:	6121                	addi	sp,sp,64
ffffffc05040ba76:	8082                	ret

ffffffc05040ba78 <local_flush_tlb_all>:
ffffffc05040ba78:	1141                	addi	sp,sp,-16
ffffffc05040ba7a:	e422                	sd	s0,8(sp)
ffffffc05040ba7c:	0800                	addi	s0,sp,16
ffffffc05040ba7e:	12000073          	sfence.vma
ffffffc05040ba82:	0001                	nop
ffffffc05040ba84:	6422                	ld	s0,8(sp)
ffffffc05040ba86:	0141                	addi	sp,sp,16
ffffffc05040ba88:	8082                	ret

ffffffc05040ba8a <kva2pa>:
ffffffc05040ba8a:	1101                	addi	sp,sp,-32
ffffffc05040ba8c:	ec22                	sd	s0,24(sp)
ffffffc05040ba8e:	1000                	addi	s0,sp,32
ffffffc05040ba90:	fea43423          	sd	a0,-24(s0)
ffffffc05040ba94:	fe843703          	ld	a4,-24(s0)
ffffffc05040ba98:	4785                	li	a5,1
ffffffc05040ba9a:	179a                	slli	a5,a5,0x26
ffffffc05040ba9c:	97ba                	add	a5,a5,a4
ffffffc05040ba9e:	853e                	mv	a0,a5
ffffffc05040baa0:	6462                	ld	s0,24(sp)
ffffffc05040baa2:	6105                	addi	sp,sp,32
ffffffc05040baa4:	8082                	ret

ffffffc05040baa6 <pa2kva>:
ffffffc05040baa6:	1101                	addi	sp,sp,-32
ffffffc05040baa8:	ec22                	sd	s0,24(sp)
ffffffc05040baaa:	1000                	addi	s0,sp,32
ffffffc05040baac:	fea43423          	sd	a0,-24(s0)
ffffffc05040bab0:	fe843703          	ld	a4,-24(s0)
ffffffc05040bab4:	57fd                	li	a5,-1
ffffffc05040bab6:	179a                	slli	a5,a5,0x26
ffffffc05040bab8:	97ba                	add	a5,a5,a4
ffffffc05040baba:	853e                	mv	a0,a5
ffffffc05040babc:	6462                	ld	s0,24(sp)
ffffffc05040babe:	6105                	addi	sp,sp,32
ffffffc05040bac0:	8082                	ret

ffffffc05040bac2 <set_pfn>:
ffffffc05040bac2:	7179                	addi	sp,sp,-48
ffffffc05040bac4:	f422                	sd	s0,40(sp)
ffffffc05040bac6:	1800                	addi	s0,sp,48
ffffffc05040bac8:	fca43c23          	sd	a0,-40(s0)
ffffffc05040bacc:	fcb43823          	sd	a1,-48(s0)
ffffffc05040bad0:	c0000793          	li	a5,-1024
ffffffc05040bad4:	fef43423          	sd	a5,-24(s0)
ffffffc05040bad8:	fd843783          	ld	a5,-40(s0)
ffffffc05040badc:	6398                	ld	a4,0(a5)
ffffffc05040bade:	fd043783          	ld	a5,-48(s0)
ffffffc05040bae2:	00a79693          	slli	a3,a5,0xa
ffffffc05040bae6:	fe843783          	ld	a5,-24(s0)
ffffffc05040baea:	8ff5                	and	a5,a5,a3
ffffffc05040baec:	8f5d                	or	a4,a4,a5
ffffffc05040baee:	fd843783          	ld	a5,-40(s0)
ffffffc05040baf2:	e398                	sd	a4,0(a5)
ffffffc05040baf4:	0001                	nop
ffffffc05040baf6:	7422                	ld	s0,40(sp)
ffffffc05040baf8:	6145                	addi	sp,sp,48
ffffffc05040bafa:	8082                	ret

ffffffc05040bafc <set_attribute>:
ffffffc05040bafc:	1101                	addi	sp,sp,-32
ffffffc05040bafe:	ec22                	sd	s0,24(sp)
ffffffc05040bb00:	1000                	addi	s0,sp,32
ffffffc05040bb02:	fea43423          	sd	a0,-24(s0)
ffffffc05040bb06:	feb43023          	sd	a1,-32(s0)
ffffffc05040bb0a:	fe843783          	ld	a5,-24(s0)
ffffffc05040bb0e:	6398                	ld	a4,0(a5)
ffffffc05040bb10:	fe043783          	ld	a5,-32(s0)
ffffffc05040bb14:	8f5d                	or	a4,a4,a5
ffffffc05040bb16:	fe843783          	ld	a5,-24(s0)
ffffffc05040bb1a:	e398                	sd	a4,0(a5)
ffffffc05040bb1c:	0001                	nop
ffffffc05040bb1e:	6462                	ld	s0,24(sp)
ffffffc05040bb20:	6105                	addi	sp,sp,32
ffffffc05040bb22:	8082                	ret

ffffffc05040bb24 <ioremap>:
ffffffc05040bb24:	7135                	addi	sp,sp,-160
ffffffc05040bb26:	ed06                	sd	ra,152(sp)
ffffffc05040bb28:	e922                	sd	s0,144(sp)
ffffffc05040bb2a:	e526                	sd	s1,136(sp)
ffffffc05040bb2c:	1100                	addi	s0,sp,160
ffffffc05040bb2e:	f6a43423          	sd	a0,-152(s0)
ffffffc05040bb32:	f6b43023          	sd	a1,-160(s0)
ffffffc05040bb36:	fe02f7b7          	lui	a5,0xfe02f
ffffffc05040bb3a:	07b6                	slli	a5,a5,0xd
ffffffc05040bb3c:	faf43c23          	sd	a5,-72(s0)
ffffffc05040bb40:	fc042e23          	sw	zero,-36(s0)
ffffffc05040bb44:	fc043823          	sd	zero,-48(s0)
ffffffc05040bb48:	aa41                	j	ffffffc05040bcd8 <ioremap+0x1b4>
ffffffc05040bb4a:	00066797          	auipc	a5,0x66
ffffffc05040bb4e:	ba678793          	addi	a5,a5,-1114 # ffffffc0504716f0 <io_base>
ffffffc05040bb52:	639c                	ld	a5,0(a5)
ffffffc05040bb54:	faf43823          	sd	a5,-80(s0)
ffffffc05040bb58:	fb043783          	ld	a5,-80(s0)
ffffffc05040bb5c:	83b1                	srli	a5,a5,0xc
ffffffc05040bb5e:	1ff7f793          	andi	a5,a5,511
ffffffc05040bb62:	f6f43c23          	sd	a5,-136(s0)
ffffffc05040bb66:	fb043783          	ld	a5,-80(s0)
ffffffc05040bb6a:	83d5                	srli	a5,a5,0x15
ffffffc05040bb6c:	1ff7f793          	andi	a5,a5,511
ffffffc05040bb70:	f8f43023          	sd	a5,-128(s0)
ffffffc05040bb74:	fb043783          	ld	a5,-80(s0)
ffffffc05040bb78:	83f9                	srli	a5,a5,0x1e
ffffffc05040bb7a:	1ff7f793          	andi	a5,a5,511
ffffffc05040bb7e:	f8f43423          	sd	a5,-120(s0)
ffffffc05040bb82:	f8843783          	ld	a5,-120(s0)
ffffffc05040bb86:	00379713          	slli	a4,a5,0x3
ffffffc05040bb8a:	fb843783          	ld	a5,-72(s0)
ffffffc05040bb8e:	97ba                	add	a5,a5,a4
ffffffc05040bb90:	faf43423          	sd	a5,-88(s0)
ffffffc05040bb94:	fc043423          	sd	zero,-56(s0)
ffffffc05040bb98:	fc043023          	sd	zero,-64(s0)
ffffffc05040bb9c:	fa843783          	ld	a5,-88(s0)
ffffffc05040bba0:	639c                	ld	a5,0(a5)
ffffffc05040bba2:	8b85                	andi	a5,a5,1
ffffffc05040bba4:	ef9d                	bnez	a5,ffffffc05040bbe2 <ioremap+0xbe>
ffffffc05040bba6:	ce2ff0ef          	jal	ra,ffffffc05040b088 <allocPage>
ffffffc05040bbaa:	faa43023          	sd	a0,-96(s0)
ffffffc05040bbae:	fa043503          	ld	a0,-96(s0)
ffffffc05040bbb2:	ed9ff0ef          	jal	ra,ffffffc05040ba8a <kva2pa>
ffffffc05040bbb6:	87aa                	mv	a5,a0
ffffffc05040bbb8:	83b1                	srli	a5,a5,0xc
ffffffc05040bbba:	00a79713          	slli	a4,a5,0xa
ffffffc05040bbbe:	fa843783          	ld	a5,-88(s0)
ffffffc05040bbc2:	e398                	sd	a4,0(a5)
ffffffc05040bbc4:	4585                	li	a1,1
ffffffc05040bbc6:	fa843503          	ld	a0,-88(s0)
ffffffc05040bbca:	f33ff0ef          	jal	ra,ffffffc05040bafc <set_attribute>
ffffffc05040bbce:	f8043783          	ld	a5,-128(s0)
ffffffc05040bbd2:	00379713          	slli	a4,a5,0x3
ffffffc05040bbd6:	fa043783          	ld	a5,-96(s0)
ffffffc05040bbda:	97ba                	add	a5,a5,a4
ffffffc05040bbdc:	fcf43423          	sd	a5,-56(s0)
ffffffc05040bbe0:	a00d                	j	ffffffc05040bc02 <ioremap+0xde>
ffffffc05040bbe2:	f8043783          	ld	a5,-128(s0)
ffffffc05040bbe6:	00379493          	slli	s1,a5,0x3
ffffffc05040bbea:	fa843783          	ld	a5,-88(s0)
ffffffc05040bbee:	639c                	ld	a5,0(a5)
ffffffc05040bbf0:	83a9                	srli	a5,a5,0xa
ffffffc05040bbf2:	07b2                	slli	a5,a5,0xc
ffffffc05040bbf4:	853e                	mv	a0,a5
ffffffc05040bbf6:	eb1ff0ef          	jal	ra,ffffffc05040baa6 <pa2kva>
ffffffc05040bbfa:	87aa                	mv	a5,a0
ffffffc05040bbfc:	97a6                	add	a5,a5,s1
ffffffc05040bbfe:	fcf43423          	sd	a5,-56(s0)
ffffffc05040bc02:	fc843783          	ld	a5,-56(s0)
ffffffc05040bc06:	639c                	ld	a5,0(a5)
ffffffc05040bc08:	8b85                	andi	a5,a5,1
ffffffc05040bc0a:	ef9d                	bnez	a5,ffffffc05040bc48 <ioremap+0x124>
ffffffc05040bc0c:	c7cff0ef          	jal	ra,ffffffc05040b088 <allocPage>
ffffffc05040bc10:	f8a43c23          	sd	a0,-104(s0)
ffffffc05040bc14:	f9843503          	ld	a0,-104(s0)
ffffffc05040bc18:	e73ff0ef          	jal	ra,ffffffc05040ba8a <kva2pa>
ffffffc05040bc1c:	87aa                	mv	a5,a0
ffffffc05040bc1e:	83b1                	srli	a5,a5,0xc
ffffffc05040bc20:	00a79713          	slli	a4,a5,0xa
ffffffc05040bc24:	fc843783          	ld	a5,-56(s0)
ffffffc05040bc28:	e398                	sd	a4,0(a5)
ffffffc05040bc2a:	4585                	li	a1,1
ffffffc05040bc2c:	fc843503          	ld	a0,-56(s0)
ffffffc05040bc30:	ecdff0ef          	jal	ra,ffffffc05040bafc <set_attribute>
ffffffc05040bc34:	f7843783          	ld	a5,-136(s0)
ffffffc05040bc38:	00379713          	slli	a4,a5,0x3
ffffffc05040bc3c:	f9843783          	ld	a5,-104(s0)
ffffffc05040bc40:	97ba                	add	a5,a5,a4
ffffffc05040bc42:	fcf43023          	sd	a5,-64(s0)
ffffffc05040bc46:	a00d                	j	ffffffc05040bc68 <ioremap+0x144>
ffffffc05040bc48:	f7843783          	ld	a5,-136(s0)
ffffffc05040bc4c:	00379493          	slli	s1,a5,0x3
ffffffc05040bc50:	fc843783          	ld	a5,-56(s0)
ffffffc05040bc54:	639c                	ld	a5,0(a5)
ffffffc05040bc56:	83a9                	srli	a5,a5,0xa
ffffffc05040bc58:	07b2                	slli	a5,a5,0xc
ffffffc05040bc5a:	853e                	mv	a0,a5
ffffffc05040bc5c:	e4bff0ef          	jal	ra,ffffffc05040baa6 <pa2kva>
ffffffc05040bc60:	87aa                	mv	a5,a0
ffffffc05040bc62:	97a6                	add	a5,a5,s1
ffffffc05040bc64:	fcf43023          	sd	a5,-64(s0)
ffffffc05040bc68:	f6843783          	ld	a5,-152(s0)
ffffffc05040bc6c:	83b1                	srli	a5,a5,0xc
ffffffc05040bc6e:	85be                	mv	a1,a5
ffffffc05040bc70:	fc043503          	ld	a0,-64(s0)
ffffffc05040bc74:	e4fff0ef          	jal	ra,ffffffc05040bac2 <set_pfn>
ffffffc05040bc78:	0cf00793          	li	a5,207
ffffffc05040bc7c:	f8f43823          	sd	a5,-112(s0)
ffffffc05040bc80:	f9043583          	ld	a1,-112(s0)
ffffffc05040bc84:	fc043503          	ld	a0,-64(s0)
ffffffc05040bc88:	e75ff0ef          	jal	ra,ffffffc05040bafc <set_attribute>
ffffffc05040bc8c:	fdc42783          	lw	a5,-36(s0)
ffffffc05040bc90:	2781                	sext.w	a5,a5
ffffffc05040bc92:	eb99                	bnez	a5,ffffffc05040bca8 <ioremap+0x184>
ffffffc05040bc94:	4785                	li	a5,1
ffffffc05040bc96:	fcf42e23          	sw	a5,-36(s0)
ffffffc05040bc9a:	00066797          	auipc	a5,0x66
ffffffc05040bc9e:	a5678793          	addi	a5,a5,-1450 # ffffffc0504716f0 <io_base>
ffffffc05040bca2:	639c                	ld	a5,0(a5)
ffffffc05040bca4:	fcf43823          	sd	a5,-48(s0)
ffffffc05040bca8:	00066797          	auipc	a5,0x66
ffffffc05040bcac:	a4878793          	addi	a5,a5,-1464 # ffffffc0504716f0 <io_base>
ffffffc05040bcb0:	6398                	ld	a4,0(a5)
ffffffc05040bcb2:	6785                	lui	a5,0x1
ffffffc05040bcb4:	973e                	add	a4,a4,a5
ffffffc05040bcb6:	00066797          	auipc	a5,0x66
ffffffc05040bcba:	a3a78793          	addi	a5,a5,-1478 # ffffffc0504716f0 <io_base>
ffffffc05040bcbe:	e398                	sd	a4,0(a5)
ffffffc05040bcc0:	f6843703          	ld	a4,-152(s0)
ffffffc05040bcc4:	6785                	lui	a5,0x1
ffffffc05040bcc6:	97ba                	add	a5,a5,a4
ffffffc05040bcc8:	f6f43423          	sd	a5,-152(s0)
ffffffc05040bccc:	f6043703          	ld	a4,-160(s0)
ffffffc05040bcd0:	77fd                	lui	a5,0xfffff
ffffffc05040bcd2:	97ba                	add	a5,a5,a4
ffffffc05040bcd4:	f6f43023          	sd	a5,-160(s0)
ffffffc05040bcd8:	f6043783          	ld	a5,-160(s0)
ffffffc05040bcdc:	e60797e3          	bnez	a5,ffffffc05040bb4a <ioremap+0x26>
ffffffc05040bce0:	d99ff0ef          	jal	ra,ffffffc05040ba78 <local_flush_tlb_all>
ffffffc05040bce4:	fd043783          	ld	a5,-48(s0)
ffffffc05040bce8:	853e                	mv	a0,a5
ffffffc05040bcea:	60ea                	ld	ra,152(sp)
ffffffc05040bcec:	644a                	ld	s0,144(sp)
ffffffc05040bcee:	64aa                	ld	s1,136(sp)
ffffffc05040bcf0:	610d                	addi	sp,sp,160
ffffffc05040bcf2:	8082                	ret

ffffffc05040bcf4 <iounmap>:
ffffffc05040bcf4:	1101                	addi	sp,sp,-32
ffffffc05040bcf6:	ec22                	sd	s0,24(sp)
ffffffc05040bcf8:	1000                	addi	s0,sp,32
ffffffc05040bcfa:	fea43423          	sd	a0,-24(s0)
ffffffc05040bcfe:	0001                	nop
ffffffc05040bd00:	6462                	ld	s0,24(sp)
ffffffc05040bd02:	6105                	addi	sp,sp,32
ffffffc05040bd04:	8082                	ret

ffffffc05040bd06 <handle_syscall>:
ffffffc05040bd06:	7179                	addi	sp,sp,-48
ffffffc05040bd08:	f406                	sd	ra,40(sp)
ffffffc05040bd0a:	f022                	sd	s0,32(sp)
ffffffc05040bd0c:	1800                	addi	s0,sp,48
ffffffc05040bd0e:	fea43423          	sd	a0,-24(s0)
ffffffc05040bd12:	feb43023          	sd	a1,-32(s0)
ffffffc05040bd16:	fcc43c23          	sd	a2,-40(s0)
ffffffc05040bd1a:	fe843783          	ld	a5,-24(s0)
ffffffc05040bd1e:	1087b783          	ld	a5,264(a5) # fffffffffffff108 <__BSS_END__+0x3faf3fc1e8>
ffffffc05040bd22:	00478713          	addi	a4,a5,4
ffffffc05040bd26:	fe843783          	ld	a5,-24(s0)
ffffffc05040bd2a:	10e7b423          	sd	a4,264(a5)
ffffffc05040bd2e:	fe843783          	ld	a5,-24(s0)
ffffffc05040bd32:	67dc                	ld	a5,136(a5)
ffffffc05040bd34:	007f7717          	auipc	a4,0x7f7
ffffffc05040bd38:	fe470713          	addi	a4,a4,-28 # ffffffc050c02d18 <syscall>
ffffffc05040bd3c:	078e                	slli	a5,a5,0x3
ffffffc05040bd3e:	97ba                	add	a5,a5,a4
ffffffc05040bd40:	0007b803          	ld	a6,0(a5)
ffffffc05040bd44:	fe843783          	ld	a5,-24(s0)
ffffffc05040bd48:	6bb8                	ld	a4,80(a5)
ffffffc05040bd4a:	fe843783          	ld	a5,-24(s0)
ffffffc05040bd4e:	6fac                	ld	a1,88(a5)
ffffffc05040bd50:	fe843783          	ld	a5,-24(s0)
ffffffc05040bd54:	73b0                	ld	a2,96(a5)
ffffffc05040bd56:	fe843783          	ld	a5,-24(s0)
ffffffc05040bd5a:	77bc                	ld	a5,104(a5)
ffffffc05040bd5c:	86be                	mv	a3,a5
ffffffc05040bd5e:	853a                	mv	a0,a4
ffffffc05040bd60:	9802                	jalr	a6
ffffffc05040bd62:	87aa                	mv	a5,a0
ffffffc05040bd64:	873e                	mv	a4,a5
ffffffc05040bd66:	fe843783          	ld	a5,-24(s0)
ffffffc05040bd6a:	ebb8                	sd	a4,80(a5)
ffffffc05040bd6c:	0001                	nop
ffffffc05040bd6e:	70a2                	ld	ra,40(sp)
ffffffc05040bd70:	7402                	ld	s0,32(sp)
ffffffc05040bd72:	6145                	addi	sp,sp,48
ffffffc05040bd74:	8082                	ret

ffffffc05040bd76 <kstrlen>:
ffffffc05040bd76:	7179                	addi	sp,sp,-48
ffffffc05040bd78:	f422                	sd	s0,40(sp)
ffffffc05040bd7a:	1800                	addi	s0,sp,48
ffffffc05040bd7c:	fca43c23          	sd	a0,-40(s0)
ffffffc05040bd80:	fe042623          	sw	zero,-20(s0)
ffffffc05040bd84:	a031                	j	ffffffc05040bd90 <kstrlen+0x1a>
ffffffc05040bd86:	fec42783          	lw	a5,-20(s0)
ffffffc05040bd8a:	2785                	addiw	a5,a5,1
ffffffc05040bd8c:	fef42623          	sw	a5,-20(s0)
ffffffc05040bd90:	fec42783          	lw	a5,-20(s0)
ffffffc05040bd94:	fd843703          	ld	a4,-40(s0)
ffffffc05040bd98:	97ba                	add	a5,a5,a4
ffffffc05040bd9a:	0007c783          	lbu	a5,0(a5)
ffffffc05040bd9e:	f7e5                	bnez	a5,ffffffc05040bd86 <kstrlen+0x10>
ffffffc05040bda0:	fec42783          	lw	a5,-20(s0)
ffffffc05040bda4:	853e                	mv	a0,a5
ffffffc05040bda6:	7422                	ld	s0,40(sp)
ffffffc05040bda8:	6145                	addi	sp,sp,48
ffffffc05040bdaa:	8082                	ret

ffffffc05040bdac <kmemcpy>:
ffffffc05040bdac:	7179                	addi	sp,sp,-48
ffffffc05040bdae:	f422                	sd	s0,40(sp)
ffffffc05040bdb0:	1800                	addi	s0,sp,48
ffffffc05040bdb2:	fea43423          	sd	a0,-24(s0)
ffffffc05040bdb6:	feb43023          	sd	a1,-32(s0)
ffffffc05040bdba:	87b2                	mv	a5,a2
ffffffc05040bdbc:	fcf42e23          	sw	a5,-36(s0)
ffffffc05040bdc0:	a035                	j	ffffffc05040bdec <kmemcpy+0x40>
ffffffc05040bdc2:	fe043703          	ld	a4,-32(s0)
ffffffc05040bdc6:	00170793          	addi	a5,a4,1
ffffffc05040bdca:	fef43023          	sd	a5,-32(s0)
ffffffc05040bdce:	fe843783          	ld	a5,-24(s0)
ffffffc05040bdd2:	00178693          	addi	a3,a5,1
ffffffc05040bdd6:	fed43423          	sd	a3,-24(s0)
ffffffc05040bdda:	00074703          	lbu	a4,0(a4)
ffffffc05040bdde:	00e78023          	sb	a4,0(a5)
ffffffc05040bde2:	fdc42783          	lw	a5,-36(s0)
ffffffc05040bde6:	37fd                	addiw	a5,a5,-1
ffffffc05040bde8:	fcf42e23          	sw	a5,-36(s0)
ffffffc05040bdec:	fdc42783          	lw	a5,-36(s0)
ffffffc05040bdf0:	2781                	sext.w	a5,a5
ffffffc05040bdf2:	fbe1                	bnez	a5,ffffffc05040bdc2 <kmemcpy+0x16>
ffffffc05040bdf4:	0001                	nop
ffffffc05040bdf6:	0001                	nop
ffffffc05040bdf8:	7422                	ld	s0,40(sp)
ffffffc05040bdfa:	6145                	addi	sp,sp,48
ffffffc05040bdfc:	8082                	ret

ffffffc05040bdfe <memcpy>:
ffffffc05040bdfe:	7179                	addi	sp,sp,-48
ffffffc05040be00:	f422                	sd	s0,40(sp)
ffffffc05040be02:	1800                	addi	s0,sp,48
ffffffc05040be04:	fea43423          	sd	a0,-24(s0)
ffffffc05040be08:	feb43023          	sd	a1,-32(s0)
ffffffc05040be0c:	87b2                	mv	a5,a2
ffffffc05040be0e:	fcf42e23          	sw	a5,-36(s0)
ffffffc05040be12:	a035                	j	ffffffc05040be3e <memcpy+0x40>
ffffffc05040be14:	fe043703          	ld	a4,-32(s0)
ffffffc05040be18:	00170793          	addi	a5,a4,1
ffffffc05040be1c:	fef43023          	sd	a5,-32(s0)
ffffffc05040be20:	fe843783          	ld	a5,-24(s0)
ffffffc05040be24:	00178693          	addi	a3,a5,1
ffffffc05040be28:	fed43423          	sd	a3,-24(s0)
ffffffc05040be2c:	00074703          	lbu	a4,0(a4)
ffffffc05040be30:	00e78023          	sb	a4,0(a5)
ffffffc05040be34:	fdc42783          	lw	a5,-36(s0)
ffffffc05040be38:	37fd                	addiw	a5,a5,-1
ffffffc05040be3a:	fcf42e23          	sw	a5,-36(s0)
ffffffc05040be3e:	fdc42783          	lw	a5,-36(s0)
ffffffc05040be42:	2781                	sext.w	a5,a5
ffffffc05040be44:	fbe1                	bnez	a5,ffffffc05040be14 <memcpy+0x16>
ffffffc05040be46:	0001                	nop
ffffffc05040be48:	0001                	nop
ffffffc05040be4a:	7422                	ld	s0,40(sp)
ffffffc05040be4c:	6145                	addi	sp,sp,48
ffffffc05040be4e:	8082                	ret

ffffffc05040be50 <memset>:
ffffffc05040be50:	7179                	addi	sp,sp,-48
ffffffc05040be52:	f422                	sd	s0,40(sp)
ffffffc05040be54:	1800                	addi	s0,sp,48
ffffffc05040be56:	fca43c23          	sd	a0,-40(s0)
ffffffc05040be5a:	87ae                	mv	a5,a1
ffffffc05040be5c:	8732                	mv	a4,a2
ffffffc05040be5e:	fcf40ba3          	sb	a5,-41(s0)
ffffffc05040be62:	87ba                	mv	a5,a4
ffffffc05040be64:	fcf42823          	sw	a5,-48(s0)
ffffffc05040be68:	fd843783          	ld	a5,-40(s0)
ffffffc05040be6c:	fef43423          	sd	a5,-24(s0)
ffffffc05040be70:	a005                	j	ffffffc05040be90 <memset+0x40>
ffffffc05040be72:	fe843783          	ld	a5,-24(s0)
ffffffc05040be76:	00178713          	addi	a4,a5,1
ffffffc05040be7a:	fee43423          	sd	a4,-24(s0)
ffffffc05040be7e:	fd744703          	lbu	a4,-41(s0)
ffffffc05040be82:	00e78023          	sb	a4,0(a5)
ffffffc05040be86:	fd042783          	lw	a5,-48(s0)
ffffffc05040be8a:	37fd                	addiw	a5,a5,-1
ffffffc05040be8c:	fcf42823          	sw	a5,-48(s0)
ffffffc05040be90:	fd042783          	lw	a5,-48(s0)
ffffffc05040be94:	2781                	sext.w	a5,a5
ffffffc05040be96:	fff1                	bnez	a5,ffffffc05040be72 <memset+0x22>
ffffffc05040be98:	0001                	nop
ffffffc05040be9a:	0001                	nop
ffffffc05040be9c:	7422                	ld	s0,40(sp)
ffffffc05040be9e:	6145                	addi	sp,sp,48
ffffffc05040bea0:	8082                	ret

ffffffc05040bea2 <kmemset>:
ffffffc05040bea2:	7179                	addi	sp,sp,-48
ffffffc05040bea4:	f422                	sd	s0,40(sp)
ffffffc05040bea6:	1800                	addi	s0,sp,48
ffffffc05040bea8:	fca43c23          	sd	a0,-40(s0)
ffffffc05040beac:	87ae                	mv	a5,a1
ffffffc05040beae:	8732                	mv	a4,a2
ffffffc05040beb0:	fcf40ba3          	sb	a5,-41(s0)
ffffffc05040beb4:	87ba                	mv	a5,a4
ffffffc05040beb6:	fcf42823          	sw	a5,-48(s0)
ffffffc05040beba:	fd843783          	ld	a5,-40(s0)
ffffffc05040bebe:	fef43423          	sd	a5,-24(s0)
ffffffc05040bec2:	a005                	j	ffffffc05040bee2 <kmemset+0x40>
ffffffc05040bec4:	fe843783          	ld	a5,-24(s0)
ffffffc05040bec8:	00178713          	addi	a4,a5,1
ffffffc05040becc:	fee43423          	sd	a4,-24(s0)
ffffffc05040bed0:	fd744703          	lbu	a4,-41(s0)
ffffffc05040bed4:	00e78023          	sb	a4,0(a5)
ffffffc05040bed8:	fd042783          	lw	a5,-48(s0)
ffffffc05040bedc:	37fd                	addiw	a5,a5,-1
ffffffc05040bede:	fcf42823          	sw	a5,-48(s0)
ffffffc05040bee2:	fd042783          	lw	a5,-48(s0)
ffffffc05040bee6:	2781                	sext.w	a5,a5
ffffffc05040bee8:	fff1                	bnez	a5,ffffffc05040bec4 <kmemset+0x22>
ffffffc05040beea:	0001                	nop
ffffffc05040beec:	0001                	nop
ffffffc05040beee:	7422                	ld	s0,40(sp)
ffffffc05040bef0:	6145                	addi	sp,sp,48
ffffffc05040bef2:	8082                	ret

ffffffc05040bef4 <kbzero>:
ffffffc05040bef4:	1101                	addi	sp,sp,-32
ffffffc05040bef6:	ec06                	sd	ra,24(sp)
ffffffc05040bef8:	e822                	sd	s0,16(sp)
ffffffc05040befa:	1000                	addi	s0,sp,32
ffffffc05040befc:	fea43423          	sd	a0,-24(s0)
ffffffc05040bf00:	87ae                	mv	a5,a1
ffffffc05040bf02:	fef42223          	sw	a5,-28(s0)
ffffffc05040bf06:	fe442783          	lw	a5,-28(s0)
ffffffc05040bf0a:	863e                	mv	a2,a5
ffffffc05040bf0c:	4581                	li	a1,0
ffffffc05040bf0e:	fe843503          	ld	a0,-24(s0)
ffffffc05040bf12:	f91ff0ef          	jal	ra,ffffffc05040bea2 <kmemset>
ffffffc05040bf16:	0001                	nop
ffffffc05040bf18:	60e2                	ld	ra,24(sp)
ffffffc05040bf1a:	6442                	ld	s0,16(sp)
ffffffc05040bf1c:	6105                	addi	sp,sp,32
ffffffc05040bf1e:	8082                	ret

ffffffc05040bf20 <kstrcmp>:
ffffffc05040bf20:	1101                	addi	sp,sp,-32
ffffffc05040bf22:	ec22                	sd	s0,24(sp)
ffffffc05040bf24:	1000                	addi	s0,sp,32
ffffffc05040bf26:	fea43423          	sd	a0,-24(s0)
ffffffc05040bf2a:	feb43023          	sd	a1,-32(s0)
ffffffc05040bf2e:	a0a1                	j	ffffffc05040bf76 <kstrcmp+0x56>
ffffffc05040bf30:	fe843783          	ld	a5,-24(s0)
ffffffc05040bf34:	0007c703          	lbu	a4,0(a5)
ffffffc05040bf38:	fe043783          	ld	a5,-32(s0)
ffffffc05040bf3c:	0007c783          	lbu	a5,0(a5)
ffffffc05040bf40:	02f70163          	beq	a4,a5,ffffffc05040bf62 <kstrcmp+0x42>
ffffffc05040bf44:	fe843783          	ld	a5,-24(s0)
ffffffc05040bf48:	0007c783          	lbu	a5,0(a5)
ffffffc05040bf4c:	0007871b          	sext.w	a4,a5
ffffffc05040bf50:	fe043783          	ld	a5,-32(s0)
ffffffc05040bf54:	0007c783          	lbu	a5,0(a5)
ffffffc05040bf58:	2781                	sext.w	a5,a5
ffffffc05040bf5a:	40f707bb          	subw	a5,a4,a5
ffffffc05040bf5e:	2781                	sext.w	a5,a5
ffffffc05040bf60:	a099                	j	ffffffc05040bfa6 <kstrcmp+0x86>
ffffffc05040bf62:	fe843783          	ld	a5,-24(s0)
ffffffc05040bf66:	0785                	addi	a5,a5,1
ffffffc05040bf68:	fef43423          	sd	a5,-24(s0)
ffffffc05040bf6c:	fe043783          	ld	a5,-32(s0)
ffffffc05040bf70:	0785                	addi	a5,a5,1
ffffffc05040bf72:	fef43023          	sd	a5,-32(s0)
ffffffc05040bf76:	fe843783          	ld	a5,-24(s0)
ffffffc05040bf7a:	0007c783          	lbu	a5,0(a5)
ffffffc05040bf7e:	c791                	beqz	a5,ffffffc05040bf8a <kstrcmp+0x6a>
ffffffc05040bf80:	fe043783          	ld	a5,-32(s0)
ffffffc05040bf84:	0007c783          	lbu	a5,0(a5)
ffffffc05040bf88:	f7c5                	bnez	a5,ffffffc05040bf30 <kstrcmp+0x10>
ffffffc05040bf8a:	fe843783          	ld	a5,-24(s0)
ffffffc05040bf8e:	0007c783          	lbu	a5,0(a5)
ffffffc05040bf92:	0007871b          	sext.w	a4,a5
ffffffc05040bf96:	fe043783          	ld	a5,-32(s0)
ffffffc05040bf9a:	0007c783          	lbu	a5,0(a5)
ffffffc05040bf9e:	2781                	sext.w	a5,a5
ffffffc05040bfa0:	40f707bb          	subw	a5,a4,a5
ffffffc05040bfa4:	2781                	sext.w	a5,a5
ffffffc05040bfa6:	853e                	mv	a0,a5
ffffffc05040bfa8:	6462                	ld	s0,24(sp)
ffffffc05040bfaa:	6105                	addi	sp,sp,32
ffffffc05040bfac:	8082                	ret

ffffffc05040bfae <kstrcpy>:
ffffffc05040bfae:	7179                	addi	sp,sp,-48
ffffffc05040bfb0:	f422                	sd	s0,40(sp)
ffffffc05040bfb2:	1800                	addi	s0,sp,48
ffffffc05040bfb4:	fca43c23          	sd	a0,-40(s0)
ffffffc05040bfb8:	fcb43823          	sd	a1,-48(s0)
ffffffc05040bfbc:	fd843783          	ld	a5,-40(s0)
ffffffc05040bfc0:	fef43423          	sd	a5,-24(s0)
ffffffc05040bfc4:	a00d                	j	ffffffc05040bfe6 <kstrcpy+0x38>
ffffffc05040bfc6:	fd043703          	ld	a4,-48(s0)
ffffffc05040bfca:	00170793          	addi	a5,a4,1
ffffffc05040bfce:	fcf43823          	sd	a5,-48(s0)
ffffffc05040bfd2:	fd843783          	ld	a5,-40(s0)
ffffffc05040bfd6:	00178693          	addi	a3,a5,1
ffffffc05040bfda:	fcd43c23          	sd	a3,-40(s0)
ffffffc05040bfde:	00074703          	lbu	a4,0(a4)
ffffffc05040bfe2:	00e78023          	sb	a4,0(a5)
ffffffc05040bfe6:	fd043783          	ld	a5,-48(s0)
ffffffc05040bfea:	0007c783          	lbu	a5,0(a5)
ffffffc05040bfee:	ffe1                	bnez	a5,ffffffc05040bfc6 <kstrcpy+0x18>
ffffffc05040bff0:	fd843783          	ld	a5,-40(s0)
ffffffc05040bff4:	00078023          	sb	zero,0(a5)
ffffffc05040bff8:	fe843783          	ld	a5,-24(s0)
ffffffc05040bffc:	853e                	mv	a0,a5
ffffffc05040bffe:	7422                	ld	s0,40(sp)
ffffffc05040c000:	6145                	addi	sp,sp,48
ffffffc05040c002:	8082                	ret

ffffffc05040c004 <kstrcat>:
ffffffc05040c004:	7179                	addi	sp,sp,-48
ffffffc05040c006:	f422                	sd	s0,40(sp)
ffffffc05040c008:	1800                	addi	s0,sp,48
ffffffc05040c00a:	fca43c23          	sd	a0,-40(s0)
ffffffc05040c00e:	fcb43823          	sd	a1,-48(s0)
ffffffc05040c012:	fd843783          	ld	a5,-40(s0)
ffffffc05040c016:	fef43423          	sd	a5,-24(s0)
ffffffc05040c01a:	a031                	j	ffffffc05040c026 <kstrcat+0x22>
ffffffc05040c01c:	fd843783          	ld	a5,-40(s0)
ffffffc05040c020:	0785                	addi	a5,a5,1
ffffffc05040c022:	fcf43c23          	sd	a5,-40(s0)
ffffffc05040c026:	fd843783          	ld	a5,-40(s0)
ffffffc05040c02a:	0007c783          	lbu	a5,0(a5)
ffffffc05040c02e:	f7fd                	bnez	a5,ffffffc05040c01c <kstrcat+0x18>
ffffffc05040c030:	a00d                	j	ffffffc05040c052 <kstrcat+0x4e>
ffffffc05040c032:	fd043703          	ld	a4,-48(s0)
ffffffc05040c036:	00170793          	addi	a5,a4,1
ffffffc05040c03a:	fcf43823          	sd	a5,-48(s0)
ffffffc05040c03e:	fd843783          	ld	a5,-40(s0)
ffffffc05040c042:	00178693          	addi	a3,a5,1
ffffffc05040c046:	fcd43c23          	sd	a3,-40(s0)
ffffffc05040c04a:	00074703          	lbu	a4,0(a4)
ffffffc05040c04e:	00e78023          	sb	a4,0(a5)
ffffffc05040c052:	fd043783          	ld	a5,-48(s0)
ffffffc05040c056:	0007c783          	lbu	a5,0(a5)
ffffffc05040c05a:	ffe1                	bnez	a5,ffffffc05040c032 <kstrcat+0x2e>
ffffffc05040c05c:	fd843783          	ld	a5,-40(s0)
ffffffc05040c060:	00078023          	sb	zero,0(a5)
ffffffc05040c064:	fe843783          	ld	a5,-24(s0)
ffffffc05040c068:	853e                	mv	a0,a5
ffffffc05040c06a:	7422                	ld	s0,40(sp)
ffffffc05040c06c:	6145                	addi	sp,sp,48
ffffffc05040c06e:	8082                	ret

ffffffc05040c070 <srand>:
ffffffc05040c070:	1101                	addi	sp,sp,-32
ffffffc05040c072:	ec22                	sd	s0,24(sp)
ffffffc05040c074:	1000                	addi	s0,sp,32
ffffffc05040c076:	87aa                	mv	a5,a0
ffffffc05040c078:	fef42623          	sw	a5,-20(s0)
ffffffc05040c07c:	fec42703          	lw	a4,-20(s0)
ffffffc05040c080:	007f7797          	auipc	a5,0x7f7
ffffffc05040c084:	e9878793          	addi	a5,a5,-360 # ffffffc050c02f18 <x>
ffffffc05040c088:	c398                	sw	a4,0(a5)
ffffffc05040c08a:	0001                	nop
ffffffc05040c08c:	6462                	ld	s0,24(sp)
ffffffc05040c08e:	6105                	addi	sp,sp,32
ffffffc05040c090:	8082                	ret

ffffffc05040c092 <rand>:
ffffffc05040c092:	1101                	addi	sp,sp,-32
ffffffc05040c094:	ec22                	sd	s0,24(sp)
ffffffc05040c096:	1000                	addi	s0,sp,32
ffffffc05040c098:	007f7797          	auipc	a5,0x7f7
ffffffc05040c09c:	e8078793          	addi	a5,a5,-384 # ffffffc050c02f18 <x>
ffffffc05040c0a0:	439c                	lw	a5,0(a5)
ffffffc05040c0a2:	873e                	mv	a4,a5
ffffffc05040c0a4:	00002797          	auipc	a5,0x2
ffffffc05040c0a8:	88c78793          	addi	a5,a5,-1908 # ffffffc05040d930 <__FUNCTION__.1388+0xb0>
ffffffc05040c0ac:	639c                	ld	a5,0(a5)
ffffffc05040c0ae:	02f707b3          	mul	a5,a4,a5
ffffffc05040c0b2:	07ad                	addi	a5,a5,11
ffffffc05040c0b4:	fef43423          	sd	a5,-24(s0)
ffffffc05040c0b8:	fe843783          	ld	a5,-24(s0)
ffffffc05040c0bc:	0007871b          	sext.w	a4,a5
ffffffc05040c0c0:	800007b7          	lui	a5,0x80000
ffffffc05040c0c4:	fff7c793          	not	a5,a5
ffffffc05040c0c8:	8ff9                	and	a5,a5,a4
ffffffc05040c0ca:	0007871b          	sext.w	a4,a5
ffffffc05040c0ce:	007f7797          	auipc	a5,0x7f7
ffffffc05040c0d2:	e4a78793          	addi	a5,a5,-438 # ffffffc050c02f18 <x>
ffffffc05040c0d6:	c398                	sw	a4,0(a5)
ffffffc05040c0d8:	007f7797          	auipc	a5,0x7f7
ffffffc05040c0dc:	e4078793          	addi	a5,a5,-448 # ffffffc050c02f18 <x>
ffffffc05040c0e0:	439c                	lw	a5,0(a5)
ffffffc05040c0e2:	853e                	mv	a0,a5
ffffffc05040c0e4:	6462                	ld	s0,24(sp)
ffffffc05040c0e6:	6105                	addi	sp,sp,32
ffffffc05040c0e8:	8082                	ret

ffffffc05040c0ea <mini_strlen>:
ffffffc05040c0ea:	7179                	addi	sp,sp,-48
ffffffc05040c0ec:	f422                	sd	s0,40(sp)
ffffffc05040c0ee:	1800                	addi	s0,sp,48
ffffffc05040c0f0:	fca43c23          	sd	a0,-40(s0)
ffffffc05040c0f4:	fe042623          	sw	zero,-20(s0)
ffffffc05040c0f8:	a031                	j	ffffffc05040c104 <mini_strlen+0x1a>
ffffffc05040c0fa:	fec42783          	lw	a5,-20(s0)
ffffffc05040c0fe:	2785                	addiw	a5,a5,1
ffffffc05040c100:	fef42623          	sw	a5,-20(s0)
ffffffc05040c104:	fec46783          	lwu	a5,-20(s0)
ffffffc05040c108:	fd843703          	ld	a4,-40(s0)
ffffffc05040c10c:	97ba                	add	a5,a5,a4
ffffffc05040c10e:	0007c783          	lbu	a5,0(a5)
ffffffc05040c112:	f7e5                	bnez	a5,ffffffc05040c0fa <mini_strlen+0x10>
ffffffc05040c114:	fec42783          	lw	a5,-20(s0)
ffffffc05040c118:	853e                	mv	a0,a5
ffffffc05040c11a:	7422                	ld	s0,40(sp)
ffffffc05040c11c:	6145                	addi	sp,sp,48
ffffffc05040c11e:	8082                	ret

ffffffc05040c120 <mini_itoa>:
ffffffc05040c120:	715d                	addi	sp,sp,-80
ffffffc05040c122:	e4a2                	sd	s0,72(sp)
ffffffc05040c124:	0880                	addi	s0,sp,80
ffffffc05040c126:	fca43423          	sd	a0,-56(s0)
ffffffc05040c12a:	fae43823          	sd	a4,-80(s0)
ffffffc05040c12e:	873e                	mv	a4,a5
ffffffc05040c130:	87ae                	mv	a5,a1
ffffffc05040c132:	fcf42223          	sw	a5,-60(s0)
ffffffc05040c136:	87b2                	mv	a5,a2
ffffffc05040c138:	fcf42023          	sw	a5,-64(s0)
ffffffc05040c13c:	87b6                	mv	a5,a3
ffffffc05040c13e:	faf42e23          	sw	a5,-68(s0)
ffffffc05040c142:	87ba                	mv	a5,a4
ffffffc05040c144:	faf42c23          	sw	a5,-72(s0)
ffffffc05040c148:	fb043783          	ld	a5,-80(s0)
ffffffc05040c14c:	fef43423          	sd	a5,-24(s0)
ffffffc05040c150:	fe042223          	sw	zero,-28(s0)
ffffffc05040c154:	fc442783          	lw	a5,-60(s0)
ffffffc05040c158:	0007871b          	sext.w	a4,a5
ffffffc05040c15c:	47c1                	li	a5,16
ffffffc05040c15e:	00e7f463          	bgeu	a5,a4,ffffffc05040c166 <mini_itoa+0x46>
ffffffc05040c162:	4781                	li	a5,0
ffffffc05040c164:	aae9                	j	ffffffc05040c33e <mini_itoa+0x21e>
ffffffc05040c166:	fc843783          	ld	a5,-56(s0)
ffffffc05040c16a:	0007df63          	bgez	a5,ffffffc05040c188 <mini_itoa+0x68>
ffffffc05040c16e:	fbc42783          	lw	a5,-68(s0)
ffffffc05040c172:	2781                	sext.w	a5,a5
ffffffc05040c174:	eb91                	bnez	a5,ffffffc05040c188 <mini_itoa+0x68>
ffffffc05040c176:	4785                	li	a5,1
ffffffc05040c178:	fef42223          	sw	a5,-28(s0)
ffffffc05040c17c:	fc843783          	ld	a5,-56(s0)
ffffffc05040c180:	40f007b3          	neg	a5,a5
ffffffc05040c184:	fcf43423          	sd	a5,-56(s0)
ffffffc05040c188:	fc042e23          	sw	zero,-36(s0)
ffffffc05040c18c:	fbc42783          	lw	a5,-68(s0)
ffffffc05040c190:	2781                	sext.w	a5,a5
ffffffc05040c192:	cb91                	beqz	a5,ffffffc05040c1a6 <mini_itoa+0x86>
ffffffc05040c194:	fc843703          	ld	a4,-56(s0)
ffffffc05040c198:	fc446783          	lwu	a5,-60(s0)
ffffffc05040c19c:	02f777b3          	remu	a5,a4,a5
ffffffc05040c1a0:	fcf42e23          	sw	a5,-36(s0)
ffffffc05040c1a4:	a809                	j	ffffffc05040c1b6 <mini_itoa+0x96>
ffffffc05040c1a6:	fc446783          	lwu	a5,-60(s0)
ffffffc05040c1aa:	fc843703          	ld	a4,-56(s0)
ffffffc05040c1ae:	02f767b3          	rem	a5,a4,a5
ffffffc05040c1b2:	fcf42e23          	sw	a5,-36(s0)
ffffffc05040c1b6:	fdc42783          	lw	a5,-36(s0)
ffffffc05040c1ba:	0007871b          	sext.w	a4,a5
ffffffc05040c1be:	47a5                	li	a5,9
ffffffc05040c1c0:	00e7cb63          	blt	a5,a4,ffffffc05040c1d6 <mini_itoa+0xb6>
ffffffc05040c1c4:	fdc42783          	lw	a5,-36(s0)
ffffffc05040c1c8:	0ff7f793          	andi	a5,a5,255
ffffffc05040c1cc:	0307879b          	addiw	a5,a5,48
ffffffc05040c1d0:	0ff7f713          	andi	a4,a5,255
ffffffc05040c1d4:	a025                	j	ffffffc05040c1fc <mini_itoa+0xdc>
ffffffc05040c1d6:	fc042783          	lw	a5,-64(s0)
ffffffc05040c1da:	2781                	sext.w	a5,a5
ffffffc05040c1dc:	c781                	beqz	a5,ffffffc05040c1e4 <mini_itoa+0xc4>
ffffffc05040c1de:	04100793          	li	a5,65
ffffffc05040c1e2:	a019                	j	ffffffc05040c1e8 <mini_itoa+0xc8>
ffffffc05040c1e4:	06100793          	li	a5,97
ffffffc05040c1e8:	fdc42703          	lw	a4,-36(s0)
ffffffc05040c1ec:	0ff77713          	andi	a4,a4,255
ffffffc05040c1f0:	9fb9                	addw	a5,a5,a4
ffffffc05040c1f2:	0ff7f793          	andi	a5,a5,255
ffffffc05040c1f6:	37d9                	addiw	a5,a5,-10
ffffffc05040c1f8:	0ff7f713          	andi	a4,a5,255
ffffffc05040c1fc:	fe843783          	ld	a5,-24(s0)
ffffffc05040c200:	00178693          	addi	a3,a5,1
ffffffc05040c204:	fed43423          	sd	a3,-24(s0)
ffffffc05040c208:	00e78023          	sb	a4,0(a5)
ffffffc05040c20c:	fbc42783          	lw	a5,-68(s0)
ffffffc05040c210:	2781                	sext.w	a5,a5
ffffffc05040c212:	cb91                	beqz	a5,ffffffc05040c226 <mini_itoa+0x106>
ffffffc05040c214:	fc843703          	ld	a4,-56(s0)
ffffffc05040c218:	fc446783          	lwu	a5,-60(s0)
ffffffc05040c21c:	02f757b3          	divu	a5,a4,a5
ffffffc05040c220:	fcf43423          	sd	a5,-56(s0)
ffffffc05040c224:	a809                	j	ffffffc05040c236 <mini_itoa+0x116>
ffffffc05040c226:	fc446783          	lwu	a5,-60(s0)
ffffffc05040c22a:	fc843703          	ld	a4,-56(s0)
ffffffc05040c22e:	02f747b3          	div	a5,a4,a5
ffffffc05040c232:	fcf43423          	sd	a5,-56(s0)
ffffffc05040c236:	fc843783          	ld	a5,-56(s0)
ffffffc05040c23a:	f7b9                	bnez	a5,ffffffc05040c188 <mini_itoa+0x68>
ffffffc05040c23c:	fe843703          	ld	a4,-24(s0)
ffffffc05040c240:	fb043783          	ld	a5,-80(s0)
ffffffc05040c244:	40f707b3          	sub	a5,a4,a5
ffffffc05040c248:	fef42023          	sw	a5,-32(s0)
ffffffc05040c24c:	a005                	j	ffffffc05040c26c <mini_itoa+0x14c>
ffffffc05040c24e:	fe843783          	ld	a5,-24(s0)
ffffffc05040c252:	00178713          	addi	a4,a5,1
ffffffc05040c256:	fee43423          	sd	a4,-24(s0)
ffffffc05040c25a:	03000713          	li	a4,48
ffffffc05040c25e:	00e78023          	sb	a4,0(a5)
ffffffc05040c262:	fe042783          	lw	a5,-32(s0)
ffffffc05040c266:	2785                	addiw	a5,a5,1
ffffffc05040c268:	fef42023          	sw	a5,-32(s0)
ffffffc05040c26c:	fe042703          	lw	a4,-32(s0)
ffffffc05040c270:	fb842783          	lw	a5,-72(s0)
ffffffc05040c274:	2701                	sext.w	a4,a4
ffffffc05040c276:	2781                	sext.w	a5,a5
ffffffc05040c278:	fcf76be3          	bltu	a4,a5,ffffffc05040c24e <mini_itoa+0x12e>
ffffffc05040c27c:	fe442783          	lw	a5,-28(s0)
ffffffc05040c280:	2781                	sext.w	a5,a5
ffffffc05040c282:	cb99                	beqz	a5,ffffffc05040c298 <mini_itoa+0x178>
ffffffc05040c284:	fe843783          	ld	a5,-24(s0)
ffffffc05040c288:	00178713          	addi	a4,a5,1
ffffffc05040c28c:	fee43423          	sd	a4,-24(s0)
ffffffc05040c290:	02d00713          	li	a4,45
ffffffc05040c294:	00e78023          	sb	a4,0(a5)
ffffffc05040c298:	fe843783          	ld	a5,-24(s0)
ffffffc05040c29c:	00078023          	sb	zero,0(a5)
ffffffc05040c2a0:	fe843703          	ld	a4,-24(s0)
ffffffc05040c2a4:	fb043783          	ld	a5,-80(s0)
ffffffc05040c2a8:	40f707b3          	sub	a5,a4,a5
ffffffc05040c2ac:	fcf42c23          	sw	a5,-40(s0)
ffffffc05040c2b0:	fe042023          	sw	zero,-32(s0)
ffffffc05040c2b4:	a885                	j	ffffffc05040c324 <mini_itoa+0x204>
ffffffc05040c2b6:	fe046783          	lwu	a5,-32(s0)
ffffffc05040c2ba:	fb043703          	ld	a4,-80(s0)
ffffffc05040c2be:	97ba                	add	a5,a5,a4
ffffffc05040c2c0:	0007c783          	lbu	a5,0(a5)
ffffffc05040c2c4:	fcf40ba3          	sb	a5,-41(s0)
ffffffc05040c2c8:	fd842703          	lw	a4,-40(s0)
ffffffc05040c2cc:	fe042783          	lw	a5,-32(s0)
ffffffc05040c2d0:	40f707bb          	subw	a5,a4,a5
ffffffc05040c2d4:	2781                	sext.w	a5,a5
ffffffc05040c2d6:	37fd                	addiw	a5,a5,-1
ffffffc05040c2d8:	2781                	sext.w	a5,a5
ffffffc05040c2da:	1782                	slli	a5,a5,0x20
ffffffc05040c2dc:	9381                	srli	a5,a5,0x20
ffffffc05040c2de:	fb043703          	ld	a4,-80(s0)
ffffffc05040c2e2:	973e                	add	a4,a4,a5
ffffffc05040c2e4:	fe046783          	lwu	a5,-32(s0)
ffffffc05040c2e8:	fb043683          	ld	a3,-80(s0)
ffffffc05040c2ec:	97b6                	add	a5,a5,a3
ffffffc05040c2ee:	00074703          	lbu	a4,0(a4)
ffffffc05040c2f2:	00e78023          	sb	a4,0(a5)
ffffffc05040c2f6:	fd842703          	lw	a4,-40(s0)
ffffffc05040c2fa:	fe042783          	lw	a5,-32(s0)
ffffffc05040c2fe:	40f707bb          	subw	a5,a4,a5
ffffffc05040c302:	2781                	sext.w	a5,a5
ffffffc05040c304:	37fd                	addiw	a5,a5,-1
ffffffc05040c306:	2781                	sext.w	a5,a5
ffffffc05040c308:	1782                	slli	a5,a5,0x20
ffffffc05040c30a:	9381                	srli	a5,a5,0x20
ffffffc05040c30c:	fb043703          	ld	a4,-80(s0)
ffffffc05040c310:	97ba                	add	a5,a5,a4
ffffffc05040c312:	fd744703          	lbu	a4,-41(s0)
ffffffc05040c316:	00e78023          	sb	a4,0(a5)
ffffffc05040c31a:	fe042783          	lw	a5,-32(s0)
ffffffc05040c31e:	2785                	addiw	a5,a5,1
ffffffc05040c320:	fef42023          	sw	a5,-32(s0)
ffffffc05040c324:	fd842783          	lw	a5,-40(s0)
ffffffc05040c328:	0017d79b          	srliw	a5,a5,0x1
ffffffc05040c32c:	0007871b          	sext.w	a4,a5
ffffffc05040c330:	fe042783          	lw	a5,-32(s0)
ffffffc05040c334:	2781                	sext.w	a5,a5
ffffffc05040c336:	f8e7e0e3          	bltu	a5,a4,ffffffc05040c2b6 <mini_itoa+0x196>
ffffffc05040c33a:	fd842783          	lw	a5,-40(s0)
ffffffc05040c33e:	853e                	mv	a0,a5
ffffffc05040c340:	6426                	ld	s0,72(sp)
ffffffc05040c342:	6161                	addi	sp,sp,80
ffffffc05040c344:	8082                	ret

ffffffc05040c346 <_putc>:
ffffffc05040c346:	1101                	addi	sp,sp,-32
ffffffc05040c348:	ec22                	sd	s0,24(sp)
ffffffc05040c34a:	1000                	addi	s0,sp,32
ffffffc05040c34c:	87aa                	mv	a5,a0
ffffffc05040c34e:	feb43023          	sd	a1,-32(s0)
ffffffc05040c352:	fef42623          	sw	a5,-20(s0)
ffffffc05040c356:	fe043783          	ld	a5,-32(s0)
ffffffc05040c35a:	6798                	ld	a4,8(a5)
ffffffc05040c35c:	fe043783          	ld	a5,-32(s0)
ffffffc05040c360:	639c                	ld	a5,0(a5)
ffffffc05040c362:	40f707b3          	sub	a5,a4,a5
ffffffc05040c366:	2781                	sext.w	a5,a5
ffffffc05040c368:	2785                	addiw	a5,a5,1
ffffffc05040c36a:	0007871b          	sext.w	a4,a5
ffffffc05040c36e:	fe043783          	ld	a5,-32(s0)
ffffffc05040c372:	4b9c                	lw	a5,16(a5)
ffffffc05040c374:	00f76463          	bltu	a4,a5,ffffffc05040c37c <_putc+0x36>
ffffffc05040c378:	4781                	li	a5,0
ffffffc05040c37a:	a02d                	j	ffffffc05040c3a4 <_putc+0x5e>
ffffffc05040c37c:	fe043783          	ld	a5,-32(s0)
ffffffc05040c380:	679c                	ld	a5,8(a5)
ffffffc05040c382:	00178693          	addi	a3,a5,1
ffffffc05040c386:	fe043703          	ld	a4,-32(s0)
ffffffc05040c38a:	e714                	sd	a3,8(a4)
ffffffc05040c38c:	fec42703          	lw	a4,-20(s0)
ffffffc05040c390:	0ff77713          	andi	a4,a4,255
ffffffc05040c394:	00e78023          	sb	a4,0(a5)
ffffffc05040c398:	fe043783          	ld	a5,-32(s0)
ffffffc05040c39c:	679c                	ld	a5,8(a5)
ffffffc05040c39e:	00078023          	sb	zero,0(a5)
ffffffc05040c3a2:	4785                	li	a5,1
ffffffc05040c3a4:	853e                	mv	a0,a5
ffffffc05040c3a6:	6462                	ld	s0,24(sp)
ffffffc05040c3a8:	6105                	addi	sp,sp,32
ffffffc05040c3aa:	8082                	ret

ffffffc05040c3ac <_puts>:
ffffffc05040c3ac:	7139                	addi	sp,sp,-64
ffffffc05040c3ae:	fc22                	sd	s0,56(sp)
ffffffc05040c3b0:	0080                	addi	s0,sp,64
ffffffc05040c3b2:	fca43c23          	sd	a0,-40(s0)
ffffffc05040c3b6:	87ae                	mv	a5,a1
ffffffc05040c3b8:	fcc43423          	sd	a2,-56(s0)
ffffffc05040c3bc:	fcf42a23          	sw	a5,-44(s0)
ffffffc05040c3c0:	fc843783          	ld	a5,-56(s0)
ffffffc05040c3c4:	4b9c                	lw	a5,16(a5)
ffffffc05040c3c6:	02079713          	slli	a4,a5,0x20
ffffffc05040c3ca:	9301                	srli	a4,a4,0x20
ffffffc05040c3cc:	fc843783          	ld	a5,-56(s0)
ffffffc05040c3d0:	6794                	ld	a3,8(a5)
ffffffc05040c3d2:	fc843783          	ld	a5,-56(s0)
ffffffc05040c3d6:	639c                	ld	a5,0(a5)
ffffffc05040c3d8:	40f687b3          	sub	a5,a3,a5
ffffffc05040c3dc:	8f1d                	sub	a4,a4,a5
ffffffc05040c3de:	fd446783          	lwu	a5,-44(s0)
ffffffc05040c3e2:	02e7c463          	blt	a5,a4,ffffffc05040c40a <_puts+0x5e>
ffffffc05040c3e6:	fc843783          	ld	a5,-56(s0)
ffffffc05040c3ea:	4b98                	lw	a4,16(a5)
ffffffc05040c3ec:	fc843783          	ld	a5,-56(s0)
ffffffc05040c3f0:	6794                	ld	a3,8(a5)
ffffffc05040c3f2:	fc843783          	ld	a5,-56(s0)
ffffffc05040c3f6:	639c                	ld	a5,0(a5)
ffffffc05040c3f8:	40f687b3          	sub	a5,a3,a5
ffffffc05040c3fc:	2781                	sext.w	a5,a5
ffffffc05040c3fe:	40f707bb          	subw	a5,a4,a5
ffffffc05040c402:	2781                	sext.w	a5,a5
ffffffc05040c404:	37fd                	addiw	a5,a5,-1
ffffffc05040c406:	fcf42a23          	sw	a5,-44(s0)
ffffffc05040c40a:	fe042623          	sw	zero,-20(s0)
ffffffc05040c40e:	a03d                	j	ffffffc05040c43c <_puts+0x90>
ffffffc05040c410:	fec46783          	lwu	a5,-20(s0)
ffffffc05040c414:	fd843703          	ld	a4,-40(s0)
ffffffc05040c418:	973e                	add	a4,a4,a5
ffffffc05040c41a:	fc843783          	ld	a5,-56(s0)
ffffffc05040c41e:	679c                	ld	a5,8(a5)
ffffffc05040c420:	00178613          	addi	a2,a5,1
ffffffc05040c424:	fc843683          	ld	a3,-56(s0)
ffffffc05040c428:	e690                	sd	a2,8(a3)
ffffffc05040c42a:	00074703          	lbu	a4,0(a4)
ffffffc05040c42e:	00e78023          	sb	a4,0(a5)
ffffffc05040c432:	fec42783          	lw	a5,-20(s0)
ffffffc05040c436:	2785                	addiw	a5,a5,1
ffffffc05040c438:	fef42623          	sw	a5,-20(s0)
ffffffc05040c43c:	fec42703          	lw	a4,-20(s0)
ffffffc05040c440:	fd442783          	lw	a5,-44(s0)
ffffffc05040c444:	2701                	sext.w	a4,a4
ffffffc05040c446:	2781                	sext.w	a5,a5
ffffffc05040c448:	fcf764e3          	bltu	a4,a5,ffffffc05040c410 <_puts+0x64>
ffffffc05040c44c:	fc843783          	ld	a5,-56(s0)
ffffffc05040c450:	679c                	ld	a5,8(a5)
ffffffc05040c452:	00078023          	sb	zero,0(a5)
ffffffc05040c456:	fd442783          	lw	a5,-44(s0)
ffffffc05040c45a:	853e                	mv	a0,a5
ffffffc05040c45c:	7462                	ld	s0,56(sp)
ffffffc05040c45e:	6121                	addi	sp,sp,64
ffffffc05040c460:	8082                	ret

ffffffc05040c462 <mini_vsnprintf>:
ffffffc05040c462:	7119                	addi	sp,sp,-128
ffffffc05040c464:	fc86                	sd	ra,120(sp)
ffffffc05040c466:	f8a2                	sd	s0,112(sp)
ffffffc05040c468:	0100                	addi	s0,sp,128
ffffffc05040c46a:	f8a43c23          	sd	a0,-104(s0)
ffffffc05040c46e:	87ae                	mv	a5,a1
ffffffc05040c470:	f8c43423          	sd	a2,-120(s0)
ffffffc05040c474:	f8d43023          	sd	a3,-128(s0)
ffffffc05040c478:	f8f42a23          	sw	a5,-108(s0)
ffffffc05040c47c:	f9843783          	ld	a5,-104(s0)
ffffffc05040c480:	fcf43023          	sd	a5,-64(s0)
ffffffc05040c484:	f9843783          	ld	a5,-104(s0)
ffffffc05040c488:	fcf43423          	sd	a5,-56(s0)
ffffffc05040c48c:	f9442783          	lw	a5,-108(s0)
ffffffc05040c490:	fcf42823          	sw	a5,-48(s0)
ffffffc05040c494:	a4f9                	j	ffffffc05040c762 <mini_vsnprintf+0x300>
ffffffc05040c496:	fc843703          	ld	a4,-56(s0)
ffffffc05040c49a:	fc043783          	ld	a5,-64(s0)
ffffffc05040c49e:	40f707b3          	sub	a5,a4,a5
ffffffc05040c4a2:	2781                	sext.w	a5,a5
ffffffc05040c4a4:	2785                	addiw	a5,a5,1
ffffffc05040c4a6:	0007871b          	sext.w	a4,a5
ffffffc05040c4aa:	fd042783          	lw	a5,-48(s0)
ffffffc05040c4ae:	2cf77b63          	bgeu	a4,a5,ffffffc05040c784 <mini_vsnprintf+0x322>
ffffffc05040c4b2:	fef44783          	lbu	a5,-17(s0)
ffffffc05040c4b6:	0ff7f713          	andi	a4,a5,255
ffffffc05040c4ba:	02500793          	li	a5,37
ffffffc05040c4be:	00f70c63          	beq	a4,a5,ffffffc05040c4d6 <mini_vsnprintf+0x74>
ffffffc05040c4c2:	fef44783          	lbu	a5,-17(s0)
ffffffc05040c4c6:	2781                	sext.w	a5,a5
ffffffc05040c4c8:	fc040713          	addi	a4,s0,-64
ffffffc05040c4cc:	85ba                	mv	a1,a4
ffffffc05040c4ce:	853e                	mv	a0,a5
ffffffc05040c4d0:	e77ff0ef          	jal	ra,ffffffc05040c346 <_putc>
ffffffc05040c4d4:	a479                	j	ffffffc05040c762 <mini_vsnprintf+0x300>
ffffffc05040c4d6:	fe040723          	sb	zero,-18(s0)
ffffffc05040c4da:	fe042423          	sw	zero,-24(s0)
ffffffc05040c4de:	f8843783          	ld	a5,-120(s0)
ffffffc05040c4e2:	00178713          	addi	a4,a5,1
ffffffc05040c4e6:	f8e43423          	sd	a4,-120(s0)
ffffffc05040c4ea:	0007c783          	lbu	a5,0(a5)
ffffffc05040c4ee:	fef407a3          	sb	a5,-17(s0)
ffffffc05040c4f2:	fef44783          	lbu	a5,-17(s0)
ffffffc05040c4f6:	0ff7f713          	andi	a4,a5,255
ffffffc05040c4fa:	03000793          	li	a5,48
ffffffc05040c4fe:	06f71b63          	bne	a4,a5,ffffffc05040c574 <mini_vsnprintf+0x112>
ffffffc05040c502:	a891                	j	ffffffc05040c556 <mini_vsnprintf+0xf4>
ffffffc05040c504:	fef44783          	lbu	a5,-17(s0)
ffffffc05040c508:	0ff7f793          	andi	a5,a5,255
ffffffc05040c50c:	26078e63          	beqz	a5,ffffffc05040c788 <mini_vsnprintf+0x326>
ffffffc05040c510:	fef44783          	lbu	a5,-17(s0)
ffffffc05040c514:	0ff7f713          	andi	a4,a5,255
ffffffc05040c518:	02f00793          	li	a5,47
ffffffc05040c51c:	04e7fc63          	bgeu	a5,a4,ffffffc05040c574 <mini_vsnprintf+0x112>
ffffffc05040c520:	fef44783          	lbu	a5,-17(s0)
ffffffc05040c524:	0ff7f713          	andi	a4,a5,255
ffffffc05040c528:	03900793          	li	a5,57
ffffffc05040c52c:	04e7e463          	bltu	a5,a4,ffffffc05040c574 <mini_vsnprintf+0x112>
ffffffc05040c530:	fee44703          	lbu	a4,-18(s0)
ffffffc05040c534:	87ba                	mv	a5,a4
ffffffc05040c536:	0027979b          	slliw	a5,a5,0x2
ffffffc05040c53a:	9fb9                	addw	a5,a5,a4
ffffffc05040c53c:	0017979b          	slliw	a5,a5,0x1
ffffffc05040c540:	0ff7f793          	andi	a5,a5,255
ffffffc05040c544:	fef44703          	lbu	a4,-17(s0)
ffffffc05040c548:	9fb9                	addw	a5,a5,a4
ffffffc05040c54a:	0ff7f793          	andi	a5,a5,255
ffffffc05040c54e:	fd07879b          	addiw	a5,a5,-48
ffffffc05040c552:	fef40723          	sb	a5,-18(s0)
ffffffc05040c556:	f8843783          	ld	a5,-120(s0)
ffffffc05040c55a:	00178713          	addi	a4,a5,1
ffffffc05040c55e:	f8e43423          	sd	a4,-120(s0)
ffffffc05040c562:	0007c783          	lbu	a5,0(a5)
ffffffc05040c566:	fef407a3          	sb	a5,-17(s0)
ffffffc05040c56a:	fef44783          	lbu	a5,-17(s0)
ffffffc05040c56e:	0ff7f793          	andi	a5,a5,255
ffffffc05040c572:	fbc9                	bnez	a5,ffffffc05040c504 <mini_vsnprintf+0xa2>
ffffffc05040c574:	fef44783          	lbu	a5,-17(s0)
ffffffc05040c578:	0ff7f713          	andi	a4,a5,255
ffffffc05040c57c:	06c00793          	li	a5,108
ffffffc05040c580:	00f71f63          	bne	a4,a5,ffffffc05040c59e <mini_vsnprintf+0x13c>
ffffffc05040c584:	4785                	li	a5,1
ffffffc05040c586:	fef42423          	sw	a5,-24(s0)
ffffffc05040c58a:	f8843783          	ld	a5,-120(s0)
ffffffc05040c58e:	00178713          	addi	a4,a5,1
ffffffc05040c592:	f8e43423          	sd	a4,-120(s0)
ffffffc05040c596:	0007c783          	lbu	a5,0(a5)
ffffffc05040c59a:	fef407a3          	sb	a5,-17(s0)
ffffffc05040c59e:	fef44783          	lbu	a5,-17(s0)
ffffffc05040c5a2:	2781                	sext.w	a5,a5
ffffffc05040c5a4:	1e078463          	beqz	a5,ffffffc05040c78c <mini_vsnprintf+0x32a>
ffffffc05040c5a8:	873e                	mv	a4,a5
ffffffc05040c5aa:	1a074263          	bltz	a4,ffffffc05040c74e <mini_vsnprintf+0x2ec>
ffffffc05040c5ae:	86be                	mv	a3,a5
ffffffc05040c5b0:	07800713          	li	a4,120
ffffffc05040c5b4:	18d74d63          	blt	a4,a3,ffffffc05040c74e <mini_vsnprintf+0x2ec>
ffffffc05040c5b8:	86be                	mv	a3,a5
ffffffc05040c5ba:	05800713          	li	a4,88
ffffffc05040c5be:	18e6c863          	blt	a3,a4,ffffffc05040c74e <mini_vsnprintf+0x2ec>
ffffffc05040c5c2:	fa87869b          	addiw	a3,a5,-88
ffffffc05040c5c6:	0006871b          	sext.w	a4,a3
ffffffc05040c5ca:	02000793          	li	a5,32
ffffffc05040c5ce:	18e7e063          	bltu	a5,a4,ffffffc05040c74e <mini_vsnprintf+0x2ec>
ffffffc05040c5d2:	02069793          	slli	a5,a3,0x20
ffffffc05040c5d6:	9381                	srli	a5,a5,0x20
ffffffc05040c5d8:	00279713          	slli	a4,a5,0x2
ffffffc05040c5dc:	00001797          	auipc	a5,0x1
ffffffc05040c5e0:	35c78793          	addi	a5,a5,860 # ffffffc05040d938 <__FUNCTION__.1388+0xb8>
ffffffc05040c5e4:	97ba                	add	a5,a5,a4
ffffffc05040c5e6:	439c                	lw	a5,0(a5)
ffffffc05040c5e8:	0007871b          	sext.w	a4,a5
ffffffc05040c5ec:	00001797          	auipc	a5,0x1
ffffffc05040c5f0:	34c78793          	addi	a5,a5,844 # ffffffc05040d938 <__FUNCTION__.1388+0xb8>
ffffffc05040c5f4:	97ba                	add	a5,a5,a4
ffffffc05040c5f6:	8782                	jr	a5
ffffffc05040c5f8:	4785                	li	a5,1
ffffffc05040c5fa:	fef42423          	sw	a5,-24(s0)
ffffffc05040c5fe:	a295                	j	ffffffc05040c762 <mini_vsnprintf+0x300>
ffffffc05040c600:	fe842783          	lw	a5,-24(s0)
ffffffc05040c604:	2781                	sext.w	a5,a5
ffffffc05040c606:	ef81                	bnez	a5,ffffffc05040c61e <mini_vsnprintf+0x1bc>
ffffffc05040c608:	f8043783          	ld	a5,-128(s0)
ffffffc05040c60c:	00878713          	addi	a4,a5,8
ffffffc05040c610:	f8e43023          	sd	a4,-128(s0)
ffffffc05040c614:	439c                	lw	a5,0(a5)
ffffffc05040c616:	02079513          	slli	a0,a5,0x20
ffffffc05040c61a:	9101                	srli	a0,a0,0x20
ffffffc05040c61c:	a809                	j	ffffffc05040c62e <mini_vsnprintf+0x1cc>
ffffffc05040c61e:	f8043783          	ld	a5,-128(s0)
ffffffc05040c622:	00878713          	addi	a4,a5,8
ffffffc05040c626:	f8e43023          	sd	a4,-128(s0)
ffffffc05040c62a:	639c                	ld	a5,0(a5)
ffffffc05040c62c:	853e                	mv	a0,a5
ffffffc05040c62e:	fef44783          	lbu	a5,-17(s0)
ffffffc05040c632:	0007871b          	sext.w	a4,a5
ffffffc05040c636:	07500793          	li	a5,117
ffffffc05040c63a:	40f707b3          	sub	a5,a4,a5
ffffffc05040c63e:	0017b793          	seqz	a5,a5
ffffffc05040c642:	0ff7f793          	andi	a5,a5,255
ffffffc05040c646:	0007869b          	sext.w	a3,a5
ffffffc05040c64a:	fee44783          	lbu	a5,-18(s0)
ffffffc05040c64e:	2781                	sext.w	a5,a5
ffffffc05040c650:	fa840713          	addi	a4,s0,-88
ffffffc05040c654:	4601                	li	a2,0
ffffffc05040c656:	45a9                	li	a1,10
ffffffc05040c658:	ac9ff0ef          	jal	ra,ffffffc05040c120 <mini_itoa>
ffffffc05040c65c:	87aa                	mv	a5,a0
ffffffc05040c65e:	fcf42e23          	sw	a5,-36(s0)
ffffffc05040c662:	fc040693          	addi	a3,s0,-64
ffffffc05040c666:	fdc42703          	lw	a4,-36(s0)
ffffffc05040c66a:	fa840793          	addi	a5,s0,-88
ffffffc05040c66e:	8636                	mv	a2,a3
ffffffc05040c670:	85ba                	mv	a1,a4
ffffffc05040c672:	853e                	mv	a0,a5
ffffffc05040c674:	d39ff0ef          	jal	ra,ffffffc05040c3ac <_puts>
ffffffc05040c678:	fe042423          	sw	zero,-24(s0)
ffffffc05040c67c:	a0dd                	j	ffffffc05040c762 <mini_vsnprintf+0x300>
ffffffc05040c67e:	fe842783          	lw	a5,-24(s0)
ffffffc05040c682:	2781                	sext.w	a5,a5
ffffffc05040c684:	ef81                	bnez	a5,ffffffc05040c69c <mini_vsnprintf+0x23a>
ffffffc05040c686:	f8043783          	ld	a5,-128(s0)
ffffffc05040c68a:	00878713          	addi	a4,a5,8
ffffffc05040c68e:	f8e43023          	sd	a4,-128(s0)
ffffffc05040c692:	439c                	lw	a5,0(a5)
ffffffc05040c694:	02079513          	slli	a0,a5,0x20
ffffffc05040c698:	9101                	srli	a0,a0,0x20
ffffffc05040c69a:	a809                	j	ffffffc05040c6ac <mini_vsnprintf+0x24a>
ffffffc05040c69c:	f8043783          	ld	a5,-128(s0)
ffffffc05040c6a0:	00878713          	addi	a4,a5,8
ffffffc05040c6a4:	f8e43023          	sd	a4,-128(s0)
ffffffc05040c6a8:	639c                	ld	a5,0(a5)
ffffffc05040c6aa:	853e                	mv	a0,a5
ffffffc05040c6ac:	fef44783          	lbu	a5,-17(s0)
ffffffc05040c6b0:	0007871b          	sext.w	a4,a5
ffffffc05040c6b4:	05800793          	li	a5,88
ffffffc05040c6b8:	40f707b3          	sub	a5,a4,a5
ffffffc05040c6bc:	0017b793          	seqz	a5,a5
ffffffc05040c6c0:	0ff7f793          	andi	a5,a5,255
ffffffc05040c6c4:	0007861b          	sext.w	a2,a5
ffffffc05040c6c8:	fee44783          	lbu	a5,-18(s0)
ffffffc05040c6cc:	2781                	sext.w	a5,a5
ffffffc05040c6ce:	fa840713          	addi	a4,s0,-88
ffffffc05040c6d2:	4685                	li	a3,1
ffffffc05040c6d4:	45c1                	li	a1,16
ffffffc05040c6d6:	a4bff0ef          	jal	ra,ffffffc05040c120 <mini_itoa>
ffffffc05040c6da:	87aa                	mv	a5,a0
ffffffc05040c6dc:	fcf42e23          	sw	a5,-36(s0)
ffffffc05040c6e0:	fc040693          	addi	a3,s0,-64
ffffffc05040c6e4:	fdc42703          	lw	a4,-36(s0)
ffffffc05040c6e8:	fa840793          	addi	a5,s0,-88
ffffffc05040c6ec:	8636                	mv	a2,a3
ffffffc05040c6ee:	85ba                	mv	a1,a4
ffffffc05040c6f0:	853e                	mv	a0,a5
ffffffc05040c6f2:	cbbff0ef          	jal	ra,ffffffc05040c3ac <_puts>
ffffffc05040c6f6:	fe042423          	sw	zero,-24(s0)
ffffffc05040c6fa:	a0a5                	j	ffffffc05040c762 <mini_vsnprintf+0x300>
ffffffc05040c6fc:	f8043783          	ld	a5,-128(s0)
ffffffc05040c700:	00878713          	addi	a4,a5,8
ffffffc05040c704:	f8e43023          	sd	a4,-128(s0)
ffffffc05040c708:	439c                	lw	a5,0(a5)
ffffffc05040c70a:	0ff7f793          	andi	a5,a5,255
ffffffc05040c70e:	2781                	sext.w	a5,a5
ffffffc05040c710:	fc040713          	addi	a4,s0,-64
ffffffc05040c714:	85ba                	mv	a1,a4
ffffffc05040c716:	853e                	mv	a0,a5
ffffffc05040c718:	c2fff0ef          	jal	ra,ffffffc05040c346 <_putc>
ffffffc05040c71c:	a099                	j	ffffffc05040c762 <mini_vsnprintf+0x300>
ffffffc05040c71e:	f8043783          	ld	a5,-128(s0)
ffffffc05040c722:	00878713          	addi	a4,a5,8
ffffffc05040c726:	f8e43023          	sd	a4,-128(s0)
ffffffc05040c72a:	639c                	ld	a5,0(a5)
ffffffc05040c72c:	fef43023          	sd	a5,-32(s0)
ffffffc05040c730:	fe043503          	ld	a0,-32(s0)
ffffffc05040c734:	9b7ff0ef          	jal	ra,ffffffc05040c0ea <mini_strlen>
ffffffc05040c738:	87aa                	mv	a5,a0
ffffffc05040c73a:	2781                	sext.w	a5,a5
ffffffc05040c73c:	fc040713          	addi	a4,s0,-64
ffffffc05040c740:	863a                	mv	a2,a4
ffffffc05040c742:	85be                	mv	a1,a5
ffffffc05040c744:	fe043503          	ld	a0,-32(s0)
ffffffc05040c748:	c65ff0ef          	jal	ra,ffffffc05040c3ac <_puts>
ffffffc05040c74c:	a819                	j	ffffffc05040c762 <mini_vsnprintf+0x300>
ffffffc05040c74e:	fef44783          	lbu	a5,-17(s0)
ffffffc05040c752:	2781                	sext.w	a5,a5
ffffffc05040c754:	fc040713          	addi	a4,s0,-64
ffffffc05040c758:	85ba                	mv	a1,a4
ffffffc05040c75a:	853e                	mv	a0,a5
ffffffc05040c75c:	bebff0ef          	jal	ra,ffffffc05040c346 <_putc>
ffffffc05040c760:	0001                	nop
ffffffc05040c762:	f8843783          	ld	a5,-120(s0)
ffffffc05040c766:	00178713          	addi	a4,a5,1
ffffffc05040c76a:	f8e43423          	sd	a4,-120(s0)
ffffffc05040c76e:	0007c783          	lbu	a5,0(a5)
ffffffc05040c772:	fef407a3          	sb	a5,-17(s0)
ffffffc05040c776:	fef44783          	lbu	a5,-17(s0)
ffffffc05040c77a:	0ff7f793          	andi	a5,a5,255
ffffffc05040c77e:	d0079ce3          	bnez	a5,ffffffc05040c496 <mini_vsnprintf+0x34>
ffffffc05040c782:	a031                	j	ffffffc05040c78e <mini_vsnprintf+0x32c>
ffffffc05040c784:	0001                	nop
ffffffc05040c786:	a021                	j	ffffffc05040c78e <mini_vsnprintf+0x32c>
ffffffc05040c788:	0001                	nop
ffffffc05040c78a:	a011                	j	ffffffc05040c78e <mini_vsnprintf+0x32c>
ffffffc05040c78c:	0001                	nop
ffffffc05040c78e:	fc843703          	ld	a4,-56(s0)
ffffffc05040c792:	fc043783          	ld	a5,-64(s0)
ffffffc05040c796:	40f707b3          	sub	a5,a4,a5
ffffffc05040c79a:	2781                	sext.w	a5,a5
ffffffc05040c79c:	853e                	mv	a0,a5
ffffffc05040c79e:	70e6                	ld	ra,120(sp)
ffffffc05040c7a0:	7446                	ld	s0,112(sp)
ffffffc05040c7a2:	6109                	addi	sp,sp,128
ffffffc05040c7a4:	8082                	ret

ffffffc05040c7a6 <_vprint>:
ffffffc05040c7a6:	7129                	addi	sp,sp,-320
ffffffc05040c7a8:	fe06                	sd	ra,312(sp)
ffffffc05040c7aa:	fa22                	sd	s0,304(sp)
ffffffc05040c7ac:	0280                	addi	s0,sp,320
ffffffc05040c7ae:	eca43c23          	sd	a0,-296(s0)
ffffffc05040c7b2:	ecb43823          	sd	a1,-304(s0)
ffffffc05040c7b6:	ecc43423          	sd	a2,-312(s0)
ffffffc05040c7ba:	b17f30ef          	jal	ra,ffffffc0504002d0 <get_current_cpu_id>
ffffffc05040c7be:	87aa                	mv	a5,a0
ffffffc05040c7c0:	e791                	bnez	a5,ffffffc05040c7cc <_vprint+0x26>
ffffffc05040c7c2:	001f6797          	auipc	a5,0x1f6
ffffffc05040c7c6:	81e78793          	addi	a5,a5,-2018 # ffffffc050601fe0 <current_running_core0>
ffffffc05040c7ca:	a029                	j	ffffffc05040c7d4 <_vprint+0x2e>
ffffffc05040c7cc:	001f6797          	auipc	a5,0x1f6
ffffffc05040c7d0:	80c78793          	addi	a5,a5,-2036 # ffffffc050601fd8 <current_running_core1>
ffffffc05040c7d4:	007f5717          	auipc	a4,0x7f5
ffffffc05040c7d8:	ebc70713          	addi	a4,a4,-324 # ffffffc050c01690 <current_running>
ffffffc05040c7dc:	e31c                	sd	a5,0(a4)
ffffffc05040c7de:	ed043783          	ld	a5,-304(s0)
ffffffc05040c7e2:	fef43023          	sd	a5,-32(s0)
ffffffc05040c7e6:	fe043703          	ld	a4,-32(s0)
ffffffc05040c7ea:	ee040793          	addi	a5,s0,-288
ffffffc05040c7ee:	86ba                	mv	a3,a4
ffffffc05040c7f0:	ed843603          	ld	a2,-296(s0)
ffffffc05040c7f4:	10000593          	li	a1,256
ffffffc05040c7f8:	853e                	mv	a0,a5
ffffffc05040c7fa:	c69ff0ef          	jal	ra,ffffffc05040c462 <mini_vsnprintf>
ffffffc05040c7fe:	87aa                	mv	a5,a0
ffffffc05040c800:	fef42423          	sw	a5,-24(s0)
ffffffc05040c804:	fe842783          	lw	a5,-24(s0)
ffffffc05040c808:	ff040713          	addi	a4,s0,-16
ffffffc05040c80c:	97ba                	add	a5,a5,a4
ffffffc05040c80e:	ee078823          	sb	zero,-272(a5)
ffffffc05040c812:	8a7f30ef          	jal	ra,ffffffc0504000b8 <disable_preempt>
ffffffc05040c816:	ee040793          	addi	a5,s0,-288
ffffffc05040c81a:	ec843703          	ld	a4,-312(s0)
ffffffc05040c81e:	853e                	mv	a0,a5
ffffffc05040c820:	9702                	jalr	a4
ffffffc05040c822:	fe042623          	sw	zero,-20(s0)
ffffffc05040c826:	a031                	j	ffffffc05040c832 <_vprint+0x8c>
ffffffc05040c828:	fec42783          	lw	a5,-20(s0)
ffffffc05040c82c:	2785                	addiw	a5,a5,1
ffffffc05040c82e:	fef42623          	sw	a5,-20(s0)
ffffffc05040c832:	fec42703          	lw	a4,-20(s0)
ffffffc05040c836:	fe842783          	lw	a5,-24(s0)
ffffffc05040c83a:	2701                	sext.w	a4,a4
ffffffc05040c83c:	2781                	sext.w	a5,a5
ffffffc05040c83e:	fef745e3          	blt	a4,a5,ffffffc05040c828 <_vprint+0x82>
ffffffc05040c842:	83ff30ef          	jal	ra,ffffffc050400080 <enable_preempt>
ffffffc05040c846:	fe842783          	lw	a5,-24(s0)
ffffffc05040c84a:	853e                	mv	a0,a5
ffffffc05040c84c:	70f2                	ld	ra,312(sp)
ffffffc05040c84e:	7452                	ld	s0,304(sp)
ffffffc05040c850:	6131                	addi	sp,sp,320
ffffffc05040c852:	8082                	ret

ffffffc05040c854 <vprintk>:
ffffffc05040c854:	1101                	addi	sp,sp,-32
ffffffc05040c856:	ec06                	sd	ra,24(sp)
ffffffc05040c858:	e822                	sd	s0,16(sp)
ffffffc05040c85a:	1000                	addi	s0,sp,32
ffffffc05040c85c:	fea43423          	sd	a0,-24(s0)
ffffffc05040c860:	feb43023          	sd	a1,-32(s0)
ffffffc05040c864:	ffff4617          	auipc	a2,0xffff4
ffffffc05040c868:	a2e60613          	addi	a2,a2,-1490 # ffffffc050400292 <port_write>
ffffffc05040c86c:	fe043583          	ld	a1,-32(s0)
ffffffc05040c870:	fe843503          	ld	a0,-24(s0)
ffffffc05040c874:	f33ff0ef          	jal	ra,ffffffc05040c7a6 <_vprint>
ffffffc05040c878:	87aa                	mv	a5,a0
ffffffc05040c87a:	853e                	mv	a0,a5
ffffffc05040c87c:	60e2                	ld	ra,24(sp)
ffffffc05040c87e:	6442                	ld	s0,16(sp)
ffffffc05040c880:	6105                	addi	sp,sp,32
ffffffc05040c882:	8082                	ret

ffffffc05040c884 <printk>:
ffffffc05040c884:	7159                	addi	sp,sp,-112
ffffffc05040c886:	f406                	sd	ra,40(sp)
ffffffc05040c888:	f022                	sd	s0,32(sp)
ffffffc05040c88a:	1800                	addi	s0,sp,48
ffffffc05040c88c:	fca43c23          	sd	a0,-40(s0)
ffffffc05040c890:	e40c                	sd	a1,8(s0)
ffffffc05040c892:	e810                	sd	a2,16(s0)
ffffffc05040c894:	ec14                	sd	a3,24(s0)
ffffffc05040c896:	f018                	sd	a4,32(s0)
ffffffc05040c898:	f41c                	sd	a5,40(s0)
ffffffc05040c89a:	03043823          	sd	a6,48(s0)
ffffffc05040c89e:	03143c23          	sd	a7,56(s0)
ffffffc05040c8a2:	fe042623          	sw	zero,-20(s0)
ffffffc05040c8a6:	04040793          	addi	a5,s0,64
ffffffc05040c8aa:	fcf43823          	sd	a5,-48(s0)
ffffffc05040c8ae:	fd043783          	ld	a5,-48(s0)
ffffffc05040c8b2:	fc878793          	addi	a5,a5,-56
ffffffc05040c8b6:	fef43023          	sd	a5,-32(s0)
ffffffc05040c8ba:	fe043783          	ld	a5,-32(s0)
ffffffc05040c8be:	85be                	mv	a1,a5
ffffffc05040c8c0:	fd843503          	ld	a0,-40(s0)
ffffffc05040c8c4:	f91ff0ef          	jal	ra,ffffffc05040c854 <vprintk>
ffffffc05040c8c8:	87aa                	mv	a5,a0
ffffffc05040c8ca:	fef42623          	sw	a5,-20(s0)
ffffffc05040c8ce:	fec42783          	lw	a5,-20(s0)
ffffffc05040c8d2:	853e                	mv	a0,a5
ffffffc05040c8d4:	70a2                	ld	ra,40(sp)
ffffffc05040c8d6:	7402                	ld	s0,32(sp)
ffffffc05040c8d8:	6165                	addi	sp,sp,112
ffffffc05040c8da:	8082                	ret

ffffffc05040c8dc <vprints>:
ffffffc05040c8dc:	1101                	addi	sp,sp,-32
ffffffc05040c8de:	ec06                	sd	ra,24(sp)
ffffffc05040c8e0:	e822                	sd	s0,16(sp)
ffffffc05040c8e2:	1000                	addi	s0,sp,32
ffffffc05040c8e4:	fea43423          	sd	a0,-24(s0)
ffffffc05040c8e8:	feb43023          	sd	a1,-32(s0)
ffffffc05040c8ec:	ffff6617          	auipc	a2,0xffff6
ffffffc05040c8f0:	13a60613          	addi	a2,a2,314 # ffffffc050402a26 <screen_write>
ffffffc05040c8f4:	fe043583          	ld	a1,-32(s0)
ffffffc05040c8f8:	fe843503          	ld	a0,-24(s0)
ffffffc05040c8fc:	eabff0ef          	jal	ra,ffffffc05040c7a6 <_vprint>
ffffffc05040c900:	87aa                	mv	a5,a0
ffffffc05040c902:	853e                	mv	a0,a5
ffffffc05040c904:	60e2                	ld	ra,24(sp)
ffffffc05040c906:	6442                	ld	s0,16(sp)
ffffffc05040c908:	6105                	addi	sp,sp,32
ffffffc05040c90a:	8082                	ret

ffffffc05040c90c <prints>:
ffffffc05040c90c:	7159                	addi	sp,sp,-112
ffffffc05040c90e:	f406                	sd	ra,40(sp)
ffffffc05040c910:	f022                	sd	s0,32(sp)
ffffffc05040c912:	1800                	addi	s0,sp,48
ffffffc05040c914:	fca43c23          	sd	a0,-40(s0)
ffffffc05040c918:	e40c                	sd	a1,8(s0)
ffffffc05040c91a:	e810                	sd	a2,16(s0)
ffffffc05040c91c:	ec14                	sd	a3,24(s0)
ffffffc05040c91e:	f018                	sd	a4,32(s0)
ffffffc05040c920:	f41c                	sd	a5,40(s0)
ffffffc05040c922:	03043823          	sd	a6,48(s0)
ffffffc05040c926:	03143c23          	sd	a7,56(s0)
ffffffc05040c92a:	fe042623          	sw	zero,-20(s0)
ffffffc05040c92e:	d04f60ef          	jal	ra,ffffffc050402e32 <kernel_screen_scroll_check>
ffffffc05040c932:	04040793          	addi	a5,s0,64
ffffffc05040c936:	fcf43823          	sd	a5,-48(s0)
ffffffc05040c93a:	fd043783          	ld	a5,-48(s0)
ffffffc05040c93e:	fc878793          	addi	a5,a5,-56
ffffffc05040c942:	fef43023          	sd	a5,-32(s0)
ffffffc05040c946:	fe043783          	ld	a5,-32(s0)
ffffffc05040c94a:	85be                	mv	a1,a5
ffffffc05040c94c:	fd843503          	ld	a0,-40(s0)
ffffffc05040c950:	f8dff0ef          	jal	ra,ffffffc05040c8dc <vprints>
ffffffc05040c954:	87aa                	mv	a5,a0
ffffffc05040c956:	fef42623          	sw	a5,-20(s0)
ffffffc05040c95a:	fec42783          	lw	a5,-20(s0)
ffffffc05040c95e:	853e                	mv	a0,a5
ffffffc05040c960:	70a2                	ld	ra,40(sp)
ffffffc05040c962:	7402                	ld	s0,32(sp)
ffffffc05040c964:	6165                	addi	sp,sp,112
ffffffc05040c966:	8082                	ret

ffffffc05040c968 <get_elf_file>:
ffffffc05040c968:	7139                	addi	sp,sp,-64
ffffffc05040c96a:	fc06                	sd	ra,56(sp)
ffffffc05040c96c:	f822                	sd	s0,48(sp)
ffffffc05040c96e:	0080                	addi	s0,sp,64
ffffffc05040c970:	fca43c23          	sd	a0,-40(s0)
ffffffc05040c974:	fcb43823          	sd	a1,-48(s0)
ffffffc05040c978:	fcc43423          	sd	a2,-56(s0)
ffffffc05040c97c:	fe042623          	sw	zero,-20(s0)
ffffffc05040c980:	a895                	j	ffffffc05040c9f4 <get_elf_file+0x8c>
ffffffc05040c982:	00065697          	auipc	a3,0x65
ffffffc05040c986:	c6668693          	addi	a3,a3,-922 # ffffffc0504715e8 <elf_files>
ffffffc05040c98a:	fec42703          	lw	a4,-20(s0)
ffffffc05040c98e:	87ba                	mv	a5,a4
ffffffc05040c990:	0786                	slli	a5,a5,0x1
ffffffc05040c992:	97ba                	add	a5,a5,a4
ffffffc05040c994:	078e                	slli	a5,a5,0x3
ffffffc05040c996:	97b6                	add	a5,a5,a3
ffffffc05040c998:	639c                	ld	a5,0(a5)
ffffffc05040c99a:	fd843583          	ld	a1,-40(s0)
ffffffc05040c99e:	853e                	mv	a0,a5
ffffffc05040c9a0:	d80ff0ef          	jal	ra,ffffffc05040bf20 <kstrcmp>
ffffffc05040c9a4:	87aa                	mv	a5,a0
ffffffc05040c9a6:	e3b1                	bnez	a5,ffffffc05040c9ea <get_elf_file+0x82>
ffffffc05040c9a8:	00065697          	auipc	a3,0x65
ffffffc05040c9ac:	c4068693          	addi	a3,a3,-960 # ffffffc0504715e8 <elf_files>
ffffffc05040c9b0:	fec42703          	lw	a4,-20(s0)
ffffffc05040c9b4:	87ba                	mv	a5,a4
ffffffc05040c9b6:	0786                	slli	a5,a5,0x1
ffffffc05040c9b8:	97ba                	add	a5,a5,a4
ffffffc05040c9ba:	078e                	slli	a5,a5,0x3
ffffffc05040c9bc:	97b6                	add	a5,a5,a3
ffffffc05040c9be:	6798                	ld	a4,8(a5)
ffffffc05040c9c0:	fd043783          	ld	a5,-48(s0)
ffffffc05040c9c4:	e398                	sd	a4,0(a5)
ffffffc05040c9c6:	00065697          	auipc	a3,0x65
ffffffc05040c9ca:	c2268693          	addi	a3,a3,-990 # ffffffc0504715e8 <elf_files>
ffffffc05040c9ce:	fec42703          	lw	a4,-20(s0)
ffffffc05040c9d2:	87ba                	mv	a5,a4
ffffffc05040c9d4:	0786                	slli	a5,a5,0x1
ffffffc05040c9d6:	97ba                	add	a5,a5,a4
ffffffc05040c9d8:	078e                	slli	a5,a5,0x3
ffffffc05040c9da:	97b6                	add	a5,a5,a3
ffffffc05040c9dc:	6b9c                	ld	a5,16(a5)
ffffffc05040c9de:	4398                	lw	a4,0(a5)
ffffffc05040c9e0:	fc843783          	ld	a5,-56(s0)
ffffffc05040c9e4:	c398                	sw	a4,0(a5)
ffffffc05040c9e6:	4785                	li	a5,1
ffffffc05040c9e8:	a831                	j	ffffffc05040ca04 <get_elf_file+0x9c>
ffffffc05040c9ea:	fec42783          	lw	a5,-20(s0)
ffffffc05040c9ee:	2785                	addiw	a5,a5,1
ffffffc05040c9f0:	fef42623          	sw	a5,-20(s0)
ffffffc05040c9f4:	fec42783          	lw	a5,-20(s0)
ffffffc05040c9f8:	0007871b          	sext.w	a4,a5
ffffffc05040c9fc:	479d                	li	a5,7
ffffffc05040c9fe:	f8e7d2e3          	bge	a5,a4,ffffffc05040c982 <get_elf_file+0x1a>
ffffffc05040ca02:	4781                	li	a5,0
ffffffc05040ca04:	853e                	mv	a0,a5
ffffffc05040ca06:	70e2                	ld	ra,56(sp)
ffffffc05040ca08:	7442                	ld	s0,48(sp)
ffffffc05040ca0a:	6121                	addi	sp,sp,64
ffffffc05040ca0c:	8082                	ret
